libapt-pkg.so.4.12 libapt-pkg4.12 #MINVER#
* Build-Depends-Package: libapt-pkg-dev
 TFRewritePackageOrder@Base 0.8.0
 TFRewriteSourceOrder@Base 0.8.0
 _Z10FileExistsSs@Base 0.8.0
 _Z10GetTempDirv@Base 0.9.14.2
 _Z10IdentCdromSsRSsj@Base 0.8.0
 _Z10ListUpdateR16pkgAcquireStatusR13pkgSourceListi@Base 0.8.0
 _Z10MountCdromSsSs@Base 0.8.0
 _Z10ParseCWordRPKcRSs@Base 0.8.0
 _Z10ReadPinDirR9pkgPolicySs@Base 0.8.0
 _Z10RunScriptsPKc@Base 0.8.0
 _Z10SHA256_EndP11_SHA256_CTXPc@Base 0.8.16~exp2
 _Z10SHA384_EndP11_SHA512_CTXPc@Base 0.8.16~exp2
 _Z10SHA512_EndP11_SHA512_CTXPc@Base 0.8.16~exp2
 _Z10SafeGetCWDv@Base 0.8.0
 _Z10StripEpochRKSs@Base 0.8.11
 _Z10_strrstripPc@Base 0.9.7.9~exp2
 _Z10parsenetrcPcS_S_S_@Base 0.8.0
 _Z11QuoteStringRKSsPKc@Base 0.8.0
 _Z11ReadPinFileR9pkgPolicySs@Base 0.8.0
 _Z11RegexChoiceP12RxChoiceListPPKcS3_@Base 0.8.0
 _Z11SHA256_DataPKhjPc@Base 0.8.16~exp2
 _Z11SHA256_InitP11_SHA256_CTX@Base 0.8.16~exp2
 _Z11SHA384_DataPKhjPc@Base 0.8.16~exp2
 _Z11SHA384_InitP11_SHA512_CTX@Base 0.8.16~exp2
 _Z11SHA512_DataPKhjPc@Base 0.8.16~exp2
 _Z11SHA512_InitP11_SHA512_CTX@Base 0.8.16~exp2
 _Z11SetNonBlockib@Base 0.8.0
 _Z11StringSplitRKSsS0_j@Base 0.9.11.3
 _Z11TimeRFC1123l@Base 0.8.0
 _Z11flExtensionSs@Base 0.8.0
 _Z11strv_lengthPPKc@Base 0.9.11
 _Z12Base256ToNumPKcRmj@Base 0.8.11
 _Z12Base64EncodeRKSs@Base 0.8.0
 _Z12ReadMessagesiRSt6vectorISsSaISsEE@Base 0.8.0
 _Z12SHA256_FinalPhP11_SHA256_CTX@Base 0.8.16~exp2
 _Z12SHA384_FinalPhP11_SHA512_CTX@Base 0.8.16~exp2
 _Z12SHA512_FinalPhP11_SHA512_CTX@Base 0.8.16~exp2
 _Z12SetCloseExecib@Base 0.8.0
 _Z12StringToBoolRKSsi@Base 0.8.0
 _Z12UnmountCdromSs@Base 0.8.0
 _Z12_GetErrorObjv@Base 0.8.0
 _Z12pkgFixBrokenR11pkgDepCache@Base 0.8.0
 _Z13AcquireUpdateR10pkgAcquireibb@Base 0.9.3
 _Z13DeQuoteStringRKN9__gnu_cxx17__normal_iteratorIPKcSsEES5_@Base 0.8.0
 _Z13DeQuoteStringRKSs@Base 0.8.0
 _Z13OutputInDepthmPKc@Base 0.8.0
 _Z13ReadConfigDirR13ConfigurationRKSsRKbRKj@Base 0.8.0
 _Z13SHA256_UpdateP11_SHA256_CTXPKhj@Base 0.8.16~exp2
 _Z13SHA384_UpdateP11_SHA512_CTXPKhj@Base 0.8.16~exp2
 _Z13SHA512_UpdateP11_SHA512_CTXPKhj@Base 0.8.16~exp2
 _Z13URItoFileNameRKSs@Base 0.8.0
 _Z13UTF8ToCodesetPKcRKSsPSs@Base 0.8.0
 _Z13_strtabexpandPcj@Base 0.8.0
 _Z13pkgAllUpgradeR11pkgDepCache@Base 0.8.0
 _Z13pkgInitConfigR13Configuration@Base 0.8.0
 _Z13pkgInitSystemR13ConfigurationRP9pkgSystem@Base 0.8.0
 _Z13safe_snprintfPcS_PKcz@Base 0.8.0
 _Z13stringcasecmpN9__gnu_cxx17__normal_iteratorIPKcSsEES3_S2_S2_@Base 0.8.0
 _Z13stringcasecmpN9__gnu_cxx17__normal_iteratorIPKcSsEES3_S3_S3_@Base 0.8.0
 _Z13stringcasecmpPKcS0_S0_S0_@Base 0.8.0
 _Z13stringcasecmpRKSsPKc@Base 0.8.0
 _Z13tolower_asciii@Base 0.8.0
 _Z14DeEscapeStringRKSs@Base 0.8.15.4
 _Z14ParseQuoteWordRPKcRSs@Base 0.8.0
 _Z14ReadConfigFileR13ConfigurationRKSsRKbRKj@Base 0.8.0
 _Z14RealFileExistsSs@Base 0.8.11
 _Z14TokSplitStringcPcPS_m@Base 0.8.0
 _Z14maybe_add_authR3URISs@Base 0.8.0
 _Z14pkgApplyStatusR11pkgDepCache@Base 0.8.0
 _Z14pkgDistUpgradeR11pkgDepCache@Base 0.8.0
 _Z15AutoDetectProxyR3URI@Base 1.0.9.8.4
 _Z15CheckDomainListRKSsS0_@Base 0.8.0
 _Z15CreateDirectoryRKSsS0_@Base 0.8.0
 _Z15DirectoryExistsRKSs@Base 0.8.0
 _Z15VectorizeStringRKSsRKc@Base 0.8.0
 _Z15pkgPrioSortListR8pkgCachePPNS_7VersionE@Base 0.8.0
 _Z16FTPMDTMStrToTimePKcRl@Base 0.8.0
 _Z16RFC1123StrToTimePKcRl@Base 0.8.0
 _Z18pkgMakeStatusCacheR13pkgSourceListR10OpProgressPP4MMapb@Base 0.8.0
 _Z18pkgMinimizeUpgradeR11pkgDepCache@Base 0.8.0
 _Z19GetListOfFilesInDirRKSsRKSt6vectorISsSaISsEERKb@Base 0.8.0
 _Z19GetListOfFilesInDirRKSsS0_RKbS2_@Base 0.8.0
 _Z19GetListOfFilesInDirRKSsb@Base 0.8.16~exp13
 _Z19GetModificationTimeRKSs@Base 0.8.15.6
 _Z20SplitClearSignedFileRKSsP6FileFdPSt6vectorISsSaISsEES2_@Base 0.9.7.9~exp2
 _Z22pkgMakeOnlyStatusCacheR10OpProgressPP11DynamicMMap@Base 0.8.0
 _Z23FindMountPointForDevicePKc@Base 0.8.12
 _Z24OpenMaybeClearSignedFileRKSsR6FileFd@Base 0.9.7.9~exp2
 _Z26CreateAPTDirectoryIfNeededRKSsS0_@Base 0.8.2
 _Z29MergeKeepFdsFromConfigurationRSt3setIiSt4lessIiESaIiEE@Base 0.9.13.1
 _Z4GlobRKSsi@Base 0.9.11
 _Z6RenameSsSs@Base 0.9.16
 _Z6SigINTi@Base 0.8.16~exp14
 _Z6WaitFdibm@Base 0.8.0
 _Z7GetLockSsb@Base 0.8.0
 _Z7Hex2NumRKSsPhj@Base 0.8.0
 _Z8AddCRC16tPKvy@Base 0.8.16~exp2
 _Z8CopyFileR6FileFdS0_@Base 0.8.0
 _Z8ExecForkSt3setIiSt4lessIiESaIiEE@Base 0.9.13.1
 _Z8ExecForkv@Base 0.8.0
 _Z8ExecGPGVRKSsS0_RKiPi@Base 0.9.7.9~exp2
 _Z8ExecWaitiPKcb@Base 0.8.0
 _Z8StrToNumPKcRmjj@Base 0.8.0
 _Z8StrToNumPKcRyjj@Base 0.8.16~exp6
 _Z8SubstVarRKSsS0_S0_@Base 0.8.0
 _Z8SubstVarSsPK8SubstVar@Base 0.8.0
 _Z8flNoLinkSs@Base 0.8.0
 _Z8flNotDirSs@Base 0.8.0
 _Z8ioprintfRSoPKcz@Base 0.8.0
 _Z9IsMountedRSs@Base 0.8.0
 _Z9LookupTagRKSsPKcS2_@Base 0.8.0
 _Z9SizeToStrd@Base 0.8.0
 _Z9StrToTimeRKSsRl@Base 0.8.0
 _Z9TFRewriteP8_IO_FILERK13pkgTagSectionPPKcP13TFRewriteData@Base 0.8.0
 _Z9TimeToStrm@Base 0.8.0
 _Z9_strstripPc@Base 0.8.0
 _Z9flCombineSsSs@Base 0.8.0
 _Z9flNotFileSs@Base 0.8.0
 _Z9stringcmpN9__gnu_cxx17__normal_iteratorIPKcSsEES3_S2_S2_@Base 0.8.0
 _Z9stringcmpN9__gnu_cxx17__normal_iteratorIPKcSsEES3_S3_S3_@Base 0.8.0
 _Z9stringcmpPKcS0_S0_S0_@Base 0.8.0
 _Z9strprintfRSsPKcz@Base 0.8.0
 _ZGVN17pkgCacheGenerator7DynamicIN8pkgCache11DepIteratorEE7toReMapE@Base 0.8.0
 _ZGVN17pkgCacheGenerator7DynamicIN8pkgCache11GrpIteratorEE7toReMapE@Base 0.8.0
 _ZGVN17pkgCacheGenerator7DynamicIN8pkgCache11PkgIteratorEE7toReMapE@Base 0.8.0
 _ZGVN17pkgCacheGenerator7DynamicIN8pkgCache11PrvIteratorEE7toReMapE@Base 0.8.0
 _ZGVN17pkgCacheGenerator7DynamicIN8pkgCache11VerIteratorEE7toReMapE@Base 0.8.0
 _ZGVN17pkgCacheGenerator7DynamicIN8pkgCache12DescIteratorEE7toReMapE@Base 0.8.0
 _ZGVN17pkgCacheGenerator7DynamicIN8pkgCache15PkgFileIteratorEE7toReMapE@Base 0.8.0
 _ZN10HashString15SupportedHashesEv@Base 0.8.0
 _ZN10HashString16_SupportedHashesE@Base 0.8.0
 _ZN10HashString8FromFileESs@Base 0.9.13.1
 _ZN10HashStringC1ESs@Base 0.8.0
 _ZN10HashStringC1ESsSs@Base 0.8.0
 _ZN10HashStringC1Ev@Base 0.8.0
 _ZN10HashStringC2ESs@Base 0.8.0
 _ZN10HashStringC2ESsSs@Base 0.8.0
 _ZN10HashStringC2Ev@Base 0.8.0
 _ZN10HashStringD1Ev@Base 0.8.0
 _ZN10HashStringD2Ev@Base 0.8.0
 _ZN10OpProgress11CheckChangeEf@Base 0.8.0
 _ZN10OpProgress11SubProgressEyRKSsf@Base 0.8.16~exp6
 _ZN10OpProgress15OverallProgressEyyyRKSs@Base 0.8.16~exp6
 _ZN10OpProgress4DoneEv@Base 0.8.0
 _ZN10OpProgress6UpdateEv@Base 0.8.0
 _ZN10OpProgress8ProgressEy@Base 0.8.16~exp6
 _ZN10OpProgressC1Ev@Base 0.8.0
 _ZN10OpProgressC2Ev@Base 0.8.0
 _ZN10OpProgressD0Ev@Base 0.8.0
 _ZN10OpProgressD1Ev@Base 0.8.0
 _ZN10OpProgressD2Ev@Base 0.8.0
 _ZN10SourceCopy11GetFileNameEv@Base 0.8.0
 _ZN10SourceCopy12RewriteEntryEP8_IO_FILESs@Base 0.8.0
 _ZN10SourceCopy4TypeEv@Base 0.8.0
 _ZN10SourceCopy7GetFileERSsRy@Base 0.8.16~exp6
 _ZN10SourceCopyD0Ev@Base 0.8.0
 _ZN10SourceCopyD1Ev@Base 0.8.0
 _ZN10SourceCopyD2Ev@Base 0.8.0
 _ZN10edspIFTypeD0Ev@Base 0.8.16~exp2
 _ZN10edspIFTypeD1Ev@Base 0.8.16~exp2
 _ZN10edspIFTypeD2Ev@Base 0.8.16~exp2
 _ZN10edspSystem10InitializeER13Configuration@Base 0.8.16~exp2
 _ZN10edspSystem14AddStatusFilesERSt6vectorIP12pkgIndexFileSaIS2_EE@Base 0.8.16~exp2
 _ZN10edspSystem16ArchiveSupportedEPKc@Base 0.8.16~exp2
 _ZN10edspSystem4LockEv@Base 0.8.16~exp2
 _ZN10edspSystem5ScoreERK13Configuration@Base 0.8.16~exp2
 _ZN10edspSystem6UnLockEb@Base 0.8.16~exp2
 _ZN10edspSystemC1Ev@Base 0.8.16~exp2
 _ZN10edspSystemC2Ev@Base 0.8.16~exp2
 _ZN10edspSystemD0Ev@Base 0.8.16~exp2
 _ZN10edspSystemD1Ev@Base 0.8.16~exp2
 _ZN10edspSystemD2Ev@Base 0.8.16~exp2
 _ZN10pkgAcqFile16Custom600HeadersEv@Base 0.8.0
 _ZN10pkgAcqFile4DoneESsySsPN10pkgAcquire12MethodConfigE@Base 0.8.16~exp6
 _ZN10pkgAcqFile6FailedESsPN10pkgAcquire12MethodConfigE@Base 0.8.0
 _ZN10pkgAcqFile7DescURIEv@Base 0.8.0
 _ZN10pkgAcqFile7HashSumEv@Base 0.8.0
 _ZN10pkgAcqFileC1EP10pkgAcquireSsSsySsSsRKSsS3_b@Base 0.8.16~exp6
 _ZN10pkgAcqFileC2EP10pkgAcquireSsSsySsSsRKSsS3_b@Base 0.8.16~exp6
 _ZN10pkgAcqFileD0Ev@Base 0.8.0
 _ZN10pkgAcqFileD1Ev@Base 0.8.0
 _ZN10pkgAcqFileD2Ev@Base 0.8.0
 _ZN10pkgAcquire10WorkerStepEPNS_6WorkerE@Base 0.8.0
 _ZN10pkgAcquire11FetchNeededEv@Base 0.8.0
 _ZN10pkgAcquire11TotalNeededEv@Base 0.8.0
 _ZN10pkgAcquire11UriIteratorD0Ev@Base 0.8.16~exp6
 _ZN10pkgAcquire11UriIteratorD1Ev@Base 0.8.16~exp6
 _ZN10pkgAcquire11UriIteratorD2Ev@Base 0.8.16~exp6
 _ZN10pkgAcquire12MethodConfigC1Ev@Base 0.8.0
 _ZN10pkgAcquire12MethodConfigC2Ev@Base 0.8.0
 _ZN10pkgAcquire12MethodConfigD0Ev@Base 0.8.16~exp6
 _ZN10pkgAcquire12MethodConfigD1Ev@Base 0.8.16~exp6
 _ZN10pkgAcquire12MethodConfigD2Ev@Base 0.8.16~exp6
 _ZN10pkgAcquire14PartialPresentEv@Base 0.8.0
 _ZN10pkgAcquire3AddEPNS_4ItemE@Base 0.8.0
 _ZN10pkgAcquire3AddEPNS_6WorkerE@Base 0.8.0
 _ZN10pkgAcquire3RunEi@Base 0.8.0
 _ZN10pkgAcquire4BumpEv@Base 0.8.0
 _ZN10pkgAcquire4Item13RenameOnErrorENS0_18RenameOnErrorStateE@Base 0.9.12
 _ZN10pkgAcquire4Item16Custom600HeadersEv@Base 0.8.0
 _ZN10pkgAcquire4Item19ReportMirrorFailureESs@Base 0.8.0
 _ZN10pkgAcquire4Item4DoneESsySsPNS_12MethodConfigE@Base 0.8.16~exp6
 _ZN10pkgAcquire4Item5StartESsy@Base 0.8.16~exp6
 _ZN10pkgAcquire4Item6FailedESsPNS_12MethodConfigE@Base 0.8.0
 _ZN10pkgAcquire4Item6RenameESsSs@Base 0.8.0
 _ZN10pkgAcquire4Item7HashSumEv@Base 0.8.0
 _ZN10pkgAcquire4Item8FinishedEv@Base 0.8.0
 _ZN10pkgAcquire4Item9IsTrustedEv@Base 0.8.0
 _ZN10pkgAcquire4Item9ShortDescEv@Base 0.8.0
 _ZN10pkgAcquire4ItemC1EPS_@Base 0.8.0
 _ZN10pkgAcquire4ItemC2EPS_@Base 0.8.0
 _ZN10pkgAcquire4ItemD0Ev@Base 0.8.0
 _ZN10pkgAcquire4ItemD1Ev@Base 0.8.0
 _ZN10pkgAcquire4ItemD2Ev@Base 0.8.0
 _ZN10pkgAcquire5CleanESs@Base 0.8.0
 _ZN10pkgAcquire5Queue4BumpEv@Base 0.8.0
 _ZN10pkgAcquire5Queue5CycleEv@Base 0.8.0
 _ZN10pkgAcquire5Queue7DequeueEPNS_4ItemE@Base 0.8.0
 _ZN10pkgAcquire5Queue7EnqueueERNS_8ItemDescE@Base 0.8.0
 _ZN10pkgAcquire5Queue7StartupEv@Base 0.8.0
 _ZN10pkgAcquire5Queue8FindItemESsPNS_6WorkerE@Base 0.8.0
 _ZN10pkgAcquire5Queue8ItemDoneEPNS0_5QItemE@Base 0.8.0
 _ZN10pkgAcquire5Queue8ShutdownEb@Base 0.8.0
 _ZN10pkgAcquire5QueueC1ESsPS_@Base 0.8.0
 _ZN10pkgAcquire5QueueC2ESsPS_@Base 0.8.0
 _ZN10pkgAcquire5QueueD0Ev@Base 0.8.0
 _ZN10pkgAcquire5QueueD1Ev@Base 0.8.0
 _ZN10pkgAcquire5QueueD2Ev@Base 0.8.0
 _ZN10pkgAcquire5SetupEP16pkgAcquireStatusRKSs@Base 0.8.0
 _ZN10pkgAcquire6RemoveEPNS_4ItemE@Base 0.8.0
 _ZN10pkgAcquire6RemoveEPNS_6WorkerE@Base 0.8.0
 _ZN10pkgAcquire6RunFdsEP6fd_setS1_@Base 0.8.0
 _ZN10pkgAcquire6SetFdsERiP6fd_setS2_@Base 0.8.0
 _ZN10pkgAcquire6UriEndEv@Base 0.8.0
 _ZN10pkgAcquire6Worker10OutFdReadyEv@Base 0.8.0
 _ZN10pkgAcquire6Worker11MediaChangeESs@Base 0.8.0
 _ZN10pkgAcquire6Worker11RunMessagesEv@Base 0.8.0
 _ZN10pkgAcquire6Worker12CapabilitiesESs@Base 0.8.0
 _ZN10pkgAcquire6Worker12ReadMessagesEv@Base 0.8.0
 _ZN10pkgAcquire6Worker13MethodFailureEv@Base 0.8.0
 _ZN10pkgAcquire6Worker17SendConfigurationEv@Base 0.8.0
 _ZN10pkgAcquire6Worker5PulseEv@Base 0.8.0
 _ZN10pkgAcquire6Worker5StartEv@Base 0.8.0
 _ZN10pkgAcquire6Worker8ItemDoneEv@Base 0.8.0
 _ZN10pkgAcquire6Worker9ConstructEv@Base 0.8.0
 _ZN10pkgAcquire6Worker9InFdReadyEv@Base 0.8.0
 _ZN10pkgAcquire6Worker9QueueItemEPNS_5Queue5QItemE@Base 0.8.0
 _ZN10pkgAcquire6WorkerC1EPNS_12MethodConfigE@Base 0.8.0
 _ZN10pkgAcquire6WorkerC1EPNS_5QueueEPNS_12MethodConfigEP16pkgAcquireStatus@Base 0.8.0
 _ZN10pkgAcquire6WorkerC2EPNS_12MethodConfigE@Base 0.8.0
 _ZN10pkgAcquire6WorkerC2EPNS_5QueueEPNS_12MethodConfigEP16pkgAcquireStatus@Base 0.8.0
 _ZN10pkgAcquire6WorkerD0Ev@Base 0.8.0
 _ZN10pkgAcquire6WorkerD1Ev@Base 0.8.0
 _ZN10pkgAcquire6WorkerD2Ev@Base 0.8.0
 _ZN10pkgAcquire7DequeueEPNS_4ItemE@Base 0.8.0
 _ZN10pkgAcquire7EnqueueERNS_8ItemDescE@Base 0.8.0
 _ZN10pkgAcquire8ItemDescD1Ev@Base 0.8.0
 _ZN10pkgAcquire8ItemDescD2Ev@Base 0.8.0
 _ZN10pkgAcquire8ShutdownEv@Base 0.8.0
 _ZN10pkgAcquire8UriBeginEv@Base 0.8.0
 _ZN10pkgAcquire9GetConfigESs@Base 0.8.0
 _ZN10pkgAcquire9QueueNameESsRPKNS_12MethodConfigE@Base 0.8.0
 _ZN10pkgAcquireC1EP16pkgAcquireStatus@Base 0.8.0
 _ZN10pkgAcquireC1Ev@Base 0.8.0
 _ZN10pkgAcquireC2EP16pkgAcquireStatus@Base 0.8.0
 _ZN10pkgAcquireC2Ev@Base 0.8.0
 _ZN10pkgAcquireD0Ev@Base 0.8.0
 _ZN10pkgAcquireD1Ev@Base 0.8.0
 _ZN10pkgAcquireD2Ev@Base 0.8.0
 _ZN10pkgRecords6LookupERKN8pkgCache15VerFileIteratorE@Base 0.8.0
 _ZN10pkgRecords6LookupERKN8pkgCache16DescFileIteratorE@Base 0.8.0
 _ZN10pkgRecords6Parser10MaintainerEv@Base 0.8.0
 _ZN10pkgRecords6Parser10SHA256HashEv@Base 0.8.0
 _ZN10pkgRecords6Parser10SHA512HashEv@Base 0.8.16~exp6
 _ZN10pkgRecords6Parser11RecordFieldEPKc@Base 0.8.16~exp6
 _ZN10pkgRecords6Parser4NameEv@Base 0.8.0
 _ZN10pkgRecords6Parser6GetRecERPKcS3_@Base 0.8.0
 _ZN10pkgRecords6Parser7MD5HashEv@Base 0.8.0
 _ZN10pkgRecords6Parser8FileNameEv@Base 0.8.0
 _ZN10pkgRecords6Parser8HomepageEv@Base 0.8.0
 _ZN10pkgRecords6Parser8LongDescEv@Base 0.8.0
 _ZN10pkgRecords6Parser8SHA1HashEv@Base 0.8.0
 _ZN10pkgRecords6Parser9ShortDescEv@Base 0.8.0
 _ZN10pkgRecords6Parser9SourcePkgEv@Base 0.8.0
 _ZN10pkgRecords6Parser9SourceVerEv@Base 0.8.0
 _ZN10pkgRecordsC1ER8pkgCache@Base 0.8.0
 _ZN10pkgRecordsC2ER8pkgCache@Base 0.8.0
 _ZN10pkgRecordsD1Ev@Base 0.8.0
 _ZN10pkgRecordsD2Ev@Base 0.8.0
 _ZN10pkgTagFile4JumpER13pkgTagSectiony@Base 0.8.16~exp6
 _ZN10pkgTagFile4StepER13pkgTagSection@Base 0.8.0
 _ZN10pkgTagFile6OffsetEv@Base 0.8.16~exp6
 _ZN10pkgTagFileC1EP6FileFdy@Base 0.8.16~exp6
 _ZN10pkgTagFileC2EP6FileFdy@Base 0.8.16~exp6
 _ZN10pkgTagFileD0Ev@Base 0.8.0
 _ZN10pkgTagFileD1Ev@Base 0.8.0
 _ZN10pkgTagFileD2Ev@Base 0.8.0
 _ZN11CdromDeviceD1Ev@Base 0.8.0
 _ZN11CdromDeviceD2Ev@Base 0.8.0
 _ZN11CommandLine10GetCommandEPKNS_8DispatchEjPKPKc@Base 0.9.11
 _ZN11CommandLine11DispatchArgEPNS_8DispatchEb@Base 0.8.0
 _ZN11CommandLine12SaveInConfigERKjPKPKc@Base 0.8.0
 _ZN11CommandLine5ParseEiPPKc@Base 0.8.0
 _ZN11CommandLine8MakeArgsEcPKcS1_m@Base 0.9.11
 _ZN11CommandLine9HandleOptERiiPPKcRS2_PNS_4ArgsEb@Base 0.8.0
 _ZN11CommandLineC1EPNS_4ArgsEP13Configuration@Base 0.8.0
 _ZN11CommandLineC2EPNS_4ArgsEP13Configuration@Base 0.8.0
 _ZN11CommandLineD1Ev@Base 0.8.0
 _ZN11CommandLineD2Ev@Base 0.8.0
 _ZN11DynamicMMap11RawAllocateEym@Base 0.8.16~exp6
 _ZN11DynamicMMap11WriteStringEPKcm@Base 0.8.0
 _ZN11DynamicMMap4GrowEv@Base 0.8.0
 _ZN11DynamicMMap8AllocateEm@Base 0.8.0
 _ZN11DynamicMMapC1ER6FileFdmRKmS3_S3_@Base 0.8.0
 _ZN11DynamicMMapC1EmRKmS1_S1_@Base 0.8.0
 _ZN11DynamicMMapC2ER6FileFdmRKmS3_S3_@Base 0.8.0
 _ZN11DynamicMMapC2EmRKmS1_S1_@Base 0.8.0
 _ZN11DynamicMMapD0Ev@Base 0.8.0
 _ZN11DynamicMMapD1Ev@Base 0.8.0
 _ZN11DynamicMMapD2Ev@Base 0.8.0
 _ZN11GlobalError10DumpErrorsERSoRKNS_7MsgTypeERKb@Base 0.8.0
 _ZN11GlobalError10PopMessageERSs@Base 0.8.0
 _ZN11GlobalError11InsertErrnoENS_7MsgTypeEPKcS2_RPciRj@Base 0.8.11.4
 _ZN11GlobalError11InsertErrnoERKNS_7MsgTypeEPKcS4_z@Base 0.8.0
 _ZN11GlobalError11PushToStackEv@Base 0.8.0
 _ZN11GlobalError13RevertToStackEv@Base 0.8.0
 _ZN11GlobalError14MergeWithStackEv@Base 0.8.0
 _ZN11GlobalError5DebugEPKcz@Base 0.8.0
 _ZN11GlobalError5ErrnoEPKcS1_z@Base 0.8.0
 _ZN11GlobalError5ErrorEPKcz@Base 0.8.0
 _ZN11GlobalError5FatalEPKcz@Base 0.8.0
 _ZN11GlobalError6DebugEEPKcS1_z@Base 0.8.0
 _ZN11GlobalError6FatalEEPKcS1_z@Base 0.8.0
 _ZN11GlobalError6InsertENS_7MsgTypeEPKcRPcRj@Base 0.8.11.4
 _ZN11GlobalError6InsertERKNS_7MsgTypeEPKcz@Base 0.8.0
 _ZN11GlobalError6NoticeEPKcz@Base 0.8.0
 _ZN11GlobalError7DiscardEv@Base 0.8.0
 _ZN11GlobalError7NoticeEEPKcS1_z@Base 0.8.0
 _ZN11GlobalError7WarningEPKcz@Base 0.8.0
 _ZN11GlobalError8WarningEEPKcS1_z@Base 0.8.0
 _ZN11GlobalErrorC1Ev@Base 0.8.0
 _ZN11GlobalErrorC2Ev@Base 0.8.0
 _ZN11PackageCopy11GetFileNameEv@Base 0.8.0
 _ZN11PackageCopy12RewriteEntryEP8_IO_FILESs@Base 0.8.0
 _ZN11PackageCopy4TypeEv@Base 0.8.0
 _ZN11PackageCopy7GetFileERSsRy@Base 0.8.16~exp6
 _ZN11PackageCopyD0Ev@Base 0.8.0
 _ZN11PackageCopyD1Ev@Base 0.8.0
 _ZN11PackageCopyD2Ev@Base 0.8.0
 _ZN11pkgAcqIndex16Custom600HeadersEv@Base 0.8.0
 _ZN11pkgAcqIndex16GetFinalFilenameERKSsS1_@Base 1.0.9.8.4
 _ZN11pkgAcqIndex16ReverifyAfterIMSERKSs@Base 1.0.9.8.4
 _ZN11pkgAcqIndex4DoneESsySsPN10pkgAcquire12MethodConfigE@Base 0.8.16~exp6
 _ZN11pkgAcqIndex4InitERKSsS1_S1_@Base 0.8.11
 _ZN11pkgAcqIndex6FailedESsPN10pkgAcquire12MethodConfigE@Base 0.8.0
 _ZN11pkgAcqIndex7DescURIEv@Base 0.8.0
 _ZN11pkgAcqIndex7HashSumEv@Base 0.8.0
 _ZN11pkgAcqIndexC1EP10pkgAcquirePK11IndexTargetRK10HashStringPK12indexRecords@Base 0.8.11
 _ZN11pkgAcqIndexC1EP10pkgAcquireSsSsSs10HashStringSs@Base 0.8.0
 _ZN11pkgAcqIndexC2EP10pkgAcquirePK11IndexTargetRK10HashStringPK12indexRecords@Base 0.8.11
 _ZN11pkgAcqIndexC2EP10pkgAcquireSsSsSs10HashStringSs@Base 0.8.0
 _ZN11pkgAcqIndexD0Ev@Base 0.8.0
 _ZN11pkgAcqIndexD1Ev@Base 0.8.0
 _ZN11pkgAcqIndexD2Ev@Base 0.8.0
 _ZN11pkgDepCache10IsDeleteOkERKN8pkgCache11PkgIteratorEbmb@Base 0.8.0
 _ZN11pkgDepCache10MarkDeleteERKN8pkgCache11PkgIteratorEbmb@Base 0.8.0
 _ZN11pkgDepCache10StateCache10StripEpochEPKc@Base 0.8.0
 _ZN11pkgDepCache10StateCache6UpdateEN8pkgCache11PkgIteratorERS1_@Base 0.8.0
 _ZN11pkgDepCache11ActionGroup7releaseEv@Base 0.8.0
 _ZN11pkgDepCache11ActionGroupC1ERS_@Base 0.8.0
 _ZN11pkgDepCache11ActionGroupC2ERS_@Base 0.8.0
 _ZN11pkgDepCache11ActionGroupD1Ev@Base 0.8.0
 _ZN11pkgDepCache11ActionGroupD2Ev@Base 0.8.0
 _ZN11pkgDepCache11IsInstallOkERKN8pkgCache11PkgIteratorEbmb@Base 0.8.0
 _ZN11pkgDepCache11MarkInstallERKN8pkgCache11PkgIteratorEbmbb@Base 0.8.0
 _ZN11pkgDepCache11MarkPackageERKN8pkgCache11PkgIteratorERKNS0_11VerIteratorERKbS8_@Base 0.8.0
 _ZN11pkgDepCache12MarkRequiredERNS_13InRootSetFuncE@Base 0.8.0
 _ZN11pkgDepCache12SetReInstallERKN8pkgCache11PkgIteratorEb@Base 0.8.0
 _ZN11pkgDepCache12VersionStateEN8pkgCache11DepIteratorEhhh@Base 0.8.0
 _ZN11pkgDepCache13BuildGroupOrsERKN8pkgCache11VerIteratorE@Base 0.8.0
 _ZN11pkgDepCache13InRootSetFunc9InRootSetERKN8pkgCache11PkgIteratorE@Base 0.8.0
 _ZN11pkgDepCache13InRootSetFuncD0Ev@Base 0.8.0
 _ZN11pkgDepCache13InRootSetFuncD1Ev@Base 0.8.0
 _ZN11pkgDepCache13InRootSetFuncD2Ev@Base 0.8.0
 _ZN11pkgDepCache13readStateFileEP10OpProgress@Base 0.8.0
 _ZN11pkgDepCache14GetRootSetFuncEv@Base 0.8.0
 _ZN11pkgDepCache14IsModeChangeOkENS_8ModeListERKN8pkgCache11PkgIteratorEmb@Base 0.8.13.2
 _ZN11pkgDepCache14UpdateVerStateEN8pkgCache11PkgIteratorE@Base 0.8.0
 _ZN11pkgDepCache14writeStateFileEP10OpProgressb@Base 0.8.0
 _ZN11pkgDepCache15DependencyStateERN8pkgCache11DepIteratorE@Base 0.8.0
 _ZN11pkgDepCache18DefaultRootSetFunc9InRootSetERKN8pkgCache11PkgIteratorE@Base 0.8.0
 _ZN11pkgDepCache18DefaultRootSetFuncD0Ev@Base 0.8.0
 _ZN11pkgDepCache18DefaultRootSetFuncD1Ev@Base 0.8.0
 _ZN11pkgDepCache18DefaultRootSetFuncD2Ev@Base 0.8.0
 _ZN11pkgDepCache19MarkFollowsSuggestsEv@Base 0.8.0
 _ZN11pkgDepCache19SetCandidateReleaseEN8pkgCache11VerIteratorERKSs@Base 0.8.11
 _ZN11pkgDepCache19SetCandidateReleaseEN8pkgCache11VerIteratorERKSsRSt4listISt4pairIS1_S1_ESaIS6_EE@Base 0.8.11
 _ZN11pkgDepCache19SetCandidateVersionEN8pkgCache11VerIteratorE@Base 0.8.16~exp6
 _ZN11pkgDepCache21MarkFollowsRecommendsEv@Base 0.8.0
 _ZN11pkgDepCache32IsDeleteOkProtectInstallRequestsERKN8pkgCache11PkgIteratorEbmb@Base 0.9.9.1
 _ZN11pkgDepCache37IsInstallOkMultiArchSameVersionSyncedERKN8pkgCache11PkgIteratorEbmb@Base 0.9.9.1
 _ZN11pkgDepCache46IsInstallOkDependenciesSatisfiableByCandidatesERKN8pkgCache11PkgIteratorEbmb@Base 1.0
 _ZN11pkgDepCache4InitEP10OpProgress@Base 0.8.0
 _ZN11pkgDepCache5SweepEv@Base 0.8.0
 _ZN11pkgDepCache6Policy11GetPriorityERKN8pkgCache11PkgIteratorE@Base 0.8.16~exp6
 _ZN11pkgDepCache6Policy11GetPriorityERKN8pkgCache15PkgFileIteratorE@Base 0.8.16~exp6
 _ZN11pkgDepCache6Policy14IsImportantDepERKN8pkgCache11DepIteratorE@Base 0.8.0
 _ZN11pkgDepCache6Policy15GetCandidateVerERKN8pkgCache11PkgIteratorE@Base 0.8.0
 _ZN11pkgDepCache6PolicyD0Ev@Base 0.8.0
 _ZN11pkgDepCache6PolicyD1Ev@Base 0.8.0
 _ZN11pkgDepCache6PolicyD2Ev@Base 0.8.0
 _ZN11pkgDepCache6UpdateEN8pkgCache11DepIteratorE@Base 0.8.0
 _ZN11pkgDepCache6UpdateEP10OpProgress@Base 0.8.0
 _ZN11pkgDepCache6UpdateERKN8pkgCache11PkgIteratorE@Base 0.8.0
 _ZN11pkgDepCache8AddSizesERKN8pkgCache11PkgIteratorEb@Base 0.8.16~exp6
 _ZN11pkgDepCache8CheckDepEN8pkgCache11DepIteratorEiRNS0_11PkgIteratorE@Base 0.8.0
 _ZN11pkgDepCache8MarkAutoERKN8pkgCache11PkgIteratorEb@Base 0.8.0
 _ZN11pkgDepCache8MarkKeepERKN8pkgCache11PkgIteratorEbbm@Base 0.8.0
 _ZN11pkgDepCache9AddStatesERKN8pkgCache11PkgIteratorEb@Base 0.8.16~exp6
 _ZN11pkgDepCacheC1EP8pkgCachePNS_6PolicyE@Base 0.8.0
 _ZN11pkgDepCacheC2EP8pkgCachePNS_6PolicyE@Base 0.8.0
 _ZN11pkgDepCacheD0Ev@Base 0.8.0
 _ZN11pkgDepCacheD1Ev@Base 0.8.0
 _ZN11pkgDepCacheD2Ev@Base 0.8.0
 _ZN11pkgSimulate11ShortBreaksEv@Base 0.8.0
 _ZN11pkgSimulate6Policy15GetCandidateVerERKN8pkgCache11PkgIteratorE@Base 0.8.0
 _ZN11pkgSimulate6PolicyD0Ev@Base 0.8.0
 _ZN11pkgSimulate6PolicyD1Ev@Base 0.8.0
 _ZN11pkgSimulate6PolicyD2Ev@Base 0.8.0
 _ZN11pkgSimulate6RemoveEN8pkgCache11PkgIteratorEb@Base 0.8.0
 _ZN11pkgSimulate7InstallEN8pkgCache11PkgIteratorESs@Base 0.8.0
 _ZN11pkgSimulate8DescribeEN8pkgCache11PkgIteratorERSobb@Base 0.8.0
 _ZN11pkgSimulate9ConfigureEN8pkgCache11PkgIteratorE@Base 0.8.0
 _ZN11pkgSimulateC1EP11pkgDepCache@Base 0.8.0
 _ZN11pkgSimulateC2EP11pkgDepCache@Base 0.8.0
 _ZN11pkgSimulateD0Ev@Base 0.8.0
 _ZN11pkgSimulateD1Ev@Base 0.8.0
 _ZN11pkgSimulateD2Ev@Base 0.8.0
 _ZN12MD5Summation3AddEPKhy@Base 0.8.16~exp6
 _ZN12MD5Summation6ResultEv@Base 0.8.16~exp2
 _ZN12MD5SummationC1Ev@Base 0.8.16~exp2
 _ZN12MD5SummationC2Ev@Base 0.8.16~exp2
 _ZN12debIFTypePkgD0Ev@Base 0.8.0
 _ZN12debIFTypePkgD1Ev@Base 0.8.0
 _ZN12debIFTypePkgD2Ev@Base 0.8.0
 _ZN12debIFTypeSrcD0Ev@Base 0.8.0
 _ZN12debIFTypeSrcD1Ev@Base 0.8.0
 _ZN12debIFTypeSrcD2Ev@Base 0.8.0
 _ZN12debSLTypeDebD0Ev@Base 0.8.0
 _ZN12debSLTypeDebD1Ev@Base 0.8.0
 _ZN12debSLTypeDebD2Ev@Base 0.8.0
 _ZN12indexRecords12parseSumDataERPKcS1_RSsS3_Ry@Base 0.8.16~exp6
 _ZN12indexRecords4LoadESs@Base 0.8.0
 _ZN12indexRecords6LookupESs@Base 0.8.0
 _ZN12indexRecords8MetaKeysEv@Base 0.8.0
 _ZN12indexRecordsC1ESs@Base 0.8.0
 _ZN12indexRecordsC1Ev@Base 0.8.0
 _ZN12indexRecordsC2ESs@Base 0.8.0
 _ZN12indexRecordsC2Ev@Base 0.8.0
 _ZN12indexRecordsD0Ev@Base 0.8.0
 _ZN12indexRecordsD1Ev@Base 0.8.0
 _ZN12indexRecordsD2Ev@Base 0.8.0
 _ZN12pkgAcqMethod11FetchResult10TakeHashesER6Hashes@Base 0.8.0
 _ZN12pkgAcqMethod11FetchResultC1Ev@Base 0.8.0
 _ZN12pkgAcqMethod11FetchResultC2Ev@Base 0.8.0
 _ZN12pkgAcqMethod13ConfigurationESs@Base 0.8.0
 _ZN12pkgAcqMethod3LogEPKcz@Base 0.8.0
 _ZN12pkgAcqMethod3RunEb@Base 0.8.0
 _ZN12pkgAcqMethod4ExitEv@Base 0.8.0
 _ZN12pkgAcqMethod4FailESsb@Base 0.8.0
 _ZN12pkgAcqMethod4FailEb@Base 0.8.0
 _ZN12pkgAcqMethod5FetchEPNS_9FetchItemE@Base 0.8.0
 _ZN12pkgAcqMethod6StatusEPKcz@Base 0.8.0
 _ZN12pkgAcqMethod7URIDoneERNS_11FetchResultEPS0_@Base 0.8.0
 _ZN12pkgAcqMethod8RedirectERKSs@Base 0.8.0
 _ZN12pkgAcqMethod8URIStartERNS_11FetchResultE@Base 0.8.0
 _ZN12pkgAcqMethod9MediaFailESsSs@Base 0.8.0
 _ZN12pkgAcqMethodC1EPKcm@Base 0.8.0
 _ZN12pkgAcqMethodC2EPKcm@Base 0.8.0
 _ZN12pkgAcqMethodD0Ev@Base 0.8.0
 _ZN12pkgAcqMethodD1Ev@Base 0.8.0
 _ZN12pkgAcqMethodD2Ev@Base 0.8.0
 _ZN12pkgCacheFile11BuildCachesEP10OpProgressb@Base 0.8.0
 _ZN12pkgCacheFile11BuildPolicyEP10OpProgress@Base 0.8.0
 _ZN12pkgCacheFile12RemoveCachesEv@Base 0.8.15.7
 _ZN12pkgCacheFile13BuildDepCacheEP10OpProgress@Base 0.8.0
 _ZN12pkgCacheFile15BuildSourceListEP10OpProgress@Base 0.8.0
 _ZN12pkgCacheFile4OpenEP10OpProgressb@Base 0.8.0
 _ZN12pkgCacheFile5CloseEv@Base 0.8.0
 _ZN12pkgCacheFileC1Ev@Base 0.8.0
 _ZN12pkgCacheFileC2Ev@Base 0.8.0
 _ZN12pkgCacheFileD0Ev@Base 0.8.0
 _ZN12pkgCacheFileD1Ev@Base 0.8.0
 _ZN12pkgCacheFileD2Ev@Base 0.8.0
 _ZN12pkgIndexFile12LanguageCodeEv@Base 0.8.0
 _ZN12pkgIndexFile17CheckLanguageCodeEPKc@Base 0.8.0
 _ZN12pkgIndexFile21TranslationsAvailableEv@Base 0.8.0
 _ZN12pkgIndexFile4Type10GlobalListE@Base 0.8.0
 _ZN12pkgIndexFile4Type13GlobalListLenE@Base 0.8.0
 _ZN12pkgIndexFile4Type7GetTypeEPKc@Base 0.8.0
 _ZN12pkgIndexFile4TypeC1Ev@Base 0.8.0
 _ZN12pkgIndexFile4TypeC2Ev@Base 0.8.0
 _ZN12pkgIndexFile4TypeD0Ev@Base 1.0.9.8.4
 _ZN12pkgIndexFile4TypeD1Ev@Base 1.0.9.8.4
 _ZN12pkgIndexFile4TypeD2Ev@Base 1.0.9.8.4
 _ZN12pkgOrderList10VisitRDepsEMS_FbN8pkgCache11DepIteratorEENS0_11PkgIteratorE@Base 0.8.0
 _ZN12pkgOrderList11OrderUnpackEPSs@Base 0.8.0
 _ZN12pkgOrderList12DepConfigureEN8pkgCache11DepIteratorE@Base 0.8.0
 _ZN12pkgOrderList12DepUnPackDepEN8pkgCache11DepIteratorE@Base 0.8.0
 _ZN12pkgOrderList12DepUnPackPreEN8pkgCache11DepIteratorE@Base 0.8.0
 _ZN12pkgOrderList13DepUnPackCritEN8pkgCache11DepIteratorE@Base 0.8.0
 _ZN12pkgOrderList13DepUnPackPreDEN8pkgCache11DepIteratorE@Base 0.8.0
 _ZN12pkgOrderList13OrderCompareAEPKvS1_@Base 0.8.0
 _ZN12pkgOrderList13OrderCompareBEPKvS1_@Base 0.8.0
 _ZN12pkgOrderList13OrderCriticalEv@Base 0.8.0
 _ZN12pkgOrderList13VisitProvidesEN8pkgCache11DepIteratorEb@Base 0.8.0
 _ZN12pkgOrderList14OrderConfigureEv@Base 0.8.0
 _ZN12pkgOrderList14VisitRProvidesEMS_FbN8pkgCache11DepIteratorEENS0_11VerIteratorE@Base 0.8.0
 _ZN12pkgOrderList2MeE@Base 0.8.0
 _ZN12pkgOrderList5DoRunEv@Base 0.8.0
 _ZN12pkgOrderList5ScoreEN8pkgCache11PkgIteratorE@Base 0.8.0
 _ZN12pkgOrderList7AddLoopEN8pkgCache11DepIteratorE@Base 0.8.0
 _ZN12pkgOrderList7FileCmpEN8pkgCache11PkgIteratorES1_@Base 0.8.0
 _ZN12pkgOrderList8CheckDepEN8pkgCache11DepIteratorE@Base 0.8.0
 _ZN12pkgOrderList9DepRemoveEN8pkgCache11DepIteratorE@Base 0.8.0
 _ZN12pkgOrderList9IsMissingEN8pkgCache11PkgIteratorE@Base 0.8.0
 _ZN12pkgOrderList9VisitDepsEMS_FbN8pkgCache11DepIteratorEENS0_11PkgIteratorE@Base 0.8.0
 _ZN12pkgOrderList9VisitNodeEN8pkgCache11PkgIteratorEPKc@Base 0.8.15.7
 _ZN12pkgOrderList9WipeFlagsEm@Base 0.8.0
 _ZN12pkgOrderListC1EP11pkgDepCache@Base 0.8.0
 _ZN12pkgOrderListC2EP11pkgDepCache@Base 0.8.0
 _ZN12pkgOrderListD1Ev@Base 0.8.0
 _ZN12pkgOrderListD2Ev@Base 0.8.0
 _ZN13Configuration18MatchAgainstConfig13clearPatternsEv@Base 0.8.1
 _ZN13Configuration18MatchAgainstConfigC1EPKc@Base 0.8.0
 _ZN13Configuration18MatchAgainstConfigC2EPKc@Base 0.8.0
 _ZN13Configuration18MatchAgainstConfigD0Ev@Base 0.8.0
 _ZN13Configuration18MatchAgainstConfigD1Ev@Base 0.8.0
 _ZN13Configuration18MatchAgainstConfigD2Ev@Base 0.8.0
 _ZN13Configuration3SetEPKcRKSs@Base 0.8.0
 _ZN13Configuration3SetEPKcRKi@Base 0.8.0
 _ZN13Configuration4DumpERSo@Base 0.8.0
 _ZN13Configuration4DumpERSoPKcS2_b@Base 0.9.3
 _ZN13Configuration5ClearERKSs@Base 0.8.0
 _ZN13Configuration5ClearERKSsRKi@Base 0.8.0
 _ZN13Configuration5ClearERKSsS1_@Base 0.8.0
 _ZN13Configuration5ClearEv@Base 0.9.11
 _ZN13Configuration6CndSetEPKcRKSs@Base 0.8.0
 _ZN13Configuration6CndSetEPKci@Base 0.8.15.3
 _ZN13Configuration6LookupEPKcRKb@Base 0.8.0
 _ZN13Configuration6LookupEPNS_4ItemEPKcRKmRKb@Base 0.8.0
 _ZN13ConfigurationC1EPKNS_4ItemE@Base 0.8.0
 _ZN13ConfigurationC1Ev@Base 0.8.0
 _ZN13ConfigurationC2EPKNS_4ItemE@Base 0.8.0
 _ZN13ConfigurationC2Ev@Base 0.8.0
 _ZN13ConfigurationD1Ev@Base 0.8.0
 _ZN13ConfigurationD2Ev@Base 0.8.0
 _ZN13SHA1Summation3AddEPKhy@Base 0.8.16~exp6
 _ZN13SHA1Summation6ResultEv@Base 0.8.16~exp2
 _ZN13SHA1SummationC1Ev@Base 0.8.16~exp2
 _ZN13SHA1SummationC2Ev@Base 0.8.16~exp2
 _ZN13WeakPointableD1Ev@Base 0.8.0
 _ZN13WeakPointableD2Ev@Base 0.8.0
 _ZN13debListParser10NewVersionERN8pkgCache11VerIteratorE@Base 0.8.0
 _ZN13debListParser10UsePackageERN8pkgCache11PkgIteratorERNS0_11VerIteratorE@Base 0.8.0
 _ZN13debListParser11DescriptionEv@Base 0.8.0
 _ZN13debListParser11ParseStatusERN8pkgCache11PkgIteratorERNS0_11VerIteratorE@Base 0.8.0
 _ZN13debListParser11VersionHashEv@Base 0.8.0
 _ZN13debListParser12ArchitectureEv@Base 0.8.0
 _ZN13debListParser12ParseDependsEPKcS1_RSsS2_Rj@Base 0.9.16
 _ZN13debListParser12ParseDependsEPKcS1_RSsS2_RjRKb@Base 0.9.16
 _ZN13debListParser12ParseDependsEPKcS1_RSsS2_RjRKbS5_@Base 0.8.0
 _ZN13debListParser12ParseDependsEPKcS1_RSsS2_RjRKbS5_S5_@Base 0.9.16
 _ZN13debListParser12ParseDependsERN8pkgCache11VerIteratorEPKcj@Base 0.8.0
 _ZN13debListParser13ParseProvidesERN8pkgCache11VerIteratorE@Base 0.8.0
 _ZN13debListParser15ArchitectureAllEv@Base 0.8.0
 _ZN13debListParser15ConvertRelationEPKcRj@Base 0.8.0
 _ZN13debListParser15Description_md5Ev@Base 0.8.0
 _ZN13debListParser15LoadReleaseInfoERN8pkgCache15PkgFileIteratorER6FileFdSs@Base 0.8.0
 _ZN13debListParser16UniqFindTagWriteEPKc@Base 0.8.0
 _ZN13debListParser18NewProvidesAllArchERN8pkgCache11VerIteratorERKSsS4_@Base 0.8.13.2
 _ZN13debListParser19DescriptionLanguageEv@Base 0.8.0
 _ZN13debListParser4SizeEv@Base 0.8.0
 _ZN13debListParser4StepEv@Base 0.8.0
 _ZN13debListParser6OffsetEv@Base 0.8.0
 _ZN13debListParser7GetPrioESs@Base 0.8.0
 _ZN13debListParser7PackageEv@Base 0.8.0
 _ZN13debListParser7VersionEv@Base 0.8.0
 _ZN13debListParser8GrabWordESsPNS_8WordListERh@Base 0.8.0
 _ZN13debListParserC1EP6FileFdRKSs@Base 0.8.0
 _ZN13debListParserC2EP6FileFdRKSs@Base 0.8.0
 _ZN13debListParserD0Ev@Base 0.8.0
 _ZN13debListParserD1Ev@Base 0.8.0
 _ZN13debListParserD2Ev@Base 0.8.0
 _ZN13pkgAcqArchive4DoneESsySsPN10pkgAcquire12MethodConfigE@Base 0.8.16~exp6
 _ZN13pkgAcqArchive6FailedESsPN10pkgAcquire12MethodConfigE@Base 0.8.0
 _ZN13pkgAcqArchive7DescURIEv@Base 0.8.0
 _ZN13pkgAcqArchive7HashSumEv@Base 0.8.0
 _ZN13pkgAcqArchive8FinishedEv@Base 0.8.0
 _ZN13pkgAcqArchive9IsTrustedEv@Base 0.8.0
 _ZN13pkgAcqArchive9QueueNextEv@Base 0.8.0
 _ZN13pkgAcqArchive9ShortDescEv@Base 0.8.0
 _ZN13pkgAcqArchiveC1EP10pkgAcquireP13pkgSourceListP10pkgRecordsRKN8pkgCache11VerIteratorERSs@Base 0.8.0
 _ZN13pkgAcqArchiveC2EP10pkgAcquireP13pkgSourceListP10pkgRecordsRKN8pkgCache11VerIteratorERSs@Base 0.8.0
 _ZN13pkgAcqArchiveD0Ev@Base 0.8.0
 _ZN13pkgAcqArchiveD1Ev@Base 0.8.0
 _ZN13pkgAcqArchiveD2Ev@Base 0.8.0
 _ZN13pkgAcqMetaSig16Custom600HeadersEv@Base 0.8.0
 _ZN13pkgAcqMetaSig4DoneESsySsPN10pkgAcquire12MethodConfigE@Base 0.8.16~exp6
 _ZN13pkgAcqMetaSig6FailedESsPN10pkgAcquire12MethodConfigE@Base 0.8.0
 _ZN13pkgAcqMetaSig7DescURIEv@Base 0.8.0
 _ZN13pkgAcqMetaSigC1EP10pkgAcquireSsSsSsSsSsSsPKSt6vectorIP11IndexTargetSaIS4_EEP12indexRecords@Base 0.8.0
 _ZN13pkgAcqMetaSigC2EP10pkgAcquireSsSsSsSsSsSsPKSt6vectorIP11IndexTargetSaIS4_EEP12indexRecords@Base 0.8.0
 _ZN13pkgAcqMetaSigD0Ev@Base 0.8.0
 _ZN13pkgAcqMetaSigD1Ev@Base 0.8.0
 _ZN13pkgAcqMetaSigD2Ev@Base 0.8.0
 _ZN13pkgSourceList10ReadAppendESs@Base 0.8.0
 _ZN13pkgSourceList12ReadMainListEv@Base 0.8.0
 _ZN13pkgSourceList13ReadSourceDirESs@Base 0.8.0
 _ZN13pkgSourceList15ParseFileDeb822ESs@Base 0.9.14.3~exp1
 _ZN13pkgSourceList17ParseFileOldStyleESs@Base 0.9.14.3~exp1
 _ZN13pkgSourceList19GetLastModifiedTimeEv@Base 0.8.15.6
 _ZN13pkgSourceList4ReadESs@Base 0.8.0
 _ZN13pkgSourceList4Type10GlobalListE@Base 0.8.0
 _ZN13pkgSourceList4Type11ParseStanzaERSt6vectorIP9metaIndexSaIS3_EER13pkgTagSectioniR6FileFd@Base 0.9.14.3~exp1
 _ZN13pkgSourceList4Type13GlobalListLenE@Base 0.8.0
 _ZN13pkgSourceList4Type7GetTypeEPKc@Base 0.8.0
 _ZN13pkgSourceList4TypeC1Ev@Base 0.8.0
 _ZN13pkgSourceList4TypeC2Ev@Base 0.8.0
 _ZN13pkgSourceList5ResetEv@Base 0.8.0
 _ZN13pkgSourceListC1ESs@Base 0.8.0
 _ZN13pkgSourceListC1Ev@Base 0.8.0
 _ZN13pkgSourceListC2ESs@Base 0.8.0
 _ZN13pkgSourceListC2Ev@Base 0.8.0
 _ZN13pkgSourceListD1Ev@Base 0.8.0
 _ZN13pkgSourceListD2Ev@Base 0.8.0
 _ZN13pkgSrcRecords4FileD1Ev@Base 0.8.0
 _ZN13pkgSrcRecords4FileD2Ev@Base 0.8.0
 _ZN13pkgSrcRecords4FindEPKcRKb@Base 0.8.0
 _ZN13pkgSrcRecords4StepEv@Base 1.0.9.8.4
 _ZN13pkgSrcRecords6Parser11BuildDepRecD1Ev@Base 0.8.0
 _ZN13pkgSrcRecords6Parser11BuildDepRecD2Ev@Base 0.8.0
 _ZN13pkgSrcRecords6Parser12BuildDepTypeERKh@Base 0.8.0
 _ZN13pkgSrcRecords6Parser6Files2ERSt6vectorINS_5File2ESaIS2_EE@Base 1.0.9.4
 _ZN13pkgSrcRecords7RestartEv@Base 0.8.0
 _ZN13pkgSrcRecordsC1ER13pkgSourceList@Base 0.8.0
 _ZN13pkgSrcRecordsC2ER13pkgSourceList@Base 0.8.0
 _ZN13pkgSrcRecordsD0Ev@Base 0.8.0
 _ZN13pkgSrcRecordsD1Ev@Base 0.8.0
 _ZN13pkgSrcRecordsD2Ev@Base 0.8.0
 _ZN13pkgTagSection10TrimRecordEbRPKc@Base 0.8.0
 _ZN13pkgTagSection4ScanEPKcm@Base 0.8.0
 _ZN13pkgTagSection4TrimEv@Base 0.8.0
 _ZN13pkgTagSection6ExistsEPKc@Base 0.9.7.9~exp1
 _ZN13pkgTagSection8FindFlagERmmPKcS2_@Base 0.8.11
 _ZN13pkgTagSectionC1Ev@Base 0.9.11
 _ZN13pkgTagSectionC2Ev@Base 0.9.11
 _ZN13pkgTagSectionD0Ev@Base 0.8.16~exp6
 _ZN13pkgTagSectionD1Ev@Base 0.8.16~exp6
 _ZN13pkgTagSectionD2Ev@Base 0.8.16~exp6
 _ZN13pkgVendorList10CreateListER13Configuration@Base 0.8.0
 _ZN13pkgVendorList10FindVendorESt6vectorISsSaISsEE@Base 0.8.0
 _ZN13pkgVendorList12ReadMainListEv@Base 0.8.0
 _ZN13pkgVendorList17LookupFingerprintESs@Base 0.8.0
 _ZN13pkgVendorList4ReadESs@Base 0.8.0
 _ZN13pkgVendorListD1Ev@Base 0.8.0
 _ZN13pkgVendorListD2Ev@Base 0.8.0
 _ZN14HashStringList9push_backERK10HashString@Base 1.0.9.4
 _ZN14HashStringList9supportedEPKc@Base 1.0.9.4
 _ZN14OpTextProgress4DoneEv@Base 0.8.0
 _ZN14OpTextProgress5WriteEPKc@Base 0.8.0
 _ZN14OpTextProgress6UpdateEv@Base 0.8.0
 _ZN14OpTextProgressC1ER13Configuration@Base 0.8.0
 _ZN14OpTextProgressC2ER13Configuration@Base 0.8.0
 _ZN14OpTextProgressD0Ev@Base 0.8.0
 _ZN14OpTextProgressD1Ev@Base 0.8.0
 _ZN14OpTextProgressD2Ev@Base 0.8.0
 _ZN14debIFTypeTransD0Ev@Base 0.8.0
 _ZN14debIFTypeTransD1Ev@Base 0.8.0
 _ZN14debIFTypeTransD2Ev@Base 0.8.0
 _ZN14debStatusIndexC1ESs@Base 0.8.0
 _ZN14debStatusIndexC2ESs@Base 0.8.0
 _ZN14debStatusIndexD0Ev@Base 0.8.0
 _ZN14debStatusIndexD1Ev@Base 0.8.0
 _ZN14debStatusIndexD2Ev@Base 0.8.0
 _ZN14edspListParser10NewVersionERN8pkgCache11VerIteratorE@Base 0.8.16~exp2
 _ZN14edspListParser11DescriptionEv@Base 0.8.16~exp2
 _ZN14edspListParser11ParseStatusERN8pkgCache11PkgIteratorERNS0_11VerIteratorE@Base 0.8.16~exp2
 _ZN14edspListParser11VersionHashEv@Base 0.8.16~exp2
 _ZN14edspListParser15Description_md5Ev@Base 0.8.16~exp2
 _ZN14edspListParser15LoadReleaseInfoERN8pkgCache15PkgFileIteratorER6FileFdSs@Base 0.8.16~exp2
 _ZN14edspListParser19DescriptionLanguageEv@Base 0.8.16~exp2
 _ZN14edspListParserC1EP6FileFdRKSs@Base 0.8.16~exp2
 _ZN14edspListParserC2EP6FileFdRKSs@Base 0.8.16~exp2
 _ZN14edspListParserD0Ev@Base 0.8.16~exp2
 _ZN14edspListParserD1Ev@Base 0.8.16~exp2
 _ZN14edspListParserD2Ev@Base 0.8.16~exp2
 _ZN14pkgAcqSubIndex10ParseIndexERKSs@Base 0.8.11
 _ZN14pkgAcqSubIndex16Custom600HeadersEv@Base 0.8.11
 _ZN14pkgAcqSubIndex4DoneESsySsPN10pkgAcquire12MethodConfigE@Base 0.8.16~exp6
 _ZN14pkgAcqSubIndex6FailedESsPN10pkgAcquire12MethodConfigE@Base 0.8.11
 _ZN14pkgAcqSubIndex7DescURIEv@Base 0.8.11
 _ZN14pkgAcqSubIndexC1EP10pkgAcquireRKSsS3_S3_RK10HashString@Base 0.8.11
 _ZN14pkgAcqSubIndexC2EP10pkgAcquireRKSsS3_S3_RK10HashString@Base 0.8.11
 _ZN14pkgAcqSubIndexD0Ev@Base 0.8.11
 _ZN14pkgAcqSubIndexD1Ev@Base 0.8.11
 _ZN14pkgAcqSubIndexD2Ev@Base 0.8.11
 _ZN14pkgCdromStatus13GetOpProgressEv@Base 1.0
 _ZN14pkgCdromStatus8SetTotalEi@Base 1.0
 _ZN15SHA256Summation3AddEPKhy@Base 0.8.16~exp6
 _ZN15SHA512Summation3AddEPKhy@Base 0.8.16~exp6
 _ZN15debIFTypeStatusD0Ev@Base 0.8.0
 _ZN15debIFTypeStatusD1Ev@Base 0.8.0
 _ZN15debIFTypeStatusD2Ev@Base 0.8.0
 _ZN15debRecordParser10MaintainerEv@Base 0.8.0
 _ZN15debRecordParser10SHA256HashEv@Base 0.8.0
 _ZN15debRecordParser10SHA512HashEv@Base 0.8.16~exp2
 _ZN15debRecordParser11RecordFieldEPKc@Base 0.8.16~exp6
 _ZN15debRecordParser4JumpERKN8pkgCache15VerFileIteratorE@Base 0.8.0
 _ZN15debRecordParser4JumpERKN8pkgCache16DescFileIteratorE@Base 0.8.0
 _ZN15debRecordParser4NameEv@Base 0.8.0
 _ZN15debRecordParser6GetRecERPKcS2_@Base 0.8.0
 _ZN15debRecordParser7MD5HashEv@Base 0.8.0
 _ZN15debRecordParser8FileNameEv@Base 0.8.0
 _ZN15debRecordParser8HomepageEv@Base 0.8.0
 _ZN15debRecordParser8LongDescEv@Base 0.8.0
 _ZN15debRecordParser8SHA1HashEv@Base 0.8.0
 _ZN15debRecordParser9ShortDescEv@Base 0.8.0
 _ZN15debRecordParser9SourcePkgEv@Base 0.8.0
 _ZN15debRecordParser9SourceVerEv@Base 0.8.0
 _ZN15debRecordParserC1ESsR8pkgCache@Base 0.8.0
 _ZN15debRecordParserC2ESsR8pkgCache@Base 0.8.0
 _ZN15debRecordParserD0Ev@Base 0.8.0
 _ZN15debRecordParserD1Ev@Base 0.8.0
 _ZN15debRecordParserD2Ev@Base 0.8.0
 _ZN15debReleaseIndex10SetTrustedEb@Base 0.8.16~exp6
 _ZN15debReleaseIndex13GetIndexFilesEv@Base 0.8.0
 _ZN15debReleaseIndex15debSectionEntryC1ERKSsRKb@Base 0.8.0
 _ZN15debReleaseIndex15debSectionEntryC2ERKSsRKb@Base 0.8.0
 _ZN15debReleaseIndex16PushSectionEntryEPKNS_15debSectionEntryE@Base 0.8.0
 _ZN15debReleaseIndex16PushSectionEntryERKSsPKNS_15debSectionEntryE@Base 0.8.0
 _ZN15debReleaseIndex16PushSectionEntryERKSt6vectorISsSaISsEEPKNS_15debSectionEntryE@Base 0.8.0
 _ZN15debReleaseIndexC1ERKSsS1_@Base 0.8.0
 _ZN15debReleaseIndexC1ERKSsS1_b@Base 0.8.16~exp6
 _ZN15debReleaseIndexC2ERKSsS1_@Base 0.8.0
 _ZN15debReleaseIndexC2ERKSsS1_b@Base 0.8.16~exp6
 _ZN15debReleaseIndexD0Ev@Base 0.8.0
 _ZN15debReleaseIndexD1Ev@Base 0.8.0
 _ZN15debReleaseIndexD2Ev@Base 0.8.0
 _ZN15debSLTypeDebSrcD0Ev@Base 0.8.0
 _ZN15debSLTypeDebSrcD1Ev@Base 0.8.0
 _ZN15debSLTypeDebSrcD2Ev@Base 0.8.0
 _ZN15debSourcesIndexC1ESsSsSsb@Base 0.8.0
 _ZN15debSourcesIndexC2ESsSsSsb@Base 0.8.0
 _ZN15debSourcesIndexD0Ev@Base 0.8.0
 _ZN15debSourcesIndexD1Ev@Base 0.8.0
 _ZN15debSourcesIndexD2Ev@Base 0.8.0
 _ZN15pkgAcqDiffIndex14ParseDiffIndexESs@Base 0.8.0
 _ZN15pkgAcqDiffIndex16Custom600HeadersEv@Base 0.8.0
 _ZN15pkgAcqDiffIndex4DoneESsySsPN10pkgAcquire12MethodConfigE@Base 0.8.16~exp6
 _ZN15pkgAcqDiffIndex6FailedESsPN10pkgAcquire12MethodConfigE@Base 0.8.0
 _ZN15pkgAcqDiffIndex7DescURIEv@Base 0.8.0
 _ZN15pkgAcqDiffIndexC1EP10pkgAcquireSsSsSs10HashString@Base 0.8.0
 _ZN15pkgAcqDiffIndexC2EP10pkgAcquireSsSsSs10HashString@Base 0.8.0
 _ZN15pkgAcqDiffIndexD0Ev@Base 0.8.0
 _ZN15pkgAcqDiffIndexD1Ev@Base 0.8.0
 _ZN15pkgAcqDiffIndexD2Ev@Base 0.8.0
 _ZN15pkgAcqMetaIndex12QueueIndexesEb@Base 0.8.0
 _ZN15pkgAcqMetaIndex12VerifyVendorESs@Base 0.8.0
 _ZN15pkgAcqMetaIndex13RetrievalDoneESs@Base 0.8.0
 _ZN15pkgAcqMetaIndex16Custom600HeadersEv@Base 0.8.0
 _ZN15pkgAcqMetaIndex4DoneESsySsPN10pkgAcquire12MethodConfigE@Base 0.8.16~exp6
 _ZN15pkgAcqMetaIndex6FailedESsPN10pkgAcquire12MethodConfigE@Base 0.8.0
 _ZN15pkgAcqMetaIndex7DescURIEv@Base 0.8.0
 _ZN15pkgAcqMetaIndex8AuthDoneESs@Base 0.8.0
 _ZN15pkgAcqMetaIndexC1EP10pkgAcquireSsSsSsSsPKSt6vectorIP11IndexTargetSaIS4_EEP12indexRecords@Base 0.8.0
 _ZN15pkgAcqMetaIndexC2EP10pkgAcquireSsSsSsSsPKSt6vectorIP11IndexTargetSaIS4_EEP12indexRecords@Base 0.8.0
 _ZN15pkgAcqMetaIndexD0Ev@Base 0.8.0
 _ZN15pkgAcqMetaIndexD1Ev@Base 0.8.0
 _ZN15pkgAcqMetaIndexD2Ev@Base 0.8.0
 _ZN15pkgVersionMatch17ExpressionMatchesEPKcS1_@Base 0.8.0
 _ZN15pkgVersionMatch17ExpressionMatchesERKSsPKc@Base 0.8.0
 _ZN15pkgVersionMatch4FindEN8pkgCache11PkgIteratorE@Base 0.8.0
 _ZN15pkgVersionMatch8MatchVerEPKcSsb@Base 0.8.0
 _ZN15pkgVersionMatch9FileMatchEN8pkgCache15PkgFileIteratorE@Base 0.8.0
 _ZN15pkgVersionMatchC1ESsNS_9MatchTypeE@Base 0.8.0
 _ZN15pkgVersionMatchC2ESsNS_9MatchTypeE@Base 0.8.0
 _ZN15pkgVersionMatchD1Ev@Base 0.8.0
 _ZN15pkgVersionMatchD2Ev@Base 0.8.0
 _ZN16TranslationsCopy16CopyTranslationsESsSsRSt6vectorISsSaISsEEP14pkgCdromStatus@Base 0.8.0
 _ZN16debPackagesIndexC1ERKSsS1_S1_RKbS1_@Base 0.8.0
 _ZN16debPackagesIndexC2ERKSsS1_S1_RKbS1_@Base 0.8.0
 _ZN16debPackagesIndexD0Ev@Base 0.8.0
 _ZN16debPackagesIndexD1Ev@Base 0.8.0
 _ZN16debPackagesIndexD2Ev@Base 0.8.0
 _ZN16pkgAcqIndexDiffs13QueueNextDiffEv@Base 0.8.0
 _ZN16pkgAcqIndexDiffs4DoneESsySsPN10pkgAcquire12MethodConfigE@Base 0.8.16~exp6
 _ZN16pkgAcqIndexDiffs6FailedESsPN10pkgAcquire12MethodConfigE@Base 0.8.0
 _ZN16pkgAcqIndexDiffs6FinishEb@Base 0.8.0
 _ZN16pkgAcqIndexDiffs7DescURIEv@Base 0.8.0
 _ZN16pkgAcqIndexDiffsC1EP10pkgAcquireSsSsSs10HashStringSsSt6vectorI8DiffInfoSaIS4_EE@Base 0.8.0
 _ZN16pkgAcqIndexDiffsC2EP10pkgAcquireSsSsSs10HashStringSsSt6vectorI8DiffInfoSaIS4_EE@Base 0.8.0
 _ZN16pkgAcqIndexDiffsD0Ev@Base 0.8.0
 _ZN16pkgAcqIndexDiffsD1Ev@Base 0.8.0
 _ZN16pkgAcqIndexDiffsD2Ev@Base 0.8.0
 _ZN16pkgAcqIndexTrans16Custom600HeadersEv@Base 0.8.0
 _ZN16pkgAcqIndexTrans6FailedESsPN10pkgAcquire12MethodConfigE@Base 0.8.0
 _ZN16pkgAcqIndexTransC1EP10pkgAcquirePK11IndexTargetRK10HashStringPK12indexRecords@Base 0.8.11
 _ZN16pkgAcqIndexTransC1EP10pkgAcquireSsSsSs@Base 0.8.0
 _ZN16pkgAcqIndexTransC2EP10pkgAcquirePK11IndexTargetRK10HashStringPK12indexRecords@Base 0.8.11
 _ZN16pkgAcqIndexTransC2EP10pkgAcquireSsSsSs@Base 0.8.0
 _ZN16pkgAcqIndexTransD0Ev@Base 0.8.0
 _ZN16pkgAcqIndexTransD1Ev@Base 0.8.0
 _ZN16pkgAcqIndexTransD2Ev@Base 0.8.0
 _ZN16pkgAcquireStatus4DoneERN10pkgAcquire8ItemDescE@Base 0.8.0
 _ZN16pkgAcquireStatus4FailERN10pkgAcquire8ItemDescE@Base 0.8.0
 _ZN16pkgAcquireStatus4StopEv@Base 0.8.0
 _ZN16pkgAcquireStatus5FetchERN10pkgAcquire8ItemDescE@Base 0.8.0
 _ZN16pkgAcquireStatus5PulseEP10pkgAcquire@Base 0.8.0
 _ZN16pkgAcquireStatus5StartEv@Base 0.8.0
 _ZN16pkgAcquireStatus6IMSHitERN10pkgAcquire8ItemDescE@Base 0.8.0
 _ZN16pkgAcquireStatus7FetchedEyy@Base 0.8.16~exp6
 _ZN16pkgAcquireStatusC1Ev@Base 0.8.0
 _ZN16pkgAcquireStatusC2Ev@Base 0.8.0
 _ZN17PreferenceSection10TrimRecordEbRPKc@Base 0.8.0
 _ZN17PreferenceSectionD0Ev@Base 0.8.16~exp6
 _ZN17PreferenceSectionD1Ev@Base 0.8.16~exp6
 _ZN17PreferenceSectionD2Ev@Base 0.8.16~exp6
 _ZN17pkgArchiveCleaner2GoESsR8pkgCache@Base 0.8.0
 _ZN17pkgCacheGenerator10ListParser10NewDependsERN8pkgCache11VerIteratorERKSsS5_S5_jj@Base 0.8.0
 _ZN17pkgCacheGenerator10ListParser11NewProvidesERN8pkgCache11VerIteratorERKSsS5_S5_@Base 0.8.0
 _ZN17pkgCacheGenerator10ListParser11SameVersionEtRKN8pkgCache11VerIteratorE@Base 0.9.16
 _ZN17pkgCacheGenerator10ListParser19CollectFileProvidesER8pkgCacheRNS1_11VerIteratorE@Base 0.8.0
 _ZN17pkgCacheGenerator10NewDependsERN8pkgCache11PkgIteratorERNS0_11VerIteratorERKSsRKjS8_RPj@Base 0.8.15.6
 _ZN17pkgCacheGenerator10NewDependsERN8pkgCache11PkgIteratorERNS0_11VerIteratorEjRKjS6_RPj@Base 0.9.8
 _ZN17pkgCacheGenerator10NewFileVerERN8pkgCache11VerIteratorERNS_10ListParserE@Base 0.8.0
 _ZN17pkgCacheGenerator10NewPackageERN8pkgCache11PkgIteratorERKSsS4_@Base 0.8.0
 _ZN17pkgCacheGenerator10NewVersionERN8pkgCache11VerIteratorERKSsjmm@Base 0.9.8
 _ZN17pkgCacheGenerator10SelectFileERKSsS1_RK12pkgIndexFilem@Base 0.8.0
 _ZN17pkgCacheGenerator11FinishCacheEP10OpProgress@Base 0.8.0
 _ZN17pkgCacheGenerator11NewFileDescERN8pkgCache12DescIteratorERNS_10ListParserE@Base 0.8.0
 _ZN17pkgCacheGenerator14NewDescriptionERN8pkgCache12DescIteratorERKSsRK12HashSumValueILi128EEj@Base 0.8.16~exp6
 _ZN17pkgCacheGenerator15MakeStatusCacheER13pkgSourceListP10OpProgressPP4MMapb@Base 0.8.0
 _ZN17pkgCacheGenerator15WriteUniqStringEPKcj@Base 0.8.0
 _ZN17pkgCacheGenerator17CreateDynamicMMapEP6FileFdm@Base 0.8.0
 _ZN17pkgCacheGenerator17MergeFileProvidesERNS_10ListParserE@Base 0.8.0
 _ZN17pkgCacheGenerator19MakeOnlyStatusCacheEP10OpProgressPP11DynamicMMap@Base 0.8.0
 _ZN17pkgCacheGenerator5ReMapEPKvS1_@Base 0.8.0
 _ZN17pkgCacheGenerator7DynamicIN8pkgCache11DepIteratorEE7toReMapE@Base 0.8.0
 _ZN17pkgCacheGenerator7DynamicIN8pkgCache11GrpIteratorEE7toReMapE@Base 0.8.0
 _ZN17pkgCacheGenerator7DynamicIN8pkgCache11PkgIteratorEE7toReMapE@Base 0.8.0
 _ZN17pkgCacheGenerator7DynamicIN8pkgCache11PrvIteratorEE7toReMapE@Base 0.8.0
 _ZN17pkgCacheGenerator7DynamicIN8pkgCache11VerIteratorEE7toReMapE@Base 0.8.0
 _ZN17pkgCacheGenerator7DynamicIN8pkgCache12DescIteratorEE7toReMapE@Base 0.8.0
 _ZN17pkgCacheGenerator7DynamicIN8pkgCache15PkgFileIteratorEE7toReMapE@Base 0.8.0
 _ZN17pkgCacheGenerator8NewGroupERN8pkgCache11GrpIteratorERKSs@Base 0.8.0
 _ZN17pkgCacheGenerator9MergeListERNS_10ListParserEPN8pkgCache11VerIteratorE@Base 0.8.0
 _ZN17pkgCacheGeneratorC1EP11DynamicMMapP10OpProgress@Base 0.8.0
 _ZN17pkgCacheGeneratorC2EP11DynamicMMapP10OpProgress@Base 0.8.0
 _ZN17pkgCacheGeneratorD1Ev@Base 0.8.0
 _ZN17pkgCacheGeneratorD2Ev@Base 0.8.0
 _ZN17pkgPackageManager10FixMissingEv@Base 0.8.0
 _ZN17pkgPackageManager10SigINTStopE@Base 0.8.16~exp14
 _ZN17pkgPackageManager11EarlyRemoveEN8pkgCache11PkgIteratorE@Base 0.8.0
 _ZN17pkgPackageManager11EarlyRemoveEN8pkgCache11PkgIteratorEPKNS0_11DepIteratorE@Base 1.0.4
 _ZN17pkgPackageManager11GetArchivesEP10pkgAcquireP13pkgSourceListP10pkgRecords@Base 0.8.0
 _ZN17pkgPackageManager11SmartRemoveEN8pkgCache11PkgIteratorE@Base 0.8.0
 _ZN17pkgPackageManager11SmartUnPackEN8pkgCache11PkgIteratorE@Base 0.8.0
 _ZN17pkgPackageManager11SmartUnPackEN8pkgCache11PkgIteratorEbi@Base 0.8.16~exp14
 _ZN17pkgPackageManager12ConfigureAllEv@Base 0.8.0
 _ZN17pkgPackageManager12ImmediateAddEN8pkgCache11PkgIteratorEbRKj@Base 0.8.0
 _ZN17pkgPackageManager12OrderInstallEv@Base 0.8.0
 _ZN17pkgPackageManager13DepAlwaysTrueEN8pkgCache11DepIteratorE@Base 0.8.0
 _ZN17pkgPackageManager14SmartConfigureEN8pkgCache11PkgIteratorEi@Base 0.8.16~exp14
 _ZN17pkgPackageManager15CheckRConflictsEN8pkgCache11PkgIteratorENS0_11DepIteratorEPKc@Base 0.8.0
 _ZN17pkgPackageManager15CreateOrderListEv@Base 0.8.0
 _ZN17pkgPackageManager17DoInstallPostForkEi@Base 0.8.0
 _ZN17pkgPackageManager2GoEi@Base 0.8.0
 _ZN17pkgPackageManager5ResetEv@Base 0.8.0
 _ZN17pkgPackageManager6RemoveEN8pkgCache11PkgIteratorEb@Base 0.8.0
 _ZN17pkgPackageManager7InstallEN8pkgCache11PkgIteratorESs@Base 0.8.0
 _ZN17pkgPackageManager9ConfigureEN8pkgCache11PkgIteratorE@Base 0.8.0
 _ZN17pkgPackageManager9DoInstallEi@Base 0.8.0
 _ZN17pkgPackageManagerC1EP11pkgDepCache@Base 0.8.0
 _ZN17pkgPackageManagerC2EP11pkgDepCache@Base 0.8.0
 _ZN17pkgPackageManagerD0Ev@Base 0.8.0
 _ZN17pkgPackageManagerD1Ev@Base 0.8.0
 _ZN17pkgPackageManagerD2Ev@Base 0.8.0
 _ZN18debSrcRecordParser12BuildDependsERSt6vectorIN13pkgSrcRecords6Parser11BuildDepRecESaIS3_EERKbS8_@Base 0.8.0
 _ZN18debSrcRecordParser4JumpERKm@Base 0.8.0
 _ZN18debSrcRecordParser4StepEv@Base 0.8.0
 _ZN18debSrcRecordParser5AsStrEv@Base 0.8.0
 _ZN18debSrcRecordParser5FilesERSt6vectorIN13pkgSrcRecords4FileESaIS2_EE@Base 0.8.0
 _ZN18debSrcRecordParser6Files2ERSt6vectorIN13pkgSrcRecords5File2ESaIS2_EE@Base 1.0.9.4
 _ZN18debSrcRecordParser6OffsetEv@Base 0.8.0
 _ZN18debSrcRecordParser7RestartEv@Base 0.8.0
 _ZN18debSrcRecordParser8BinariesEv@Base 0.8.0
 _ZN18debSrcRecordParserD0Ev@Base 0.8.0
 _ZN18debSrcRecordParserD1Ev@Base 0.8.0
 _ZN18debSrcRecordParserD2Ev@Base 0.8.0
 _ZN18pkgAcqMetaClearSig16Custom600HeadersEv@Base 0.8.13
 _ZN18pkgAcqMetaClearSig6FailedESsPN10pkgAcquire12MethodConfigE@Base 0.8.11
 _ZN18pkgAcqMetaClearSigC1EP10pkgAcquireRKSsS3_S3_S3_S3_S3_S3_S3_S3_PKSt6vectorIP11IndexTargetSaIS6_EEP12indexRecords@Base 0.8.11
 _ZN18pkgAcqMetaClearSigC2EP10pkgAcquireRKSsS3_S3_S3_S3_S3_S3_S3_S3_PKSt6vectorIP11IndexTargetSaIS6_EEP12indexRecords@Base 0.8.11
 _ZN18pkgAcqMetaClearSigD0Ev@Base 0.8.11
 _ZN18pkgAcqMetaClearSigD1Ev@Base 0.8.11
 _ZN18pkgAcqMetaClearSigD2Ev@Base 0.8.11
 _ZN18pkgProblemResolver10MakeScoresEv@Base 0.8.0
 _ZN18pkgProblemResolver13ResolveByKeepEv@Base 0.8.0
 _ZN18pkgProblemResolver14InstallProtectEv@Base 0.8.0
 _ZN18pkgProblemResolver15ResolveInternalEb@Base 0.8.16~exp6
 _ZN18pkgProblemResolver21InstOrNewPolicyBrokenEN8pkgCache11PkgIteratorE@Base 0.8.15.3
 _ZN18pkgProblemResolver21ResolveByKeepInternalEv@Base 0.8.16~exp6
 _ZN18pkgProblemResolver4ThisE@Base 0.8.0
 _ZN18pkgProblemResolver7ResolveEb@Base 0.8.0
 _ZN18pkgProblemResolver9DoUpgradeEN8pkgCache11PkgIteratorE@Base 0.8.0
 _ZN18pkgProblemResolver9ScoreSortEPKvS1_@Base 0.8.0
 _ZN18pkgProblemResolverC1EP11pkgDepCache@Base 0.8.0
 _ZN18pkgProblemResolverC2EP11pkgDepCache@Base 0.8.0
 _ZN18pkgProblemResolverD1Ev@Base 0.8.0
 _ZN18pkgProblemResolverD2Ev@Base 0.8.0
 _ZN19debVersioningSystem11CmpFragmentEPKcS1_S1_S1_@Base 0.8.0
 _ZN19debVersioningSystem12DoCmpVersionEPKcS1_S1_S1_@Base 0.8.0
 _ZN19debVersioningSystem15DoCmpReleaseVerEPKcS1_S1_S1_@Base 0.8.0
 _ZN19debVersioningSystem15UpstreamVersionEPKc@Base 0.8.0
 _ZN19debVersioningSystem8CheckDepEPKciS1_@Base 0.8.0
 _ZN19debVersioningSystemC1Ev@Base 0.8.0
 _ZN19debVersioningSystemC2Ev@Base 0.8.0
 _ZN19debVersioningSystemD0Ev@Base 0.8.0
 _ZN19debVersioningSystemD1Ev@Base 0.8.0
 _ZN19debVersioningSystemD2Ev@Base 0.8.0
 _ZN19pkgUdevCdromDevices16ScanForRemovableEb@Base 0.8.12
 _ZN19pkgUdevCdromDevices4ScanEv@Base 0.8.0
 _ZN19pkgUdevCdromDevices6DlopenEv@Base 0.8.0
 _ZN19pkgUdevCdromDevicesC1Ev@Base 0.8.0
 _ZN19pkgUdevCdromDevicesC2Ev@Base 0.8.0
 _ZN19pkgUdevCdromDevicesD0Ev@Base 0.8.0
 _ZN19pkgUdevCdromDevicesD1Ev@Base 0.8.0
 _ZN19pkgUdevCdromDevicesD2Ev@Base 0.8.0
 _ZN19pkgVersioningSystem10GlobalListE@Base 0.8.0
 _ZN19pkgVersioningSystem13GlobalListLenE@Base 0.8.0
 _ZN19pkgVersioningSystem17TestCompatibilityERKS_@Base 0.8.0
 _ZN19pkgVersioningSystem5GetVSEPKc@Base 0.8.0
 _ZN19pkgVersioningSystemC1Ev@Base 0.8.0
 _ZN19pkgVersioningSystemC2Ev@Base 0.8.0
 _ZN20debTranslationsIndexC1ESsSsSsPKc@Base 0.8.0
 _ZN20debTranslationsIndexC2ESsSsSsPKc@Base 0.8.0
 _ZN20debTranslationsIndexD0Ev@Base 0.8.0
 _ZN20debTranslationsIndexD1Ev@Base 0.8.0
 _ZN20debTranslationsIndexD2Ev@Base 0.8.0
 _ZN21debTranslationsParser12ArchitectureEv@Base 1.0.4
 _ZN21debTranslationsParser7VersionEv@Base 1.0.4
 _ZN21debTranslationsParserD0Ev@Base 1.0.4
 _ZN21debTranslationsParserD1Ev@Base 1.0.4
 _ZN21debTranslationsParserD2Ev@Base 1.0.4
 _ZN21pkgAcqIndexMergeDiffs4DoneESsySsPN10pkgAcquire12MethodConfigE@Base 0.9.14.3~exp1
 _ZN21pkgAcqIndexMergeDiffs6FailedESsPN10pkgAcquire12MethodConfigE@Base 0.9.14.3~exp1
 _ZN21pkgAcqIndexMergeDiffs7DescURIEv@Base 0.9.14.3~exp1
 _ZN21pkgAcqIndexMergeDiffsC1EP10pkgAcquireRKSsS3_S3_RK10HashStringRK8DiffInfoPKSt6vectorIPS_SaISB_EE@Base 0.9.14.3~exp1
 _ZN21pkgAcqIndexMergeDiffsC2EP10pkgAcquireRKSsS3_S3_RK10HashStringRK8DiffInfoPKSt6vectorIPS_SaISB_EE@Base 0.9.14.3~exp1
 _ZN21pkgAcqIndexMergeDiffsD0Ev@Base 0.9.14.3~exp1
 _ZN21pkgAcqIndexMergeDiffsD1Ev@Base 0.9.14.3~exp1
 _ZN21pkgAcqIndexMergeDiffsD2Ev@Base 0.9.14.3~exp1
 _ZN23SummationImplementation5AddFDER6FileFdy@Base 0.8.16~exp9
 _ZN23SummationImplementation5AddFDEiy@Base 0.8.16~exp6
 _ZN3APT11CacheFilter23PackageNameMatchesRegExC1ERKSs@Base 0.8.0
 _ZN3APT11CacheFilter23PackageNameMatchesRegExC2ERKSs@Base 0.8.0
 _ZN3APT11CacheFilter23PackageNameMatchesRegExD1Ev@Base 0.8.0
 _ZN3APT11CacheFilter23PackageNameMatchesRegExD2Ev@Base 0.8.0
 _ZN3APT11CacheFilter23PackageNameMatchesRegExclERKN8pkgCache11GrpIteratorE@Base 0.8.0
 _ZN3APT11CacheFilter23PackageNameMatchesRegExclERKN8pkgCache11PkgIteratorE@Base 0.8.0
 _ZN3APT11CacheFilter25PackageNameMatchesFnmatchclERKN8pkgCache11GrpIteratorE@Base 0.9.11
 _ZN3APT11CacheFilter25PackageNameMatchesFnmatchclERKN8pkgCache11PkgIteratorE@Base 0.9.11
 _ZN3APT11CacheFilter39PackageArchitectureMatchesSpecificationC1ERKSsb@Base 0.9.7
 _ZN3APT11CacheFilter39PackageArchitectureMatchesSpecificationC2ERKSsb@Base 0.9.7
 _ZN3APT11CacheFilter39PackageArchitectureMatchesSpecificationD1Ev@Base 0.9.7
 _ZN3APT11CacheFilter39PackageArchitectureMatchesSpecificationD2Ev@Base 0.9.7
 _ZN3APT11CacheFilter39PackageArchitectureMatchesSpecificationclERKN8pkgCache11PkgIteratorE@Base 0.9.7
 _ZN3APT11CacheFilter39PackageArchitectureMatchesSpecificationclERKN8pkgCache11VerIteratorE@Base 0.9.7
 _ZN3APT11CacheFilter39PackageArchitectureMatchesSpecificationclERKPKc@Base 0.9.7
 _ZN3APT13Configuration10CompressorC1EPKcS3_S3_S3_S3_t@Base 0.8.12
 _ZN3APT13Configuration10CompressorC2EPKcS3_S3_S3_S3_t@Base 0.8.12
 _ZN3APT13Configuration10CompressorD1Ev@Base 0.8.12
 _ZN3APT13Configuration10CompressorD2Ev@Base 0.8.12
 _ZN3APT13Configuration12getLanguagesERKbS2_PPKc@Base 0.8.0
 _ZN3APT13Configuration13checkLanguageESsb@Base 0.9.7.5
 _ZN3APT13Configuration14getCompressorsEb@Base 0.8.12
 _ZN3APT13Configuration16getArchitecturesERKb@Base 0.8.0
 _ZN3APT13Configuration16getBuildProfilesEv@Base 0.9.16
 _ZN3APT13Configuration17checkArchitectureERKSs@Base 0.8.0
 _ZN3APT13Configuration19getCompressionTypesERKb@Base 0.8.0
 _ZN3APT13Configuration22getBuildProfilesStringEv@Base 0.9.16
 _ZN3APT13Configuration23getCompressorExtensionsEv@Base 0.8.12
 _ZN3APT13Configuration37setDefaultConfigurationForCompressorsEv@Base 0.8.12
 _ZN3APT14CacheSetHelper14canNotFindTaskEPNS_25PackageContainerInterfaceER12pkgCacheFileSs@Base 0.8.16~exp9
 _ZN3APT14CacheSetHelper15canNotFindRegExEPNS_25PackageContainerInterfaceER12pkgCacheFileSs@Base 0.8.16~exp9
 _ZN3APT14CacheSetHelper16canNotFindAllVerEPNS_25VersionContainerInterfaceER12pkgCacheFileRKN8pkgCache11PkgIteratorE@Base 0.8.16~exp9
 _ZN3APT14CacheSetHelper17canNotFindPackageEPNS_25PackageContainerInterfaceER12pkgCacheFileRKSs@Base 0.8.16~exp9
 _ZN3APT14CacheSetHelper17canNotFindPkgNameER12pkgCacheFileRKSs@Base 0.8.0
 _ZN3APT14CacheSetHelper17showTaskSelectionERKN8pkgCache11PkgIteratorERKSs@Base 0.8.16~exp9
 _ZN3APT14CacheSetHelper18showRegExSelectionERKN8pkgCache11PkgIteratorERKSs@Base 0.8.16~exp9
 _ZN3APT14CacheSetHelper19canNotFindNewestVerER12pkgCacheFileRKN8pkgCache11PkgIteratorE@Base 0.8.0
 _ZN3APT14CacheSetHelper19showSelectedVersionERKN8pkgCache11PkgIteratorENS1_11VerIteratorERKSsb@Base 0.8.16~exp9
 _ZN3APT14CacheSetHelper21canNotFindCandInstVerEPNS_25VersionContainerInterfaceER12pkgCacheFileRKN8pkgCache11PkgIteratorE@Base 0.8.16~exp9
 _ZN3APT14CacheSetHelper21canNotFindInstCandVerEPNS_25VersionContainerInterfaceER12pkgCacheFileRKN8pkgCache11PkgIteratorE@Base 0.8.16~exp9
 _ZN3APT14CacheSetHelper22canNotFindCandidateVerER12pkgCacheFileRKN8pkgCache11PkgIteratorE@Base 0.8.0
 _ZN3APT14CacheSetHelper22canNotFindInstalledVerER12pkgCacheFileRKN8pkgCache11PkgIteratorE@Base 0.8.0
 _ZN3APT14CacheSetHelperD0Ev@Base 0.8.0
 _ZN3APT14CacheSetHelperD1Ev@Base 0.8.0
 _ZN3APT14CacheSetHelperD2Ev@Base 0.8.0
 _ZN3APT16PackageContainerISt3setIN8pkgCache11PkgIteratorESt4lessIS3_ESaIS3_EEE14setConstructorERKNS_25PackageContainerInterface11ConstructorE@Base 0.8.16~exp9
 _ZN3APT16PackageContainerISt3setIN8pkgCache11PkgIteratorESt4lessIS3_ESaIS3_EEE5clearEv@Base 0.8.16~exp9
 _ZN3APT16PackageContainerISt3setIN8pkgCache11PkgIteratorESt4lessIS3_ESaIS3_EEE6insertERKS3_@Base 0.8.16~exp9
 _ZN3APT16PackageContainerISt4listIN8pkgCache11PkgIteratorESaIS3_EEE14setConstructorERKNS_25PackageContainerInterface11ConstructorE@Base 0.8.16~exp9
 _ZN3APT16PackageContainerISt4listIN8pkgCache11PkgIteratorESaIS3_EEE5clearEv@Base 0.8.16~exp9
 _ZN3APT16PackageContainerISt4listIN8pkgCache11PkgIteratorESaIS3_EEE6insertERKS3_@Base 0.8.16~exp9
 _ZN3APT16VersionContainerISt4listIN8pkgCache11VerIteratorESaIS3_EEE5clearEv@Base 0.8.16~exp9
 _ZN3APT16VersionContainerISt4listIN8pkgCache11VerIteratorESaIS3_EEE6insertERKS3_@Base 0.8.16~exp9
 _ZN3APT25PackageContainerInterface10FromStringEPS0_R12pkgCacheFileRKSsRNS_14CacheSetHelperE@Base 0.8.16~exp9
 _ZN3APT25PackageContainerInterface11FromFnmatchEPS0_R12pkgCacheFileSsRNS_14CacheSetHelperE@Base 0.9.11
 _ZN3APT25PackageContainerInterface15FromCommandLineEPS0_R12pkgCacheFilePPKcRNS_14CacheSetHelperE@Base 0.8.16~exp9
 _ZN3APT25PackageContainerInterface23FromModifierCommandLineERtPS0_R12pkgCacheFilePKcRKSt4listINS0_8ModifierESaIS8_EERNS_14CacheSetHelperE@Base 0.8.16~exp9
 _ZN3APT25PackageContainerInterface8FromNameER12pkgCacheFileRKSsRNS_14CacheSetHelperE@Base 0.8.16~exp9
 _ZN3APT25PackageContainerInterface8FromTaskEPS0_R12pkgCacheFileSsRNS_14CacheSetHelperE@Base 0.8.16~exp9
 _ZN3APT25PackageContainerInterface9FromGroupEPS0_R12pkgCacheFileSsRNS_14CacheSetHelperE@Base 0.9.7
 _ZN3APT25PackageContainerInterface9FromRegExEPS0_R12pkgCacheFileSsRNS_14CacheSetHelperE@Base 0.8.16~exp9
 _ZN3APT25VersionContainerInterface10FromStringEPS0_R12pkgCacheFileSsRKNS0_7VersionERNS_14CacheSetHelperEb@Base 0.8.16~exp9
 _ZN3APT25VersionContainerInterface11FromPackageEPS0_R12pkgCacheFileRKN8pkgCache11PkgIteratorERKNS0_7VersionERNS_14CacheSetHelperE@Base 0.8.16~exp9
 _ZN3APT25VersionContainerInterface15FromCommandLineEPS0_R12pkgCacheFilePPKcRKNS0_7VersionERNS_14CacheSetHelperE@Base 0.8.16~exp9
 _ZN3APT25VersionContainerInterface15getCandidateVerER12pkgCacheFileRKN8pkgCache11PkgIteratorERNS_14CacheSetHelperE@Base 0.8.16~exp9
 _ZN3APT25VersionContainerInterface15getInstalledVerER12pkgCacheFileRKN8pkgCache11PkgIteratorERNS_14CacheSetHelperE@Base 0.8.16~exp9
 _ZN3APT25VersionContainerInterface23FromModifierCommandLineERtPS0_R12pkgCacheFilePKcRKSt4listINS0_8ModifierESaIS8_EERNS_14CacheSetHelperE@Base 0.8.16~exp9
 _ZN3APT6String5StripERKSs@Base 0.9.13~exp1
 _ZN3APT6String8EndswithERKSsS2_@Base 0.9.13.1
 _ZN3APT7Upgrade7UpgradeER11pkgDepCachei@Base 0.9.13~exp1
 _ZN3APT8Progress14PackageManager13StatusChangedESsjjSs@Base 0.9.13~exp1
 _ZN3APT8Progress14PackageManager14ConffilePromptESsjjSs@Base 0.9.13~exp1
 _ZN3APT8Progress14PackageManager16GetPulseIntervalEv@Base 0.9.13~exp1
 _ZN3APT8Progress14PackageManager4StopEv@Base 0.9.13~exp1
 _ZN3APT8Progress14PackageManager4forkEv@Base 0.9.13~exp1
 _ZN3APT8Progress14PackageManager5ErrorESsjjSs@Base 0.9.13~exp1
 _ZN3APT8Progress14PackageManager5PulseEv@Base 0.9.13~exp1
 _ZN3APT8Progress14PackageManager5StartEi@Base 0.9.14.2
 _ZN3APT8Progress14PackageManager9StartDpkgEv@Base 0.9.13~exp1
 _ZN3APT8Progress14PackageManagerD0Ev@Base 0.9.13~exp1
 _ZN3APT8Progress14PackageManagerD1Ev@Base 0.9.13~exp1
 _ZN3APT8Progress14PackageManagerD2Ev@Base 0.9.13~exp1
 _ZN3APT8Progress18PackageManagerText13StatusChangedESsjjSs@Base 0.9.13~exp1
 _ZN3APT8Progress18PackageManagerTextD0Ev@Base 0.9.13~exp1
 _ZN3APT8Progress18PackageManagerTextD1Ev@Base 0.9.13~exp1
 _ZN3APT8Progress18PackageManagerTextD2Ev@Base 0.9.13~exp1
 _ZN3APT8Progress19PackageManagerFancy13StatusChangedESsjjSs@Base 0.9.13~exp1
 _ZN3APT8Progress19PackageManagerFancy14HandleSIGWINCHEi@Base 0.9.13~exp1
 _ZN3APT8Progress19PackageManagerFancy14staticSIGWINCHEi@Base 0.9.14.2
 _ZN3APT8Progress19PackageManagerFancy15GetTerminalSizeEv@Base 1.0
 _ZN3APT8Progress19PackageManagerFancy18GetTextProgressStrEfi@Base 1.0
 _ZN3APT8Progress19PackageManagerFancy23SetupTerminalScrollAreaEi@Base 0.9.13~exp1
 _ZN3APT8Progress19PackageManagerFancy4StopEv@Base 0.9.13~exp1
 _ZN3APT8Progress19PackageManagerFancy5StartEi@Base 0.9.14.2
 _ZN3APT8Progress19PackageManagerFancy9instancesE@Base 0.9.14.2
 _ZN3APT8Progress19PackageManagerFancyC1Ev@Base 0.9.13~exp1
 _ZN3APT8Progress19PackageManagerFancyC2Ev@Base 0.9.13~exp1
 _ZN3APT8Progress19PackageManagerFancyD0Ev@Base 0.9.13~exp1
 _ZN3APT8Progress19PackageManagerFancyD1Ev@Base 0.9.13~exp1
 _ZN3APT8Progress19PackageManagerFancyD2Ev@Base 0.9.13~exp1
 _ZN3APT8Progress24PackageManagerProgressFd13StatusChangedESsjjSs@Base 0.9.13~exp1
 _ZN3APT8Progress24PackageManagerProgressFd14ConffilePromptESsjjSs@Base 0.9.13~exp1
 _ZN3APT8Progress24PackageManagerProgressFd15WriteToStatusFdESs@Base 0.9.13~exp1
 _ZN3APT8Progress24PackageManagerProgressFd4StopEv@Base 0.9.13~exp1
 _ZN3APT8Progress24PackageManagerProgressFd5ErrorESsjjSs@Base 0.9.13~exp1
 _ZN3APT8Progress24PackageManagerProgressFd9StartDpkgEv@Base 0.9.13~exp1
 _ZN3APT8Progress24PackageManagerProgressFdC1Ei@Base 0.9.13~exp1
 _ZN3APT8Progress24PackageManagerProgressFdC2Ei@Base 0.9.13~exp1
 _ZN3APT8Progress24PackageManagerProgressFdD0Ev@Base 0.9.13~exp1
 _ZN3APT8Progress24PackageManagerProgressFdD1Ev@Base 0.9.13~exp1
 _ZN3APT8Progress24PackageManagerProgressFdD2Ev@Base 0.9.13~exp1
 _ZN3APT8Progress29PackageManagerProgressFactoryEv@Base 0.9.13~exp1
 _ZN3APT8Progress30PackageManagerProgressDeb822Fd13StatusChangedESsjjSs@Base 0.9.13~exp1
 _ZN3APT8Progress30PackageManagerProgressDeb822Fd14ConffilePromptESsjjSs@Base 0.9.13~exp1
 _ZN3APT8Progress30PackageManagerProgressDeb822Fd15WriteToStatusFdESs@Base 0.9.13~exp1
 _ZN3APT8Progress30PackageManagerProgressDeb822Fd4StopEv@Base 0.9.13~exp1
 _ZN3APT8Progress30PackageManagerProgressDeb822Fd5ErrorESsjjSs@Base 0.9.13~exp1
 _ZN3APT8Progress30PackageManagerProgressDeb822Fd9StartDpkgEv@Base 0.9.13~exp1
 _ZN3APT8Progress30PackageManagerProgressDeb822FdC1Ei@Base 0.9.13~exp1
 _ZN3APT8Progress30PackageManagerProgressDeb822FdC2Ei@Base 0.9.13~exp1
 _ZN3APT8Progress30PackageManagerProgressDeb822FdD0Ev@Base 0.9.13~exp1
 _ZN3APT8Progress30PackageManagerProgressDeb822FdD1Ev@Base 0.9.13~exp1
 _ZN3APT8Progress30PackageManagerProgressDeb822FdD2Ev@Base 0.9.13~exp1
 _ZN3URI14NoUserPasswordERKSs@Base 0.8.0
 _ZN3URI8CopyFromERKSs@Base 0.8.0
 _ZN3URI8SiteOnlyERKSs@Base 0.8.0
 _ZN3URID1Ev@Base 0.8.0
 _ZN3URID2Ev@Base 0.8.0
 _ZN3URIcvSsEv@Base 0.8.0
 _ZN4EDSP10WriteErrorEPKcRKSsP8_IO_FILE@Base 0.8.16~exp2
 _ZN4EDSP11ReadRequestEiRSt4listISsSaISsEES3_RbS4_S4_@Base 0.8.16~exp2
 _ZN4EDSP12ApplyRequestERKSt4listISsSaISsEES4_R11pkgDepCache@Base 0.8.16~exp2
 _ZN4EDSP12ReadResponseEiR11pkgDepCacheP10OpProgress@Base 0.8.16~exp2
 _ZN4EDSP12WriteRequestER11pkgDepCacheP8_IO_FILEbbbP10OpProgress@Base 0.8.16~exp2
 _ZN4EDSP13ExecuteSolverEPKcPiS2_@Base 0.8.16~exp2
 _ZN4EDSP13ExecuteSolverEPKcPiS2_b@Base 1.0.4
 _ZN4EDSP13WriteProgressEtPKcP8_IO_FILE@Base 0.8.16~exp2
 _ZN4EDSP13WriteScenarioER11pkgDepCacheP8_IO_FILEP10OpProgress@Base 0.8.16~exp2
 _ZN4EDSP13WriteSolutionER11pkgDepCacheP8_IO_FILE@Base 0.8.16~exp2
 _ZN4EDSP15ResolveExternalEPKcR11pkgDepCachebbbP10OpProgress@Base 0.8.16~exp2
 _ZN4EDSP20WriteLimitedScenarioER11pkgDepCacheP8_IO_FILERKN3APT16PackageContainerISt3setIN8pkgCache11PkgIteratorESt4lessIS8_ESaIS8_EEEEP10OpProgress@Base 0.8.16~exp9
 _ZN4EDSP6DepMapE@Base 0.8.16~exp2
 _ZN4EDSP7PrioMapE@Base 0.8.16~exp2
 _ZN4MMap3MapER6FileFd@Base 0.8.0
 _ZN4MMap4SyncEmm@Base 0.8.0
 _ZN4MMap4SyncEv@Base 0.8.0
 _ZN4MMap5CloseEb@Base 0.8.0
 _ZN4MMapC1ER6FileFdm@Base 0.8.0
 _ZN4MMapC1Em@Base 0.8.0
 _ZN4MMapC2ER6FileFdm@Base 0.8.0
 _ZN4MMapC2Em@Base 0.8.0
 _ZN4MMapD0Ev@Base 0.8.0
 _ZN4MMapD1Ev@Base 0.8.0
 _ZN4MMapD2Ev@Base 0.8.0
 _ZN6FileFd14OpenDescriptorEijNS_12CompressModeEb@Base 0.8.16~exp9
 _ZN6FileFd14OpenDescriptorEijRKN3APT13Configuration10CompressorEb@Base 0.8.16~exp9
 _ZN6FileFd16ModificationTimeEv@Base 0.8.16~exp9
 _ZN6FileFd4OpenESsjNS_12CompressModeEm@Base 0.8.16~exp9
 _ZN6FileFd4OpenESsjRKN3APT13Configuration10CompressorEm@Base 0.8.16~exp9
 _ZN6FileFd4ReadEPvyPy@Base 0.8.16~exp6
 _ZN6FileFd4SeekEy@Base 0.8.16~exp6
 _ZN6FileFd4SizeEv@Base 0.8.0
 _ZN6FileFd4SkipEy@Base 0.8.16~exp6
 _ZN6FileFd4SyncEv@Base 0.8.0
 _ZN6FileFd4TellEv@Base 0.8.0
 _ZN6FileFd4gzFdEv@Base 0.8.0
 _ZN6FileFd5CloseEv@Base 0.8.0
 _ZN6FileFd5WriteEPKvy@Base 0.8.16~exp6
 _ZN6FileFd5WriteEiPKvy@Base 0.8.16~exp14
 _ZN6FileFd8FileSizeEv@Base 0.8.8
 _ZN6FileFd8ReadLineEPcy@Base 0.8.16~exp9
 _ZN6FileFd8TruncateEy@Base 0.8.16~exp6
 _ZN6FileFdD0Ev@Base 0.8.0
 _ZN6FileFdD1Ev@Base 0.8.0
 _ZN6FileFdD2Ev@Base 0.8.0
 _ZN6Hashes5AddFDER6FileFdybbbb@Base 0.8.16~exp9
 _ZN6Hashes5AddFDEiybbbb@Base 0.8.16~exp6
 _ZN6Vendor9CheckDistESs@Base 0.8.0
 _ZN6VendorC1ESsSsPSt6vectorIPNS_11FingerprintESaIS2_EE@Base 0.8.0
 _ZN6VendorC2ESsSsPSt6vectorIPNS_11FingerprintESaIS2_EE@Base 0.8.0
 _ZN6VendorD0Ev@Base 0.8.0
 _ZN6VendorD1Ev@Base 0.8.0
 _ZN6VendorD2Ev@Base 0.8.0
 _ZN8DiffInfoD1Ev@Base 0.8.0
 _ZN8DiffInfoD2Ev@Base 0.8.0
 _ZN8pkgCache11CompTypeDebEh@Base 0.8.0
 _ZN8pkgCache11DepIterator6GlobOrERS0_S1_@Base 0.8.0
 _ZN8pkgCache11DepIteratorppEi@Base 0.8.0
 _ZN8pkgCache11DepIteratorppEv@Base 0.8.0
 _ZN8pkgCache11GrpIteratorppEi@Base 0.8.0
 _ZN8pkgCache11GrpIteratorppEv@Base 0.8.0
 _ZN8pkgCache11PkgIteratorppEi@Base 0.8.0
 _ZN8pkgCache11PkgIteratorppEv@Base 0.8.0
 _ZN8pkgCache11PrvIteratorppEi@Base 0.8.0
 _ZN8pkgCache11PrvIteratorppEv@Base 0.8.0
 _ZN8pkgCache11VerIteratorppEi@Base 0.8.0
 _ZN8pkgCache11VerIteratorppEv@Base 0.8.0
 _ZN8pkgCache12DescIteratorppEi@Base 0.8.0
 _ZN8pkgCache12DescIteratorppEv@Base 0.8.0
 _ZN8pkgCache15PkgFileIterator4IsOkEv@Base 0.8.0
 _ZN8pkgCache15PkgFileIterator6RelStrEv@Base 0.8.0
 _ZN8pkgCache15PkgFileIteratorppEi@Base 0.8.0
 _ZN8pkgCache15PkgFileIteratorppEv@Base 0.8.0
 _ZN8pkgCache15VerFileIteratorppEi@Base 0.8.0
 _ZN8pkgCache15VerFileIteratorppEv@Base 0.8.0
 _ZN8pkgCache16DescFileIteratorppEi@Base 0.8.0
 _ZN8pkgCache16DescFileIteratorppEv@Base 0.8.0
 _ZN8pkgCache17SingleArchFindPkgERKSs@Base 0.8.0
 _ZN8pkgCache5ReMapERKb@Base 0.8.0
 _ZN8pkgCache6HeaderC1Ev@Base 0.8.0
 _ZN8pkgCache6HeaderC2Ev@Base 0.8.0
 _ZN8pkgCache7DepTypeEh@Base 0.8.0
 _ZN8pkgCache7FindGrpERKSs@Base 0.8.0
 _ZN8pkgCache7FindPkgERKSs@Base 0.8.0
 _ZN8pkgCache7FindPkgERKSsS1_@Base 0.8.0
 _ZN8pkgCache8CompTypeEh@Base 0.8.0
 _ZN8pkgCache8PriorityEh@Base 0.8.0
 _ZN8pkgCacheC1EP4MMapb@Base 0.8.0
 _ZN8pkgCacheC2EP4MMapb@Base 0.8.0
 _ZN8pkgCacheD0Ev@Base 0.8.0
 _ZN8pkgCacheD1Ev@Base 0.8.0
 _ZN8pkgCacheD2Ev@Base 0.8.0
 _ZN8pkgCdrom11DropRepeatsERSt6vectorISsSaISsEEPKc@Base 0.8.0
 _ZN8pkgCdrom12FindPackagesESsRSt6vectorISsSaISsEES3_S3_S3_RSsP14pkgCdromStatusj@Base 0.8.0
 _ZN8pkgCdrom13WriteDatabaseER13Configuration@Base 0.8.0
 _ZN8pkgCdrom14DropBinaryArchERSt6vectorISsSaISsEE@Base 0.8.0
 _ZN8pkgCdrom15DropTranslationERSt6vectorISsSaISsEE@Base 0.9.7.5
 _ZN8pkgCdrom15WriteSourceListESsRSt6vectorISsSaISsEEb@Base 0.8.0
 _ZN8pkgCdrom16ReduceSourcelistESsRSt6vectorISsSaISsEE@Base 0.8.0
 _ZN8pkgCdrom3AddEP14pkgCdromStatus@Base 0.8.0
 _ZN8pkgCdrom5IdentERSsP14pkgCdromStatus@Base 0.8.0
 _ZN8pkgCdrom5ScoreESs@Base 0.8.0
 _ZN9IndexCopy12CopyPackagesESsSsRSt6vectorISsSaISsEEP14pkgCdromStatus@Base 0.8.0
 _ZN9IndexCopy15ReconstructChopERmSsSs@Base 0.8.0
 _ZN9IndexCopy17ReconstructPrefixERSsSsSsSs@Base 0.8.0
 _ZN9IndexCopy19ConvertToSourceListESsRSs@Base 0.8.0
 _ZN9IndexCopy8ChopDirsESsj@Base 0.8.0
 _ZN9IndexCopy9GrabFirstESsRSsj@Base 0.8.0
 _ZN9SigVerify13CopyAndVerifyESsSsRSt6vectorISsSaISsEES2_S2_@Base 0.8.0
 _ZN9SigVerify13CopyMetaIndexESsSsSsSs@Base 0.8.0
 _ZN9SigVerify6VerifyESsSsP12indexRecords@Base 0.8.0
 _ZN9SigVerify7RunGPGVERKSsS1_RKi@Base 0.9.7.9~exp2
 _ZN9SigVerify7RunGPGVERKSsS1_RKiPi@Base 0.8.0
 _ZN9debSystem10InitializeER13Configuration@Base 0.8.0
 _ZN9debSystem12CheckUpdatesEv@Base 0.8.0
 _ZN9debSystem14AddStatusFilesERSt6vectorIP12pkgIndexFileSaIS2_EE@Base 0.8.0
 _ZN9debSystem16ArchiveSupportedEPKc@Base 0.8.0
 _ZN9debSystem4LockEv@Base 0.8.0
 _ZN9debSystem5ScoreERK13Configuration@Base 0.8.0
 _ZN9debSystem6UnLockEb@Base 0.8.0
 _ZN9debSystemC1Ev@Base 0.8.0
 _ZN9debSystemC2Ev@Base 0.8.0
 _ZN9debSystemD0Ev@Base 0.8.0
 _ZN9debSystemD1Ev@Base 0.8.0
 _ZN9debSystemD2Ev@Base 0.8.0
 _ZN9edspIndexC1ESs@Base 0.8.16~exp2
 _ZN9edspIndexC2ESs@Base 0.8.16~exp2
 _ZN9edspIndexD0Ev@Base 0.8.16~exp2
 _ZN9edspIndexD1Ev@Base 0.8.16~exp2
 _ZN9edspIndexD2Ev@Base 0.8.16~exp2
 _ZN9pkgDPkgPM10SendV2PkgsEP8_IO_FILE@Base 0.8.0
 _ZN9pkgDPkgPM12GoNoABIBreakEPN3APT8Progress14PackageManagerE@Base 0.9.13~exp1
 _ZN9pkgDPkgPM12SendPkgsInfoEP8_IO_FILERKj@Base 0.9.9.1
 _ZN9pkgDPkgPM12StopPtyMagicEv@Base 0.9.13~exp1
 _ZN9pkgDPkgPM13DoTerminalPtyEi@Base 0.8.0
 _ZN9pkgDPkgPM13StartPtyMagicEv@Base 0.9.13~exp1
 _ZN9pkgDPkgPM14DoDpkgStatusFdEi@Base 0.9.13~exp1
 _ZN9pkgDPkgPM15WriteHistoryTagERKSsSs@Base 0.8.0
 _ZN9pkgDPkgPM17WriteApportReportEPKcS1_@Base 0.8.0
 _ZN9pkgDPkgPM18RunScriptsWithPkgsEPKc@Base 0.8.0
 _ZN9pkgDPkgPM18SetupSlavePtyMagicEv@Base 1.0.9.8.4
 _ZN9pkgDPkgPM21ProcessDpkgStatusLineEPc@Base 0.9.13~exp1
 _ZN9pkgDPkgPM21handleDisappearActionERKSs@Base 0.8.0
 _ZN9pkgDPkgPM24BuildPackagesProgressMapEv@Base 0.9.13~exp1
 _ZN9pkgDPkgPM2GoEi@Base 0.8.0
 _ZN9pkgDPkgPM5ResetEv@Base 0.8.0
 _ZN9pkgDPkgPM6RemoveEN8pkgCache11PkgIteratorEb@Base 0.8.0
 _ZN9pkgDPkgPM7DoStdinEi@Base 0.8.0
 _ZN9pkgDPkgPM7InstallEN8pkgCache11PkgIteratorESs@Base 0.8.0
 _ZN9pkgDPkgPM7OpenLogEv@Base 0.8.0
 _ZN9pkgDPkgPM8CloseLogEv@Base 0.8.0
 _ZN9pkgDPkgPM9ConfigureEN8pkgCache11PkgIteratorE@Base 0.8.0
 _ZN9pkgDPkgPMC1EP11pkgDepCache@Base 0.8.0
 _ZN9pkgDPkgPMC2EP11pkgDepCache@Base 0.8.0
 _ZN9pkgDPkgPMD0Ev@Base 0.8.0
 _ZN9pkgDPkgPMD1Ev@Base 0.8.0
 _ZN9pkgDPkgPMD2Ev@Base 0.8.0
 _ZN9pkgPolicy11GetPriorityERKN8pkgCache11PkgIteratorE@Base 0.8.0
 _ZN9pkgPolicy11GetPriorityERKN8pkgCache15PkgFileIteratorE@Base 0.8.16~exp6
 _ZN9pkgPolicy12InitDefaultsEv@Base 0.8.0
 _ZN9pkgPolicy15GetCandidateVerERKN8pkgCache11PkgIteratorE@Base 0.8.0
 _ZN9pkgPolicy6PkgPinD1Ev@Base 0.8.0
 _ZN9pkgPolicy6PkgPinD2Ev@Base 0.8.0
 _ZN9pkgPolicy8GetMatchERKN8pkgCache11PkgIteratorE@Base 0.8.0
 _ZN9pkgPolicy9CreatePinEN15pkgVersionMatch9MatchTypeESsSss@Base 0.8.0
 _ZN9pkgPolicyC1EP8pkgCache@Base 0.8.0
 _ZN9pkgPolicyC2EP8pkgCache@Base 0.8.0
 _ZN9pkgPolicyD0Ev@Base 0.8.0
 _ZN9pkgPolicyD1Ev@Base 0.8.0
 _ZN9pkgPolicyD2Ev@Base 0.8.0
 _ZN9pkgSystem10GlobalListE@Base 0.8.0
 _ZN9pkgSystem10InitializeER13Configuration@Base 0.8.0
 _ZN9pkgSystem13GlobalListLenE@Base 0.8.0
 _ZN9pkgSystem5ScoreERK13Configuration@Base 0.8.0
 _ZN9pkgSystem9GetSystemEPKc@Base 0.8.0
 _ZN9pkgSystemC1Ev@Base 0.8.0
 _ZN9pkgSystemC2Ev@Base 0.8.0
 _ZNK10HashString10VerifyFileESs@Base 0.8.0
 _ZNK10HashString14GetHashForFileESs@Base 0.9.13.1
 _ZNK10HashString5emptyEv@Base 0.8.0
 _ZNK10HashString5toStrEv@Base 0.8.0
 _ZNK10HashStringeqERKS_@Base 1.0.9.4
 _ZNK10HashStringneERKS_@Base 1.0.9.4
 _ZNK10edspIFType15CreatePkgParserEN8pkgCache15PkgFileIteratorE@Base 0.8.16~exp2
 _ZNK10edspSystem8CreatePMEP11pkgDepCache@Base 0.8.16~exp2
 _ZNK10edspSystem9FindIndexEN8pkgCache15PkgFileIteratorERP12pkgIndexFile@Base 0.8.16~exp2
 _ZNK11CommandLine8FileSizeEv@Base 0.8.0
 _ZNK11GlobalError5emptyERKNS_7MsgTypeE@Base 0.8.0
 _ZNK11IndexTarget10IsOptionalEv@Base 0.8.11
 _ZNK11IndexTarget10IsSubIndexEv@Base 0.8.11
 _ZNK12debIFTypePkg15CreatePkgParserEN8pkgCache15PkgFileIteratorE@Base 0.8.0
 _ZNK12debSLTypeDeb10CreateItemERSt6vectorIP9metaIndexSaIS2_EERKSsS7_S7_RKSt3mapISsSsSt4lessISsESaISt4pairIS6_SsEEE@Base 0.8.0
 _ZNK12indexRecords13GetValidUntilEv@Base 0.8.0
 _ZNK12indexRecords15GetExpectedDistEv@Base 0.8.0
 _ZNK12indexRecords6ExistsERKSs@Base 0.8.0
 _ZNK12indexRecords7GetDistEv@Base 0.8.0
 _ZNK12indexRecords8GetSuiteEv@Base 0.9.13.2
 _ZNK12indexRecords9CheckDistESs@Base 0.8.0
 _ZNK12pkgAcqMethod11PrintStatusEPKcS1_RPc@Base 0.8.15~exp1
 _ZNK12pkgIndexFile10ArchiveURIESs@Base 0.8.0
 _ZNK12pkgIndexFile10SourceInfoERKN13pkgSrcRecords6ParserERKNS0_4FileE@Base 0.8.0
 _ZNK12pkgIndexFile11ArchiveInfoEN8pkgCache11VerIteratorE@Base 0.8.0
 _ZNK12pkgIndexFile11FindInCacheER8pkgCache@Base 0.8.0
 _ZNK12pkgIndexFile15CreateSrcParserEv@Base 0.8.0
 _ZNK12pkgIndexFile17MergeFileProvidesER17pkgCacheGeneratorP10OpProgress@Base 0.8.0
 _ZNK12pkgIndexFile17MergeFileProvidesER17pkgCacheGeneratorR10OpProgress@Base 0.8.0
 _ZNK12pkgIndexFile4Type15CreatePkgParserEN8pkgCache15PkgFileIteratorE@Base 0.8.0
 _ZNK12pkgIndexFile5MergeER17pkgCacheGeneratorP10OpProgress@Base 0.8.0
 _ZNK12pkgIndexFile5MergeER17pkgCacheGeneratorR10OpProgress@Base 0.8.0
 _ZNK13Configuration10FindVectorEPKc@Base 0.8.0
 _ZNK13Configuration10FindVectorEPKcRKSs@Base 0.9.16
 _ZNK13Configuration18MatchAgainstConfig5MatchEPKc@Base 0.8.0
 _ZNK13Configuration4FindEPKcS1_@Base 0.8.0
 _ZNK13Configuration4Item7FullTagEPKS0_@Base 0.8.0
 _ZNK13Configuration5FindBEPKcRKb@Base 0.8.0
 _ZNK13Configuration5FindIEPKcRKi@Base 0.8.0
 _ZNK13Configuration6ExistsEPKc@Base 0.8.0
 _ZNK13Configuration7FindAnyEPKcS1_@Base 0.8.0
 _ZNK13Configuration7FindDirEPKcS1_@Base 0.8.0
 _ZNK13Configuration8FindFileEPKcS1_@Base 0.8.0
 _ZNK13Configuration9ExistsAnyEPKc@Base 0.8.0
 _ZNK13pkgSourceList10GetIndexesEP10pkgAcquireb@Base 0.8.0
 _ZNK13pkgSourceList4Type8FixupURIERSs@Base 0.8.0
 _ZNK13pkgSourceList4Type9ParseLineERSt6vectorIP9metaIndexSaIS3_EEPKcRKmRKSs@Base 0.8.0
 _ZNK13pkgSourceList9FindIndexEN8pkgCache15PkgFileIteratorERP12pkgIndexFile@Base 0.8.0
 _ZNK13pkgTagSection4FindEPKcRS1_S2_@Base 0.8.0
 _ZNK13pkgTagSection4FindEPKcRj@Base 0.8.0
 _ZNK13pkgTagSection5FindIEPKcl@Base 0.8.0
 _ZNK13pkgTagSection5FindSEPKc@Base 0.8.0
 _ZNK13pkgTagSection7FindULLEPKcRKy@Base 0.8.0
 _ZNK13pkgTagSection8FindFlagEPKcRmm@Base 0.8.0
 _ZNK14HashStringList10VerifyFileESs@Base 1.0.9.4
 _ZNK14HashStringList4findEPKc@Base 1.0.9.4
 _ZNK14HashStringListeqERKS_@Base 1.0.9.4
 _ZNK14HashStringListneERKS_@Base 1.0.9.4
 _ZNK14debStatusIndex11FindInCacheER8pkgCache@Base 0.8.0
 _ZNK14debStatusIndex11HasPackagesEv@Base 0.8.0
 _ZNK14debStatusIndex4SizeEv@Base 0.8.0
 _ZNK14debStatusIndex5MergeER17pkgCacheGeneratorP10OpProgress@Base 0.8.0
 _ZNK14debStatusIndex6ExistsEv@Base 0.8.0
 _ZNK14debStatusIndex7GetTypeEv@Base 0.8.0
 _ZNK14debStatusIndex8DescribeEb@Base 0.8.0
 _ZNK15debIFTypeStatus15CreatePkgParserEN8pkgCache15PkgFileIteratorE@Base 0.8.0
 _ZNK15debReleaseIndex10ArchiveURIERKSs@Base 0.8.0
 _ZNK15debReleaseIndex10GetIndexesEP10pkgAcquireRKb@Base 0.8.0
 _ZNK15debReleaseIndex12MetaIndexURIEPKc@Base 0.8.0
 _ZNK15debReleaseIndex13MetaIndexFileEPKc@Base 0.8.0
 _ZNK15debReleaseIndex13MetaIndexInfoEPKc@Base 0.8.0
 _ZNK15debReleaseIndex14IndexURISuffixEPKcRKSsS3_@Base 0.8.0
 _ZNK15debReleaseIndex14SourceIndexURIEPKcRKSs@Base 0.8.0
 _ZNK15debReleaseIndex19ComputeIndexTargetsEv@Base 0.8.0
 _ZNK15debReleaseIndex19TranslationIndexURIEPKcRKSs@Base 0.8.11
 _ZNK15debReleaseIndex20SourceIndexURISuffixEPKcRKSs@Base 0.8.0
 _ZNK15debReleaseIndex25TranslationIndexURISuffixEPKcRKSs@Base 0.8.11
 _ZNK15debReleaseIndex4InfoEPKcRKSsS3_@Base 0.8.0
 _ZNK15debReleaseIndex8IndexURIEPKcRKSsS3_@Base 0.8.0
 _ZNK15debReleaseIndex9IsTrustedEv@Base 0.8.0
 _ZNK15debSLTypeDebSrc10CreateItemERSt6vectorIP9metaIndexSaIS2_EERKSsS7_S7_RKSt3mapISsSsSt4lessISsESaISt4pairIS6_SsEEE@Base 0.8.0
 _ZNK15debSLTypeDebian18CreateItemInternalERSt6vectorIP9metaIndexSaIS2_EERKSsS7_S7_RKbRKSt3mapISsSsSt4lessISsESaISt4pairIS6_SsEEE@Base 0.8.0
 _ZNK15debSourcesIndex10ArchiveURIESs@Base 0.8.0
 _ZNK15debSourcesIndex10SourceInfoERKN13pkgSrcRecords6ParserERKNS0_4FileE@Base 0.8.0
 _ZNK15debSourcesIndex11HasPackagesEv@Base 0.8.0
 _ZNK15debSourcesIndex15CreateSrcParserEv@Base 0.8.0
 _ZNK15debSourcesIndex4InfoEPKc@Base 0.8.0
 _ZNK15debSourcesIndex4SizeEv@Base 0.8.0
 _ZNK15debSourcesIndex6ExistsEv@Base 0.8.0
 _ZNK15debSourcesIndex7GetTypeEv@Base 0.8.0
 _ZNK15debSourcesIndex8DescribeEb@Base 0.8.0
 _ZNK15debSourcesIndex8IndexURIEPKc@Base 0.8.0
 _ZNK16debPackagesIndex10ArchiveURIESs@Base 0.8.0
 _ZNK16debPackagesIndex11ArchiveInfoEN8pkgCache11VerIteratorE@Base 0.8.0
 _ZNK16debPackagesIndex11FindInCacheER8pkgCache@Base 0.8.0
 _ZNK16debPackagesIndex11HasPackagesEv@Base 0.8.0
 _ZNK16debPackagesIndex4InfoEPKc@Base 0.8.0
 _ZNK16debPackagesIndex4SizeEv@Base 0.8.0
 _ZNK16debPackagesIndex5MergeER17pkgCacheGeneratorP10OpProgress@Base 0.8.0
 _ZNK16debPackagesIndex6ExistsEv@Base 0.8.0
 _ZNK16debPackagesIndex7GetTypeEv@Base 0.8.0
 _ZNK16debPackagesIndex8DescribeEb@Base 0.8.0
 _ZNK16debPackagesIndex8IndexURIEPKc@Base 0.8.0
 _ZNK18debSrcRecordParser10MaintainerEv@Base 0.8.0
 _ZNK18debSrcRecordParser7PackageEv@Base 0.8.0
 _ZNK18debSrcRecordParser7SectionEv@Base 0.8.0
 _ZNK18debSrcRecordParser7VersionEv@Base 0.8.0
 _ZNK19OptionalIndexTarget10IsOptionalEv@Base 0.8.16~exp6
 _ZNK20debTranslationsIndex10GetIndexesEP10pkgAcquire@Base 0.8.0
 _ZNK20debTranslationsIndex11FindInCacheER8pkgCache@Base 0.8.0
 _ZNK20debTranslationsIndex11HasPackagesEv@Base 0.8.0
 _ZNK20debTranslationsIndex4InfoEPKc@Base 0.8.0
 _ZNK20debTranslationsIndex4SizeEv@Base 0.8.0
 _ZNK20debTranslationsIndex5MergeER17pkgCacheGeneratorP10OpProgress@Base 0.8.0
 _ZNK20debTranslationsIndex6ExistsEv@Base 0.8.0
 _ZNK20debTranslationsIndex7GetTypeEv@Base 0.8.0
 _ZNK20debTranslationsIndex8DescribeEb@Base 0.8.0
 _ZNK20debTranslationsIndex8IndexURIEPKc@Base 0.8.0
 _ZNK3APT16PackageContainerISt3setIN8pkgCache11PkgIteratorESt4lessIS3_ESaIS3_EEE14const_iterator6getPkgEv@Base 0.8.16~exp9
 _ZNK3APT16PackageContainerISt3setIN8pkgCache11PkgIteratorESt4lessIS3_ESaIS3_EEE14getConstructorEv@Base 0.8.16~exp9
 _ZNK3APT16PackageContainerISt3setIN8pkgCache11PkgIteratorESt4lessIS3_ESaIS3_EEE5emptyEv@Base 0.8.16~exp9
 _ZNK3APT16PackageContainerISt4listIN8pkgCache11PkgIteratorESaIS3_EEE14const_iterator6getPkgEv@Base 0.8.16~exp9
 _ZNK3APT16PackageContainerISt4listIN8pkgCache11PkgIteratorESaIS3_EEE14getConstructorEv@Base 0.8.16~exp9
 _ZNK3APT16PackageContainerISt4listIN8pkgCache11PkgIteratorESaIS3_EEE5emptyEv@Base 0.8.16~exp9
 _ZNK3APT16VersionContainerISt4listIN8pkgCache11VerIteratorESaIS3_EEE5emptyEv@Base 0.8.16~exp9
 _ZNK3APT16VersionContainerISt4listIN8pkgCache11VerIteratorESaIS3_EEE8iterator6getVerEv@Base 0.8.16~exp9
 _ZNK6Vendor11GetVendorIDEv@Base 0.8.0
 _ZNK6Vendor17LookupFingerprintESs@Base 0.8.0
 _ZNK8pkgCache11DepIterator10AllTargetsEv@Base 0.8.0
 _ZNK8pkgCache11DepIterator10IsCriticalEv@Base 0.8.0
 _ZNK8pkgCache11DepIterator10IsNegativeEv@Base 0.8.15~exp1
 _ZNK8pkgCache11DepIterator11IsIgnorableERKNS_11PkgIteratorE@Base 0.8.16~exp10
 _ZNK8pkgCache11DepIterator11IsIgnorableERKNS_11PrvIteratorE@Base 0.8.16~exp10
 _ZNK8pkgCache11DepIterator11IsSatisfiedERKNS_11PrvIteratorE@Base 0.9.8
 _ZNK8pkgCache11DepIterator11IsSatisfiedERKNS_11VerIteratorE@Base 0.9.8
 _ZNK8pkgCache11DepIterator12OwnerPointerEv@Base 0.8.0
 _ZNK8pkgCache11DepIterator14SmartTargetPkgERNS_11PkgIteratorE@Base 0.8.0
 _ZNK8pkgCache11DepIterator19IsMultiArchImplicitEv@Base 0.9.6
 _ZNK8pkgCache11GrpIterator12OwnerPointerEv@Base 0.8.0
 _ZNK8pkgCache11GrpIterator16FindPreferredPkgERKb@Base 0.8.0
 _ZNK8pkgCache11GrpIterator7FindPkgESs@Base 0.8.0
 _ZNK8pkgCache11GrpIterator7NextPkgERKNS_11PkgIteratorE@Base 0.8.0
 _ZNK8pkgCache11PkgIterator10CurVersionEv@Base 0.8.0
 _ZNK8pkgCache11PkgIterator11CandVersionEv@Base 0.8.0
 _ZNK8pkgCache11PkgIterator12OwnerPointerEv@Base 0.8.0
 _ZNK8pkgCache11PkgIterator5StateEv@Base 0.8.0
 _ZNK8pkgCache11PkgIterator8FullNameERKb@Base 0.8.0
 _ZNK8pkgCache11PrvIterator12OwnerPointerEv@Base 0.8.0
 _ZNK8pkgCache11PrvIterator19IsMultiArchImplicitEv@Base 0.9.6
 _ZNK8pkgCache11VerIterator10CompareVerERKS0_@Base 0.8.0
 _ZNK8pkgCache11VerIterator10NewestFileEv@Base 0.8.0
 _ZNK8pkgCache11VerIterator12DownloadableEv@Base 0.8.0
 _ZNK8pkgCache11VerIterator12OwnerPointerEv@Base 0.8.0
 _ZNK8pkgCache11VerIterator13MultiArchTypeEv@Base 0.9.9.1
 _ZNK8pkgCache11VerIterator21TranslatedDescriptionEv@Base 0.8.0
 _ZNK8pkgCache11VerIterator6RelStrEv@Base 0.8.0
 _ZNK8pkgCache11VerIterator9AutomaticEv@Base 0.8.0
 _ZNK8pkgCache12DescIterator12OwnerPointerEv@Base 0.8.0
 _ZNK8pkgCache15PkgFileIterator12OwnerPointerEv@Base 0.8.0
 _ZNK8pkgCache15VerFileIterator12OwnerPointerEv@Base 0.8.0
 _ZNK8pkgCache16DescFileIterator12OwnerPointerEv@Base 0.8.0
 _ZNK8pkgCache5sHashEPKc@Base 0.8.0
 _ZNK8pkgCache5sHashERKSs@Base 0.8.0
 _ZNK8pkgCache6Header10CheckSizesERS0_@Base 0.8.0
 _ZNK9debSystem8CreatePMEP11pkgDepCache@Base 0.8.0
 _ZNK9debSystem9FindIndexEN8pkgCache15PkgFileIteratorERP12pkgIndexFile@Base 0.8.0
 _ZNK9edspIndex5MergeER17pkgCacheGeneratorP10OpProgress@Base 0.8.16~exp2
 _ZNK9edspIndex7GetTypeEv@Base 0.8.16~exp2
 _ZNK9metaIndex6GetURIEv@Base 0.8.0
 _ZNK9metaIndex7GetDistEv@Base 0.8.0
 _ZNK9metaIndex7GetTypeEv@Base 0.8.0
 _ZNKSt5ctypeIcE8do_widenEc@Base 1.0.3
 _ZNKSt8_Rb_treeIN8pkgCache11PkgIteratorES1_St9_IdentityIS1_ESt4lessIS1_ESaIS1_EE4findERKS1_@Base 0.8.0
 _ZNKSt8_Rb_treeISsSt4pairIKSsSsESt10_Select1stIS2_ESt4lessISsESaIS2_EE4findERS1_@Base 0.8.0
 _ZNKSt8_Rb_treeISsSt4pairIKSsSt6vectorIPKN15debReleaseIndex15debSectionEntryESaIS6_EEESt10_Select1stIS9_ESt4lessISsESaIS9_EE4findERS1_@Base 0.8.0
 _ZNSs12_S_constructIN9__gnu_cxx17__normal_iteratorIPKcSsEEEEPcT_S6_RKSaIcESt20forward_iterator_tag@Base 0.8.0
 _ZNSs12_S_constructIN9__gnu_cxx17__normal_iteratorIPcSsEEEES2_T_S4_RKSaIcESt20forward_iterator_tag@Base 0.8.0
 _ZNSs12_S_constructIPKcEEPcT_S3_RKSaIcESt20forward_iterator_tag@Base 0.8.0
 _ZNSs12_S_constructIPcEES0_T_S1_RKSaIcESt20forward_iterator_tag@Base 0.8.0
 _ZNSt10_List_baseIN11GlobalError4ItemESaIS1_EE8_M_clearEv@Base 0.8.0
 _ZNSt10_List_baseISsSaISsEE8_M_clearEv@Base 0.8.0
 _ZNSt12_Destroy_auxILb0EE9__destroyIPN13pkgSrcRecords5File2EEEvT_S5_@Base 0.8.0
 _ZNSt12_Destroy_auxILb0EE9__destroyIPN9pkgDPkgPM4ItemEEEvT_S5_@Base 0.8.0
 _ZNSt12_Destroy_auxILb0EE9__destroyIPN9pkgPolicy3PinEEEvT_S5_@Base 0.8.0
 _ZNSt12_Destroy_auxILb0EE9__destroyIPSsEEvT_S3_@Base 0.8.0
 _ZNSt15basic_stringbufIcSt11char_traitsIcESaIcEED0Ev@Base 0.8.0
 _ZNSt15basic_stringbufIcSt11char_traitsIcESaIcEED1Ev@Base 0.8.0
 _ZNSt15basic_stringbufIcSt11char_traitsIcESaIcEED2Ev@Base 0.8.0
 _ZNSt3mapISsjSt4lessISsESaISt4pairIKSsjEEEixERS3_@Base 0.8.0
 _ZNSt4listIN11GlobalError4ItemESaIS1_EEaSERKS3_@Base 0.8.0
 _ZNSt4pairIKSsSsED1Ev@Base 0.8.0
 _ZNSt4pairIKSsSsED2Ev@Base 0.8.0
 _ZNSt4pairIKSsSt6vectorIN9pkgDPkgPM9DpkgStateESaIS3_EEED1Ev@Base 0.8.0
 _ZNSt4pairIKSsSt6vectorIN9pkgDPkgPM9DpkgStateESaIS3_EEED2Ev@Base 0.8.0
 _ZNSt4pairIKSsSt6vectorIPKN15debReleaseIndex15debSectionEntryESaIS5_EEED1Ev@Base 0.8.0
 _ZNSt4pairIKSsSt6vectorIPKN15debReleaseIndex15debSectionEntryESaIS5_EEED2Ev@Base 0.8.0
 _ZNSt6vectorI10HashStringSaIS0_EE13_M_insert_auxEN9__gnu_cxx17__normal_iteratorIPS0_S2_EERKS0_@Base 0.8.0
 _ZNSt6vectorI10HashStringSaIS0_EED1Ev@Base 0.8.0
 _ZNSt6vectorI10HashStringSaIS0_EED2Ev@Base 0.8.0
 _ZNSt6vectorI10HashStringSaIS0_EEaSERKS2_@Base 0.8.0
 _ZNSt6vectorI11CdromDeviceSaIS0_EE13_M_insert_auxEN9__gnu_cxx17__normal_iteratorIPS0_S2_EERKS0_@Base 0.8.0
 _ZNSt6vectorI11CdromDeviceSaIS0_EED1Ev@Base 0.8.0
 _ZNSt6vectorI11CdromDeviceSaIS0_EED2Ev@Base 0.8.0
 _ZNSt6vectorI8DiffInfoSaIS0_EE13_M_insert_auxEN9__gnu_cxx17__normal_iteratorIPS0_S2_EERKS0_@Base 0.8.0
 _ZNSt6vectorI8DiffInfoSaIS0_EE8_M_eraseEN9__gnu_cxx17__normal_iteratorIPS0_S2_EE@Base 0.8.0
 _ZNSt6vectorI8DiffInfoSaIS0_EEC1ERKS2_@Base 0.8.0
 _ZNSt6vectorI8DiffInfoSaIS0_EEC2ERKS2_@Base 0.8.0
 _ZNSt6vectorI8DiffInfoSaIS0_EED1Ev@Base 0.8.0
 _ZNSt6vectorI8DiffInfoSaIS0_EED2Ev@Base 0.8.0
 _ZNSt6vectorIN13pkgSrcRecords4FileESaIS1_EE13_M_insert_auxEN9__gnu_cxx17__normal_iteratorIPS1_S3_EERKS1_@Base 0.8.0
 _ZNSt6vectorIN13pkgSrcRecords4FileESaIS1_EED1Ev@Base 0.8.0
 _ZNSt6vectorIN13pkgSrcRecords4FileESaIS1_EED2Ev@Base 0.8.0
 _ZNSt6vectorIN13pkgSrcRecords5File2ESaIS1_EE13_M_insert_auxEN9__gnu_cxx17__normal_iteratorIPS1_S3_EERKS1_@Base 0.8.0
 _ZNSt6vectorIN13pkgSrcRecords5File2ESaIS1_EED1Ev@Base 0.8.0
 _ZNSt6vectorIN13pkgSrcRecords5File2ESaIS1_EED2Ev@Base 0.8.0
 _ZNSt6vectorIN13pkgSrcRecords6Parser11BuildDepRecESaIS2_EE13_M_insert_auxEN9__gnu_cxx17__normal_iteratorIPS2_S4_EERKS2_@Base 0.8.0
 _ZNSt6vectorIN18pkgProblemResolver11PackageKillESaIS1_EE13_M_insert_auxEN9__gnu_cxx17__normal_iteratorIPS1_S3_EERKS1_@Base 0.8.0
 _ZNSt6vectorIN18pkgProblemResolver11PackageKillESaIS1_EE14_M_fill_insertEN9__gnu_cxx17__normal_iteratorIPS1_S3_EEjRKS1_@Base 0.8.0
 _ZNSt6vectorIN3APT13Configuration10CompressorESaIS2_EE13_M_insert_auxEN9__gnu_cxx17__normal_iteratorIPS2_S4_EERKS2_@Base 0.8.0
 _ZNSt6vectorIN3APT13Configuration10CompressorESaIS2_EED1Ev@Base 0.8.0
 _ZNSt6vectorIN3APT13Configuration10CompressorESaIS2_EED2Ev@Base 0.8.0
 _ZNSt6vectorIN9pkgDPkgPM4ItemESaIS1_EE13_M_insert_auxEN9__gnu_cxx17__normal_iteratorIPS1_S3_EERKS1_@Base 0.8.0
 _ZNSt6vectorIN9pkgDPkgPM9DpkgStateESaIS1_EE13_M_insert_auxEN9__gnu_cxx17__normal_iteratorIPS1_S3_EERKS1_@Base 0.8.0
 _ZNSt6vectorIN9pkgPolicy3PinESaIS1_EE13_M_insert_auxEN9__gnu_cxx17__normal_iteratorIPS1_S3_EERKS1_@Base 0.8.0
 _ZNSt6vectorIN9pkgPolicy6PkgPinESaIS1_EE13_M_insert_auxEN9__gnu_cxx17__normal_iteratorIPS1_S3_EERKS1_@Base 0.8.0
 _ZNSt6vectorIN9pkgPolicy6PkgPinESaIS1_EE6insertEN9__gnu_cxx17__normal_iteratorIPS1_S3_EERKS1_@Base 0.8.0
 _ZNSt6vectorIN9pkgPolicy6PkgPinESaIS1_EED1Ev@Base 0.8.0
 _ZNSt6vectorIN9pkgPolicy6PkgPinESaIS1_EED2Ev@Base 0.8.0
 _ZNSt6vectorIP11IndexTargetSaIS1_EE13_M_insert_auxEN9__gnu_cxx17__normal_iteratorIPS1_S3_EERKS1_@Base 0.8.0
 _ZNSt6vectorIP12pkgIndexFileSaIS1_EE13_M_insert_auxEN9__gnu_cxx17__normal_iteratorIPS1_S3_EERKS1_@Base 0.8.0
 _ZNSt6vectorIP17re_pattern_bufferSaIS1_EE13_M_insert_auxEN9__gnu_cxx17__normal_iteratorIPS1_S3_EERKS1_@Base 0.8.0
 _ZNSt6vectorIP9metaIndexSaIS1_EE13_M_insert_auxEN9__gnu_cxx17__normal_iteratorIPS1_S3_EERKS1_@Base 0.8.0
 _ZNSt6vectorIPK6VendorSaIS2_EE13_M_insert_auxEN9__gnu_cxx17__normal_iteratorIPS2_S4_EERKS2_@Base 0.8.0
 _ZNSt6vectorIPKN15debReleaseIndex15debSectionEntryESaIS3_EE13_M_insert_auxEN9__gnu_cxx17__normal_iteratorIPS3_S5_EERKS3_@Base 0.8.0
 _ZNSt6vectorIPKcSaIS1_EE13_M_insert_auxEN9__gnu_cxx17__normal_iteratorIPS1_S3_EERKS1_@Base 0.8.0
 _ZNSt6vectorIPKcSaIS1_EE7reserveEj@Base 0.8.0
 _ZNSt6vectorIPKcSaIS1_EE9push_backERKS1_@Base 0.8.0
 _ZNSt6vectorIPN10pkgAcquire4ItemESaIS2_EE13_M_insert_auxEN9__gnu_cxx17__normal_iteratorIPS2_S4_EERKS2_@Base 0.8.0
 _ZNSt6vectorIPN13pkgSrcRecords6ParserESaIS2_EE13_M_insert_auxEN9__gnu_cxx17__normal_iteratorIPS2_S4_EERKS2_@Base 0.8.0
 _ZNSt6vectorIPN3APT8Progress19PackageManagerFancyESaIS3_EE13_M_insert_auxEN9__gnu_cxx17__normal_iteratorIPS3_S5_EERKS3_@Base 0.8.0
 _ZNSt6vectorIPN3APT8Progress19PackageManagerFancyESaIS3_EED1Ev@Base 0.8.0
 _ZNSt6vectorIPN3APT8Progress19PackageManagerFancyESaIS3_EED2Ev@Base 0.8.0
 _ZNSt6vectorIPN6Vendor11FingerprintESaIS2_EE13_M_insert_auxEN9__gnu_cxx17__normal_iteratorIPS2_S4_EERKS2_@Base 0.8.0
 _ZNSt6vectorIPN8pkgCache11DepIteratorESaIS2_EE13_M_insert_auxEN9__gnu_cxx17__normal_iteratorIPS2_S4_EERKS2_@Base 0.8.0
 _ZNSt6vectorIPN8pkgCache11DepIteratorESaIS2_EED1Ev@Base 0.8.0
 _ZNSt6vectorIPN8pkgCache11DepIteratorESaIS2_EED2Ev@Base 0.8.0
 _ZNSt6vectorIPN8pkgCache11GrpIteratorESaIS2_EE13_M_insert_auxEN9__gnu_cxx17__normal_iteratorIPS2_S4_EERKS2_@Base 0.8.0
 _ZNSt6vectorIPN8pkgCache11GrpIteratorESaIS2_EED1Ev@Base 0.8.0
 _ZNSt6vectorIPN8pkgCache11GrpIteratorESaIS2_EED2Ev@Base 0.8.0
 _ZNSt6vectorIPN8pkgCache11PkgIteratorESaIS2_EE13_M_insert_auxEN9__gnu_cxx17__normal_iteratorIPS2_S4_EERKS2_@Base 0.8.0
 _ZNSt6vectorIPN8pkgCache11PkgIteratorESaIS2_EED1Ev@Base 0.8.0
 _ZNSt6vectorIPN8pkgCache11PkgIteratorESaIS2_EED2Ev@Base 0.8.0
 _ZNSt6vectorIPN8pkgCache11PrvIteratorESaIS2_EE13_M_insert_auxEN9__gnu_cxx17__normal_iteratorIPS2_S4_EERKS2_@Base 0.8.0
 _ZNSt6vectorIPN8pkgCache11PrvIteratorESaIS2_EED1Ev@Base 0.8.0
 _ZNSt6vectorIPN8pkgCache11PrvIteratorESaIS2_EED2Ev@Base 0.8.0
 _ZNSt6vectorIPN8pkgCache11VerIteratorESaIS2_EE13_M_insert_auxEN9__gnu_cxx17__normal_iteratorIPS2_S4_EERKS2_@Base 0.8.0
 _ZNSt6vectorIPN8pkgCache11VerIteratorESaIS2_EED1Ev@Base 0.8.0
 _ZNSt6vectorIPN8pkgCache11VerIteratorESaIS2_EED2Ev@Base 0.8.0
 _ZNSt6vectorIPN8pkgCache12DescIteratorESaIS2_EE13_M_insert_auxEN9__gnu_cxx17__normal_iteratorIPS2_S4_EERKS2_@Base 0.8.0
 _ZNSt6vectorIPN8pkgCache12DescIteratorESaIS2_EED1Ev@Base 0.8.0
 _ZNSt6vectorIPN8pkgCache12DescIteratorESaIS2_EED2Ev@Base 0.8.0
 _ZNSt6vectorIPN8pkgCache15PkgFileIteratorESaIS2_EE13_M_insert_auxEN9__gnu_cxx17__normal_iteratorIPS2_S4_EERKS2_@Base 0.8.0
 _ZNSt6vectorIPN8pkgCache15PkgFileIteratorESaIS2_EED1Ev@Base 0.8.0
 _ZNSt6vectorIPN8pkgCache15PkgFileIteratorESaIS2_EED2Ev@Base 0.8.0
 _ZNSt6vectorIPcSaIS0_EE13_M_insert_auxEN9__gnu_cxx17__normal_iteratorIPS0_S2_EERKS0_@Base 0.8.0
 _ZNSt6vectorIPcSaIS0_EE7reserveEj@Base 0.8.0
 _ZNSt6vectorISsSaISsEE13_M_insert_auxEN9__gnu_cxx17__normal_iteratorIPSsS1_EERKSs@Base 0.8.0
 _ZNSt6vectorISsSaISsEE8_M_eraseEN9__gnu_cxx17__normal_iteratorIPSsS1_EE@Base 0.8.0
 _ZNSt6vectorISsSaISsEE9push_backERKSs@Base 0.8.0
 _ZNSt6vectorISsSaISsEEC1ERKS1_@Base 0.8.0
 _ZNSt6vectorISsSaISsEEC2ERKS1_@Base 0.8.0
 _ZNSt6vectorISsSaISsEED1Ev@Base 0.8.0
 _ZNSt6vectorISsSaISsEED2Ev@Base 0.8.0
 _ZNSt6vectorISsSaISsEEaSERKS1_@Base 0.8.0
 _ZNSt8_Rb_treeIN8pkgCache11PkgIteratorES1_St9_IdentityIS1_ESt4lessIS1_ESaIS1_EE8_M_eraseEPSt13_Rb_tree_nodeIS1_E@Base 0.8.0
 _ZNSt8_Rb_treeIPP13WeakPointableS2_St9_IdentityIS2_ESt4lessIS2_ESaIS2_EE7_M_copyEPKSt13_Rb_tree_nodeIS2_EPSA_@Base 0.8.0
 _ZNSt8_Rb_treeIPP13WeakPointableS2_St9_IdentityIS2_ESt4lessIS2_ESaIS2_EE8_M_eraseEPSt13_Rb_tree_nodeIS2_E@Base 0.8.0
 _ZNSt8_Rb_treeISsSsSt9_IdentityISsESt4lessISsESaISsEE10_M_insert_EPSt18_Rb_tree_node_baseS7_RKSs@Base 0.8.0
 _ZNSt8_Rb_treeISsSsSt9_IdentityISsESt4lessISsESaISsEE16_M_insert_uniqueERKSs@Base 0.8.0
 _ZNSt8_Rb_treeISsSsSt9_IdentityISsESt4lessISsESaISsEE24_M_get_insert_unique_posERKSs@Base 0.8.0
 _ZNSt8_Rb_treeISsSsSt9_IdentityISsESt4lessISsESaISsEE7_M_copyEPKSt13_Rb_tree_nodeISsEPS7_@Base 0.8.0
 _ZNSt8_Rb_treeISsSsSt9_IdentityISsESt4lessISsESaISsEE8_M_eraseEPSt13_Rb_tree_nodeISsE@Base 0.8.0
 _ZNSt8_Rb_treeISsSt4pairIKSsPN12indexRecords8checkSumEESt10_Select1stIS5_ESt4lessISsESaIS5_EE17_M_insert_unique_ESt23_Rb_tree_const_iteratorIS5_ERKS5_@Base 0.8.0
 _ZNSt8_Rb_treeISsSt4pairIKSsPN12indexRecords8checkSumEESt10_Select1stIS5_ESt4lessISsESaIS5_EE24_M_get_insert_unique_posERS1_@Base 0.8.0
 _ZNSt8_Rb_treeISsSt4pairIKSsPN12indexRecords8checkSumEESt10_Select1stIS5_ESt4lessISsESaIS5_EE8_M_eraseEPSt13_Rb_tree_nodeIS5_E@Base 0.8.0
 _ZNSt8_Rb_treeISsSt4pairIKSsSsESt10_Select1stIS2_ESt4lessISsESaIS2_EE10_M_insert_EPSt18_Rb_tree_node_baseSA_RKS2_@Base 0.8.0
 _ZNSt8_Rb_treeISsSt4pairIKSsSsESt10_Select1stIS2_ESt4lessISsESaIS2_EE17_M_insert_unique_ESt23_Rb_tree_const_iteratorIS2_ERKS2_@Base 0.8.0
 _ZNSt8_Rb_treeISsSt4pairIKSsSsESt10_Select1stIS2_ESt4lessISsESaIS2_EE24_M_get_insert_unique_posERS1_@Base 0.8.0
 _ZNSt8_Rb_treeISsSt4pairIKSsSsESt10_Select1stIS2_ESt4lessISsESaIS2_EE8_M_eraseEPSt13_Rb_tree_nodeIS2_E@Base 0.8.0
 _ZNSt8_Rb_treeISsSt4pairIKSsSt3setISsSt4lessISsESaISsEEESt10_Select1stIS7_ES4_SaIS7_EE10_M_insert_EPSt18_Rb_tree_node_baseSD_RKS7_@Base 0.8.0
 _ZNSt8_Rb_treeISsSt4pairIKSsSt3setISsSt4lessISsESaISsEEESt10_Select1stIS7_ES4_SaIS7_EE17_M_insert_unique_ESt23_Rb_tree_const_iteratorIS7_ERKS7_@Base 0.8.0
 _ZNSt8_Rb_treeISsSt4pairIKSsSt3setISsSt4lessISsESaISsEEESt10_Select1stIS7_ES4_SaIS7_EE24_M_get_insert_unique_posERS1_@Base 0.8.0
 _ZNSt8_Rb_treeISsSt4pairIKSsSt3setISsSt4lessISsESaISsEEESt10_Select1stIS7_ES4_SaIS7_EE8_M_eraseEPSt13_Rb_tree_nodeIS7_E@Base 0.8.0
 _ZNSt8_Rb_treeISsSt4pairIKSsSt6vectorIN9pkgDPkgPM9DpkgStateESaIS4_EEESt10_Select1stIS7_ESt4lessISsESaIS7_EE10_M_insert_EPSt18_Rb_tree_node_baseSF_RKS7_@Base 0.8.0
 _ZNSt8_Rb_treeISsSt4pairIKSsSt6vectorIN9pkgDPkgPM9DpkgStateESaIS4_EEESt10_Select1stIS7_ESt4lessISsESaIS7_EE17_M_insert_unique_ESt23_Rb_tree_const_iteratorIS7_ERKS7_@Base 0.8.0
 _ZNSt8_Rb_treeISsSt4pairIKSsSt6vectorIN9pkgDPkgPM9DpkgStateESaIS4_EEESt10_Select1stIS7_ESt4lessISsESaIS7_EE24_M_get_insert_unique_posERS1_@Base 0.8.0
 _ZNSt8_Rb_treeISsSt4pairIKSsSt6vectorIN9pkgDPkgPM9DpkgStateESaIS4_EEESt10_Select1stIS7_ESt4lessISsESaIS7_EE8_M_eraseEPSt13_Rb_tree_nodeIS7_E@Base 0.8.0
 _ZNSt8_Rb_treeISsSt4pairIKSsSt6vectorIPKN15debReleaseIndex15debSectionEntryESaIS6_EEESt10_Select1stIS9_ESt4lessISsESaIS9_EE10_M_insert_EPSt18_Rb_tree_node_baseSH_RKS9_@Base 0.8.0
 _ZNSt8_Rb_treeISsSt4pairIKSsSt6vectorIPKN15debReleaseIndex15debSectionEntryESaIS6_EEESt10_Select1stIS9_ESt4lessISsESaIS9_EE17_M_insert_unique_ESt23_Rb_tree_const_iteratorIS9_ERKS9_@Base 0.8.0
 _ZNSt8_Rb_treeISsSt4pairIKSsSt6vectorIPKN15debReleaseIndex15debSectionEntryESaIS6_EEESt10_Select1stIS9_ESt4lessISsESaIS9_EE24_M_get_insert_unique_posERS1_@Base 0.8.0
 _ZNSt8_Rb_treeISsSt4pairIKSsSt6vectorIPKN15debReleaseIndex15debSectionEntryESaIS6_EEESt10_Select1stIS9_ESt4lessISsESaIS9_EE4findERS1_@Base 0.8.0
 _ZNSt8_Rb_treeISsSt4pairIKSsSt6vectorIPKN15debReleaseIndex15debSectionEntryESaIS6_EEESt10_Select1stIS9_ESt4lessISsESaIS9_EE8_M_eraseEPSt13_Rb_tree_nodeIS9_E@Base 0.8.0
 _ZNSt8_Rb_treeISsSt4pairIKSsjESt10_Select1stIS2_ESt4lessISsESaIS2_EE17_M_insert_unique_ESt23_Rb_tree_const_iteratorIS2_ERKS2_@Base 0.8.0
 _ZNSt8_Rb_treeISsSt4pairIKSsjESt10_Select1stIS2_ESt4lessISsESaIS2_EE24_M_get_insert_unique_posERS1_@Base 0.8.0
 _ZNSt8_Rb_treeISsSt4pairIKSsjESt10_Select1stIS2_ESt4lessISsESaIS2_EE8_M_eraseEPSt13_Rb_tree_nodeIS2_E@Base 0.8.0
 _ZNSt8_Rb_treeIiiSt9_IdentityIiESt4lessIiESaIiEE16_M_insert_uniqueERKi@Base 0.8.0
 _ZNSt8_Rb_treeIiiSt9_IdentityIiESt4lessIiESaIiEE7_M_copyEPKSt13_Rb_tree_nodeIiEPS7_@Base 0.8.0
 _ZNSt8_Rb_treeIiiSt9_IdentityIiESt4lessIiESaIiEE8_M_eraseEPSt13_Rb_tree_nodeIiE@Base 0.8.0
 _ZSt11__make_heapIN9__gnu_cxx17__normal_iteratorIPSsSt6vectorISsSaISsEEEENS0_5__ops15_Iter_less_iterEEvT_S9_T0_@Base 0.8.0
 _ZSt11__remove_ifIN9__gnu_cxx17__normal_iteratorIPSsSt6vectorISsSaISsEEEENS0_5__ops16_Iter_equals_valIA5_KcEEET_SC_SC_T0_@Base 0.8.0
 _ZSt13__adjust_heapIN9__gnu_cxx17__normal_iteratorIPSsSt6vectorISsSaISsEEEEiSsNS0_5__ops15_Iter_less_iterEEvT_T0_SA_T1_T2_@Base 0.8.0
 _ZSt16__insertion_sortIN9__gnu_cxx17__normal_iteratorIPSsSt6vectorISsSaISsEEEENS0_5__ops15_Iter_less_iterEEvT_S9_T0_@Base 0.8.0
 _ZSt25__unguarded_linear_insertIN9__gnu_cxx17__normal_iteratorIPSsSt6vectorISsSaISsEEEENS0_5__ops14_Val_less_iterEEvT_T0_@Base 0.8.0
 _ZSt9__find_ifIN9__gnu_cxx17__normal_iteratorIPKSsSt6vectorISsSaISsEEEENS0_5__ops16_Iter_equals_valIS2_EEET_SB_SB_T0_St26random_access_iterator_tag@Base 0.8.0
 _ZSt9__find_ifIN9__gnu_cxx17__normal_iteratorIPSsSt6vectorISsSaISsEEEENS0_5__ops16_Iter_equals_valIKSsEEET_SB_SB_T0_St26random_access_iterator_tag@Base 0.8.0
 _ZSt9__find_ifISt16reverse_iteratorIN9__gnu_cxx17__normal_iteratorIPSsSt6vectorISsSaISsEEEEENS1_5__ops16_Iter_equals_valIKSsEEET_SD_SD_T0_St26random_access_iterator_tag@Base 0.8.0
 _ZStplIcSt11char_traitsIcESaIcEESbIT_T0_T1_EPKS3_RKS6_@Base 0.8.0
 _ZStplIcSt11char_traitsIcESaIcEESbIT_T0_T1_ERKS6_PKS3_@Base 0.8.0
 _ZStplIcSt11char_traitsIcESaIcEESbIT_T0_T1_ERKS6_S8_@Base 0.8.0
 _ZStplIcSt11char_traitsIcESaIcEESbIT_T0_T1_ES3_RKS6_@Base 0.8.0
 _ZTI10OpProgress@Base 0.8.0
 _ZTI10SourceCopy@Base 0.8.0
 _ZTI10edspIFType@Base 0.8.16~exp2
 _ZTI10edspSystem@Base 0.8.16~exp2
 _ZTI10pkgAcqFile@Base 0.8.0
 _ZTI10pkgAcquire@Base 0.8.0
 _ZTI10pkgTagFile@Base 0.8.16~exp6
 _ZTI11DynamicMMap@Base 0.8.0
 _ZTI11IndexTarget@Base 0.8.16~exp6
 _ZTI11PackageCopy@Base 0.8.0
 _ZTI11pkgAcqIndex@Base 0.8.0
 _ZTI11pkgDepCache@Base 0.8.0
 _ZTI11pkgSimulate@Base 0.8.0
 _ZTI12MD5Summation@Base 0.8.16~exp6
 _ZTI12debIFTypePkg@Base 0.8.0
 _ZTI12debIFTypeSrc@Base 0.8.0
 _ZTI12debSLTypeDeb@Base 0.8.0
 _ZTI12indexRecords@Base 0.8.0
 _ZTI12pkgAcqMethod@Base 0.8.0
 _ZTI12pkgCacheFile@Base 0.8.0
 _ZTI12pkgIndexFile@Base 0.8.0
 _ZTI13SHA1Summation@Base 0.8.16~exp6
 _ZTI13WeakPointable@Base 0.8.0
 _ZTI13debListParser@Base 0.8.0
 _ZTI13pkgAcqArchive@Base 0.8.0
 _ZTI13pkgAcqMetaSig@Base 0.8.0
 _ZTI13pkgSrcRecords@Base 0.8.16~exp6
 _ZTI13pkgTagSection@Base 0.8.0
 _ZTI14OpTextProgress@Base 0.8.0
 _ZTI14debIFTypeTrans@Base 0.8.0
 _ZTI14debStatusIndex@Base 0.8.0
 _ZTI14edspListParser@Base 0.8.16~exp2
 _ZTI14pkgAcqSubIndex@Base 0.8.11
 _ZTI15SHA256Summation@Base 0.8.16~exp6
 _ZTI15SHA512Summation@Base 0.8.16~exp6
 _ZTI15debIFTypeStatus@Base 0.8.0
 _ZTI15debRecordParser@Base 0.8.0
 _ZTI15debReleaseIndex@Base 0.8.0
 _ZTI15debSLTypeDebSrc@Base 0.8.0
 _ZTI15debSLTypeDebian@Base 0.8.0
 _ZTI15debSourcesIndex@Base 0.8.0
 _ZTI15pkgAcqDiffIndex@Base 0.8.0
 _ZTI15pkgAcqMetaIndex@Base 0.8.0
 _ZTI16debPackagesIndex@Base 0.8.0
 _ZTI16pkgAcqIndexDiffs@Base 0.8.0
 _ZTI16pkgAcqIndexTrans@Base 0.8.0
 _ZTI16pkgAcquireStatus@Base 0.8.0
 _ZTI17PreferenceSection@Base 0.8.0
 _ZTI17SHA2SummationBase@Base 0.8.16~exp6
 _ZTI17pkgPackageManager@Base 0.8.0
 _ZTI18debSrcRecordParser@Base 0.8.0
 _ZTI18pkgAcqMetaClearSig@Base 0.8.11
 _ZTI19OptionalIndexTarget@Base 0.8.16~exp6
 _ZTI19debVersioningSystem@Base 0.8.0
 _ZTI19pkgUdevCdromDevices@Base 0.8.0
 _ZTI19pkgVersioningSystem@Base 0.8.0
 _ZTI20debTranslationsIndex@Base 0.8.0
 _ZTI21debTranslationsParser@Base 1.0.4
 _ZTI21pkgAcqIndexMergeDiffs@Base 0.9.14.3~exp1
 _ZTI23SummationImplementation@Base 0.8.16~exp6
 _ZTI4MMap@Base 0.8.0
 _ZTI6FileFd@Base 0.8.0
 _ZTI6Vendor@Base 0.8.0
 _ZTI8pkgCache@Base 0.8.0
 _ZTI9IndexCopy@Base 0.8.0
 _ZTI9debSystem@Base 0.8.0
 _ZTI9edspIndex@Base 0.8.16~exp2
 _ZTI9metaIndex@Base 0.8.0
 _ZTI9pkgDPkgPM@Base 0.8.0
 _ZTI9pkgPolicy@Base 0.8.0
 _ZTI9pkgSystem@Base 0.8.0
 _ZTIN10pkgAcquire11UriIteratorE@Base 0.8.16~exp6
 _ZTIN10pkgAcquire12MethodConfigE@Base 0.8.16~exp6
 _ZTIN10pkgAcquire4ItemE@Base 0.8.0
 _ZTIN10pkgAcquire5QueueE@Base 0.8.16~exp6
 _ZTIN10pkgAcquire6WorkerE@Base 0.8.16~exp6
 _ZTIN10pkgRecords6ParserE@Base 0.8.0
 _ZTIN11pkgDepCache13InRootSetFuncE@Base 0.8.0
 _ZTIN11pkgDepCache18DefaultRootSetFuncE@Base 0.8.0
 _ZTIN11pkgDepCache6PolicyE@Base 0.8.0
 _ZTIN11pkgSimulate6PolicyE@Base 0.8.0
 _ZTIN12pkgIndexFile4TypeE@Base 0.8.0
 _ZTIN13Configuration18MatchAgainstConfigE@Base 0.8.0
 _ZTIN13pkgSourceList4TypeE@Base 0.8.0
 _ZTIN13pkgSrcRecords6ParserE@Base 0.8.0
 _ZTIN17pkgCacheGenerator10ListParserE@Base 0.8.0
 _ZTIN3APT14CacheSetHelperE@Base 0.8.0
 _ZTIN3APT16PackageContainerISt3setIN8pkgCache11PkgIteratorESt4lessIS3_ESaIS3_EEE14const_iteratorE@Base 0.8.16~exp9
 _ZTIN3APT16PackageContainerISt3setIN8pkgCache11PkgIteratorESt4lessIS3_ESaIS3_EEEE@Base 0.8.16~exp9
 _ZTIN3APT16PackageContainerISt4listIN8pkgCache11PkgIteratorESaIS3_EEE14const_iteratorE@Base 0.8.16~exp9
 _ZTIN3APT16PackageContainerISt4listIN8pkgCache11PkgIteratorESaIS3_EEEE@Base 0.8.16~exp9
 _ZTIN3APT16VersionContainerISt4listIN8pkgCache11VerIteratorESaIS3_EEE8iteratorE@Base 0.8.16~exp9
 _ZTIN3APT16VersionContainerISt4listIN8pkgCache11VerIteratorESaIS3_EEEE@Base 0.8.16~exp9
 _ZTIN3APT25PackageContainerInterface14const_iteratorE@Base 0.8.16~exp9
 _ZTIN3APT25PackageContainerInterfaceE@Base 0.8.16~exp9
 _ZTIN3APT25VersionContainerInterface14const_iteratorE@Base 0.8.16~exp9
 _ZTIN3APT25VersionContainerInterfaceE@Base 0.8.16~exp9
 _ZTIN3APT8Progress14PackageManagerE@Base 0.9.13~exp1
 _ZTIN3APT8Progress18PackageManagerTextE@Base 0.9.13~exp1
 _ZTIN3APT8Progress19PackageManagerFancyE@Base 0.9.13~exp1
 _ZTIN3APT8Progress24PackageManagerProgressFdE@Base 0.9.13~exp1
 _ZTIN3APT8Progress30PackageManagerProgressDeb822FdE@Base 0.9.13~exp1
 _ZTIN8pkgCache11DepIteratorE@Base 0.8.0
 _ZTIN8pkgCache11GrpIteratorE@Base 0.8.0
 _ZTIN8pkgCache11PkgIteratorE@Base 0.8.0
 _ZTIN8pkgCache11PrvIteratorE@Base 0.8.0
 _ZTIN8pkgCache11VerIteratorE@Base 0.8.0
 _ZTIN8pkgCache12DescIteratorE@Base 0.8.0
 _ZTIN8pkgCache15PkgFileIteratorE@Base 0.8.0
 _ZTIN8pkgCache15VerFileIteratorE@Base 0.8.0
 _ZTIN8pkgCache16DescFileIteratorE@Base 0.8.0
 _ZTIN8pkgCache8IteratorINS_10DependencyENS_11DepIteratorEEE@Base 0.8.0
 _ZTIN8pkgCache8IteratorINS_11DescriptionENS_12DescIteratorEEE@Base 0.8.0
 _ZTIN8pkgCache8IteratorINS_11PackageFileENS_15PkgFileIteratorEEE@Base 0.8.0
 _ZTIN8pkgCache8IteratorINS_5GroupENS_11GrpIteratorEEE@Base 0.8.0
 _ZTIN8pkgCache8IteratorINS_7PackageENS_11PkgIteratorEEE@Base 0.8.0
 _ZTIN8pkgCache8IteratorINS_7VerFileENS_15VerFileIteratorEEE@Base 0.8.0
 _ZTIN8pkgCache8IteratorINS_7VersionENS_11VerIteratorEEE@Base 0.8.0
 _ZTIN8pkgCache8IteratorINS_8DescFileENS_16DescFileIteratorEEE@Base 0.8.0
 _ZTIN8pkgCache8IteratorINS_8ProvidesENS_11PrvIteratorEEE@Base 0.8.0
 _ZTIN8pkgCache9NamespaceE@Base 0.8.0
 _ZTISt8iteratorISt20forward_iterator_tagN8pkgCache10DependencyEiPS2_RS2_E@Base 0.8.0
 _ZTISt8iteratorISt20forward_iterator_tagN8pkgCache11DescriptionEiPS2_RS2_E@Base 0.8.0
 _ZTISt8iteratorISt20forward_iterator_tagN8pkgCache11PackageFileEiPS2_RS2_E@Base 0.8.0
 _ZTISt8iteratorISt20forward_iterator_tagN8pkgCache5GroupEiPS2_RS2_E@Base 0.8.0
 _ZTISt8iteratorISt20forward_iterator_tagN8pkgCache7PackageEiPS2_RS2_E@Base 0.8.0
 _ZTISt8iteratorISt20forward_iterator_tagN8pkgCache7VerFileEiPS2_RS2_E@Base 0.8.0
 _ZTISt8iteratorISt20forward_iterator_tagN8pkgCache7VersionEiPS2_RS2_E@Base 0.8.0
 _ZTISt8iteratorISt20forward_iterator_tagN8pkgCache8DescFileEiPS2_RS2_E@Base 0.8.0
 _ZTISt8iteratorISt20forward_iterator_tagN8pkgCache8ProvidesEiPS2_RS2_E@Base 0.8.0
 _ZTISt8iteratorISt20forward_iterator_tagSt14_List_iteratorIN8pkgCache11VerIteratorEEiPS4_RS4_E@Base 0.8.0
 _ZTISt8iteratorISt20forward_iterator_tagSt20_List_const_iteratorIN8pkgCache11PkgIteratorEEiPS4_RS4_E@Base 0.8.0
 _ZTISt8iteratorISt20forward_iterator_tagSt23_Rb_tree_const_iteratorIN8pkgCache11PkgIteratorEEiPS4_RS4_E@Base 0.8.0
 _ZTS10OpProgress@Base 0.8.0
 _ZTS10SourceCopy@Base 0.8.0
 _ZTS10edspIFType@Base 0.8.16~exp2
 _ZTS10edspSystem@Base 0.8.16~exp2
 _ZTS10pkgAcqFile@Base 0.8.0
 _ZTS10pkgAcquire@Base 0.8.0
 _ZTS10pkgTagFile@Base 0.8.16~exp6
 _ZTS11DynamicMMap@Base 0.8.0
 _ZTS11IndexTarget@Base 0.8.16~exp6
 _ZTS11PackageCopy@Base 0.8.0
 _ZTS11pkgAcqIndex@Base 0.8.0
 _ZTS11pkgDepCache@Base 0.8.0
 _ZTS11pkgSimulate@Base 0.8.0
 _ZTS12MD5Summation@Base 0.8.16~exp6
 _ZTS12debIFTypePkg@Base 0.8.0
 _ZTS12debIFTypeSrc@Base 0.8.0
 _ZTS12debSLTypeDeb@Base 0.8.0
 _ZTS12indexRecords@Base 0.8.0
 _ZTS12pkgAcqMethod@Base 0.8.0
 _ZTS12pkgCacheFile@Base 0.8.0
 _ZTS12pkgIndexFile@Base 0.8.0
 _ZTS13SHA1Summation@Base 0.8.16~exp6
 _ZTS13WeakPointable@Base 0.8.0
 _ZTS13debListParser@Base 0.8.0
 _ZTS13pkgAcqArchive@Base 0.8.0
 _ZTS13pkgAcqMetaSig@Base 0.8.0
 _ZTS13pkgSrcRecords@Base 0.8.16~exp6
 _ZTS13pkgTagSection@Base 0.8.0
 _ZTS14OpTextProgress@Base 0.8.0
 _ZTS14debIFTypeTrans@Base 0.8.0
 _ZTS14debStatusIndex@Base 0.8.0
 _ZTS14edspListParser@Base 0.8.16~exp2
 _ZTS14pkgAcqSubIndex@Base 0.8.11
 _ZTS15SHA256Summation@Base 0.8.16~exp6
 _ZTS15SHA512Summation@Base 0.8.16~exp6
 _ZTS15debIFTypeStatus@Base 0.8.0
 _ZTS15debRecordParser@Base 0.8.0
 _ZTS15debReleaseIndex@Base 0.8.0
 _ZTS15debSLTypeDebSrc@Base 0.8.0
 _ZTS15debSLTypeDebian@Base 0.8.0
 _ZTS15debSourcesIndex@Base 0.8.0
 _ZTS15pkgAcqDiffIndex@Base 0.8.0
 _ZTS15pkgAcqMetaIndex@Base 0.8.0
 _ZTS16debPackagesIndex@Base 0.8.0
 _ZTS16pkgAcqIndexDiffs@Base 0.8.0
 _ZTS16pkgAcqIndexTrans@Base 0.8.0
 _ZTS16pkgAcquireStatus@Base 0.8.0
 _ZTS17PreferenceSection@Base 0.8.0
 _ZTS17SHA2SummationBase@Base 0.8.16~exp6
 _ZTS17pkgPackageManager@Base 0.8.0
 _ZTS18debSrcRecordParser@Base 0.8.0
 _ZTS18pkgAcqMetaClearSig@Base 0.8.11
 _ZTS19OptionalIndexTarget@Base 0.8.16~exp6
 _ZTS19debVersioningSystem@Base 0.8.0
 _ZTS19pkgUdevCdromDevices@Base 0.8.0
 _ZTS19pkgVersioningSystem@Base 0.8.0
 _ZTS20debTranslationsIndex@Base 0.8.0
 _ZTS21debTranslationsParser@Base 1.0.4
 _ZTS21pkgAcqIndexMergeDiffs@Base 0.9.14.3~exp1
 _ZTS23SummationImplementation@Base 0.8.16~exp6
 _ZTS4MMap@Base 0.8.0
 _ZTS6FileFd@Base 0.8.0
 _ZTS6Vendor@Base 0.8.0
 _ZTS8pkgCache@Base 0.8.0
 _ZTS9IndexCopy@Base 0.8.0
 _ZTS9debSystem@Base 0.8.0
 _ZTS9edspIndex@Base 0.8.16~exp2
 _ZTS9metaIndex@Base 0.8.0
 _ZTS9pkgDPkgPM@Base 0.8.0
 _ZTS9pkgPolicy@Base 0.8.0
 _ZTS9pkgSystem@Base 0.8.0
 _ZTSN10pkgAcquire11UriIteratorE@Base 0.8.16~exp6
 _ZTSN10pkgAcquire12MethodConfigE@Base 0.8.16~exp6
 _ZTSN10pkgAcquire4ItemE@Base 0.8.0
 _ZTSN10pkgAcquire5QueueE@Base 0.8.16~exp6
 _ZTSN10pkgAcquire6WorkerE@Base 0.8.16~exp6
 _ZTSN10pkgRecords6ParserE@Base 0.8.0
 _ZTSN11pkgDepCache13InRootSetFuncE@Base 0.8.0
 _ZTSN11pkgDepCache18DefaultRootSetFuncE@Base 0.8.0
 _ZTSN11pkgDepCache6PolicyE@Base 0.8.0
 _ZTSN11pkgSimulate6PolicyE@Base 0.8.0
 _ZTSN12pkgIndexFile4TypeE@Base 0.8.0
 _ZTSN13Configuration18MatchAgainstConfigE@Base 0.8.0
 _ZTSN13pkgSourceList4TypeE@Base 0.8.0
 _ZTSN13pkgSrcRecords6ParserE@Base 0.8.0
 _ZTSN17pkgCacheGenerator10ListParserE@Base 0.8.0
 _ZTSN3APT14CacheSetHelperE@Base 0.8.0
 _ZTSN3APT16PackageContainerISt3setIN8pkgCache11PkgIteratorESt4lessIS3_ESaIS3_EEE14const_iteratorE@Base 0.8.16~exp9
 _ZTSN3APT16PackageContainerISt3setIN8pkgCache11PkgIteratorESt4lessIS3_ESaIS3_EEEE@Base 0.8.16~exp9
 _ZTSN3APT16PackageContainerISt4listIN8pkgCache11PkgIteratorESaIS3_EEE14const_iteratorE@Base 0.8.16~exp9
 _ZTSN3APT16PackageContainerISt4listIN8pkgCache11PkgIteratorESaIS3_EEEE@Base 0.8.16~exp9
 _ZTSN3APT16VersionContainerISt4listIN8pkgCache11VerIteratorESaIS3_EEE8iteratorE@Base 0.8.16~exp9
 _ZTSN3APT16VersionContainerISt4listIN8pkgCache11VerIteratorESaIS3_EEEE@Base 0.8.16~exp9
 _ZTSN3APT25PackageContainerInterface14const_iteratorE@Base 0.8.16~exp9
 _ZTSN3APT25PackageContainerInterfaceE@Base 0.8.16~exp9
 _ZTSN3APT25VersionContainerInterface14const_iteratorE@Base 0.8.16~exp9
 _ZTSN3APT25VersionContainerInterfaceE@Base 0.8.16~exp9
 _ZTSN3APT8Progress14PackageManagerE@Base 0.9.13~exp1
 _ZTSN3APT8Progress18PackageManagerTextE@Base 0.9.13~exp1
 _ZTSN3APT8Progress19PackageManagerFancyE@Base 0.9.13~exp1
 _ZTSN3APT8Progress24PackageManagerProgressFdE@Base 0.9.13~exp1
 _ZTSN3APT8Progress30PackageManagerProgressDeb822FdE@Base 0.9.13~exp1
 _ZTSN8pkgCache11DepIteratorE@Base 0.8.0
 _ZTSN8pkgCache11GrpIteratorE@Base 0.8.0
 _ZTSN8pkgCache11PkgIteratorE@Base 0.8.0
 _ZTSN8pkgCache11PrvIteratorE@Base 0.8.0
 _ZTSN8pkgCache11VerIteratorE@Base 0.8.0
 _ZTSN8pkgCache12DescIteratorE@Base 0.8.0
 _ZTSN8pkgCache15PkgFileIteratorE@Base 0.8.0
 _ZTSN8pkgCache15VerFileIteratorE@Base 0.8.0
 _ZTSN8pkgCache16DescFileIteratorE@Base 0.8.0
 _ZTSN8pkgCache8IteratorINS_10DependencyENS_11DepIteratorEEE@Base 0.8.0
 _ZTSN8pkgCache8IteratorINS_11DescriptionENS_12DescIteratorEEE@Base 0.8.0
 _ZTSN8pkgCache8IteratorINS_11PackageFileENS_15PkgFileIteratorEEE@Base 0.8.0
 _ZTSN8pkgCache8IteratorINS_5GroupENS_11GrpIteratorEEE@Base 0.8.0
 _ZTSN8pkgCache8IteratorINS_7PackageENS_11PkgIteratorEEE@Base 0.8.0
 _ZTSN8pkgCache8IteratorINS_7VerFileENS_15VerFileIteratorEEE@Base 0.8.0
 _ZTSN8pkgCache8IteratorINS_7VersionENS_11VerIteratorEEE@Base 0.8.0
 _ZTSN8pkgCache8IteratorINS_8DescFileENS_16DescFileIteratorEEE@Base 0.8.0
 _ZTSN8pkgCache8IteratorINS_8ProvidesENS_11PrvIteratorEEE@Base 0.8.0
 _ZTSN8pkgCache9NamespaceE@Base 0.8.0
 _ZTSSt8iteratorISt20forward_iterator_tagN8pkgCache10DependencyEiPS2_RS2_E@Base 0.8.0
 _ZTSSt8iteratorISt20forward_iterator_tagN8pkgCache11DescriptionEiPS2_RS2_E@Base 0.8.0
 _ZTSSt8iteratorISt20forward_iterator_tagN8pkgCache11PackageFileEiPS2_RS2_E@Base 0.8.0
 _ZTSSt8iteratorISt20forward_iterator_tagN8pkgCache5GroupEiPS2_RS2_E@Base 0.8.0
 _ZTSSt8iteratorISt20forward_iterator_tagN8pkgCache7PackageEiPS2_RS2_E@Base 0.8.0
 _ZTSSt8iteratorISt20forward_iterator_tagN8pkgCache7VerFileEiPS2_RS2_E@Base 0.8.0
 _ZTSSt8iteratorISt20forward_iterator_tagN8pkgCache7VersionEiPS2_RS2_E@Base 0.8.0
 _ZTSSt8iteratorISt20forward_iterator_tagN8pkgCache8DescFileEiPS2_RS2_E@Base 0.8.0
 _ZTSSt8iteratorISt20forward_iterator_tagN8pkgCache8ProvidesEiPS2_RS2_E@Base 0.8.0
 _ZTSSt8iteratorISt20forward_iterator_tagSt14_List_iteratorIN8pkgCache11VerIteratorEEiPS4_RS4_E@Base 0.8.0
 _ZTSSt8iteratorISt20forward_iterator_tagSt20_List_const_iteratorIN8pkgCache11PkgIteratorEEiPS4_RS4_E@Base 0.8.0
 _ZTSSt8iteratorISt20forward_iterator_tagSt23_Rb_tree_const_iteratorIN8pkgCache11PkgIteratorEEiPS4_RS4_E@Base 0.8.0
 _ZTV10OpProgress@Base 0.8.0
 _ZTV10SourceCopy@Base 0.8.0
 _ZTV10edspIFType@Base 0.8.16~exp2
 _ZTV10edspSystem@Base 0.8.16~exp2
 _ZTV10pkgAcqFile@Base 0.8.0
 _ZTV10pkgAcquire@Base 0.8.0
 _ZTV10pkgTagFile@Base 0.8.16~exp6
 _ZTV11DynamicMMap@Base 0.8.0
 _ZTV11IndexTarget@Base 0.8.16~exp6
 _ZTV11PackageCopy@Base 0.8.0
 _ZTV11pkgAcqIndex@Base 0.8.0
 _ZTV11pkgDepCache@Base 0.8.0
 _ZTV11pkgSimulate@Base 0.8.0
 _ZTV12MD5Summation@Base 0.8.16~exp6
 _ZTV12debIFTypePkg@Base 0.8.0
 _ZTV12debIFTypeSrc@Base 0.8.0
 _ZTV12debSLTypeDeb@Base 0.8.0
 _ZTV12indexRecords@Base 0.8.0
 _ZTV12pkgAcqMethod@Base 0.8.0
 _ZTV12pkgCacheFile@Base 0.8.0
 _ZTV12pkgIndexFile@Base 0.8.0
 _ZTV13SHA1Summation@Base 0.8.16~exp6
 _ZTV13debListParser@Base 0.8.0
 _ZTV13pkgAcqArchive@Base 0.8.0
 _ZTV13pkgAcqMetaSig@Base 0.8.0
 _ZTV13pkgSrcRecords@Base 0.8.16~exp6
 _ZTV13pkgTagSection@Base 0.8.0
 _ZTV14OpTextProgress@Base 0.8.0
 _ZTV14debIFTypeTrans@Base 0.8.0
 _ZTV14debStatusIndex@Base 0.8.0
 _ZTV14edspListParser@Base 0.8.16~exp2
 _ZTV14pkgAcqSubIndex@Base 0.8.11
 _ZTV15SHA256Summation@Base 0.8.16~exp6
 _ZTV15SHA512Summation@Base 0.8.16~exp6
 _ZTV15debIFTypeStatus@Base 0.8.0
 _ZTV15debRecordParser@Base 0.8.0
 _ZTV15debReleaseIndex@Base 0.8.0
 _ZTV15debSLTypeDebSrc@Base 0.8.0
 _ZTV15debSLTypeDebian@Base 0.8.0
 _ZTV15debSourcesIndex@Base 0.8.0
 _ZTV15pkgAcqDiffIndex@Base 0.8.0
 _ZTV15pkgAcqMetaIndex@Base 0.8.0
 _ZTV16debPackagesIndex@Base 0.8.0
 _ZTV16pkgAcqIndexDiffs@Base 0.8.0
 _ZTV16pkgAcqIndexTrans@Base 0.8.0
 _ZTV16pkgAcquireStatus@Base 0.8.0
 _ZTV17PreferenceSection@Base 0.8.0
 _ZTV17SHA2SummationBase@Base 0.8.16~exp6
 _ZTV17pkgPackageManager@Base 0.8.0
 _ZTV18debSrcRecordParser@Base 0.8.0
 _ZTV18pkgAcqMetaClearSig@Base 0.8.11
 _ZTV19OptionalIndexTarget@Base 0.8.16~exp6
 _ZTV19debVersioningSystem@Base 0.8.0
 _ZTV19pkgUdevCdromDevices@Base 0.8.0
 _ZTV19pkgVersioningSystem@Base 0.8.0
 _ZTV20debTranslationsIndex@Base 0.8.0
 _ZTV21debTranslationsParser@Base 1.0.4
 _ZTV21pkgAcqIndexMergeDiffs@Base 0.9.14.3~exp1
 _ZTV23SummationImplementation@Base 0.8.16~exp6
 _ZTV4MMap@Base 0.8.0
 _ZTV6FileFd@Base 0.8.0
 _ZTV6Vendor@Base 0.8.0
 _ZTV8pkgCache@Base 0.8.0
 _ZTV9IndexCopy@Base 0.8.0
 _ZTV9debSystem@Base 0.8.0
 _ZTV9edspIndex@Base 0.8.16~exp2
 _ZTV9metaIndex@Base 0.8.0
 _ZTV9pkgDPkgPM@Base 0.8.0
 _ZTV9pkgPolicy@Base 0.8.0
 _ZTV9pkgSystem@Base 0.8.0
 _ZTVN10pkgAcquire11UriIteratorE@Base 0.8.16~exp6
 _ZTVN10pkgAcquire12MethodConfigE@Base 0.8.16~exp6
 _ZTVN10pkgAcquire4ItemE@Base 0.8.0
 _ZTVN10pkgAcquire5QueueE@Base 0.8.16~exp6
 _ZTVN10pkgAcquire6WorkerE@Base 0.8.16~exp6
 _ZTVN10pkgRecords6ParserE@Base 0.8.0
 _ZTVN11pkgDepCache13InRootSetFuncE@Base 0.8.0
 _ZTVN11pkgDepCache18DefaultRootSetFuncE@Base 0.8.0
 _ZTVN11pkgDepCache6PolicyE@Base 0.8.0
 _ZTVN11pkgSimulate6PolicyE@Base 0.8.0
 _ZTVN12pkgIndexFile4TypeE@Base 0.8.0
 _ZTVN13Configuration18MatchAgainstConfigE@Base 0.8.0
 _ZTVN13pkgSourceList4TypeE@Base 0.8.0
 _ZTVN13pkgSrcRecords6ParserE@Base 0.8.0
 _ZTVN17pkgCacheGenerator10ListParserE@Base 0.8.0
 _ZTVN3APT14CacheSetHelperE@Base 0.8.0
 _ZTVN3APT16PackageContainerISt3setIN8pkgCache11PkgIteratorESt4lessIS3_ESaIS3_EEE14const_iteratorE@Base 0.8.16~exp9
 _ZTVN3APT16PackageContainerISt3setIN8pkgCache11PkgIteratorESt4lessIS3_ESaIS3_EEEE@Base 0.8.16~exp9
 _ZTVN3APT16PackageContainerISt4listIN8pkgCache11PkgIteratorESaIS3_EEE14const_iteratorE@Base 0.8.16~exp9
 _ZTVN3APT16PackageContainerISt4listIN8pkgCache11PkgIteratorESaIS3_EEEE@Base 0.8.16~exp9
 _ZTVN3APT16VersionContainerISt4listIN8pkgCache11VerIteratorESaIS3_EEE8iteratorE@Base 0.8.16~exp9
 _ZTVN3APT16VersionContainerISt4listIN8pkgCache11VerIteratorESaIS3_EEEE@Base 0.8.16~exp9
 _ZTVN3APT25PackageContainerInterface14const_iteratorE@Base 0.8.16~exp9
 _ZTVN3APT25PackageContainerInterfaceE@Base 0.8.16~exp9
 _ZTVN3APT25VersionContainerInterface14const_iteratorE@Base 0.8.16~exp9
 _ZTVN3APT25VersionContainerInterfaceE@Base 0.8.16~exp9
 _ZTVN3APT8Progress14PackageManagerE@Base 0.9.13~exp1
 _ZTVN3APT8Progress18PackageManagerTextE@Base 0.9.13~exp1
 _ZTVN3APT8Progress19PackageManagerFancyE@Base 0.9.13~exp1
 _ZTVN3APT8Progress24PackageManagerProgressFdE@Base 0.9.13~exp1
 _ZTVN3APT8Progress30PackageManagerProgressDeb822FdE@Base 0.9.13~exp1
 _ZTVN8pkgCache11DepIteratorE@Base 0.8.0
 _ZTVN8pkgCache11GrpIteratorE@Base 0.8.0
 _ZTVN8pkgCache11PkgIteratorE@Base 0.8.0
 _ZTVN8pkgCache11PrvIteratorE@Base 0.8.0
 _ZTVN8pkgCache11VerIteratorE@Base 0.8.0
 _ZTVN8pkgCache12DescIteratorE@Base 0.8.0
 _ZTVN8pkgCache15PkgFileIteratorE@Base 0.8.0
 _ZTVN8pkgCache15VerFileIteratorE@Base 0.8.0
 _ZTVN8pkgCache16DescFileIteratorE@Base 0.8.0
 _ZTVN8pkgCache8IteratorINS_10DependencyENS_11DepIteratorEEE@Base 0.8.0
 _ZTVN8pkgCache8IteratorINS_11DescriptionENS_12DescIteratorEEE@Base 0.8.0
 _ZTVN8pkgCache8IteratorINS_11PackageFileENS_15PkgFileIteratorEEE@Base 0.8.0
 _ZTVN8pkgCache8IteratorINS_5GroupENS_11GrpIteratorEEE@Base 0.8.0
 _ZTVN8pkgCache8IteratorINS_7PackageENS_11PkgIteratorEEE@Base 0.8.0
 _ZTVN8pkgCache8IteratorINS_7VerFileENS_15VerFileIteratorEEE@Base 0.8.0
 _ZTVN8pkgCache8IteratorINS_7VersionENS_11VerIteratorEEE@Base 0.8.0
 _ZTVN8pkgCache8IteratorINS_8DescFileENS_16DescFileIteratorEEE@Base 0.8.0
 _ZTVN8pkgCache8IteratorINS_8ProvidesENS_11PrvIteratorEEE@Base 0.8.0
 _ZThn4_N11pkgDepCache18DefaultRootSetFuncD0Ev@Base 0.8.0
 _ZThn4_N11pkgDepCache18DefaultRootSetFuncD1Ev@Base 0.8.0
 _ZlsRSoN11GlobalError4ItemE@Base 0.9.9
 _ZlsRSoN8pkgCache11DepIteratorE@Base 0.8.0
 _ZlsRSoN8pkgCache11PkgIteratorE@Base 0.8.0
 _apt_DebSrcType@Base 0.8.0
 _apt_DebType@Base 0.8.0
 _config@Base 0.8.0
 _system@Base 0.8.0
 debSys@Base 0.8.0
 debVS@Base 0.8.0
 edspSys@Base 0.8.16~exp2
 pkgLibVersion@Base 0.8.0
 pkgVersion@Base 0.8.0
