libattica.so.0 libattica0 #MINVER#
* Build-Depends-Package: libattica-dev
 _ZN6Attica11ItemPostJobINS_7CommentEE5parseERK7QString@Base 0.2.0
 _ZN6Attica11ItemPostJobINS_7CommentEEC1EPNS_17PlatformDependentERK15QNetworkRequestP9QIODevice@Base 0.2.0
 _ZN6Attica11ItemPostJobINS_7CommentEEC1EPNS_17PlatformDependentERK15QNetworkRequestRK4QMapI7QStringS9_E@Base 0.2.0
 _ZN6Attica11ItemPostJobINS_7CommentEEC2EPNS_17PlatformDependentERK15QNetworkRequestP9QIODevice@Base 0.2.0
 _ZN6Attica11ItemPostJobINS_7CommentEEC2EPNS_17PlatformDependentERK15QNetworkRequestRK4QMapI7QStringS9_E@Base 0.2.0
 _ZN6Attica11ItemPostJobINS_7ContentEE5parseERK7QString@Base 0.1.1
 _ZN6Attica11ItemPostJobINS_7ContentEEC1EPNS_17PlatformDependentERK15QNetworkRequestP9QIODevice@Base 0.1.3
 _ZN6Attica11ItemPostJobINS_7ContentEEC1EPNS_17PlatformDependentERK15QNetworkRequestRK4QMapI7QStringS9_E@Base 0.1.3
 _ZN6Attica11ItemPostJobINS_7ContentEEC2EPNS_17PlatformDependentERK15QNetworkRequestP9QIODevice@Base 0.1.3
 _ZN6Attica11ItemPostJobINS_7ContentEEC2EPNS_17PlatformDependentERK15QNetworkRequestRK4QMapI7QStringS9_E@Base 0.1.3
 _ZN6Attica11PrivateData12setAttributeERK7QStringS3_@Base 0.1.90
 _ZN6Attica11PrivateData12setTimestampERK7QStringRK9QDateTime@Base 0.1.90
 _ZN6Attica11PrivateData6Parser8parseXmlER16QXmlStreamReader@Base 0.1.90
 _ZN6Attica11PrivateDataC1ERKS0_@Base 0.1.90
 _ZN6Attica11PrivateDataC1Ev@Base 0.1.90
 _ZN6Attica11PrivateDataC2ERKS0_@Base 0.1.90
 _ZN6Attica11PrivateDataC2Ev@Base 0.1.90
 _ZN6Attica11PrivateDataD1Ev@Base 0.1.90
 _ZN6Attica11PrivateDataD2Ev@Base 0.1.90
 _ZN6Attica11PrivateDataaSERKS0_@Base 0.1.90
 _ZN6Attica12Distribution5setIdEj@Base 0.1.90
 _ZN6Attica12Distribution6Parser8parseXmlER16QXmlStreamReader@Base 0.1.90
 _ZN6Attica12Distribution7setNameERK7QString@Base 0.1.90
 _ZN6Attica12DistributionC1ERKS0_@Base 0.1.90
 _ZN6Attica12DistributionC1Ev@Base 0.1.90
 _ZN6Attica12DistributionC2ERKS0_@Base 0.1.90
 _ZN6Attica12DistributionC2Ev@Base 0.1.90
 _ZN6Attica12DistributionD1Ev@Base 0.1.90
 _ZN6Attica12DistributionD2Ev@Base 0.1.90
 _ZN6Attica12DistributionaSERKS0_@Base 0.1.90
 _ZN6Attica12DownloadItem11setMimeTypeERK7QString@Base 0.1.90
 _ZN6Attica12DownloadItem14setPackageNameERK7QString@Base 0.1.90
 _ZN6Attica12DownloadItem15setGpgSignatureERK7QString@Base 0.1.90
 _ZN6Attica12DownloadItem17setGpgFingerprintERK7QString@Base 0.1.90
 _ZN6Attica12DownloadItem20setPackageRepositoryERK7QString@Base 0.1.90
 _ZN6Attica12DownloadItem4typeEv@Base 0.2.0
 _ZN6Attica12DownloadItem6Parser8parseXmlER16QXmlStreamReader@Base 0.1.1
 _ZN6Attica12DownloadItem6setUrlERK4QUrl@Base 0.1.1
 _ZN6Attica12DownloadItem7setTypeENS_19DownloadDescription4TypeE@Base 0.2.0
 _ZN6Attica12DownloadItemC1ERKS0_@Base 0.1.1
 _ZN6Attica12DownloadItemC1Ev@Base 0.1.1
 _ZN6Attica12DownloadItemC2ERKS0_@Base 0.1.1
 _ZN6Attica12DownloadItemC2Ev@Base 0.1.1
 _ZN6Attica12DownloadItemD1Ev@Base 0.1.1
 _ZN6Attica12DownloadItemD2Ev@Base 0.1.1
 _ZN6Attica12DownloadItemaSERKS0_@Base 0.1.1
 _ZN6Attica12HomePageType5setIdEj@Base 0.1.90
 _ZN6Attica12HomePageType6Parser8parseXmlER16QXmlStreamReader@Base 0.1.90
 _ZN6Attica12HomePageType7setNameERK7QString@Base 0.1.90
 _ZN6Attica12HomePageTypeC1ERKS0_@Base 0.1.90
 _ZN6Attica12HomePageTypeC1Ev@Base 0.1.90
 _ZN6Attica12HomePageTypeC2ERKS0_@Base 0.1.90
 _ZN6Attica12HomePageTypeC2Ev@Base 0.1.90
 _ZN6Attica12HomePageTypeD1Ev@Base 0.1.90
 _ZN6Attica12HomePageTypeD2Ev@Base 0.1.90
 _ZN6Attica12HomePageTypeaSERKS0_@Base 0.1.90
 _ZN6Attica13HomePageEntry6setUrlERK4QUrl@Base 0.1.90
 _ZN6Attica13HomePageEntry7setTypeERK7QString@Base 0.1.90
 _ZN6Attica13HomePageEntryC1ERKS0_@Base 0.1.90
 _ZN6Attica13HomePageEntryC1Ev@Base 0.1.90
 _ZN6Attica13HomePageEntryC2ERKS0_@Base 0.1.90
 _ZN6Attica13HomePageEntryC2Ev@Base 0.1.90
 _ZN6Attica13HomePageEntryD1Ev@Base 0.1.90
 _ZN6Attica13HomePageEntryD2Ev@Base 0.1.90
 _ZN6Attica13HomePageEntryaSERKS0_@Base 0.1.90
 _ZN6Attica14AccountBalance10setBalanceERK7QString@Base 0.1.1
 _ZN6Attica14AccountBalance11setCurrencyERK7QString@Base 0.1.1
 _ZN6Attica14AccountBalance6Parser8parseXmlER16QXmlStreamReader@Base 0.1.1
 _ZN6Attica14AccountBalanceC1ERKS0_@Base 0.1.1
 _ZN6Attica14AccountBalanceC1Ev@Base 0.1.1
 _ZN6Attica14AccountBalanceC2ERKS0_@Base 0.1.1
 _ZN6Attica14AccountBalanceC2Ev@Base 0.1.1
 _ZN6Attica14AccountBalanceD1Ev@Base 0.1.1
 _ZN6Attica14AccountBalanceD2Ev@Base 0.1.1
 _ZN6Attica14AccountBalanceaSERKS0_@Base 0.1.1
 _ZN6Attica15ProviderManager11qt_metacallEN11QMetaObject4CallEiPPv@Base 0.1.1
 _ZN6Attica15ProviderManager11qt_metacastEPKc@Base 0.1.1
 _ZN6Attica15ProviderManager12authenticateEP13QNetworkReplyP14QAuthenticator@Base 0.1.1
 _ZN6Attica15ProviderManager12fileFinishedERK7QString@Base 0.1.1
 _ZN6Attica15ProviderManager13providerAddedERKNS_8ProviderE@Base 0.1.1
 _ZN6Attica15ProviderManager15addProviderFileERK4QUrl@Base 0.1.1
 _ZN6Attica15ProviderManager16staticMetaObjectE@Base 0.1.1
 _ZN6Attica15ProviderManager17parseProviderFileERK7QStringS3_@Base 0.1.1
 _ZN6Attica15ProviderManager18addProviderFromXmlERK7QString@Base 0.1.1
 _ZN6Attica15ProviderManager20defaultProviderFilesEv@Base 0.1.4
 _ZN6Attica15ProviderManager20loadDefaultProvidersEv@Base 0.1.1
 _ZN6Attica15ProviderManager21loadPlatformDependentEv@Base 0.1.1
 _ZN6Attica15ProviderManager22defaultProvidersLoadedEv@Base 0.1.1
 _ZN6Attica15ProviderManager25initNetworkAccesssManagerEv@Base 0.1.1
 _ZN6Attica15ProviderManager27proxyAuthenticationRequiredERK13QNetworkProxyP14QAuthenticator@Base 0.1.1
 _ZN6Attica15ProviderManager27setAuthenticationSuppressedEb@Base 0.1.1
 _ZN6Attica15ProviderManager32authenticationCredentialsMissingERKNS_8ProviderE@Base 0.1.1
 _ZN6Attica15ProviderManager32slotLoadDefaultProvidersInternalEv@Base 0.1.3
 _ZN6Attica15ProviderManager33addProviderFileToDefaultProvidersERK4QUrl@Base 0.1.4
 _ZN6Attica15ProviderManager38removeProviderFileFromDefaultProvidersERK4QUrl@Base 0.1.4
 _ZN6Attica15ProviderManager5clearEv@Base 0.1.1
 _ZN6Attica15ProviderManagerC1Ev@Base 0.1.1
 _ZN6Attica15ProviderManagerC2Ev@Base 0.1.1
 _ZN6Attica15ProviderManagerD0Ev@Base 0.1.1
 _ZN6Attica15ProviderManagerD1Ev@Base 0.1.1
 _ZN6Attica15ProviderManagerD2Ev@Base 0.1.1
 _ZN6Attica18KnowledgeBaseEntry10setChangedERK9QDateTime@Base 0.1.1
 _ZN6Attica18KnowledgeBaseEntry11setCommentsEi@Base 0.1.1
 _ZN6Attica18KnowledgeBaseEntry12setContentIdEi@Base 0.1.1
 _ZN6Attica18KnowledgeBaseEntry13setDetailPageERK4QUrl@Base 0.1.1
 _ZN6Attica18KnowledgeBaseEntry14setDescriptionERK7QString@Base 0.1.1
 _ZN6Attica18KnowledgeBaseEntry20addExtendedAttributeERK7QStringS3_@Base 0.1.1
 _ZN6Attica18KnowledgeBaseEntry5setIdE7QString@Base 0.1.1
 _ZN6Attica18KnowledgeBaseEntry6Parser8parseXmlER16QXmlStreamReader@Base 0.1.1
 _ZN6Attica18KnowledgeBaseEntry7setNameERK7QString@Base 0.1.1
 _ZN6Attica18KnowledgeBaseEntry7setUserERK7QString@Base 0.1.1
 _ZN6Attica18KnowledgeBaseEntry9setAnswerERK7QString@Base 0.1.1
 _ZN6Attica18KnowledgeBaseEntry9setStatusE7QString@Base 0.1.1
 _ZN6Attica18KnowledgeBaseEntryC1ERKS0_@Base 0.1.1
 _ZN6Attica18KnowledgeBaseEntryC1Ev@Base 0.1.1
 _ZN6Attica18KnowledgeBaseEntryC2ERKS0_@Base 0.1.1
 _ZN6Attica18KnowledgeBaseEntryC2Ev@Base 0.1.1
 _ZN6Attica18KnowledgeBaseEntryD1Ev@Base 0.1.1
 _ZN6Attica18KnowledgeBaseEntryD2Ev@Base 0.1.1
 _ZN6Attica18KnowledgeBaseEntryaSERKS0_@Base 0.1.1
 _ZN6Attica19DownloadDescription10repositoryEv@Base 0.1.90
 _ZN6Attica19DownloadDescription11packageNameEv@Base 0.1.90
 _ZN6Attica19DownloadDescription11priceAmountEv@Base 0.1.1
 _ZN6Attica19DownloadDescription11priceReasonEv@Base 0.1.1
 _ZN6Attica19DownloadDescription11setCategoryERK7QString@Base 0.1.1
 _ZN6Attica19DownloadDescription11setHasPriceEb@Base 0.1.1
 _ZN6Attica19DownloadDescription12gpgSignatureEv@Base 0.1.90
 _ZN6Attica19DownloadDescription13setRepositoryERK7QString@Base 0.1.90
 _ZN6Attica19DownloadDescription14gpgFingerprintEv@Base 0.1.90
 _ZN6Attica19DownloadDescription14setPackageNameERK7QString@Base 0.1.90
 _ZN6Attica19DownloadDescription14setPriceAmountERK7QString@Base 0.1.1
 _ZN6Attica19DownloadDescription14setPriceReasonERK7QString@Base 0.1.1
 _ZN6Attica19DownloadDescription15setGpgSignatureERK7QString@Base 0.1.90
 _ZN6Attica19DownloadDescription16distributionTypeEv@Base 0.1.1
 _ZN6Attica19DownloadDescription17isDownloadtypLinkEv@Base 0.1.1
 _ZN6Attica19DownloadDescription17setGpgFingerprintERK7QString@Base 0.1.90
 _ZN6Attica19DownloadDescription18setDownloadtypLinkEb@Base 0.1.1
 _ZN6Attica19DownloadDescription19setDistributionTypeERK7QString@Base 0.1.1
 _ZN6Attica19DownloadDescription2idEv@Base 0.1.3
 _ZN6Attica19DownloadDescription4linkEv@Base 0.1.1
 _ZN6Attica19DownloadDescription4nameEv@Base 0.1.1
 _ZN6Attica19DownloadDescription4sizeEv@Base 0.1.90
 _ZN6Attica19DownloadDescription4typeEv@Base 0.1.90
 _ZN6Attica19DownloadDescription5setIdEi@Base 0.1.3
 _ZN6Attica19DownloadDescription7setLinkERK7QString@Base 0.1.1
 _ZN6Attica19DownloadDescription7setNameERK7QString@Base 0.1.1
 _ZN6Attica19DownloadDescription7setSizeEj@Base 0.1.90
 _ZN6Attica19DownloadDescription7setTypeENS0_4TypeE@Base 0.1.90
 _ZN6Attica19DownloadDescription8categoryEv@Base 0.1.1
 _ZN6Attica19DownloadDescription8hasPriceEv@Base 0.1.1
 _ZN6Attica19DownloadDescriptionC1ERKS0_@Base 0.1.1
 _ZN6Attica19DownloadDescriptionC1Ev@Base 0.1.1
 _ZN6Attica19DownloadDescriptionC2ERKS0_@Base 0.1.1
 _ZN6Attica19DownloadDescriptionC2Ev@Base 0.1.1
 _ZN6Attica19DownloadDescriptionD1Ev@Base 0.1.1
 _ZN6Attica19DownloadDescriptionD2Ev@Base 0.1.1
 _ZN6Attica19DownloadDescriptionaSERKS0_@Base 0.1.1
 _ZN6Attica4Icon6setUrlERK4QUrl@Base 0.1.90
 _ZN6Attica4Icon8setWidthEj@Base 0.1.90
 _ZN6Attica4Icon9setHeightEj@Base 0.1.90
 _ZN6Attica4IconC1ERKS0_@Base 0.1.90
 _ZN6Attica4IconC1Ev@Base 0.1.90
 _ZN6Attica4IconC2ERKS0_@Base 0.1.90
 _ZN6Attica4IconC2Ev@Base 0.1.90
 _ZN6Attica4IconD1Ev@Base 0.1.90
 _ZN6Attica4IconD2Ev@Base 0.1.90
 _ZN6Attica4IconaSERKS0_@Base 0.1.90
 _ZN6Attica5Event10setCountryERK7QString@Base 0.1.1
 _ZN6Attica5Event10setEndDateERK5QDate@Base 0.1.1
 _ZN6Attica5Event11setHomepageERK4QUrl@Base 0.1.1
 _ZN6Attica5Event11setLatitudeEd@Base 0.1.1
 _ZN6Attica5Event12setLongitudeEd@Base 0.1.1
 _ZN6Attica5Event12setStartDateERK5QDate@Base 0.1.1
 _ZN6Attica5Event14setDescriptionERK7QString@Base 0.1.1
 _ZN6Attica5Event20addExtendedAttributeERK7QStringS3_@Base 0.1.1
 _ZN6Attica5Event5setIdERK7QString@Base 0.1.1
 _ZN6Attica5Event6Parser8parseXmlER16QXmlStreamReader@Base 0.1.1
 _ZN6Attica5Event7setCityERK7QString@Base 0.1.1
 _ZN6Attica5Event7setNameERK7QString@Base 0.1.1
 _ZN6Attica5Event7setUserERK7QString@Base 0.1.1
 _ZN6Attica5EventC1ERKS0_@Base 0.1.1
 _ZN6Attica5EventC1Ev@Base 0.1.1
 _ZN6Attica5EventC2ERKS0_@Base 0.1.1
 _ZN6Attica5EventC2Ev@Base 0.1.1
 _ZN6Attica5EventD1Ev@Base 0.1.1
 _ZN6Attica5EventD2Ev@Base 0.1.1
 _ZN6Attica5EventaSERKS0_@Base 0.1.1
 _ZN6Attica6Folder15setMessageCountEi@Base 0.1.1
 _ZN6Attica6Folder5setIdERK7QString@Base 0.1.1
 _ZN6Attica6Folder6Parser8parseXmlER16QXmlStreamReader@Base 0.1.1
 _ZN6Attica6Folder7setNameERK7QString@Base 0.1.1
 _ZN6Attica6Folder7setTypeERK7QString@Base 0.1.1
 _ZN6Attica6FolderC1ERKS0_@Base 0.1.1
 _ZN6Attica6FolderC1Ev@Base 0.1.1
 _ZN6Attica6FolderC2ERKS0_@Base 0.1.1
 _ZN6Attica6FolderC2Ev@Base 0.1.1
 _ZN6Attica6FolderD1Ev@Base 0.1.1
 _ZN6Attica6FolderD2Ev@Base 0.1.1
 _ZN6Attica6FolderaSERKS0_@Base 0.1.1
 _ZN6Attica6GetJob11qt_metacallEN11QMetaObject4CallEiPPv@Base 0.1.1
 _ZN6Attica6GetJob11qt_metacastEPKc@Base 0.1.1
 _ZN6Attica6GetJob14executeRequestEv@Base 0.1.1
 _ZN6Attica6GetJob16staticMetaObjectE@Base 0.1.1
 _ZN6Attica6GetJobC1EPNS_17PlatformDependentERK15QNetworkRequest@Base 0.1.3
 _ZN6Attica6GetJobC2EPNS_17PlatformDependentERK15QNetworkRequest@Base 0.1.3
 _ZN6Attica6Person10setCountryERK7QString@Base 0.1.1
 _ZN6Attica6Person11setBirthdayERK5QDate@Base 0.1.1
 _ZN6Attica6Person11setHomepageERK7QString@Base 0.1.1
 _ZN6Attica6Person11setLastNameERK7QString@Base 0.1.1
 _ZN6Attica6Person11setLatitudeEd@Base 0.1.1
 _ZN6Attica6Person12setAvatarUrlERK4QUrl@Base 0.1.1
 _ZN6Attica6Person12setFirstNameERK7QString@Base 0.1.1
 _ZN6Attica6Person12setLongitudeEd@Base 0.1.1
 _ZN6Attica6Person20addExtendedAttributeERK7QStringS3_@Base 0.1.1
 _ZN6Attica6Person5setIdERK7QString@Base 0.1.1
 _ZN6Attica6Person6Parser8parseXmlER16QXmlStreamReader@Base 0.1.1
 _ZN6Attica6Person7setCityERK7QString@Base 0.1.1
 _ZN6Attica6PersonC1ERKS0_@Base 0.1.1
 _ZN6Attica6PersonC1Ev@Base 0.1.1
 _ZN6Attica6PersonC2ERKS0_@Base 0.1.1
 _ZN6Attica6PersonC2Ev@Base 0.1.1
 _ZN6Attica6PersonD1Ev@Base 0.1.1
 _ZN6Attica6PersonD2Ev@Base 0.1.1
 _ZN6Attica6PersonaSERKS0_@Base 0.1.1
 _ZN6Attica7BaseJob11qt_metacallEN11QMetaObject4CallEiPPv@Base 0.1.1
 _ZN6Attica7BaseJob11qt_metacastEPKc@Base 0.1.1
 _ZN6Attica7BaseJob12dataFinishedEv@Base 0.1.1
 _ZN6Attica7BaseJob16staticMetaObjectE@Base 0.1.1
 _ZN6Attica7BaseJob5abortEv@Base 0.1.1
 _ZN6Attica7BaseJob5startEv@Base 0.1.1
 _ZN6Attica7BaseJob6doWorkEv@Base 0.1.1
 _ZN6Attica7BaseJob8finishedEPS0_@Base 0.1.1
 _ZN6Attica7BaseJob9internalsEv@Base 0.1.1
 _ZN6Attica7BaseJobC1EPNS_17PlatformDependentE@Base 0.1.3
 _ZN6Attica7BaseJobC2EPNS_17PlatformDependentE@Base 0.1.3
 _ZN6Attica7BaseJobD0Ev@Base 0.1.1
 _ZN6Attica7BaseJobD1Ev@Base 0.1.1
 _ZN6Attica7BaseJobD2Ev@Base 0.1.1
 _ZN6Attica7Comment10setSubjectERK7QString@Base 0.1.90
 _ZN6Attica7Comment11setChildrenE5QListIS0_E@Base 0.1.90
 _ZN6Attica7Comment13setChildCountEi@Base 0.1.90
 _ZN6Attica7Comment19commentTypeToStringENS0_4TypeE@Base 0.1.90
 _ZN6Attica7Comment5setIdERK7QString@Base 0.1.90
 _ZN6Attica7Comment6Parser16parseXmlChildrenER16QXmlStreamReader@Base 0.1.90
 _ZN6Attica7Comment6Parser8parseXmlER16QXmlStreamReader@Base 0.1.90
 _ZN6Attica7Comment7setDateERK9QDateTime@Base 0.1.90
 _ZN6Attica7Comment7setTextERK7QString@Base 0.1.90
 _ZN6Attica7Comment7setUserERK7QString@Base 0.1.90
 _ZN6Attica7Comment8setScoreEi@Base 0.1.90
 _ZN6Attica7CommentC1ERKS0_@Base 0.1.90
 _ZN6Attica7CommentC1Ev@Base 0.1.90
 _ZN6Attica7CommentC2ERKS0_@Base 0.1.90
 _ZN6Attica7CommentC2Ev@Base 0.1.90
 _ZN6Attica7CommentD1Ev@Base 0.1.90
 _ZN6Attica7CommentD2Ev@Base 0.1.90
 _ZN6Attica7CommentaSERKS0_@Base 0.1.90
 _ZN6Attica7Content10setCreatedERK9QDateTime@Base 0.1.1
 _ZN6Attica7Content10setUpdatedERK9QDateTime@Base 0.1.1
 _ZN6Attica7Content12addAttributeERK7QStringS3_@Base 0.1.1
 _ZN6Attica7Content12setDownloadsEi@Base 0.1.1
 _ZN6Attica7Content15homePageEntriesEv@Base 0.1.90
 _ZN6Attica7Content19setNumberOfCommentsEi@Base 0.1.90
 _ZN6Attica7Content5iconsEv@Base 0.1.90
 _ZN6Attica7Content5setIdERK7QString@Base 0.1.1
 _ZN6Attica7Content6Parser8parseXmlER16QXmlStreamReader@Base 0.1.1
 _ZN6Attica7Content6videosEv@Base 0.1.90
 _ZN6Attica7Content7setNameERK7QString@Base 0.1.1
 _ZN6Attica7Content8setIconsE5QListINS_4IconEE@Base 0.1.90
 _ZN6Attica7Content9setRatingEi@Base 0.1.1
 _ZN6Attica7Content9setVideosE5QListI4QUrlE@Base 0.1.90
 _ZN6Attica7ContentC1ERKS0_@Base 0.1.1
 _ZN6Attica7ContentC1Ev@Base 0.1.1
 _ZN6Attica7ContentC2ERKS0_@Base 0.1.1
 _ZN6Attica7ContentC2Ev@Base 0.1.1
 _ZN6Attica7ContentD1Ev@Base 0.1.1
 _ZN6Attica7ContentD2Ev@Base 0.1.1
 _ZN6Attica7ContentaSERKS0_@Base 0.1.1
 _ZN6Attica7ItemJobINS_11PrivateDataEE5parseERK7QString@Base 0.1.90
 _ZN6Attica7ItemJobINS_11PrivateDataEEC1EPNS_17PlatformDependentERK15QNetworkRequest@Base 0.1.90
 _ZN6Attica7ItemJobINS_11PrivateDataEEC2EPNS_17PlatformDependentERK15QNetworkRequest@Base 0.1.90
 _ZN6Attica7ItemJobINS_12DownloadItemEE5parseERK7QString@Base 0.1.1
 _ZN6Attica7ItemJobINS_12DownloadItemEEC1EPNS_17PlatformDependentERK15QNetworkRequest@Base 0.1.3
 _ZN6Attica7ItemJobINS_12DownloadItemEEC2EPNS_17PlatformDependentERK15QNetworkRequest@Base 0.1.3
 _ZN6Attica7ItemJobINS_14AccountBalanceEE5parseERK7QString@Base 0.1.1
 _ZN6Attica7ItemJobINS_14AccountBalanceEEC1EPNS_17PlatformDependentERK15QNetworkRequest@Base 0.1.3
 _ZN6Attica7ItemJobINS_14AccountBalanceEEC2EPNS_17PlatformDependentERK15QNetworkRequest@Base 0.1.3
 _ZN6Attica7ItemJobINS_18KnowledgeBaseEntryEE5parseERK7QString@Base 0.1.1
 _ZN6Attica7ItemJobINS_18KnowledgeBaseEntryEEC1EPNS_17PlatformDependentERK15QNetworkRequest@Base 0.1.3
 _ZN6Attica7ItemJobINS_18KnowledgeBaseEntryEEC2EPNS_17PlatformDependentERK15QNetworkRequest@Base 0.1.3
 _ZN6Attica7ItemJobINS_5EventEE5parseERK7QString@Base 0.1.1
 _ZN6Attica7ItemJobINS_5EventEEC1EPNS_17PlatformDependentERK15QNetworkRequest@Base 0.1.3
 _ZN6Attica7ItemJobINS_5EventEEC2EPNS_17PlatformDependentERK15QNetworkRequest@Base 0.1.3
 _ZN6Attica7ItemJobINS_6PersonEE5parseERK7QString@Base 0.1.1
 _ZN6Attica7ItemJobINS_6PersonEEC1EPNS_17PlatformDependentERK15QNetworkRequest@Base 0.1.3
 _ZN6Attica7ItemJobINS_6PersonEEC2EPNS_17PlatformDependentERK15QNetworkRequest@Base 0.1.3
 _ZN6Attica7ItemJobINS_7ContentEE5parseERK7QString@Base 0.1.1
 _ZN6Attica7ItemJobINS_7ContentEEC1EPNS_17PlatformDependentERK15QNetworkRequest@Base 0.1.3
 _ZN6Attica7ItemJobINS_7ContentEEC2EPNS_17PlatformDependentERK15QNetworkRequest@Base 0.1.3
 _ZN6Attica7ItemJobINS_7MessageEE5parseERK7QString@Base 0.1.1
 _ZN6Attica7ItemJobINS_7MessageEEC1EPNS_17PlatformDependentERK15QNetworkRequest@Base 0.1.3
 _ZN6Attica7ItemJobINS_7MessageEEC2EPNS_17PlatformDependentERK15QNetworkRequest@Base 0.1.3
 _ZN6Attica7License5setIdEj@Base 0.1.3
 _ZN6Attica7License6Parser8parseXmlER16QXmlStreamReader@Base 0.1.3
 _ZN6Attica7License6setUrlERK4QUrl@Base 0.1.3
 _ZN6Attica7License7setNameERK7QString@Base 0.1.3
 _ZN6Attica7LicenseC1ERKS0_@Base 0.1.3
 _ZN6Attica7LicenseC1Ev@Base 0.1.3
 _ZN6Attica7LicenseC2ERKS0_@Base 0.1.3
 _ZN6Attica7LicenseC2Ev@Base 0.1.3
 _ZN6Attica7LicenseD1Ev@Base 0.1.3
 _ZN6Attica7LicenseD2Ev@Base 0.1.3
 _ZN6Attica7LicenseaSERKS0_@Base 0.1.3
 _ZN6Attica7ListJobINS_12DistributionEE5parseERK7QString@Base 0.1.90
 _ZN6Attica7ListJobINS_12DistributionEEC1EPNS_17PlatformDependentERK15QNetworkRequest@Base 0.1.90
 _ZN6Attica7ListJobINS_12DistributionEEC2EPNS_17PlatformDependentERK15QNetworkRequest@Base 0.1.90
 _ZN6Attica7ListJobINS_12DownloadItemEE5parseERK7QString@Base 0.1.1
 _ZN6Attica7ListJobINS_12DownloadItemEEC1EPNS_17PlatformDependentERK15QNetworkRequest@Base 0.1.3
 _ZN6Attica7ListJobINS_12DownloadItemEEC2EPNS_17PlatformDependentERK15QNetworkRequest@Base 0.1.3
 _ZN6Attica7ListJobINS_12HomePageTypeEE5parseERK7QString@Base 0.1.90
 _ZN6Attica7ListJobINS_12HomePageTypeEEC1EPNS_17PlatformDependentERK15QNetworkRequest@Base 0.1.90
 _ZN6Attica7ListJobINS_12HomePageTypeEEC2EPNS_17PlatformDependentERK15QNetworkRequest@Base 0.1.90
 _ZN6Attica7ListJobINS_18KnowledgeBaseEntryEE5parseERK7QString@Base 0.1.1
 _ZN6Attica7ListJobINS_18KnowledgeBaseEntryEEC1EPNS_17PlatformDependentERK15QNetworkRequest@Base 0.1.3
 _ZN6Attica7ListJobINS_18KnowledgeBaseEntryEEC2EPNS_17PlatformDependentERK15QNetworkRequest@Base 0.1.3
 _ZN6Attica7ListJobINS_5EventEE5parseERK7QString@Base 0.1.1
 _ZN6Attica7ListJobINS_5EventEEC1EPNS_17PlatformDependentERK15QNetworkRequest@Base 0.1.3
 _ZN6Attica7ListJobINS_5EventEEC2EPNS_17PlatformDependentERK15QNetworkRequest@Base 0.1.3
 _ZN6Attica7ListJobINS_6FolderEE5parseERK7QString@Base 0.1.1
 _ZN6Attica7ListJobINS_6FolderEEC1EPNS_17PlatformDependentERK15QNetworkRequest@Base 0.1.3
 _ZN6Attica7ListJobINS_6FolderEEC2EPNS_17PlatformDependentERK15QNetworkRequest@Base 0.1.3
 _ZN6Attica7ListJobINS_6PersonEE5parseERK7QString@Base 0.1.1
 _ZN6Attica7ListJobINS_6PersonEEC1EPNS_17PlatformDependentERK15QNetworkRequest@Base 0.1.3
 _ZN6Attica7ListJobINS_6PersonEEC2EPNS_17PlatformDependentERK15QNetworkRequest@Base 0.1.3
 _ZN6Attica7ListJobINS_7CommentEE5parseERK7QString@Base 0.1.90
 _ZN6Attica7ListJobINS_7CommentEEC1EPNS_17PlatformDependentERK15QNetworkRequest@Base 0.1.90
 _ZN6Attica7ListJobINS_7CommentEEC2EPNS_17PlatformDependentERK15QNetworkRequest@Base 0.1.90
 _ZN6Attica7ListJobINS_7ContentEE5parseERK7QString@Base 0.1.1
 _ZN6Attica7ListJobINS_7ContentEEC1EPNS_17PlatformDependentERK15QNetworkRequest@Base 0.1.3
 _ZN6Attica7ListJobINS_7ContentEEC2EPNS_17PlatformDependentERK15QNetworkRequest@Base 0.1.3
 _ZN6Attica7ListJobINS_7LicenseEE5parseERK7QString@Base 0.1.3
 _ZN6Attica7ListJobINS_7LicenseEEC1EPNS_17PlatformDependentERK15QNetworkRequest@Base 0.1.3
 _ZN6Attica7ListJobINS_7LicenseEEC2EPNS_17PlatformDependentERK15QNetworkRequest@Base 0.1.3
 _ZN6Attica7ListJobINS_7MessageEE5parseERK7QString@Base 0.1.1
 _ZN6Attica7ListJobINS_7MessageEEC1EPNS_17PlatformDependentERK15QNetworkRequest@Base 0.1.3
 _ZN6Attica7ListJobINS_7MessageEEC2EPNS_17PlatformDependentERK15QNetworkRequest@Base 0.1.3
 _ZN6Attica7ListJobINS_8ActivityEE5parseERK7QString@Base 0.1.1
 _ZN6Attica7ListJobINS_8ActivityEEC1EPNS_17PlatformDependentERK15QNetworkRequest@Base 0.1.3
 _ZN6Attica7ListJobINS_8ActivityEEC2EPNS_17PlatformDependentERK15QNetworkRequest@Base 0.1.3
 _ZN6Attica7ListJobINS_8CategoryEE5parseERK7QString@Base 0.1.1
 _ZN6Attica7ListJobINS_8CategoryEEC1EPNS_17PlatformDependentERK15QNetworkRequest@Base 0.1.3
 _ZN6Attica7ListJobINS_8CategoryEEC2EPNS_17PlatformDependentERK15QNetworkRequest@Base 0.1.3
 _ZN6Attica7Message10setSubjectERK7QString@Base 0.1.1
 _ZN6Attica7Message5setIdERK7QString@Base 0.1.1
 _ZN6Attica7Message5setToERK7QString@Base 0.1.1
 _ZN6Attica7Message6Parser8parseXmlER16QXmlStreamReader@Base 0.1.1
 _ZN6Attica7Message7setBodyERK7QString@Base 0.1.1
 _ZN6Attica7Message7setFromERK7QString@Base 0.1.1
 _ZN6Attica7Message7setSentERK9QDateTime@Base 0.1.1
 _ZN6Attica7Message9setStatusENS0_6StatusE@Base 0.1.1
 _ZN6Attica7MessageC1ERKS0_@Base 0.1.1
 _ZN6Attica7MessageC1Ev@Base 0.1.1
 _ZN6Attica7MessageC2ERKS0_@Base 0.1.1
 _ZN6Attica7MessageC2Ev@Base 0.1.1
 _ZN6Attica7MessageD1Ev@Base 0.1.1
 _ZN6Attica7MessageD2Ev@Base 0.1.1
 _ZN6Attica7MessageaSERKS0_@Base 0.1.1
 _ZN6Attica7PostJob11qt_metacallEN11QMetaObject4CallEiPPv@Base 0.1.1
 _ZN6Attica7PostJob11qt_metacastEPKc@Base 0.1.1
 _ZN6Attica7PostJob14executeRequestEv@Base 0.1.1
 _ZN6Attica7PostJob16staticMetaObjectE@Base 0.1.1
 _ZN6Attica7PostJob5parseERK7QString@Base 0.1.1
 _ZN6Attica7PostJobC1EPNS_17PlatformDependentERK15QNetworkRequestP9QIODevice@Base 0.1.3
 _ZN6Attica7PostJobC1EPNS_17PlatformDependentERK15QNetworkRequestRK10QByteArray@Base 0.1.3
 _ZN6Attica7PostJobC1EPNS_17PlatformDependentERK15QNetworkRequestRK4QMapI7QStringS7_E@Base 0.1.3
 _ZN6Attica7PostJobC2EPNS_17PlatformDependentERK15QNetworkRequestP9QIODevice@Base 0.1.3
 _ZN6Attica7PostJobC2EPNS_17PlatformDependentERK15QNetworkRequestRK10QByteArray@Base 0.1.3
 _ZN6Attica7PostJobC2EPNS_17PlatformDependentERK15QNetworkRequestRK4QMapI7QStringS7_E@Base 0.1.3
 _ZN6Attica8Activity10setMessageERK7QString@Base 0.1.1
 _ZN6Attica8Activity12setTimestampERK9QDateTime@Base 0.1.1
 _ZN6Attica8Activity19setAssociatedPersonERKNS_6PersonE@Base 0.1.1
 _ZN6Attica8Activity5setIdERK7QString@Base 0.1.1
 _ZN6Attica8Activity6Parser8parseXmlER16QXmlStreamReader@Base 0.1.1
 _ZN6Attica8Activity7setLinkERK4QUrl@Base 0.1.1
 _ZN6Attica8ActivityC1ERKS0_@Base 0.1.1
 _ZN6Attica8ActivityC1Ev@Base 0.1.1
 _ZN6Attica8ActivityC2ERKS0_@Base 0.1.1
 _ZN6Attica8ActivityC2Ev@Base 0.1.1
 _ZN6Attica8ActivityD1Ev@Base 0.1.1
 _ZN6Attica8ActivityD2Ev@Base 0.1.1
 _ZN6Attica8ActivityaSERKS0_@Base 0.1.1
 _ZN6Attica8Category5setIdERK7QString@Base 0.1.1
 _ZN6Attica8Category6Parser8parseXmlER16QXmlStreamReader@Base 0.1.1
 _ZN6Attica8Category7setNameERK7QString@Base 0.1.1
 _ZN6Attica8CategoryC1ERKS0_@Base 0.1.1
 _ZN6Attica8CategoryC1Ev@Base 0.1.1
 _ZN6Attica8CategoryC2ERKS0_@Base 0.1.1
 _ZN6Attica8CategoryC2Ev@Base 0.1.1
 _ZN6Attica8CategoryD1Ev@Base 0.1.1
 _ZN6Attica8CategoryD2Ev@Base 0.1.1
 _ZN6Attica8CategoryaSERKS0_@Base 0.1.1
 _ZN6Attica8Metadata10setMessageERK7QString@Base 0.1.1
 _ZN6Attica8Metadata10totalItemsEv@Base 0.1.1
 _ZN6Attica8Metadata12itemsPerPageEv@Base 0.1.1
 _ZN6Attica8Metadata13setStatusCodeEi@Base 0.1.1
 _ZN6Attica8Metadata13setTotalItemsEi@Base 0.1.1
 _ZN6Attica8Metadata15setItemsPerPageEi@Base 0.1.1
 _ZN6Attica8Metadata15setStatusStringERK7QString@Base 0.1.1
 _ZN6Attica8Metadata7messageEv@Base 0.1.1
 _ZN6Attica8Metadata8setErrorENS0_5ErrorE@Base 0.1.1
 _ZN6Attica8MetadataC1ERKS0_@Base 0.1.1
 _ZN6Attica8MetadataC1Ev@Base 0.1.1
 _ZN6Attica8MetadataC2ERKS0_@Base 0.1.1
 _ZN6Attica8MetadataC2Ev@Base 0.1.1
 _ZN6Attica8MetadataD1Ev@Base 0.1.1
 _ZN6Attica8MetadataD2Ev@Base 0.1.1
 _ZN6Attica8MetadataaSERKS0_@Base 0.1.1
 _ZN6Attica8Provider10checkLoginERK7QStringS3_@Base 0.1.1
 _ZN6Attica8Provider10setEnabledEb@Base 0.1.4
 _ZN6Attica8Provider11editContentERKNS_8CategoryERK7QStringRKNS_7ContentE@Base 0.1.1
 _ZN6Attica8Provider11postMessageERKNS_7MessageE@Base 0.1.1
 _ZN6Attica8Provider11requestFansERK7QStringjj@Base 0.1.3
 _ZN6Attica8Provider12downloadLinkERK7QStringS3_@Base 0.1.1
 _ZN6Attica8Provider12inviteFriendERK7QStringS3_@Base 0.1.1
 _ZN6Attica8Provider12postActivityERK7QString@Base 0.1.1
 _ZN6Attica8Provider12postLocationEddRK7QStringS3_@Base 0.1.1
 _ZN6Attica8Provider12requestEventERK7QString@Base 0.1.1
 _ZN6Attica8Provider12requestEventERK7QStringS3_RK5QDateNS0_8SortModeEii@Base 0.1.1
 _ZN6Attica8Provider13addNewCommentENS_7Comment4TypeERK7QStringS5_S5_S5_S5_@Base 0.1.90
 _ZN6Attica8Provider13addNewContentERKNS_8CategoryERKNS_7ContentE@Base 0.1.1
 _ZN6Attica8Provider13createRequestERK4QUrl@Base 0.1.1
 _ZN6Attica8Provider13createRequestERK7QString@Base 0.1.1
 _ZN6Attica8Provider13deleteContentERK7QString@Base 0.1.1
 _ZN6Attica8Provider13requestPersonERK7QString@Base 0.1.1
 _ZN6Attica8Provider14hasCredentialsEv@Base 0.1.1
 _ZN6Attica8Provider14requestContentERK7QString@Base 0.1.1
 _ZN6Attica8Provider14requestFoldersEv@Base 0.1.1
 _ZN6Attica8Provider14requestFriendsERK7QStringii@Base 0.1.1
 _ZN6Attica8Provider14requestMessageERKNS_6FolderERK7QString@Base 0.1.1
 _ZN6Attica8Provider14searchContentsERK5QListINS_8CategoryEERK7QStringNS0_8SortModeEjj@Base 0.1.1
 _ZN6Attica8Provider14searchContentsERK5QListINS_8CategoryEERK7QStringRKS1_INS_12DistributionEERKS1_INS_7LicenseEES8_NS0_8SortModeEjj@Base 0.1.90
 _ZN6Attica8Provider14setPrivateDataERK7QStringS3_S3_@Base 0.1.90
 _ZN6Attica8Provider14voteForCommentERK7QStringj@Base 0.1.90
 _ZN6Attica8Provider14voteForContentERK7QStringb@Base 0.1.1
 _ZN6Attica8Provider14voteForContentERK7QStringj@Base 0.1.90
 _ZN6Attica8Provider15doRequestPersonERK4QUrl@Base 0.1.1
 _ZN6Attica8Provider15loadCredentialsER7QStringS2_@Base 0.1.1
 _ZN6Attica8Provider15registerAccountERK7QStringS3_S3_S3_S3_@Base 0.1.1
 _ZN6Attica8Provider15requestCommentsENS_7Comment4TypeERK7QStringS5_ii@Base 0.1.90
 _ZN6Attica8Provider15requestLicensesEv@Base 0.1.3
 _ZN6Attica8Provider15requestMessagesERKNS_6FolderE@Base 0.1.1
 _ZN6Attica8Provider15requestMessagesERKNS_6FolderENS_7Message6StatusE@Base 0.1.1
 _ZN6Attica8Provider15saveCredentialsERK7QStringS3_@Base 0.1.1
 _ZN6Attica8Provider15setDownloadFileERK7QStringS3_RK10QByteArray@Base 0.1.1
 _ZN6Attica8Provider15setPreviewImageERK7QStringS3_S3_RK10QByteArray@Base 0.1.1
 _ZN6Attica8Provider16cancelFriendshipERK7QString@Base 0.1.1
 _ZN6Attica8Provider17approveFriendshipERK7QString@Base 0.1.1
 _ZN6Attica8Provider17declineFriendshipERK7QString@Base 0.1.1
 _ZN6Attica8Provider17requestActivitiesEv@Base 0.1.1
 _ZN6Attica8Provider17requestCategoriesEv@Base 0.1.1
 _ZN6Attica8Provider17requestPersonSelfEv@Base 0.1.1
 _ZN6Attica8Provider18deleteDownloadFileERK7QString@Base 0.1.1
 _ZN6Attica8Provider18deletePreviewImageERK7QStringS3_@Base 0.1.1
 _ZN6Attica8Provider18requestPrivateDataERK7QStringS3_@Base 0.1.90
 _ZN6Attica8Provider19doRequestFolderListERK4QUrl@Base 0.1.1
 _ZN6Attica8Provider19doRequestPersonListERK4QUrl@Base 0.1.1
 _ZN6Attica8Provider19searchKnowledgeBaseERKNS_7ContentERK7QStringNS0_8SortModeEii@Base 0.1.1
 _ZN6Attica8Provider20doRequestMessageListERK4QUrl@Base 0.1.1
 _ZN6Attica8Provider20requestDistributionsEv@Base 0.1.90
 _ZN6Attica8Provider20requestHomePageTypesEv@Base 0.1.90
 _ZN6Attica8Provider21doRequestActivityListERK4QUrl@Base 0.1.1
 _ZN6Attica8Provider21requestAccountBalanceEv@Base 0.1.1
 _ZN6Attica8Provider22requestSentInvitationsEii@Base 0.1.1
 _ZN6Attica8Provider22searchContentsByPersonERK5QListINS_8CategoryEERK7QStringS8_NS0_8SortModeEjj@Base 0.1.3
 _ZN6Attica8Provider23doRequestAccountBalanceERK4QUrl@Base 0.1.1
 _ZN6Attica8Provider25requestKnowledgeBaseEntryERK7QString@Base 0.1.1
 _ZN6Attica8Provider25requestPersonSearchByNameERK7QString@Base 0.1.1
 _ZN6Attica8Provider26requestReceivedInvitationsEii@Base 0.1.1
 _ZN6Attica8Provider29requestPersonSearchByLocationEdddii@Base 0.1.1
 _ZN6Attica8Provider9becomeFanERK7QString@Base 0.1.1
 _ZN6Attica8Provider9createUrlERK7QString@Base 0.1.1
 _ZN6Attica8ProviderC1EPNS_17PlatformDependentERK4QUrlRK7QStringS5_S8_S8_S8_S8_S8_S8_S8_S8_S8_@Base 0.1.4
 _ZN6Attica8ProviderC1ERKS0_@Base 0.1.1
 _ZN6Attica8ProviderC1Ev@Base 0.1.1
 _ZN6Attica8ProviderC2EPNS_17PlatformDependentERK4QUrlRK7QStringS5_S8_S8_S8_S8_S8_S8_S8_S8_S8_@Base 0.1.4
 _ZN6Attica8ProviderC2ERKS0_@Base 0.1.1
 _ZN6Attica8ProviderC2Ev@Base 0.1.1
 _ZN6Attica8ProviderD1Ev@Base 0.1.1
 _ZN6Attica8ProviderD2Ev@Base 0.1.1
 _ZN6Attica8ProvideraSERKS0_@Base 0.1.1
 _ZNK6Attica11ItemPostJobINS_7CommentEE6resultEv@Base 0.2.0
 _ZNK6Attica11ItemPostJobINS_7ContentEE6resultEv@Base 0.1.1
 _ZNK6Attica11PrivateData4keysEv@Base 0.1.90
 _ZNK6Attica11PrivateData6Parser10xmlElementEv@Base 0.1.90
 _ZNK6Attica11PrivateData9attributeERK7QString@Base 0.1.90
 _ZNK6Attica11PrivateData9timestampERK7QString@Base 0.1.90
 _ZNK6Attica12Distribution2idEv@Base 0.1.90
 _ZNK6Attica12Distribution4nameEv@Base 0.1.90
 _ZNK6Attica12Distribution6Parser10xmlElementEv@Base 0.1.90
 _ZNK6Attica12DownloadItem11packageNameEv@Base 0.1.90
 _ZNK6Attica12DownloadItem12gpgSignatureEv@Base 0.1.90
 _ZNK6Attica12DownloadItem14gpgFingerprintEv@Base 0.1.90
 _ZNK6Attica12DownloadItem17packageRepositoryEv@Base 0.1.90
 _ZNK6Attica12DownloadItem3urlEv@Base 0.1.1
 _ZNK6Attica12DownloadItem6Parser10xmlElementEv@Base 0.1.1
 _ZNK6Attica12DownloadItem8mimeTypeEv@Base 0.1.90
 _ZNK6Attica12HomePageType2idEv@Base 0.1.90
 _ZNK6Attica12HomePageType4nameEv@Base 0.1.90
 _ZNK6Attica12HomePageType6Parser10xmlElementEv@Base 0.1.90
 _ZNK6Attica13HomePageEntry3urlEv@Base 0.1.90
 _ZNK6Attica13HomePageEntry4typeEv@Base 0.1.90
 _ZNK6Attica14AccountBalance6Parser10xmlElementEv@Base 0.1.1
 _ZNK6Attica14AccountBalance7balanceEv@Base 0.1.1
 _ZNK6Attica14AccountBalance8currencyEv@Base 0.1.1
 _ZNK6Attica15ProviderManager10metaObjectEv@Base 0.1.1
 _ZNK6Attica15ProviderManager13providerByUrlERK4QUrl@Base 0.1.1
 _ZNK6Attica15ProviderManager13providerFilesEv@Base 0.1.1
 _ZNK6Attica15ProviderManager8containsERK7QString@Base 0.1.1
 _ZNK6Attica15ProviderManager9providersEv@Base 0.1.1
 _ZNK6Attica18KnowledgeBaseEntry10detailPageEv@Base 0.1.1
 _ZNK6Attica18KnowledgeBaseEntry11descriptionEv@Base 0.1.1
 _ZNK6Attica18KnowledgeBaseEntry17extendedAttributeERK7QString@Base 0.1.1
 _ZNK6Attica18KnowledgeBaseEntry18extendedAttributesEv@Base 0.1.1
 _ZNK6Attica18KnowledgeBaseEntry2idEv@Base 0.1.1
 _ZNK6Attica18KnowledgeBaseEntry4nameEv@Base 0.1.1
 _ZNK6Attica18KnowledgeBaseEntry4userEv@Base 0.1.1
 _ZNK6Attica18KnowledgeBaseEntry6Parser10xmlElementEv@Base 0.1.1
 _ZNK6Attica18KnowledgeBaseEntry6answerEv@Base 0.1.1
 _ZNK6Attica18KnowledgeBaseEntry6statusEv@Base 0.1.1
 _ZNK6Attica18KnowledgeBaseEntry7changedEv@Base 0.1.1
 _ZNK6Attica18KnowledgeBaseEntry7isValidEv@Base 0.1.1
 _ZNK6Attica18KnowledgeBaseEntry8commentsEv@Base 0.1.1
 _ZNK6Attica18KnowledgeBaseEntry9contentIdEv@Base 0.1.1
 _ZNK6Attica4Icon3urlEv@Base 0.1.90
 _ZNK6Attica4Icon5widthEv@Base 0.1.90
 _ZNK6Attica4Icon6heightEv@Base 0.1.90
 _ZNK6Attica5Event11descriptionEv@Base 0.1.1
 _ZNK6Attica5Event17extendedAttributeERK7QString@Base 0.1.1
 _ZNK6Attica5Event18extendedAttributesEv@Base 0.1.1
 _ZNK6Attica5Event2idEv@Base 0.1.1
 _ZNK6Attica5Event4cityEv@Base 0.1.1
 _ZNK6Attica5Event4nameEv@Base 0.1.1
 _ZNK6Attica5Event4userEv@Base 0.1.1
 _ZNK6Attica5Event6Parser10xmlElementEv@Base 0.1.1
 _ZNK6Attica5Event7countryEv@Base 0.1.1
 _ZNK6Attica5Event7endDateEv@Base 0.1.1
 _ZNK6Attica5Event7isValidEv@Base 0.1.1
 _ZNK6Attica5Event8homepageEv@Base 0.1.1
 _ZNK6Attica5Event8latitudeEv@Base 0.1.1
 _ZNK6Attica5Event9longitudeEv@Base 0.1.1
 _ZNK6Attica5Event9startDateEv@Base 0.1.1
 _ZNK6Attica6Folder12messageCountEv@Base 0.1.1
 _ZNK6Attica6Folder2idEv@Base 0.1.1
 _ZNK6Attica6Folder4nameEv@Base 0.1.1
 _ZNK6Attica6Folder4typeEv@Base 0.1.1
 _ZNK6Attica6Folder6Parser10xmlElementEv@Base 0.1.1
 _ZNK6Attica6Folder7isValidEv@Base 0.1.1
 _ZNK6Attica6GetJob10metaObjectEv@Base 0.1.1
 _ZNK6Attica6Person17extendedAttributeERK7QString@Base 0.1.1
 _ZNK6Attica6Person18extendedAttributesEv@Base 0.1.1
 _ZNK6Attica6Person2idEv@Base 0.1.1
 _ZNK6Attica6Person4cityEv@Base 0.1.1
 _ZNK6Attica6Person6Parser10xmlElementEv@Base 0.1.1
 _ZNK6Attica6Person7countryEv@Base 0.1.1
 _ZNK6Attica6Person7isValidEv@Base 0.1.1
 _ZNK6Attica6Person8birthdayEv@Base 0.1.1
 _ZNK6Attica6Person8homepageEv@Base 0.1.1
 _ZNK6Attica6Person8lastNameEv@Base 0.1.1
 _ZNK6Attica6Person8latitudeEv@Base 0.1.1
 _ZNK6Attica6Person9avatarUrlEv@Base 0.1.1
 _ZNK6Attica6Person9firstNameEv@Base 0.1.1
 _ZNK6Attica6Person9longitudeEv@Base 0.1.1
 _ZNK6Attica7BaseJob10metaObjectEv@Base 0.1.1
 _ZNK6Attica7BaseJob11setMetadataERKNS_8MetadataE@Base 0.1.1
 _ZNK6Attica7BaseJob8metadataEv@Base 0.1.1
 _ZNK6Attica7Comment10childCountEv@Base 0.1.90
 _ZNK6Attica7Comment2idEv@Base 0.1.90
 _ZNK6Attica7Comment4dateEv@Base 0.1.90
 _ZNK6Attica7Comment4textEv@Base 0.1.90
 _ZNK6Attica7Comment4userEv@Base 0.1.90
 _ZNK6Attica7Comment5scoreEv@Base 0.1.90
 _ZNK6Attica7Comment6Parser10xmlElementEv@Base 0.1.90
 _ZNK6Attica7Comment7isValidEv@Base 0.1.90
 _ZNK6Attica7Comment7subjectEv@Base 0.1.90
 _ZNK6Attica7Comment8childrenEv@Base 0.1.90
 _ZNK6Attica7Content10attributesEv@Base 0.1.1
 _ZNK6Attica7Content10detailpageEv@Base 0.1.1
 _ZNK6Attica7Content11descriptionEv@Base 0.1.1
 _ZNK6Attica7Content11licenseNameEv@Base 0.1.90
 _ZNK6Attica7Content13homePageEntryEi@Base 0.1.90
 _ZNK6Attica7Content14previewPictureERK7QString@Base 0.1.1
 _ZNK6Attica7Content16numberOfCommentsEv@Base 0.1.90
 _ZNK6Attica7Content19smallPreviewPictureERK7QString@Base 0.1.1
 _ZNK6Attica7Content22downloadUrlDescriptionEi@Base 0.1.1
 _ZNK6Attica7Content23downloadUrlDescriptionsEv@Base 0.1.3
 _ZNK6Attica7Content2idEv@Base 0.1.1
 _ZNK6Attica7Content4nameEv@Base 0.1.1
 _ZNK6Attica7Content6Parser10xmlElementEv@Base 0.1.1
 _ZNK6Attica7Content6authorEv@Base 0.1.1
 _ZNK6Attica7Content6dependEv@Base 0.1.1
 _ZNK6Attica7Content6ratingEv@Base 0.1.1
 _ZNK6Attica7Content7createdEv@Base 0.1.1
 _ZNK6Attica7Content7isValidEv@Base 0.1.1
 _ZNK6Attica7Content7licenseEv@Base 0.1.1
 _ZNK6Attica7Content7summaryEv@Base 0.1.90
 _ZNK6Attica7Content7updatedEv@Base 0.1.1
 _ZNK6Attica7Content7versionEv@Base 0.1.1
 _ZNK6Attica7Content9attributeERK7QString@Base 0.1.1
 _ZNK6Attica7Content9changelogEv@Base 0.1.1
 _ZNK6Attica7Content9downloadsEv@Base 0.1.1
 _ZNK6Attica7ItemJobINS_11PrivateDataEE6resultEv@Base 0.1.90
 _ZNK6Attica7ItemJobINS_12DownloadItemEE6resultEv@Base 0.1.1
 _ZNK6Attica7ItemJobINS_14AccountBalanceEE6resultEv@Base 0.1.1
 _ZNK6Attica7ItemJobINS_18KnowledgeBaseEntryEE6resultEv@Base 0.1.1
 _ZNK6Attica7ItemJobINS_5EventEE6resultEv@Base 0.1.1
 _ZNK6Attica7ItemJobINS_6PersonEE6resultEv@Base 0.1.1
 _ZNK6Attica7ItemJobINS_7ContentEE6resultEv@Base 0.1.1
 _ZNK6Attica7ItemJobINS_7MessageEE6resultEv@Base 0.1.1
 _ZNK6Attica7License2idEv@Base 0.1.3
 _ZNK6Attica7License3urlEv@Base 0.1.3
 _ZNK6Attica7License4nameEv@Base 0.1.3
 _ZNK6Attica7License6Parser10xmlElementEv@Base 0.1.3
 _ZNK6Attica7ListJobINS_12DistributionEE8itemListEv@Base 0.1.90
 _ZNK6Attica7ListJobINS_12DownloadItemEE8itemListEv@Base 0.1.1
 _ZNK6Attica7ListJobINS_12HomePageTypeEE8itemListEv@Base 0.1.90
 _ZNK6Attica7ListJobINS_18KnowledgeBaseEntryEE8itemListEv@Base 0.1.1
 _ZNK6Attica7ListJobINS_5EventEE8itemListEv@Base 0.1.1
 _ZNK6Attica7ListJobINS_6FolderEE8itemListEv@Base 0.1.1
 _ZNK6Attica7ListJobINS_6PersonEE8itemListEv@Base 0.1.1
 _ZNK6Attica7ListJobINS_7CommentEE8itemListEv@Base 0.1.90
 _ZNK6Attica7ListJobINS_7ContentEE8itemListEv@Base 0.1.1
 _ZNK6Attica7ListJobINS_7LicenseEE8itemListEv@Base 0.1.3
 _ZNK6Attica7ListJobINS_7MessageEE8itemListEv@Base 0.1.1
 _ZNK6Attica7ListJobINS_8ActivityEE8itemListEv@Base 0.1.1
 _ZNK6Attica7ListJobINS_8CategoryEE8itemListEv@Base 0.1.1
 _ZNK6Attica7Message2idEv@Base 0.1.1
 _ZNK6Attica7Message2toEv@Base 0.1.1
 _ZNK6Attica7Message4bodyEv@Base 0.1.1
 _ZNK6Attica7Message4fromEv@Base 0.1.1
 _ZNK6Attica7Message4sentEv@Base 0.1.1
 _ZNK6Attica7Message6Parser10xmlElementEv@Base 0.1.1
 _ZNK6Attica7Message6statusEv@Base 0.1.1
 _ZNK6Attica7Message7isValidEv@Base 0.1.1
 _ZNK6Attica7Message7subjectEv@Base 0.1.1
 _ZNK6Attica7PostJob10metaObjectEv@Base 0.1.1
 _ZNK6Attica8Activity16associatedPersonEv@Base 0.1.1
 _ZNK6Attica8Activity2idEv@Base 0.1.1
 _ZNK6Attica8Activity4linkEv@Base 0.1.1
 _ZNK6Attica8Activity6Parser10xmlElementEv@Base 0.1.1
 _ZNK6Attica8Activity7isValidEv@Base 0.1.1
 _ZNK6Attica8Activity7messageEv@Base 0.1.1
 _ZNK6Attica8Activity9timestampEv@Base 0.1.1
 _ZNK6Attica8Category2idEv@Base 0.1.1
 _ZNK6Attica8Category4nameEv@Base 0.1.1
 _ZNK6Attica8Category6Parser10xmlElementEv@Base 0.1.1
 _ZNK6Attica8Category7isValidEv@Base 0.1.1
 _ZNK6Attica8Metadata10statusCodeEv@Base 0.1.1
 _ZNK6Attica8Metadata12statusStringEv@Base 0.1.1
 _ZNK6Attica8Metadata5errorEv@Base 0.1.1
 _ZNK6Attica8Provider13hasFanServiceEv@Base 0.1.4
 _ZNK6Attica8Provider14hasCredentialsEv@Base 0.1.2
 _ZNK6Attica8Provider16hasFriendServiceEv@Base 0.1.4
 _ZNK6Attica8Provider16hasPersonServiceEv@Base 0.1.4
 _ZNK6Attica8Provider17fanServiceVersionEv@Base 0.1.4
 _ZNK6Attica8Provider17hasCommentServiceEv@Base 0.1.4
 _ZNK6Attica8Provider17hasContentServiceEv@Base 0.1.4
 _ZNK6Attica8Provider17hasMessageServiceEv@Base 0.1.4
 _ZNK6Attica8Provider18hasActivityServiceEv@Base 0.1.4
 _ZNK6Attica8Provider20friendServiceVersionEv@Base 0.1.4
 _ZNK6Attica8Provider20personServiceVersionEv@Base 0.1.4
 _ZNK6Attica8Provider21commentServiceVersionEv@Base 0.1.4
 _ZNK6Attica8Provider21contentServiceVersionEv@Base 0.1.4
 _ZNK6Attica8Provider21messageServiceVersionEv@Base 0.1.4
 _ZNK6Attica8Provider22activityServiceVersionEv@Base 0.1.4
 _ZNK6Attica8Provider23hasKnowledgebaseServiceEv@Base 0.1.4
 _ZNK6Attica8Provider27knowledgebaseServiceVersionEv@Base 0.1.4
 _ZNK6Attica8Provider4nameEv@Base 0.1.1
 _ZNK6Attica8Provider7baseUrlEv@Base 0.1.1
 _ZNK6Attica8Provider7isValidEv@Base 0.1.1
 _ZNK6Attica8Provider9isEnabledEv@Base 0.1.4
 _ZTIN6Attica11ItemPostJobINS_7CommentEEE@Base 0.2.0
 _ZTIN6Attica11ItemPostJobINS_7ContentEEE@Base 0.1.1
 _ZTIN6Attica11PrivateData6ParserE@Base 0.1.90
 _ZTIN6Attica12Distribution6ParserE@Base 0.1.90
 _ZTIN6Attica12DownloadItem6ParserE@Base 0.1.1
 _ZTIN6Attica12HomePageType6ParserE@Base 0.1.90
 _ZTIN6Attica14AccountBalance6ParserE@Base 0.1.1
 _ZTIN6Attica15ProviderManagerE@Base 0.1.1
 _ZTIN6Attica18KnowledgeBaseEntry6ParserE@Base 0.1.1
 _ZTIN6Attica5Event6ParserE@Base 0.1.1
 _ZTIN6Attica6Folder6ParserE@Base 0.1.1
 _ZTIN6Attica6GetJobE@Base 0.1.1
 _ZTIN6Attica6Person6ParserE@Base 0.1.1
 _ZTIN6Attica7BaseJobE@Base 0.1.1
 _ZTIN6Attica7Comment6ParserE@Base 0.1.90
 _ZTIN6Attica7Content6ParserE@Base 0.1.1
 _ZTIN6Attica7ItemJobINS_11PrivateDataEEE@Base 0.1.90
 _ZTIN6Attica7ItemJobINS_12DownloadItemEEE@Base 0.1.1
 _ZTIN6Attica7ItemJobINS_14AccountBalanceEEE@Base 0.1.1
 _ZTIN6Attica7ItemJobINS_18KnowledgeBaseEntryEEE@Base 0.1.1
 _ZTIN6Attica7ItemJobINS_5EventEEE@Base 0.1.1
 _ZTIN6Attica7ItemJobINS_6PersonEEE@Base 0.1.1
 _ZTIN6Attica7ItemJobINS_7ContentEEE@Base 0.1.1
 _ZTIN6Attica7ItemJobINS_7MessageEEE@Base 0.1.1
 _ZTIN6Attica7License6ParserE@Base 0.1.3
 _ZTIN6Attica7ListJobINS_12DistributionEEE@Base 0.1.90
 _ZTIN6Attica7ListJobINS_12DownloadItemEEE@Base 0.1.1
 _ZTIN6Attica7ListJobINS_12HomePageTypeEEE@Base 0.1.90
 _ZTIN6Attica7ListJobINS_18KnowledgeBaseEntryEEE@Base 0.1.1
 _ZTIN6Attica7ListJobINS_5EventEEE@Base 0.1.1
 _ZTIN6Attica7ListJobINS_6FolderEEE@Base 0.1.1
 _ZTIN6Attica7ListJobINS_6PersonEEE@Base 0.1.1
 _ZTIN6Attica7ListJobINS_7CommentEEE@Base 0.1.90
 _ZTIN6Attica7ListJobINS_7ContentEEE@Base 0.1.1
 _ZTIN6Attica7ListJobINS_7LicenseEEE@Base 0.1.3
 _ZTIN6Attica7ListJobINS_7MessageEEE@Base 0.1.1
 _ZTIN6Attica7ListJobINS_8ActivityEEE@Base 0.1.1
 _ZTIN6Attica7ListJobINS_8CategoryEEE@Base 0.1.1
 _ZTIN6Attica7Message6ParserE@Base 0.1.1
 _ZTIN6Attica7PostJobE@Base 0.1.1
 _ZTIN6Attica8Activity6ParserE@Base 0.1.1
 _ZTIN6Attica8Category6ParserE@Base 0.1.1
 _ZTSN6Attica11ItemPostJobINS_7CommentEEE@Base 0.2.0
 _ZTSN6Attica11ItemPostJobINS_7ContentEEE@Base 0.1.1
 _ZTSN6Attica11PrivateData6ParserE@Base 0.1.90
 _ZTSN6Attica12Distribution6ParserE@Base 0.1.90
 _ZTSN6Attica12DownloadItem6ParserE@Base 0.1.1
 _ZTSN6Attica12HomePageType6ParserE@Base 0.1.90
 _ZTSN6Attica14AccountBalance6ParserE@Base 0.1.1
 _ZTSN6Attica15ProviderManagerE@Base 0.1.1
 _ZTSN6Attica18KnowledgeBaseEntry6ParserE@Base 0.1.1
 _ZTSN6Attica5Event6ParserE@Base 0.1.1
 _ZTSN6Attica6Folder6ParserE@Base 0.1.1
 _ZTSN6Attica6GetJobE@Base 0.1.1
 _ZTSN6Attica6Person6ParserE@Base 0.1.1
 _ZTSN6Attica7BaseJobE@Base 0.1.1
 _ZTSN6Attica7Comment6ParserE@Base 0.1.90
 _ZTSN6Attica7Content6ParserE@Base 0.1.1
 _ZTSN6Attica7ItemJobINS_11PrivateDataEEE@Base 0.1.90
 _ZTSN6Attica7ItemJobINS_12DownloadItemEEE@Base 0.1.1
 _ZTSN6Attica7ItemJobINS_14AccountBalanceEEE@Base 0.1.1
 _ZTSN6Attica7ItemJobINS_18KnowledgeBaseEntryEEE@Base 0.1.1
 _ZTSN6Attica7ItemJobINS_5EventEEE@Base 0.1.1
 _ZTSN6Attica7ItemJobINS_6PersonEEE@Base 0.1.1
 _ZTSN6Attica7ItemJobINS_7ContentEEE@Base 0.1.1
 _ZTSN6Attica7ItemJobINS_7MessageEEE@Base 0.1.1
 _ZTSN6Attica7License6ParserE@Base 0.1.3
 _ZTSN6Attica7ListJobINS_12DistributionEEE@Base 0.1.90
 _ZTSN6Attica7ListJobINS_12DownloadItemEEE@Base 0.1.1
 _ZTSN6Attica7ListJobINS_12HomePageTypeEEE@Base 0.1.90
 _ZTSN6Attica7ListJobINS_18KnowledgeBaseEntryEEE@Base 0.1.1
 _ZTSN6Attica7ListJobINS_5EventEEE@Base 0.1.1
 _ZTSN6Attica7ListJobINS_6FolderEEE@Base 0.1.1
 _ZTSN6Attica7ListJobINS_6PersonEEE@Base 0.1.1
 _ZTSN6Attica7ListJobINS_7CommentEEE@Base 0.1.90
 _ZTSN6Attica7ListJobINS_7ContentEEE@Base 0.1.1
 _ZTSN6Attica7ListJobINS_7LicenseEEE@Base 0.1.3
 _ZTSN6Attica7ListJobINS_7MessageEEE@Base 0.1.1
 _ZTSN6Attica7ListJobINS_8ActivityEEE@Base 0.1.1
 _ZTSN6Attica7ListJobINS_8CategoryEEE@Base 0.1.1
 _ZTSN6Attica7Message6ParserE@Base 0.1.1
 _ZTSN6Attica7PostJobE@Base 0.1.1
 _ZTSN6Attica8Activity6ParserE@Base 0.1.1
 _ZTSN6Attica8Category6ParserE@Base 0.1.1
 _ZTVN6Attica11ItemPostJobINS_7CommentEEE@Base 0.2.0
 _ZTVN6Attica11ItemPostJobINS_7ContentEEE@Base 0.1.1
 _ZTVN6Attica11PrivateData6ParserE@Base 0.1.90
 _ZTVN6Attica12Distribution6ParserE@Base 0.1.90
 _ZTVN6Attica12DownloadItem6ParserE@Base 0.1.1
 _ZTVN6Attica12HomePageType6ParserE@Base 0.1.90
 _ZTVN6Attica14AccountBalance6ParserE@Base 0.1.1
 _ZTVN6Attica15ProviderManagerE@Base 0.1.1
 _ZTVN6Attica18KnowledgeBaseEntry6ParserE@Base 0.1.1
 _ZTVN6Attica5Event6ParserE@Base 0.1.1
 _ZTVN6Attica6Folder6ParserE@Base 0.1.1
 _ZTVN6Attica6GetJobE@Base 0.1.1
 _ZTVN6Attica6Person6ParserE@Base 0.1.1
 _ZTVN6Attica7BaseJobE@Base 0.1.1
 _ZTVN6Attica7Comment6ParserE@Base 0.1.90
 _ZTVN6Attica7Content6ParserE@Base 0.1.1
 _ZTVN6Attica7ItemJobINS_11PrivateDataEEE@Base 0.1.90
 _ZTVN6Attica7ItemJobINS_12DownloadItemEEE@Base 0.1.1
 _ZTVN6Attica7ItemJobINS_14AccountBalanceEEE@Base 0.1.1
 _ZTVN6Attica7ItemJobINS_18KnowledgeBaseEntryEEE@Base 0.1.1
 _ZTVN6Attica7ItemJobINS_5EventEEE@Base 0.1.1
 _ZTVN6Attica7ItemJobINS_6PersonEEE@Base 0.1.1
 _ZTVN6Attica7ItemJobINS_7ContentEEE@Base 0.1.1
 _ZTVN6Attica7ItemJobINS_7MessageEEE@Base 0.1.1
 _ZTVN6Attica7License6ParserE@Base 0.1.3
 _ZTVN6Attica7ListJobINS_12DistributionEEE@Base 0.1.90
 _ZTVN6Attica7ListJobINS_12DownloadItemEEE@Base 0.1.1
 _ZTVN6Attica7ListJobINS_12HomePageTypeEEE@Base 0.1.90
 _ZTVN6Attica7ListJobINS_18KnowledgeBaseEntryEEE@Base 0.1.1
 _ZTVN6Attica7ListJobINS_5EventEEE@Base 0.1.1
 _ZTVN6Attica7ListJobINS_6FolderEEE@Base 0.1.1
 _ZTVN6Attica7ListJobINS_6PersonEEE@Base 0.1.1
 _ZTVN6Attica7ListJobINS_7CommentEEE@Base 0.1.90
 _ZTVN6Attica7ListJobINS_7ContentEEE@Base 0.1.1
 _ZTVN6Attica7ListJobINS_7LicenseEEE@Base 0.1.3
 _ZTVN6Attica7ListJobINS_7MessageEEE@Base 0.1.1
 _ZTVN6Attica7ListJobINS_8ActivityEEE@Base 0.1.1
 _ZTVN6Attica7ListJobINS_8CategoryEEE@Base 0.1.1
 _ZTVN6Attica7Message6ParserE@Base 0.1.1
 _ZTVN6Attica7PostJobE@Base 0.1.1
 _ZTVN6Attica8Activity6ParserE@Base 0.1.1
 _ZTVN6Attica8Category6ParserE@Base 0.1.1
