libapt-inst.so.1.5 libapt-inst1.5 #MINVER#
* Build-Depends-Package: libapt-pkg-dev
 _ZN10ExtractTar2GoER12pkgDirStream@Base 0.8.0
 _ZN10ExtractTar4DoneEb@Base 0.8.0
 _ZN10ExtractTar9StartGzipEv@Base 0.8.0
 _ZN10ExtractTarC1ER6FileFdmSs@Base 0.8.0
 _ZN10ExtractTarC2ER6FileFdmSs@Base 0.8.0
 _ZN10ExtractTarD0Ev@Base 0.8.0
 _ZN10ExtractTarD1Ev@Base 0.8.0
 _ZN10ExtractTarD2Ev@Base 0.8.0
 _ZN10debDebFile10GotoMemberEPKc@Base 0.8.0
 _ZN10debDebFile11CheckMemberEPKc@Base 0.8.0
 _ZN10debDebFile14ControlExtract6DoItemERN12pkgDirStream4ItemERi@Base 0.8.0
 _ZN10debDebFile14ControlExtractD0Ev@Base 0.8.0
 _ZN10debDebFile14ControlExtractD1Ev@Base 0.8.0
 _ZN10debDebFile14ControlExtractD2Ev@Base 0.8.0
 _ZN10debDebFile14ExtractArchiveER12pkgDirStream@Base 0.8.0
 _ZN10debDebFile16ExtractTarMemberER12pkgDirStreamPKc@Base 0.9.15.4
 _ZN10debDebFile17MemControlExtract11TakeControlEPKvm@Base 0.8.0
 _ZN10debDebFile17MemControlExtract4ReadERS_@Base 0.8.0
 _ZN10debDebFile17MemControlExtract6DoItemERN12pkgDirStream4ItemERi@Base 0.8.0
 _ZN10debDebFile17MemControlExtract7ProcessERN12pkgDirStream4ItemEPKhmm@Base 0.8.0
 _ZN10debDebFile17MemControlExtractD0Ev@Base 0.8.0
 _ZN10debDebFile17MemControlExtractD1Ev@Base 0.8.0
 _ZN10debDebFile17MemControlExtractD2Ev@Base 0.8.0
 _ZN10debDebFileC1ER6FileFd@Base 0.8.0
 _ZN10debDebFileC2ER6FileFd@Base 0.8.0
 _ZN10pkgExtract12FinishedFileERN12pkgDirStream4ItemEi@Base 0.8.0
 _ZN10pkgExtract15CheckDirReplaceESsj@Base 0.8.0
 _ZN10pkgExtract16HandleOverwritesEN10pkgFLCache12NodeIteratorEb@Base 0.8.0
 _ZN10pkgExtract4FailERN12pkgDirStream4ItemEi@Base 0.8.0
 _ZN10pkgExtract6DoItemERN12pkgDirStream4ItemERi@Base 0.8.0
 _ZN10pkgExtract7AbortedEv@Base 0.8.0
 _ZN10pkgExtract8FinishedEv@Base 0.8.0
 _ZN10pkgExtractC1ER10pkgFLCacheN8pkgCache11VerIteratorE@Base 0.8.0
 _ZN10pkgExtractC2ER10pkgFLCacheN8pkgCache11VerIteratorE@Base 0.8.0
 _ZN10pkgExtractD0Ev@Base 0.8.0
 _ZN10pkgExtractD1Ev@Base 0.8.0
 _ZN10pkgExtractD2Ev@Base 0.8.0
 _ZN10pkgFLCache10TreeLookupEPjPKcS2_mS0_b@Base 0.8.0
 _ZN10pkgFLCache11AddConfFileEPKcS1_RKNS_11PkgIteratorEPKh@Base 0.8.0
 _ZN10pkgFLCache12AddDiversionERKNS_11PkgIteratorEPKcS4_@Base 0.8.0
 _ZN10pkgFLCache14BeginDiverLoadEv@Base 0.8.0
 _ZN10pkgFLCache15FinishDiverLoadEv@Base 0.8.0
 _ZN10pkgFLCache6GetPkgEPKcS1_b@Base 0.8.0
 _ZN10pkgFLCache6HeaderC1Ev@Base 0.8.0
 _ZN10pkgFLCache6HeaderC2Ev@Base 0.8.0
 _ZN10pkgFLCache7GetNodeEPKcS1_jbb@Base 0.8.0
 _ZN10pkgFLCache8DropNodeEj@Base 0.8.0
 _ZN10pkgFLCache8HashNodeERKNS_12NodeIteratorE@Base 0.8.0
 _ZN10pkgFLCache9PrintTreeEjm@Base 0.8.0
 _ZN10pkgFLCacheC1ER11DynamicMMap@Base 0.8.0
 _ZN10pkgFLCacheC2ER11DynamicMMap@Base 0.8.0
 _ZN12pkgDirStream12FinishedFileERNS_4ItemEi@Base 0.8.0
 _ZN12pkgDirStream4FailERNS_4ItemEi@Base 0.8.0
 _ZN12pkgDirStream6DoItemERNS_4ItemERi@Base 0.8.0
 _ZN12pkgDirStream7ProcessERNS_4ItemEPKhmm@Base 0.8.0
 _ZN12pkgDirStreamD0Ev@Base 0.8.0
 _ZN12pkgDirStreamD1Ev@Base 0.8.0
 _ZN12pkgDirStreamD2Ev@Base 0.8.0
 _ZN8pkgCache11DepIteratorppEi@Base 0.8.0
 _ZN8pkgCache11DepIteratorppEv@Base 0.8.0
 _ZN8pkgCache11VerIteratorppEi@Base 0.8.0
 _ZN8pkgCache11VerIteratorppEv@Base 0.8.0
 _ZN9ARArchive11LoadHeadersEv@Base 0.8.0
 _ZN9ARArchiveC1ER6FileFd@Base 0.8.0
 _ZN9ARArchiveC2ER6FileFd@Base 0.8.0
 _ZN9ARArchiveD1Ev@Base 0.8.0
 _ZN9ARArchiveD2Ev@Base 0.8.0
 _ZNK10pkgFLCache12NodeIterator11RealPackageEv@Base 0.8.0
 _ZNK10pkgFLCache6Header10CheckSizesERS0_@Base 0.8.0
 _ZNK8pkgCache11DepIterator12OwnerPointerEv@Base 0.8.0
 _ZNK8pkgCache11VerIterator12OwnerPointerEv@Base 0.8.0
 _ZNK9ARArchive10FindMemberEPKc@Base 0.8.0
 _ZNKSt5ctypeIcE8do_widenEc@Base 1.0.3
 _ZNSt6vectorIN3APT13Configuration10CompressorESaIS2_EED1Ev@Base 0.8.12
 _ZNSt6vectorIN3APT13Configuration10CompressorESaIS2_EED2Ev@Base 0.8.12
 _ZStplIcSt11char_traitsIcESaIcEESbIT_T0_T1_ERKS6_S8_@Base 0.8.0
 _ZTI10ExtractTar@Base 0.8.0
 _ZTI10pkgExtract@Base 0.8.0
 _ZTI12pkgDirStream@Base 0.8.0
 _ZTIN10debDebFile14ControlExtractE@Base 0.8.0
 _ZTIN10debDebFile17MemControlExtractE@Base 0.8.0
 _ZTIN8pkgCache11DepIteratorE@Base 0.8.0
 _ZTIN8pkgCache11VerIteratorE@Base 0.8.0
 _ZTIN8pkgCache8IteratorINS_10DependencyENS_11DepIteratorEEE@Base 0.8.0
 _ZTIN8pkgCache8IteratorINS_7VersionENS_11VerIteratorEEE@Base 0.8.0
 _ZTISt8iteratorISt20forward_iterator_tagN8pkgCache10DependencyEiPS2_RS2_E@Base 0.8.0
 _ZTISt8iteratorISt20forward_iterator_tagN8pkgCache7VersionEiPS2_RS2_E@Base 0.8.0
 _ZTS10ExtractTar@Base 0.8.0
 _ZTS10pkgExtract@Base 0.8.0
 _ZTS12pkgDirStream@Base 0.8.0
 _ZTSN10debDebFile14ControlExtractE@Base 0.8.0
 _ZTSN10debDebFile17MemControlExtractE@Base 0.8.0
 _ZTSN8pkgCache11DepIteratorE@Base 0.8.0
 _ZTSN8pkgCache11VerIteratorE@Base 0.8.0
 _ZTSN8pkgCache8IteratorINS_10DependencyENS_11DepIteratorEEE@Base 0.8.0
 _ZTSN8pkgCache8IteratorINS_7VersionENS_11VerIteratorEEE@Base 0.8.0
 _ZTSSt8iteratorISt20forward_iterator_tagN8pkgCache10DependencyEiPS2_RS2_E@Base 0.8.0
 _ZTSSt8iteratorISt20forward_iterator_tagN8pkgCache7VersionEiPS2_RS2_E@Base 0.8.0
 _ZTV10ExtractTar@Base 0.8.0
 _ZTV10pkgExtract@Base 0.8.0
 _ZTV12pkgDirStream@Base 0.8.0
 _ZTVN10debDebFile14ControlExtractE@Base 0.8.0
 _ZTVN10debDebFile17MemControlExtractE@Base 0.8.0
 _ZTVN8pkgCache11DepIteratorE@Base 0.8.0
 _ZTVN8pkgCache11VerIteratorE@Base 0.8.0
 _ZTVN8pkgCache8IteratorINS_10DependencyENS_11DepIteratorEEE@Base 0.8.0
 _ZTVN8pkgCache8IteratorINS_7VersionENS_11VerIteratorEEE@Base 0.8.0
