libheif.so.1 libheif1 #MINVER#
 _ZNKSt13__future_base13_State_baseV221_M_is_deferred_futureEv@Base 1.0.0
 _ZNKSt13__future_base15_Deferred_stateINSt6thread8_InvokerISt5tupleIJMN4heif11HeifContextEKFNS4_5ErrorEjSt10shared_ptrINS4_14HeifPixelImageEEiiEPKS5_jS9_iiEEEES6_E21_M_is_deferred_futureEv@Base 1.0.0
 _ZNKSt5ctypeIcE8do_widenEc@Base 1.0.0
 _ZNSt13_Bvector_baseISaIbEE13_M_deallocateEv@Base 1.0.0
 _ZNSt13__future_base13_State_baseV217_M_complete_asyncEv@Base 1.0.0
 _ZNSt13__future_base13_State_baseV29_M_do_setEPSt8functionIFSt10unique_ptrINS_12_Result_baseENS3_8_DeleterEEvEEPb@Base 1.0.0
 _ZNSt13__future_base13_State_baseV2D0Ev@Base 1.0.0
 _ZNSt13__future_base13_State_baseV2D1Ev@Base 1.0.0
 _ZNSt13__future_base13_State_baseV2D2Ev@Base 1.0.0
 _ZNSt13__future_base15_Deferred_stateINSt6thread8_InvokerISt5tupleIJMN4heif11HeifContextEKFNS4_5ErrorEjSt10shared_ptrINS4_14HeifPixelImageEEiiEPKS5_jS9_iiEEEES6_E17_M_complete_asyncEv@Base 1.0.0
 _ZNSt13__future_base15_Deferred_stateINSt6thread8_InvokerISt5tupleIJMN4heif11HeifContextEKFNS4_5ErrorEjSt10shared_ptrINS4_14HeifPixelImageEEiiEPKS5_jS9_iiEEEES6_ED0Ev@Base 1.0.0
 _ZNSt13__future_base15_Deferred_stateINSt6thread8_InvokerISt5tupleIJMN4heif11HeifContextEKFNS4_5ErrorEjSt10shared_ptrINS4_14HeifPixelImageEEiiEPKS5_jS9_iiEEEES6_ED1Ev@Base 1.0.0
 _ZNSt13__future_base15_Deferred_stateINSt6thread8_InvokerISt5tupleIJMN4heif11HeifContextEKFNS4_5ErrorEjSt10shared_ptrINS4_14HeifPixelImageEEiiEPKS5_jS9_iiEEEES6_ED2Ev@Base 1.0.0
 _ZNSt13__future_base17_Async_state_implINSt6thread8_InvokerISt5tupleIJMN4heif11HeifContextEKFNS4_5ErrorEjSt10shared_ptrINS4_14HeifPixelImageEEiiEPKS5_jS9_iiEEEES6_ED0Ev@Base 1.0.0
 _ZNSt13__future_base17_Async_state_implINSt6thread8_InvokerISt5tupleIJMN4heif11HeifContextEKFNS4_5ErrorEjSt10shared_ptrINS4_14HeifPixelImageEEiiEPKS5_jS9_iiEEEES6_ED1Ev@Base 1.0.0
 _ZNSt13__future_base17_Async_state_implINSt6thread8_InvokerISt5tupleIJMN4heif11HeifContextEKFNS4_5ErrorEjSt10shared_ptrINS4_14HeifPixelImageEEiiEPKS5_jS9_iiEEEES6_ED2Ev@Base 1.0.0
 _ZNSt13__future_base21_Async_state_commonV217_M_complete_asyncEv@Base 1.0.0
 _ZNSt13__future_base21_Async_state_commonV2D0Ev@Base 1.0.0
 _ZNSt13__future_base21_Async_state_commonV2D1Ev@Base 1.0.0
 _ZNSt13__future_base21_Async_state_commonV2D2Ev@Base 1.0.0
 _ZNSt13__future_base7_ResultIN4heif5ErrorEE10_M_destroyEv@Base 1.0.0
 _ZNSt13__future_base7_ResultIN4heif5ErrorEED0Ev@Base 1.0.0
 _ZNSt13__future_base7_ResultIN4heif5ErrorEED1Ev@Base 1.0.0
 _ZNSt13__future_base7_ResultIN4heif5ErrorEED2Ev@Base 1.0.0
 _ZNSt14_Function_base13_Base_managerINSt13__future_base12_Task_setterISt10unique_ptrINS1_7_ResultIN4heif5ErrorEEENS1_12_Result_base8_DeleterEENSt6thread8_InvokerISt5tupleIJMNS5_11HeifContextEKFS6_jSt10shared_ptrINS5_14HeifPixelImageEEiiEPKSE_jSH_iiEEEES6_EEE10_M_managerERSt9_Any_dataRKSQ_St18_Manager_operation@Base 1.0.0
 _ZNSt15_Sp_counted_ptrIDnLN9__gnu_cxx12_Lock_policyE2EE10_M_disposeEv@Base 1.0.0
 _ZNSt15__exception_ptr12__dest_thunkISt12future_errorEEvPv@Base 1.0.0
 _ZNSt16_Sp_counted_baseILN9__gnu_cxx12_Lock_policyE2EE10_M_destroyEv@Base 1.0.0
 _ZNSt16_Sp_counted_baseILN9__gnu_cxx12_Lock_policyE2EE10_M_releaseEv@Base 1.0.0
 _ZNSt17_Function_handlerIFSt10unique_ptrINSt13__future_base12_Result_baseENS2_8_DeleterEEvENS1_12_Task_setterIS0_INS1_7_ResultIN4heif5ErrorEEES3_ENSt6thread8_InvokerISt5tupleIJMNS8_11HeifContextEKFS9_jSt10shared_ptrINS8_14HeifPixelImageEEiiEPKSF_jSI_iiEEEES9_EEE9_M_invokeERKSt9_Any_data@Base 1.0.0
 _ZNSt23_Sp_counted_ptr_inplaceINSt13__future_base15_Deferred_stateINSt6thread8_InvokerISt5tupleIJMN4heif11HeifContextEKFNS5_5ErrorEjSt10shared_ptrINS5_14HeifPixelImageEEiiEPKS6_jSA_iiEEEES7_EESaISH_ELN9__gnu_cxx12_Lock_policyE2EE10_M_destroyEv@Base 1.0.0
 _ZNSt23_Sp_counted_ptr_inplaceINSt13__future_base15_Deferred_stateINSt6thread8_InvokerISt5tupleIJMN4heif11HeifContextEKFNS5_5ErrorEjSt10shared_ptrINS5_14HeifPixelImageEEiiEPKS6_jSA_iiEEEES7_EESaISH_ELN9__gnu_cxx12_Lock_policyE2EE10_M_disposeEv@Base 1.0.0
 _ZNSt23_Sp_counted_ptr_inplaceINSt13__future_base15_Deferred_stateINSt6thread8_InvokerISt5tupleIJMN4heif11HeifContextEKFNS5_5ErrorEjSt10shared_ptrINS5_14HeifPixelImageEEiiEPKS6_jSA_iiEEEES7_EESaISH_ELN9__gnu_cxx12_Lock_policyE2EE14_M_get_deleterERKSt9type_info@Base 1.0.0
 _ZNSt23_Sp_counted_ptr_inplaceINSt13__future_base15_Deferred_stateINSt6thread8_InvokerISt5tupleIJMN4heif11HeifContextEKFNS5_5ErrorEjSt10shared_ptrINS5_14HeifPixelImageEEiiEPKS6_jSA_iiEEEES7_EESaISH_ELN9__gnu_cxx12_Lock_policyE2EED0Ev@Base 1.0.0
 _ZNSt23_Sp_counted_ptr_inplaceINSt13__future_base15_Deferred_stateINSt6thread8_InvokerISt5tupleIJMN4heif11HeifContextEKFNS5_5ErrorEjSt10shared_ptrINS5_14HeifPixelImageEEiiEPKS6_jSA_iiEEEES7_EESaISH_ELN9__gnu_cxx12_Lock_policyE2EED1Ev@Base 1.0.0
 _ZNSt23_Sp_counted_ptr_inplaceINSt13__future_base15_Deferred_stateINSt6thread8_InvokerISt5tupleIJMN4heif11HeifContextEKFNS5_5ErrorEjSt10shared_ptrINS5_14HeifPixelImageEEiiEPKS6_jSA_iiEEEES7_EESaISH_ELN9__gnu_cxx12_Lock_policyE2EED2Ev@Base 1.0.0
 _ZNSt23_Sp_counted_ptr_inplaceINSt13__future_base17_Async_state_implINSt6thread8_InvokerISt5tupleIJMN4heif11HeifContextEKFNS5_5ErrorEjSt10shared_ptrINS5_14HeifPixelImageEEiiEPKS6_jSA_iiEEEES7_EESaISH_ELN9__gnu_cxx12_Lock_policyE2EE10_M_destroyEv@Base 1.0.0
 _ZNSt23_Sp_counted_ptr_inplaceINSt13__future_base17_Async_state_implINSt6thread8_InvokerISt5tupleIJMN4heif11HeifContextEKFNS5_5ErrorEjSt10shared_ptrINS5_14HeifPixelImageEEiiEPKS6_jSA_iiEEEES7_EESaISH_ELN9__gnu_cxx12_Lock_policyE2EE10_M_disposeEv@Base 1.0.0
 _ZNSt23_Sp_counted_ptr_inplaceINSt13__future_base17_Async_state_implINSt6thread8_InvokerISt5tupleIJMN4heif11HeifContextEKFNS5_5ErrorEjSt10shared_ptrINS5_14HeifPixelImageEEiiEPKS6_jSA_iiEEEES7_EESaISH_ELN9__gnu_cxx12_Lock_policyE2EE14_M_get_deleterERKSt9type_info@Base 1.0.0
 _ZNSt23_Sp_counted_ptr_inplaceINSt13__future_base17_Async_state_implINSt6thread8_InvokerISt5tupleIJMN4heif11HeifContextEKFNS5_5ErrorEjSt10shared_ptrINS5_14HeifPixelImageEEiiEPKS6_jSA_iiEEEES7_EESaISH_ELN9__gnu_cxx12_Lock_policyE2EED0Ev@Base 1.0.0
 _ZNSt23_Sp_counted_ptr_inplaceINSt13__future_base17_Async_state_implINSt6thread8_InvokerISt5tupleIJMN4heif11HeifContextEKFNS5_5ErrorEjSt10shared_ptrINS5_14HeifPixelImageEEiiEPKS6_jSA_iiEEEES7_EESaISH_ELN9__gnu_cxx12_Lock_policyE2EED1Ev@Base 1.0.0
 _ZNSt23_Sp_counted_ptr_inplaceINSt13__future_base17_Async_state_implINSt6thread8_InvokerISt5tupleIJMN4heif11HeifContextEKFNS5_5ErrorEjSt10shared_ptrINS5_14HeifPixelImageEEiiEPKS6_jSA_iiEEEES7_EESaISH_ELN9__gnu_cxx12_Lock_policyE2EED2Ev@Base 1.0.0
 _ZNSt6thread11_State_implINS_8_InvokerISt5tupleIJZNSt13__future_base17_Async_state_implINS1_IS2_IJMN4heif11HeifContextEKFNS5_5ErrorEjSt10shared_ptrINS5_14HeifPixelImageEEiiEPKS6_jSA_iiEEEES7_EC4EOSG_EUlvE_EEEEE6_M_runEv@Base 1.0.0
 _ZNSt6thread11_State_implINS_8_InvokerISt5tupleIJZNSt13__future_base17_Async_state_implINS1_IS2_IJMN4heif11HeifContextEKFNS5_5ErrorEjSt10shared_ptrINS5_14HeifPixelImageEEiiEPKS6_jSA_iiEEEES7_EC4EOSG_EUlvE_EEEEED0Ev@Base 1.0.0
 _ZNSt6thread11_State_implINS_8_InvokerISt5tupleIJZNSt13__future_base17_Async_state_implINS1_IS2_IJMN4heif11HeifContextEKFNS5_5ErrorEjSt10shared_ptrINS5_14HeifPixelImageEEiiEPKS6_jSA_iiEEEES7_EC4EOSG_EUlvE_EEEEED1Ev@Base 1.0.0
 _ZNSt6thread11_State_implINS_8_InvokerISt5tupleIJZNSt13__future_base17_Async_state_implINS1_IS2_IJMN4heif11HeifContextEKFNS5_5ErrorEjSt10shared_ptrINS5_14HeifPixelImageEEiiEPKS6_jSA_iiEEEES7_EC4EOSG_EUlvE_EEEEED2Ev@Base 1.0.0
 _ZNSt6vectorIS_IhSaIhEESaIS1_EE12emplace_backIJS1_EEEvDpOT_@Base 1.0.0
 _ZNSt6vectorIS_IhSaIhEESaIS1_EE17_M_realloc_insertIJRKS1_EEEvN9__gnu_cxx17__normal_iteratorIPS1_S3_EEDpOT_@Base 1.0.0
 _ZNSt6vectorIS_IhSaIhEESaIS1_EE17_M_realloc_insertIJS1_EEEvN9__gnu_cxx17__normal_iteratorIPS1_S3_EEDpOT_@Base 1.0.0
 _ZNSt6vectorIS_IhSaIhEESaIS1_EED1Ev@Base 1.0.0
 _ZNSt6vectorIS_IhSaIhEESaIS1_EED2Ev@Base 1.0.0
 _ZNSt6vectorIhSaIhEE12emplace_backIJhEEEvDpOT_@Base 1.0.0
 _ZNSt6vectorIhSaIhEE15_M_range_insertIN9__gnu_cxx17__normal_iteratorIPKhS1_EEEEvNS4_IPhS1_EET_SA_St20forward_iterator_tag@Base 1.0.0
 _ZNSt6vectorIhSaIhEE17_M_default_appendEj@Base 1.0.0
 _ZNSt6vectorIjSaIjEE12emplace_backIJjEEEvDpOT_@Base 1.0.0
 _ZNSt6vectorIjSaIjEE17_M_realloc_insertIJjEEEvN9__gnu_cxx17__normal_iteratorIPjS1_EEDpOT_@Base 1.0.0
 _ZNSt6vectorIjSaIjEEaSERKS1_@Base 1.0.0
 _ZNSt7__cxx1112basic_stringIcSt11char_traitsIcESaIcEE12_M_constructIPKcEEvT_S8_St20forward_iterator_tag@Base 1.0.0
 _ZNSt7__cxx1112basic_stringIcSt11char_traitsIcESaIcEE12_M_constructIPcEEvT_S7_St20forward_iterator_tag@Base 1.0.0
 _ZNSt7__cxx1115basic_stringbufIcSt11char_traitsIcESaIcEED0Ev@Base 1.0.0
 _ZNSt7__cxx1115basic_stringbufIcSt11char_traitsIcESaIcEED1Ev@Base 1.0.0
 _ZNSt7__cxx1115basic_stringbufIcSt11char_traitsIcESaIcEED2Ev@Base 1.0.0
 _ZNSt8_Rb_treeI12heif_channelS0_St9_IdentityIS0_ESt4lessIS0_ESaIS0_EE8_M_eraseEPSt13_Rb_tree_nodeIS0_E@Base 1.0.0
 _ZSt20__throw_bad_weak_ptrv@Base 1.0.0
 _ZTINSt13__future_base12_Task_setterISt10unique_ptrINS_7_ResultIN4heif5ErrorEEENS_12_Result_base8_DeleterEENSt6thread8_InvokerISt5tupleIJMNS3_11HeifContextEKFS4_jSt10shared_ptrINS3_14HeifPixelImageEEiiEPKSC_jSF_iiEEEES4_EE@Base 1.0.0
 _ZTINSt13__future_base13_State_baseV2E@Base 1.0.0
 _ZTINSt13__future_base15_Deferred_stateINSt6thread8_InvokerISt5tupleIJMN4heif11HeifContextEKFNS4_5ErrorEjSt10shared_ptrINS4_14HeifPixelImageEEiiEPKS5_jS9_iiEEEES6_EE@Base 1.0.0
 _ZTINSt13__future_base17_Async_state_implINSt6thread8_InvokerISt5tupleIJMN4heif11HeifContextEKFNS4_5ErrorEjSt10shared_ptrINS4_14HeifPixelImageEEiiEPKS5_jS9_iiEEEES6_EE@Base 1.0.0
 _ZTINSt13__future_base21_Async_state_commonV2E@Base 1.0.0
 _ZTINSt13__future_base7_ResultIN4heif5ErrorEEE@Base 1.0.0
 _ZTINSt6thread11_State_implINS_8_InvokerISt5tupleIJZNSt13__future_base17_Async_state_implINS1_IS2_IJMN4heif11HeifContextEKFNS5_5ErrorEjSt10shared_ptrINS5_14HeifPixelImageEEiiEPKS6_jSA_iiEEEES7_EC4EOSG_EUlvE_EEEEEE@Base 1.0.0
 _ZTISt11_Mutex_baseILN9__gnu_cxx12_Lock_policyE2EE@Base 1.0.0
 _ZTISt16_Sp_counted_baseILN9__gnu_cxx12_Lock_policyE2EE@Base 1.0.0
 _ZTISt23_Sp_counted_ptr_inplaceINSt13__future_base15_Deferred_stateINSt6thread8_InvokerISt5tupleIJMN4heif11HeifContextEKFNS5_5ErrorEjSt10shared_ptrINS5_14HeifPixelImageEEiiEPKS6_jSA_iiEEEES7_EESaISH_ELN9__gnu_cxx12_Lock_policyE2EE@Base 1.0.0
 _ZTISt23_Sp_counted_ptr_inplaceINSt13__future_base17_Async_state_implINSt6thread8_InvokerISt5tupleIJMN4heif11HeifContextEKFNS5_5ErrorEjSt10shared_ptrINS5_14HeifPixelImageEEiiEPKS6_jSA_iiEEEES7_EESaISH_ELN9__gnu_cxx12_Lock_policyE2EE@Base 1.0.0
 _ZTSNSt13__future_base12_Task_setterISt10unique_ptrINS_7_ResultIN4heif5ErrorEEENS_12_Result_base8_DeleterEENSt6thread8_InvokerISt5tupleIJMNS3_11HeifContextEKFS4_jSt10shared_ptrINS3_14HeifPixelImageEEiiEPKSC_jSF_iiEEEES4_EE@Base 1.0.0
 _ZTSNSt13__future_base13_State_baseV2E@Base 1.0.0
 _ZTSNSt13__future_base15_Deferred_stateINSt6thread8_InvokerISt5tupleIJMN4heif11HeifContextEKFNS4_5ErrorEjSt10shared_ptrINS4_14HeifPixelImageEEiiEPKS5_jS9_iiEEEES6_EE@Base 1.0.0
 _ZTSNSt13__future_base17_Async_state_implINSt6thread8_InvokerISt5tupleIJMN4heif11HeifContextEKFNS4_5ErrorEjSt10shared_ptrINS4_14HeifPixelImageEEiiEPKS5_jS9_iiEEEES6_EE@Base 1.0.0
 _ZTSNSt13__future_base21_Async_state_commonV2E@Base 1.0.0
 _ZTSNSt13__future_base7_ResultIN4heif5ErrorEEE@Base 1.0.0
 _ZTSNSt6thread11_State_implINS_8_InvokerISt5tupleIJZNSt13__future_base17_Async_state_implINS1_IS2_IJMN4heif11HeifContextEKFNS5_5ErrorEjSt10shared_ptrINS5_14HeifPixelImageEEiiEPKS6_jSA_iiEEEES7_EC4EOSG_EUlvE_EEEEEE@Base 1.0.0
 _ZTSSt11_Mutex_baseILN9__gnu_cxx12_Lock_policyE2EE@Base 1.0.0
 _ZTSSt16_Sp_counted_baseILN9__gnu_cxx12_Lock_policyE2EE@Base 1.0.0
 _ZTSSt19_Sp_make_shared_tag@Base 1.0.0
 _ZTSSt23_Sp_counted_ptr_inplaceINSt13__future_base15_Deferred_stateINSt6thread8_InvokerISt5tupleIJMN4heif11HeifContextEKFNS5_5ErrorEjSt10shared_ptrINS5_14HeifPixelImageEEiiEPKS6_jSA_iiEEEES7_EESaISH_ELN9__gnu_cxx12_Lock_policyE2EE@Base 1.0.0
 _ZTSSt23_Sp_counted_ptr_inplaceINSt13__future_base17_Async_state_implINSt6thread8_InvokerISt5tupleIJMN4heif11HeifContextEKFNS5_5ErrorEjSt10shared_ptrINS5_14HeifPixelImageEEiiEPKS6_jSA_iiEEEES7_EESaISH_ELN9__gnu_cxx12_Lock_policyE2EE@Base 1.0.0
 _ZTVNSt13__future_base13_State_baseV2E@Base 1.0.0
 _ZTVNSt13__future_base15_Deferred_stateINSt6thread8_InvokerISt5tupleIJMN4heif11HeifContextEKFNS4_5ErrorEjSt10shared_ptrINS4_14HeifPixelImageEEiiEPKS5_jS9_iiEEEES6_EE@Base 1.0.0
 _ZTVNSt13__future_base17_Async_state_implINSt6thread8_InvokerISt5tupleIJMN4heif11HeifContextEKFNS4_5ErrorEjSt10shared_ptrINS4_14HeifPixelImageEEiiEPKS5_jS9_iiEEEES6_EE@Base 1.0.0
 _ZTVNSt13__future_base21_Async_state_commonV2E@Base 1.0.0
 _ZTVNSt13__future_base7_ResultIN4heif5ErrorEEE@Base 1.0.0
 _ZTVNSt6thread11_State_implINS_8_InvokerISt5tupleIJZNSt13__future_base17_Async_state_implINS1_IS2_IJMN4heif11HeifContextEKFNS5_5ErrorEjSt10shared_ptrINS5_14HeifPixelImageEEiiEPKS6_jSA_iiEEEES7_EC4EOSG_EUlvE_EEEEEE@Base 1.0.0
 _ZTVSt23_Sp_counted_ptr_inplaceINSt13__future_base15_Deferred_stateINSt6thread8_InvokerISt5tupleIJMN4heif11HeifContextEKFNS5_5ErrorEjSt10shared_ptrINS5_14HeifPixelImageEEiiEPKS6_jSA_iiEEEES7_EESaISH_ELN9__gnu_cxx12_Lock_policyE2EE@Base 1.0.0
 _ZTVSt23_Sp_counted_ptr_inplaceINSt13__future_base17_Async_state_implINSt6thread8_InvokerISt5tupleIJMN4heif11HeifContextEKFNS5_5ErrorEjSt10shared_ptrINS5_14HeifPixelImageEEiiEPKS6_jSA_iiEEEES7_EESaISH_ELN9__gnu_cxx12_Lock_policyE2EE@Base 1.0.0
 _ZZNSt19_Sp_make_shared_tag5_S_tiEvE5__tag@Base 1.0.0
 _ZZSt9call_onceIMNSt13__future_base13_State_baseV2EFvPSt8functionIFSt10unique_ptrINS0_12_Result_baseENS4_8_DeleterEEvEEPbEJPS1_S9_SA_EEvRSt9once_flagOT_DpOT0_ENKUlvE0_clEv@Base 1.0.0
 _ZZSt9call_onceIMNSt13__future_base13_State_baseV2EFvPSt8functionIFSt10unique_ptrINS0_12_Result_baseENS4_8_DeleterEEvEEPbEJPS1_S9_SA_EEvRSt9once_flagOT_DpOT0_ENUlvE0_4_FUNEv@Base 1.0.0
 _ZZSt9call_onceIMSt6threadFvvEJPS0_EEvRSt9once_flagOT_DpOT0_ENKUlvE0_clEv@Base 1.0.0
 _ZZSt9call_onceIMSt6threadFvvEJPS0_EEvRSt9once_flagOT_DpOT0_ENUlvE0_4_FUNEv@Base 1.0.0
 heif_context_add_XMP_metadata@Base 1.3.2
 heif_context_add_exif_metadata@Base 1.3.2
 heif_context_alloc@Base 1.0.0
 heif_context_assign_thumbnail@Base 1.3.2
 heif_context_debug_dump_boxes_to_file@Base 1.0.0
 heif_context_encode_image@Base 1.1.0
 heif_context_encode_thumbnail@Base 1.3.2
 heif_context_free@Base 1.0.0
 heif_context_get_encoder@Base 1.1.0
 heif_context_get_encoder_descriptors@Base 1.1.0
 heif_context_get_encoder_for_format@Base 1.1.0
 heif_context_get_image_handle@Base 1.0.0
 heif_context_get_list_of_top_level_image_IDs@Base 1.0.0
 heif_context_get_number_of_top_level_images@Base 1.0.0
 heif_context_get_primary_image_ID@Base 1.0.0
 heif_context_get_primary_image_handle@Base 1.0.0
 heif_context_is_top_level_image_ID@Base 1.0.0
 heif_context_read_from_file@Base 1.0.0
 heif_context_read_from_memory@Base 1.0.0
 heif_context_read_from_memory_without_copy@Base 1.3.2
 heif_context_read_from_reader@Base 1.3.2
 heif_context_set_primary_image@Base 1.3.2
 heif_context_write@Base 1.1.0
 heif_context_write_to_file@Base 1.1.0
 heif_decode_image@Base 1.0.0
 heif_decoding_options_alloc@Base 1.0.0
 heif_decoding_options_free@Base 1.0.0
 heif_depth_representation_info_free@Base 1.0.0
 heif_encoder_descriptor_get_id_name@Base 1.1.0
 heif_encoder_descriptor_get_name@Base 1.1.0
 heif_encoder_descriptor_supportes_lossless_compression@Base 1.1.0
 heif_encoder_descriptor_supportes_lossy_compression@Base 1.1.0
 heif_encoder_get_name@Base 1.1.0
 heif_encoder_get_parameter@Base 1.1.0
 heif_encoder_get_parameter_boolean@Base 1.1.0
 heif_encoder_get_parameter_integer@Base 1.1.0
 heif_encoder_get_parameter_string@Base 1.1.0
 heif_encoder_list_parameters@Base 1.1.0
 heif_encoder_parameter_get_name@Base 1.1.0
 heif_encoder_parameter_get_type@Base 1.1.0
 heif_encoder_parameter_get_valid_integer_range@Base 1.2.0
 heif_encoder_parameter_get_valid_string_values@Base 1.2.0
 heif_encoder_parameter_integer_valid_range@Base 1.1.0
 heif_encoder_parameter_string_valid_values@Base 1.1.0
 heif_encoder_release@Base 1.1.0
 heif_encoder_set_logging_level@Base 1.1.0
 heif_encoder_set_lossless@Base 1.1.0
 heif_encoder_set_lossy_quality@Base 1.1.0
 heif_encoder_set_parameter@Base 1.1.0
 heif_encoder_set_parameter_boolean@Base 1.1.0
 heif_encoder_set_parameter_integer@Base 1.1.0
 heif_encoder_set_parameter_string@Base 1.1.0
 heif_encoding_options_alloc@Base 1.3.2
 heif_encoding_options_free@Base 1.3.2
 heif_get_version@Base 1.0.0
 heif_get_version_number@Base 1.0.0
 heif_get_version_number_maintenance@Base 1.0.0
 heif_get_version_number_major@Base 1.0.0
 heif_get_version_number_minor@Base 1.0.0
 heif_have_decoder_for_format@Base 1.3.2
 heif_have_encoder_for_format@Base 1.3.2
 heif_image_add_plane@Base 1.0.0
 heif_image_create@Base 1.0.0
 heif_image_get_bits_per_pixel@Base 1.0.0
 heif_image_get_chroma_format@Base 1.0.0
 heif_image_get_colorspace@Base 1.0.0
 heif_image_get_height@Base 1.0.0
 heif_image_get_plane@Base 1.0.0
 heif_image_get_plane_readonly@Base 1.0.0
 heif_image_get_width@Base 1.0.0
 heif_image_handle_get_depth_image_handle@Base 1.0.0
 heif_image_handle_get_depth_image_representation_info@Base 1.0.0
 heif_image_handle_get_height@Base 1.0.0
 heif_image_handle_get_list_of_depth_image_IDs@Base 1.0.0
 heif_image_handle_get_list_of_metadata_block_IDs@Base 1.0.0
 heif_image_handle_get_list_of_thumbnail_IDs@Base 1.0.0
 heif_image_handle_get_metadata@Base 1.0.0
 heif_image_handle_get_metadata_content_type@Base 1.2.0
 heif_image_handle_get_metadata_size@Base 1.0.0
 heif_image_handle_get_metadata_type@Base 1.0.0
 heif_image_handle_get_number_of_depth_images@Base 1.0.0
 heif_image_handle_get_number_of_metadata_blocks@Base 1.0.0
 heif_image_handle_get_number_of_thumbnails@Base 1.0.0
 heif_image_handle_get_thumbnail@Base 1.0.0
 heif_image_handle_get_width@Base 1.0.0
 heif_image_handle_has_alpha_channel@Base 1.0.0
 heif_image_handle_has_depth_image@Base 1.0.0
 heif_image_handle_is_primary_image@Base 1.0.0
 heif_image_handle_release@Base 1.0.0
 heif_image_has_channel@Base 1.2.0
 heif_image_release@Base 1.0.0
 heif_image_scale_image@Base 1.0.0
 heif_register_decoder@Base 1.0.0
 heif_register_decoder_plugin@Base 1.1.0
 heif_register_encoder_plugin@Base 1.1.0
