libkparts.so.4 libkparts4 #MINVER#
* Build-Depends-Package: kdelibs5-dev
 _ZN6KParts10BrowserRun10simpleSaveERK4KUrlRK7QStringP7QWidget@Base 4:4.3.4
 _ZN6KParts10BrowserRun11handleErrorEP4KJob@Base 4:4.3.4
 _ZN6KParts10BrowserRun11qt_metacallEN11QMetaObject4CallEiPPv@Base 4:4.3.4
 _ZN6KParts10BrowserRun11qt_metacastEPKc@Base 4:4.3.4
 _ZN6KParts10BrowserRun14allowExecutionERK7QStringRK4KUrl@Base 4:4.3.4
 _ZN6KParts10BrowserRun14askEmbedOrSaveERK4KUrlRK7QStringS6_i@Base 4:4.3.4
 _ZN6KParts10BrowserRun14slotStatResultEP4KJob@Base 4:4.3.4
 _ZN6KParts10BrowserRun15redirectToErrorEiRK7QString@Base 4:4.3.4
 _ZN6KParts10BrowserRun15saveUrlUsingKIOERK4KUrlS3_P7QWidgetRK4QMapI7QStringS7_E@Base 4:4.4.0
 _ZN6KParts10BrowserRun16browserArgumentsEv@Base 4:4.3.4
 _ZN6KParts10BrowserRun16isTextExecutableERK7QString@Base 4:4.3.4
 _ZN6KParts10BrowserRun16staticMetaObjectE@Base 4:4.3.4
 _ZN6KParts10BrowserRun19handleNonEmbeddableERK7QString@Base 4:4.3.4
 _ZN6KParts10BrowserRun19slotBrowserMimetypeEPN3KIO3JobERK7QString@Base 4:4.3.4
 _ZN6KParts10BrowserRun23slotBrowserScanFinishedEP4KJob@Base 4:4.3.4
 _ZN6KParts10BrowserRun24slotCopyToTempFileResultEP4KJob@Base 4:4.3.4
 _ZN6KParts10BrowserRun4initEv@Base 4:4.3.4
 _ZN6KParts10BrowserRun4saveERK4KUrlRK7QString@Base 4:4.3.4
 _ZN6KParts10BrowserRun7askSaveERK4KUrl10KSharedPtrI8KServiceERK7QStringS9_@Base 4:4.3.4
 _ZN6KParts10BrowserRun7saveUrlERK4KUrlRK7QStringP7QWidgetRKNS_16OpenUrlArgumentsE@Base 4:4.4.0
 _ZN6KParts10BrowserRun8scanFileEv@Base 4:4.3.4
 _ZN6KParts10BrowserRun9argumentsEv@Base 4:4.3.4
 _ZN6KParts10BrowserRunC1ERK4KUrlRKNS_16OpenUrlArgumentsERKNS_16BrowserArgumentsEPNS_12ReadOnlyPartEP7QWidgetbbb@Base 4:4.3.4
 _ZN6KParts10BrowserRunC2ERK4KUrlRKNS_16OpenUrlArgumentsERKNS_16BrowserArgumentsEPNS_12ReadOnlyPartEP7QWidgetbbb@Base 4:4.3.4
 _ZN6KParts10BrowserRunD0Ev@Base 4:4.3.4
 _ZN6KParts10BrowserRunD1Ev@Base 4:4.3.4
 _ZN6KParts10BrowserRunD2Ev@Base 4:4.3.4
 _ZN6KParts10MainWindow11qt_metacallEN11QMetaObject4CallEiPPv@Base 4:4.3.4
 _ZN6KParts10MainWindow11qt_metacastEPKc@Base 4:4.3.4
 _ZN6KParts10MainWindow14createShellGUIEb@Base 4:4.3.4
 _ZN6KParts10MainWindow16staticMetaObjectE@Base 4:4.3.4
 _ZN6KParts10MainWindow17configureToolbarsEv@Base 4:4.3.4
 _ZN6KParts10MainWindow20saveNewToolbarConfigEv@Base 4:4.3.4
 _ZN6KParts10MainWindow20slotSetStatusBarTextERK7QString@Base 4:4.3.4
 _ZN6KParts10MainWindow9createGUIEPNS_4PartE@Base 4:4.3.4
 _ZN6KParts10MainWindowC1EP7QWidget6QFlagsIN2Qt10WindowTypeEE@Base 4:4.3.4
 _ZN6KParts10MainWindowC1EP7QWidgetPKc6QFlagsIN2Qt10WindowTypeEE@Base 4:4.3.4
 _ZN6KParts10MainWindowC2EP7QWidget6QFlagsIN2Qt10WindowTypeEE@Base 4:4.3.4
 _ZN6KParts10MainWindowC2EP7QWidgetPKc6QFlagsIN2Qt10WindowTypeEE@Base 4:4.3.4
 _ZN6KParts10MainWindowD0Ev@Base 4:4.3.4
 _ZN6KParts10MainWindowD1Ev@Base 4:4.3.4
 _ZN6KParts10MainWindowD2Ev@Base 4:4.3.4
 _ZN6KParts10WindowArgs12setResizableEb@Base 4:4.3.4
 _ZN6KParts10WindowArgs13setFullScreenEb@Base 4:4.3.4
 _ZN6KParts10WindowArgs14setLowerWindowEb@Base 4:4.3.4
 _ZN6KParts10WindowArgs17setMenuBarVisibleEb@Base 4:4.3.4
 _ZN6KParts10WindowArgs18setToolBarsVisibleEb@Base 4:4.3.4
 _ZN6KParts10WindowArgs19setStatusBarVisibleEb@Base 4:4.3.4
 _ZN6KParts10WindowArgs20setScrollBarsVisibleEb@Base 4:4.3.4
 _ZN6KParts10WindowArgs4setXEi@Base 4:4.3.4
 _ZN6KParts10WindowArgs4setYEi@Base 4:4.3.4
 _ZN6KParts10WindowArgs8setWidthEi@Base 4:4.3.4
 _ZN6KParts10WindowArgs9setHeightEi@Base 4:4.3.4
 _ZN6KParts10WindowArgsC1ERK5QRectbbbbb@Base 4:4.3.4
 _ZN6KParts10WindowArgsC1ERKS0_@Base 4:4.3.4
 _ZN6KParts10WindowArgsC1Eiiiibbbbb@Base 4:4.3.4
 _ZN6KParts10WindowArgsC1Ev@Base 4:4.3.4
 _ZN6KParts10WindowArgsC2ERK5QRectbbbbb@Base 4:4.3.4
 _ZN6KParts10WindowArgsC2ERKS0_@Base 4:4.3.4
 _ZN6KParts10WindowArgsC2Eiiiibbbbb@Base 4:4.3.4
 _ZN6KParts10WindowArgsC2Ev@Base 4:4.3.4
 _ZN6KParts10WindowArgsD1Ev@Base 4:4.3.4
 _ZN6KParts10WindowArgsD2Ev@Base 4:4.3.4
 _ZN6KParts10WindowArgsaSERKS0_@Base 4:4.3.4
 _ZN6KParts11PartManager10removePartEPNS_4PartE@Base 4:4.3.4
 _ZN6KParts11PartManager11eventFilterEP7QObjectP6QEvent@Base 4:4.3.4
 _ZN6KParts11PartManager11partRemovedEPNS_4PartE@Base 4:4.3.4
 _ZN6KParts11PartManager11qt_metacallEN11QMetaObject4CallEiPPv@Base 4:4.3.4
 _ZN6KParts11PartManager11qt_metacastEPKc@Base 4:4.3.4
 _ZN6KParts11PartManager11replacePartEPNS_4PartES2_b@Base 4:4.3.4
 _ZN6KParts11PartManager13setActivePartEPNS_4PartEP7QWidget@Base 4:4.3.4
 _ZN6KParts11PartManager15setSelectedPartEPNS_4PartEP7QWidget@Base 4:4.3.4
 _ZN6KParts11PartManager16staticMetaObjectE@Base 4:4.3.4
 _ZN6KParts11PartManager17activePartChangedEPNS_4PartE@Base 4:4.3.4
 _ZN6KParts11PartManager18findPartFromWidgetEP7QWidget@Base 4:4.3.4
 _ZN6KParts11PartManager18findPartFromWidgetEP7QWidgetRK6QPoint@Base 4:4.3.4
 _ZN6KParts11PartManager18setActiveComponentERK14KComponentData@Base 4:4.3.4
 _ZN6KParts11PartManager18setSelectionPolicyENS0_15SelectionPolicyE@Base 4:4.3.4
 _ZN6KParts11PartManager19setAllowNestedPartsEb@Base 4:4.3.4
 _ZN6KParts11PartManager19setIgnoreScrollBarsEb@Base 4:4.3.4
 _ZN6KParts11PartManager19slotObjectDestroyedEv@Base 4:4.3.4
 _ZN6KParts11PartManager19slotWidgetDestroyedEv@Base 4:4.3.4
 _ZN6KParts11PartManager23setActivationButtonMaskEs@Base 4:4.3.4
 _ZN6KParts11PartManager24addManagedTopLevelWidgetEPK7QWidget@Base 4:4.3.4
 _ZN6KParts11PartManager27removeManagedTopLevelWidgetEPK7QWidget@Base 4:4.3.4
 _ZN6KParts11PartManager34slotManagedTopLevelWidgetDestroyedEv@Base 4:4.3.4
 _ZN6KParts11PartManager7addPartEPNS_4PartEb@Base 4:4.3.4
 _ZN6KParts11PartManager9partAddedEPNS_4PartE@Base 4:4.3.4
 _ZN6KParts11PartManagerC1EP7QWidget@Base 4:4.3.4
 _ZN6KParts11PartManagerC1EP7QWidgetP7QObject@Base 4:4.3.4
 _ZN6KParts11PartManagerC2EP7QWidget@Base 4:4.3.4
 _ZN6KParts11PartManagerC2EP7QWidgetP7QObject@Base 4:4.3.4
 _ZN6KParts11PartManagerD0Ev@Base 4:4.3.4
 _ZN6KParts11PartManagerD1Ev@Base 4:4.3.4
 _ZN6KParts11PartManagerD2Ev@Base 4:4.3.4
 _ZN6KParts12OpenUrlEvent19OpenUrlEventPrivate17s_strOpenUrlEventE@Base 4:4.3.4
 _ZN6KParts12OpenUrlEvent4testEPK6QEvent@Base 4:4.3.4
 _ZN6KParts12OpenUrlEventC1EPNS_12ReadOnlyPartERK4KUrlRKNS_16OpenUrlArgumentsERKNS_16BrowserArgumentsE@Base 4:4.3.4
 _ZN6KParts12OpenUrlEventC2EPNS_12ReadOnlyPartERK4KUrlRKNS_16OpenUrlArgumentsERKNS_16BrowserArgumentsE@Base 4:4.3.4
 _ZN6KParts12OpenUrlEventD0Ev@Base 4:4.3.4
 _ZN6KParts12OpenUrlEventD1Ev@Base 4:4.3.4
 _ZN6KParts12OpenUrlEventD2Ev@Base 4:4.3.4
 _ZN6KParts12ReadOnlyPart10openStreamERK7QStringRK4KUrl@Base 4:4.3.4
 _ZN6KParts12ReadOnlyPart11closeStreamEv@Base 4:4.3.4
 _ZN6KParts12ReadOnlyPart11qt_metacallEN11QMetaObject4CallEiPPv@Base 4:4.3.4
 _ZN6KParts12ReadOnlyPart11qt_metacastEPKc@Base 4:4.3.4
 _ZN6KParts12ReadOnlyPart11writeStreamERK10QByteArray@Base 4:4.3.4
 _ZN6KParts12ReadOnlyPart12setArgumentsERKNS_16OpenUrlArgumentsE@Base 4:4.3.4
 _ZN6KParts12ReadOnlyPart16guiActivateEventEPNS_16GUIActivateEventE@Base 4:4.3.4
 _ZN6KParts12ReadOnlyPart16setLocalFilePathERK7QString@Base 4:4.3.4
 _ZN6KParts12ReadOnlyPart16showProgressInfoEb@Base 4:4.3.4
 _ZN6KParts12ReadOnlyPart16staticMetaObjectE@Base 4:4.3.4
 _ZN6KParts12ReadOnlyPart21setLocalFileTemporaryEb@Base 4:4.3.4
 _ZN6KParts12ReadOnlyPart22setProgressInfoEnabledEb@Base 4:4.3.4
 _ZN6KParts12ReadOnlyPart6setUrlERK4KUrl@Base 4:4.3.4
 _ZN6KParts12ReadOnlyPart7openUrlERK4KUrl@Base 4:4.3.4
 _ZN6KParts12ReadOnlyPart7startedEPN3KIO3JobE@Base 4:4.3.4
 _ZN6KParts12ReadOnlyPart8canceledERK7QString@Base 4:4.3.4
 _ZN6KParts12ReadOnlyPart8closeUrlEv@Base 4:4.3.4
 _ZN6KParts12ReadOnlyPart9abortLoadEv@Base 4:4.3.4
 _ZN6KParts12ReadOnlyPart9completedEb@Base 4:4.3.4
 _ZN6KParts12ReadOnlyPart9completedEv@Base 4:4.3.4
 _ZN6KParts12ReadOnlyPartC1EP7QObject@Base 4:4.3.4
 _ZN6KParts12ReadOnlyPartC1ERNS_19ReadOnlyPartPrivateEP7QObject@Base 4:4.3.4
 _ZN6KParts12ReadOnlyPartC2EP7QObject@Base 4:4.3.4
 _ZN6KParts12ReadOnlyPartC2ERNS_19ReadOnlyPartPrivateEP7QObject@Base 4:4.3.4
 _ZN6KParts12ReadOnlyPartD0Ev@Base 4:4.3.4
 _ZN6KParts12ReadOnlyPartD1Ev@Base 4:4.3.4
 _ZN6KParts12ReadOnlyPartD2Ev@Base 4:4.3.4
 _ZN6KParts13ReadWritePart10queryCloseEv@Base 4:4.3.4
 _ZN6KParts13ReadWritePart11qt_metacallEN11QMetaObject4CallEiPPv@Base 4:4.3.4
 _ZN6KParts13ReadWritePart11qt_metacastEPKc@Base 4:4.3.4
 _ZN6KParts13ReadWritePart11setModifiedEb@Base 4:4.3.4
 _ZN6KParts13ReadWritePart11setModifiedEv@Base 4:4.3.4
 _ZN6KParts13ReadWritePart12setReadWriteEb@Base 4:4.3.4
 _ZN6KParts13ReadWritePart13sigQueryCloseEPbS1_@Base 4:4.3.4
 _ZN6KParts13ReadWritePart16staticMetaObjectE@Base 4:4.3.4
 _ZN6KParts13ReadWritePart16waitSaveCompleteEv@Base 4:4.3.4
 _ZN6KParts13ReadWritePart4saveEv@Base 4:4.3.4
 _ZN6KParts13ReadWritePart6saveAsERK4KUrl@Base 4:4.3.4
 _ZN6KParts13ReadWritePart8closeUrlEb@Base 4:4.3.4
 _ZN6KParts13ReadWritePart8closeUrlEv@Base 4:4.3.4
 _ZN6KParts13ReadWritePart9saveToUrlEv@Base 4:4.3.4
 _ZN6KParts13ReadWritePartC1EP7QObject@Base 4:4.3.4
 _ZN6KParts13ReadWritePartC2EP7QObject@Base 4:4.3.4
 _ZN6KParts13ReadWritePartD0Ev@Base 4:4.3.4
 _ZN6KParts13ReadWritePartD1Ev@Base 4:4.3.4
 _ZN6KParts13ReadWritePartD2Ev@Base 4:4.3.4
 _ZN6KParts15HistoryProvider11qt_metacallEN11QMetaObject4CallEiPPv@Base 4:4.3.4
 _ZN6KParts15HistoryProvider11qt_metacastEPKc@Base 4:4.3.4
 _ZN6KParts15HistoryProvider16staticMetaObjectE@Base 4:4.3.4
 _ZN6KParts15HistoryProvider4selfEv@Base 4:4.3.4
 _ZN6KParts15HistoryProvider5clearEv@Base 4:4.3.4
 _ZN6KParts15HistoryProvider6existsEv@Base 4:4.4.0
 _ZN6KParts15HistoryProvider6insertERK7QString@Base 4:4.3.4
 _ZN6KParts15HistoryProvider6removeERK7QString@Base 4:4.3.4
 _ZN6KParts15HistoryProvider7clearedEv@Base 4:4.3.4
 _ZN6KParts15HistoryProvider7updatedERK11QStringList@Base 4:4.3.4
 _ZN6KParts15HistoryProvider8insertedERK7QString@Base 4:4.3.4
 _ZN6KParts15HistoryProviderC1EP7QObject@Base 4:4.3.4
 _ZN6KParts15HistoryProviderC2EP7QObject@Base 4:4.3.4
 _ZN6KParts15HistoryProviderD0Ev@Base 4:4.3.4
 _ZN6KParts15HistoryProviderD1Ev@Base 4:4.3.4
 _ZN6KParts15HistoryProviderD2Ev@Base 4:4.3.4
 _ZN6KParts15PartSelectEvent4testEPK6QEvent@Base 4:4.3.4
 _ZN6KParts15PartSelectEventC1EbPNS_4PartEP7QWidget@Base 4:4.3.4
 _ZN6KParts15PartSelectEventC2EbPNS_4PartEP7QWidget@Base 4:4.3.4
 _ZN6KParts15PartSelectEventD0Ev@Base 4:4.3.4
 _ZN6KParts15PartSelectEventD1Ev@Base 4:4.3.4
 _ZN6KParts15PartSelectEventD2Ev@Base 4:4.3.4
 _ZN6KParts16BrowserArguments14setContentTypeERK7QString@Base 4:4.3.4
 _ZN6KParts16BrowserArguments14setLockHistoryEb@Base 4:4.3.4
 _ZN6KParts16BrowserArguments18setForcesNewWindowEb@Base 4:4.3.4
 _ZN6KParts16BrowserArguments20setRedirectedRequestEb@Base 4:4.3.4
 _ZN6KParts16BrowserArguments9setDoPostEb@Base 4:4.3.4
 _ZN6KParts16BrowserArguments9setNewTabEb@Base 4:4.3.4
 _ZN6KParts16BrowserArgumentsC1ERKS0_@Base 4:4.3.4
 _ZN6KParts16BrowserArgumentsC1Ev@Base 4:4.3.4
 _ZN6KParts16BrowserArgumentsC2ERKS0_@Base 4:4.3.4
 _ZN6KParts16BrowserArgumentsC2Ev@Base 4:4.3.4
 _ZN6KParts16BrowserArgumentsD0Ev@Base 4:4.3.4
 _ZN6KParts16BrowserArgumentsD1Ev@Base 4:4.3.4
 _ZN6KParts16BrowserArgumentsD2Ev@Base 4:4.3.4
 _ZN6KParts16BrowserArgumentsaSERKS0_@Base 4:4.3.4
 _ZN6KParts16BrowserExtension10setIconUrlERK4KUrl@Base 4:4.3.4
 _ZN6KParts16BrowserExtension11childObjectEP7QObject@Base 4:4.3.4
 _ZN6KParts16BrowserExtension11infoMessageERK7QString@Base 4:4.3.4
 _ZN6KParts16BrowserExtension11qt_metacallEN11QMetaObject4CallEiPPv@Base 4:4.3.4
 _ZN6KParts16BrowserExtension11qt_metacastEPKc@Base 4:4.3.4
 _ZN6KParts16BrowserExtension12enableActionEPKcb@Base 4:4.3.4
 _ZN6KParts16BrowserExtension12itemsRemovedERK13KFileItemList@Base 4:4.3.4
 _ZN6KParts16BrowserExtension12pasteRequestEv@Base 4:4.3.4
 _ZN6KParts16BrowserExtension12requestFocusEPNS_12ReadOnlyPartE@Base 4:4.3.4
 _ZN6KParts16BrowserExtension12restoreStateER11QDataStream@Base 4:4.3.4
 _ZN6KParts16BrowserExtension13actionSlotMapEv@Base 4:4.3.4
 _ZN6KParts16BrowserExtension13addWebSideBarERK4KUrlRK7QString@Base 4:4.3.4
 _ZN6KParts16BrowserExtension13mouseOverInfoERK9KFileItem@Base 4:4.3.4
 _ZN6KParts16BrowserExtension13openUrlNotifyEv@Base 4:4.3.4
 _ZN6KParts16BrowserExtension13selectionInfoERK13KFileItemList@Base 4:4.3.4
 _ZN6KParts16BrowserExtension13selectionInfoERK7QString@Base 4:4.3.4
 _ZN6KParts16BrowserExtension13selectionInfoERKN4KUrl4ListE@Base 4:4.3.4
 _ZN6KParts16BrowserExtension13setActionTextEPKcRK7QString@Base 4:4.3.4
 _ZN6KParts16BrowserExtension13slotCompletedEv@Base 4:4.3.4
 _ZN6KParts16BrowserExtension13speedProgressEi@Base 4:4.3.4
 _ZN6KParts16BrowserExtension14openUrlRequestERK4KUrlRKNS_16OpenUrlArgumentsERKNS_16BrowserArgumentsE@Base 4:4.3.4
 _ZN6KParts16BrowserExtension15createNewWindowERK4KUrlRKNS_16OpenUrlArgumentsERKNS_16BrowserArgumentsERKNS_10WindowArgsEPPNS_12ReadOnlyPartE@Base 4:4.3.4
 _ZN6KParts16BrowserExtension15loadingProgressEi@Base 4:4.3.4
 _ZN6KParts16BrowserExtension15setPageSecurityEi@Base 4:4.3.4
 _ZN6KParts16BrowserExtension16actionSlotMapPtrEv@Base 4:4.3.4
 _ZN6KParts16BrowserExtension16slotEnableActionEPKcb@Base 4:4.3.4
 _ZN6KParts16BrowserExtension16staticMetaObjectE@Base 4:4.3.4
 _ZN6KParts16BrowserExtension17setLocationBarUrlERK7QString@Base 4:4.3.4
 _ZN6KParts16BrowserExtension17slotSetActionTextEPKcRK7QString@Base 4:4.3.4
 _ZN6KParts16BrowserExtension18moveTopLevelWidgetEii@Base 4:4.3.4
 _ZN6KParts16BrowserExtension18slotOpenUrlRequestERK4KUrlRKNS_16OpenUrlArgumentsERKNS_16BrowserArgumentsE@Base 4:4.3.4
 _ZN6KParts16BrowserExtension19setBrowserArgumentsERKNS_16BrowserArgumentsE@Base 4:4.3.4
 _ZN6KParts16BrowserExtension19setBrowserInterfaceEPNS_16BrowserInterfaceE@Base 4:4.3.4
 _ZN6KParts16BrowserExtension20resizeTopLevelWidgetEii@Base 4:4.3.4
 _ZN6KParts16BrowserExtension21openUrlRequestDelayedERK4KUrlRKNS_16OpenUrlArgumentsERKNS_16BrowserArgumentsE@Base 4:4.3.4
 _ZN6KParts16BrowserExtension23BrowserExtensionPrivate19createActionSlotMapEv@Base 4:4.3.4
 _ZN6KParts16BrowserExtension25setURLDropHandlingEnabledEb@Base 4:4.3.4
 _ZN6KParts16BrowserExtension29slotEmitOpenUrlRequestDelayedEv@Base 4:4.3.4
 _ZN6KParts16BrowserExtension7xOffsetEv@Base 4:4.3.4
 _ZN6KParts16BrowserExtension7yOffsetEv@Base 4:4.3.4
 _ZN6KParts16BrowserExtension9popupMenuERK6QPointRK13KFileItemListRKNS_16OpenUrlArgumentsERKNS_16BrowserArgumentsE6QFlagsINS0_9PopupFlagEERK4QMapI7QString5QListIP7QActionEE@Base 4:4.3.4
 _ZN6KParts16BrowserExtension9popupMenuERK6QPointRK4KUrljRKNS_16OpenUrlArgumentsERKNS_16BrowserArgumentsE6QFlagsINS0_9PopupFlagEERK4QMapI7QString5QListIP7QActionEE@Base 4:4.3.4
 _ZN6KParts16BrowserExtension9saveStateER11QDataStream@Base 4:4.3.4
 _ZN6KParts16BrowserExtensionC1EPNS_12ReadOnlyPartE@Base 4:4.3.4
 _ZN6KParts16BrowserExtensionC2EPNS_12ReadOnlyPartE@Base 4:4.3.4
 _ZN6KParts16BrowserExtensionD0Ev@Base 4:4.3.4
 _ZN6KParts16BrowserExtensionD1Ev@Base 4:4.3.4
 _ZN6KParts16BrowserExtensionD2Ev@Base 4:4.3.4
 _ZN6KParts16BrowserInterface10callMethodEPKcRK8QVariant@Base 4:4.3.4
 _ZN6KParts16BrowserInterface11qt_metacallEN11QMetaObject4CallEiPPv@Base 4:4.3.4
 _ZN6KParts16BrowserInterface11qt_metacastEPKc@Base 4:4.3.4
 _ZN6KParts16BrowserInterface16staticMetaObjectE@Base 4:4.3.4
 _ZN6KParts16BrowserInterfaceC1EP7QObject@Base 4:4.3.4
 _ZN6KParts16BrowserInterfaceC2EP7QObject@Base 4:4.3.4
 _ZN6KParts16BrowserInterfaceD0Ev@Base 4:4.3.4
 _ZN6KParts16BrowserInterfaceD1Ev@Base 4:4.3.4
 _ZN6KParts16BrowserInterfaceD2Ev@Base 4:4.3.4
 _ZN6KParts16GUIActivateEvent4testEPK6QEvent@Base 4:4.3.4
 _ZN6KParts16GUIActivateEventC1Eb@Base 4:4.3.4
 _ZN6KParts16GUIActivateEventC2Eb@Base 4:4.3.4
 _ZN6KParts16GUIActivateEventD0Ev@Base 4:4.3.4
 _ZN6KParts16GUIActivateEventD1Ev@Base 4:4.3.4
 _ZN6KParts16GUIActivateEventD2Ev@Base 4:4.3.4
 _ZN6KParts16OpenUrlArguments10setXOffsetEi@Base 4:4.3.4
 _ZN6KParts16OpenUrlArguments10setYOffsetEi@Base 4:4.3.4
 _ZN6KParts16OpenUrlArguments11setMimeTypeERK7QString@Base 4:4.3.4
 _ZN6KParts16OpenUrlArguments24setActionRequestedByUserEb@Base 4:4.3.4
 _ZN6KParts16OpenUrlArguments8metaDataEv@Base 4:4.3.4
 _ZN6KParts16OpenUrlArguments9setReloadEb@Base 4:4.3.4
 _ZN6KParts16OpenUrlArgumentsC1ERKS0_@Base 4:4.3.4
 _ZN6KParts16OpenUrlArgumentsC1Ev@Base 4:4.3.4
 _ZN6KParts16OpenUrlArgumentsC2ERKS0_@Base 4:4.3.4
 _ZN6KParts16OpenUrlArgumentsC2Ev@Base 4:4.3.4
 _ZN6KParts16OpenUrlArgumentsD1Ev@Base 4:4.3.4
 _ZN6KParts16OpenUrlArgumentsD2Ev@Base 4:4.3.4
 _ZN6KParts16OpenUrlArgumentsaSERKS0_@Base 4:4.3.4
 _ZN6KParts17PartActivateEvent4testEPK6QEvent@Base 4:4.3.4
 _ZN6KParts17PartActivateEventC1EbPNS_4PartEP7QWidget@Base 4:4.3.4
 _ZN6KParts17PartActivateEventC2EbPNS_4PartEP7QWidget@Base 4:4.3.4
 _ZN6KParts17PartActivateEventD0Ev@Base 4:4.3.4
 _ZN6KParts17PartActivateEventD1Ev@Base 4:4.3.4
 _ZN6KParts17PartActivateEventD2Ev@Base 4:4.3.4
 _ZN6KParts18StatusBarExtension11childObjectEP7QObject@Base 4:4.3.4
 _ZN6KParts18StatusBarExtension11eventFilterEP7QObjectP6QEvent@Base 4:4.3.4
 _ZN6KParts18StatusBarExtension11qt_metacallEN11QMetaObject4CallEiPPv@Base 4:4.3.4
 _ZN6KParts18StatusBarExtension11qt_metacastEPKc@Base 4:4.3.4
 _ZN6KParts18StatusBarExtension12setStatusBarEP10KStatusBar@Base 4:4.3.4
 _ZN6KParts18StatusBarExtension16addStatusBarItemEP7QWidgetib@Base 4:4.3.4
 _ZN6KParts18StatusBarExtension16staticMetaObjectE@Base 4:4.3.4
 _ZN6KParts18StatusBarExtension19removeStatusBarItemEP7QWidget@Base 4:4.3.4
 _ZN6KParts18StatusBarExtensionC1EPNS_12ReadOnlyPartE@Base 4:4.3.4
 _ZN6KParts18StatusBarExtensionC2EPNS_12ReadOnlyPartE@Base 4:4.3.4
 _ZN6KParts18StatusBarExtensionD0Ev@Base 4:4.3.4
 _ZN6KParts18StatusBarExtensionD1Ev@Base 4:4.3.4
 _ZN6KParts18StatusBarExtensionD2Ev@Base 4:4.3.4
 _ZN6KParts20BrowserHostExtension11childObjectEP7QObject@Base 4:4.3.4
 _ZN6KParts20BrowserHostExtension11qt_metacallEN11QMetaObject4CallEiPPv@Base 4:4.3.4
 _ZN6KParts20BrowserHostExtension11qt_metacastEPKc@Base 4:4.3.4
 _ZN6KParts20BrowserHostExtension14openUrlInFrameERK4KUrlRKNS_16OpenUrlArgumentsERKNS_16BrowserArgumentsE@Base 4:4.3.4
 _ZN6KParts20BrowserHostExtension15findFrameParentEPNS_12ReadOnlyPartERK7QString@Base 4:4.3.4
 _ZN6KParts20BrowserHostExtension16staticMetaObjectE@Base 4:4.3.4
 _ZN6KParts20BrowserHostExtensionC1EPNS_12ReadOnlyPartE@Base 4:4.3.4
 _ZN6KParts20BrowserHostExtensionC2EPNS_12ReadOnlyPartE@Base 4:4.3.4
 _ZN6KParts20BrowserHostExtensionD0Ev@Base 4:4.3.4
 _ZN6KParts20BrowserHostExtensionD1Ev@Base 4:4.3.4
 _ZN6KParts20BrowserHostExtensionD2Ev@Base 4:4.3.4
 _ZN6KParts20LiveConnectExtension10unregisterEm@Base 4:4.3.4
 _ZN6KParts20LiveConnectExtension11childObjectEP7QObject@Base 4:4.3.4
 _ZN6KParts20LiveConnectExtension11qt_metacallEN11QMetaObject4CallEiPPv@Base 4:4.3.4
 _ZN6KParts20LiveConnectExtension11qt_metacastEPKc@Base 4:4.3.4
 _ZN6KParts20LiveConnectExtension16staticMetaObjectE@Base 4:4.3.4
 _ZN6KParts20LiveConnectExtension3getEmRK7QStringRNS0_4TypeERmRS1_@Base 4:4.3.4
 _ZN6KParts20LiveConnectExtension3putEmRK7QStringS3_@Base 4:4.3.4
 _ZN6KParts20LiveConnectExtension4callEmRK7QStringRK11QStringListRNS0_4TypeERmRS1_@Base 4:4.3.4
 _ZN6KParts20LiveConnectExtension9partEventEmRK7QStringRK5QListI5QPairINS0_4TypeES1_EE@Base 4:4.3.4
 _ZN6KParts20LiveConnectExtensionC1EPNS_12ReadOnlyPartE@Base 4:4.3.4
 _ZN6KParts20LiveConnectExtensionC2EPNS_12ReadOnlyPartE@Base 4:4.3.4
 _ZN6KParts20LiveConnectExtensionD0Ev@Base 4:4.3.4
 _ZN6KParts20LiveConnectExtensionD1Ev@Base 4:4.3.4
 _ZN6KParts20LiveConnectExtensionD2Ev@Base 4:4.3.4
 _ZN6KParts25BrowserOpenOrSaveQuestion11setFeaturesE6QFlagsINS0_7FeatureEE@Base 4:4.4.0
 _ZN6KParts25BrowserOpenOrSaveQuestion13askOpenOrSaveEv@Base 4:4.4.0
 _ZN6KParts25BrowserOpenOrSaveQuestion14askEmbedOrSaveEi@Base 4:4.4.0
 _ZN6KParts25BrowserOpenOrSaveQuestion20setSuggestedFileNameERK7QString@Base 4:4.4.0
 _ZN6KParts25BrowserOpenOrSaveQuestionC1EP7QWidgetRK4KUrlRK7QString@Base 4:4.4.0
 _ZN6KParts25BrowserOpenOrSaveQuestionC2EP7QWidgetRK4KUrlRK7QString@Base 4:4.4.0
 _ZN6KParts25BrowserOpenOrSaveQuestionD1Ev@Base 4:4.4.0
 _ZN6KParts25BrowserOpenOrSaveQuestionD2Ev@Base 4:4.4.0
 _ZN6KParts4Part10iconLoaderEv@Base 4:4.3.4
 _ZN6KParts4Part10setManagerEPNS_11PartManagerE@Base 4:4.3.4
 _ZN6KParts4Part11customEventEP6QEvent@Base 4:4.3.4
 _ZN6KParts4Part11loadPluginsEv@Base 4:4.3.4
 _ZN6KParts4Part11qt_metacallEN11QMetaObject4CallEiPPv@Base 4:4.3.4
 _ZN6KParts4Part11qt_metacastEPKc@Base 4:4.3.4
 _ZN6KParts4Part13hostContainerERK7QString@Base 4:4.3.4
 _ZN6KParts4Part13setSelectableEb@Base 4:4.3.4
 _ZN6KParts4Part15partSelectEventEPNS_15PartSelectEventE@Base 4:4.3.4
 _ZN6KParts4Part16guiActivateEventEPNS_16GUIActivateEventE@Base 4:4.3.4
 _ZN6KParts4Part16setStatusBarTextERK7QString@Base 4:4.3.4
 _ZN6KParts4Part16setWindowCaptionERK7QString@Base 4:4.3.4
 _ZN6KParts4Part16staticMetaObjectE@Base 4:4.3.4
 _ZN6KParts4Part17partActivateEventEPNS_17PartActivateEventE@Base 4:4.3.4
 _ZN6KParts4Part17setAutoDeletePartEb@Base 4:4.3.4
 _ZN6KParts4Part19setAutoDeleteWidgetEb@Base 4:4.3.4
 _ZN6KParts4Part19slotWidgetDestroyedEv@Base 4:4.3.4
 _ZN6KParts4Part5embedEP7QWidget@Base 4:4.3.4
 _ZN6KParts4Part6widgetEv@Base 4:4.3.4
 _ZN6KParts4Part7hitTestEP7QWidgetRK6QPoint@Base 4:4.3.4
 _ZN6KParts4Part9setWidgetEP7QWidget@Base 4:4.3.4
 _ZN6KParts4PartC1EP7QObject@Base 4:4.3.4
 _ZN6KParts4PartC1ERNS_11PartPrivateEP7QObject@Base 4:4.3.4
 _ZN6KParts4PartC2EP7QObject@Base 4:4.3.4
 _ZN6KParts4PartC2ERNS_11PartPrivateEP7QObject@Base 4:4.3.4
 _ZN6KParts4PartD0Ev@Base 4:4.3.4
 _ZN6KParts4PartD1Ev@Base 4:4.3.4
 _ZN6KParts4PartD2Ev@Base 4:4.3.4
 _ZN6KParts5Event4testEPK6QEvent@Base 4:4.3.4
 _ZN6KParts5Event4testEPK6QEventPKc@Base 4:4.3.4
 _ZN6KParts5EventC1EPKc@Base 4:4.3.4
 _ZN6KParts5EventC2EPKc@Base 4:4.3.4
 _ZN6KParts5EventD0Ev@Base 4:4.3.4
 _ZN6KParts5EventD1Ev@Base 4:4.3.4
 _ZN6KParts5EventD2Ev@Base 4:4.3.4
 _ZN6KParts6Plugin10loadPluginEP7QObjectPKc@Base 4:4.3.4
 _ZN6KParts6Plugin10loadPluginEP7QObjectRK10QByteArray@Base 4:4.3.4
 _ZN6KParts6Plugin10loadPluginEP7QObjectRK7QString@Base 4:4.3.4
 _ZN6KParts6Plugin11loadPluginsEP7QObjectP13KXMLGUIClientRK14KComponentDatabi@Base 4:4.3.4
 _ZN6KParts6Plugin11loadPluginsEP7QObjectRK14KComponentData@Base 4:4.3.4
 _ZN6KParts6Plugin11loadPluginsEP7QObjectRK5QListINS0_10PluginInfoEE@Base 4:4.3.4
 _ZN6KParts6Plugin11loadPluginsEP7QObjectRK5QListINS0_10PluginInfoEERK14KComponentData@Base 4:4.3.4
 _ZN6KParts6Plugin11pluginInfosERK14KComponentData@Base 4:4.3.4
 _ZN6KParts6Plugin11qt_metacallEN11QMetaObject4CallEiPPv@Base 4:4.3.4
 _ZN6KParts6Plugin11qt_metacastEPKc@Base 4:4.3.4
 _ZN6KParts6Plugin13pluginObjectsEP7QObject@Base 4:4.3.4
 _ZN6KParts6Plugin16setComponentDataERK14KComponentData@Base 4:4.3.4
 _ZN6KParts6Plugin16staticMetaObjectE@Base 4:4.3.4
 _ZN6KParts6Plugin9hasPluginEP7QObjectRK7QString@Base 4:4.3.4
 _ZN6KParts6PluginC1EP7QObject@Base 4:4.3.4
 _ZN6KParts6PluginC2EP7QObject@Base 4:4.3.4
 _ZN6KParts6PluginD0Ev@Base 4:4.3.4
 _ZN6KParts6PluginD1Ev@Base 4:4.3.4
 _ZN6KParts6PluginD2Ev@Base 4:4.3.4
 _ZN6KParts7Factory10createPartEP7QWidgetP7QObjectPKcRK11QStringList@Base 4:4.3.4
 _ZN6KParts7Factory11qt_metacallEN11QMetaObject4CallEiPPv@Base 4:4.3.4
 _ZN6KParts7Factory11qt_metacastEPKc@Base 4:4.3.4
 _ZN6KParts7Factory12createObjectEP7QObjectPKcRK11QStringList@Base 4:4.3.4
 _ZN6KParts7Factory16createPartObjectEP7QWidgetP7QObjectPKcRK11QStringList@Base 4:4.3.4
 _ZN6KParts7Factory16staticMetaObjectE@Base 4:4.3.4
 _ZN6KParts7Factory17partComponentDataEv@Base 4:4.3.4
 _ZN6KParts7Factory28partComponentDataFromLibraryERK7QString@Base 4:4.3.4
 _ZN6KParts7FactoryC1EP7QObject@Base 4:4.3.4
 _ZN6KParts7FactoryC2EP7QObject@Base 4:4.3.4
 _ZN6KParts7FactoryD0Ev@Base 4:4.3.4
 _ZN6KParts7FactoryD1Ev@Base 4:4.3.4
 _ZN6KParts7FactoryD2Ev@Base 4:4.3.4
 _ZN6KParts8PartBase11loadPluginsEP7QObjectP13KXMLGUIClientRK14KComponentData@Base 4:4.3.4
 _ZN6KParts8PartBase13setPartObjectEP7QObject@Base 4:4.3.4
 _ZN6KParts8PartBase16setComponentDataERK14KComponentData@Base 4:4.3.4
 _ZN6KParts8PartBase16setComponentDataERK14KComponentDatab@Base 4:4.3.4
 _ZN6KParts8PartBase20setPluginLoadingModeENS0_17PluginLoadingModeE@Base 4:4.3.4
 _ZN6KParts8PartBase25setPluginInterfaceVersionEi@Base 4:4.3.4
 _ZN6KParts8PartBaseC1ERNS_15PartBasePrivateE@Base 4:4.3.4
 _ZN6KParts8PartBaseC1Ev@Base 4:4.3.4
 _ZN6KParts8PartBaseC2ERNS_15PartBasePrivateE@Base 4:4.3.4
 _ZN6KParts8PartBaseC2Ev@Base 4:4.3.4
 _ZN6KParts8PartBaseD0Ev@Base 4:4.3.4
 _ZN6KParts8PartBaseD1Ev@Base 4:4.3.4
 _ZN6KParts8PartBaseD2Ev@Base 4:4.3.4
 _ZNK6KParts10BrowserRun10metaObjectEv@Base 4:4.3.4
 _ZNK6KParts10BrowserRun15hideErrorDialogEv@Base 4:4.3.4
 _ZNK6KParts10BrowserRun18contentDispositionEv@Base 4:4.3.4
 _ZNK6KParts10BrowserRun18serverSuggestsSaveEv@Base 4:4.4.1
 _ZNK6KParts10BrowserRun3urlEv@Base 4:4.3.4
 _ZNK6KParts10BrowserRun4partEv@Base 4:4.3.4
 _ZNK6KParts10MainWindow10metaObjectEv@Base 4:4.3.4
 _ZNK6KParts10WindowArgs11isResizableEv@Base 4:4.3.4
 _ZNK6KParts10WindowArgs11lowerWindowEv@Base 4:4.3.4
 _ZNK6KParts10WindowArgs12isFullScreenEv@Base 4:4.3.4
 _ZNK6KParts10WindowArgs15toolBarsVisibleEv@Base 4:4.3.4
 _ZNK6KParts10WindowArgs16isMenuBarVisibleEv@Base 4:4.3.4
 _ZNK6KParts10WindowArgs17scrollBarsVisibleEv@Base 4:4.3.4
 _ZNK6KParts10WindowArgs18isStatusBarVisibleEv@Base 4:4.3.4
 _ZNK6KParts10WindowArgs1xEv@Base 4:4.3.4
 _ZNK6KParts10WindowArgs1yEv@Base 4:4.3.4
 _ZNK6KParts10WindowArgs5widthEv@Base 4:4.3.4
 _ZNK6KParts10WindowArgs6heightEv@Base 4:4.3.4
 _ZNK6KParts11PartManager10activePartEv@Base 4:4.3.4
 _ZNK6KParts11PartManager10metaObjectEv@Base 4:4.3.4
 _ZNK6KParts11PartManager12activeWidgetEv@Base 4:4.3.4
 _ZNK6KParts11PartManager12selectedPartEv@Base 4:4.3.4
 _ZNK6KParts11PartManager14selectedWidgetEv@Base 4:4.3.4
 _ZNK6KParts11PartManager15selectionPolicyEv@Base 4:4.3.4
 _ZNK6KParts11PartManager16allowNestedPartsEv@Base 4:4.3.4
 _ZNK6KParts11PartManager16ignoreScrollBarsEv@Base 4:4.3.4
 _ZNK6KParts11PartManager20activationButtonMaskEv@Base 4:4.3.4
 _ZNK6KParts11PartManager5partsEv@Base 4:4.3.4
 _ZNK6KParts11PartManager6reasonEv@Base 4:4.3.4
 _ZNK6KParts12OpenUrlEvent16browserArgumentsEv@Base 4:4.3.4
 _ZNK6KParts12OpenUrlEvent3urlEv@Base 4:4.3.4
 _ZNK6KParts12OpenUrlEvent4partEv@Base 4:4.3.4
 _ZNK6KParts12OpenUrlEvent9argumentsEv@Base 4:4.3.4
 _ZNK6KParts12ReadOnlyPart10metaObjectEv@Base 4:4.3.4
 _ZNK6KParts12ReadOnlyPart13localFilePathEv@Base 4:4.3.4
 _ZNK6KParts12ReadOnlyPart16browserExtensionEv@Base 4:4.3.4
 _ZNK6KParts12ReadOnlyPart20isLocalFileTemporaryEv@Base 4:4.3.4
 _ZNK6KParts12ReadOnlyPart21isProgressInfoEnabledEv@Base 4:4.3.4
 _ZNK6KParts12ReadOnlyPart3urlEv@Base 4:4.3.4
 _ZNK6KParts12ReadOnlyPart9argumentsEv@Base 4:4.3.4
 _ZNK6KParts13ReadWritePart10isModifiedEv@Base 4:4.3.4
 _ZNK6KParts13ReadWritePart10metaObjectEv@Base 4:4.3.4
 _ZNK6KParts13ReadWritePart11isReadWriteEv@Base 4:4.3.4
 _ZNK6KParts15HistoryProvider10metaObjectEv@Base 4:4.3.4
 _ZNK6KParts15HistoryProvider8containsERK7QString@Base 4:4.3.4
 _ZNK6KParts15PartSelectEvent4partEv@Base 4:4.3.4
 _ZNK6KParts15PartSelectEvent6widgetEv@Base 4:4.3.4
 _ZNK6KParts15PartSelectEvent8selectedEv@Base 4:4.3.4
 _ZNK6KParts16BrowserArguments11contentTypeEv@Base 4:4.3.4
 _ZNK6KParts16BrowserArguments11lockHistoryEv@Base 4:4.3.4
 _ZNK6KParts16BrowserArguments15forcesNewWindowEv@Base 4:4.3.4
 _ZNK6KParts16BrowserArguments17redirectedRequestEv@Base 4:4.3.4
 _ZNK6KParts16BrowserArguments6doPostEv@Base 4:4.3.4
 _ZNK6KParts16BrowserArguments6newTabEv@Base 4:4.3.4
 _ZNK6KParts16BrowserExtension10actionTextEPKc@Base 4:4.3.4
 _ZNK6KParts16BrowserExtension10metaObjectEv@Base 4:4.3.4
 _ZNK6KParts16BrowserExtension15isActionEnabledEPKc@Base 4:4.3.4
 _ZNK6KParts16BrowserExtension16browserArgumentsEv@Base 4:4.3.4
 _ZNK6KParts16BrowserExtension16browserInterfaceEv@Base 4:4.3.4
 _ZNK6KParts16BrowserExtension24isURLDropHandlingEnabledEv@Base 4:4.3.4
 _ZNK6KParts16BrowserInterface10metaObjectEv@Base 4:4.3.4
 _ZNK6KParts16GUIActivateEvent9activatedEv@Base 4:4.3.4
 _ZNK6KParts16OpenUrlArguments21actionRequestedByUserEv@Base 4:4.3.4
 _ZNK6KParts16OpenUrlArguments6reloadEv@Base 4:4.3.4
 _ZNK6KParts16OpenUrlArguments7xOffsetEv@Base 4:4.3.4
 _ZNK6KParts16OpenUrlArguments7yOffsetEv@Base 4:4.3.4
 _ZNK6KParts16OpenUrlArguments8metaDataEv@Base 4:4.3.4
 _ZNK6KParts16OpenUrlArguments8mimeTypeEv@Base 4:4.3.4
 _ZNK6KParts17PartActivateEvent4partEv@Base 4:4.3.4
 _ZNK6KParts17PartActivateEvent6widgetEv@Base 4:4.3.4
 _ZNK6KParts17PartActivateEvent9activatedEv@Base 4:4.3.4
 _ZNK6KParts18StatusBarExtension10metaObjectEv@Base 4:4.3.4
 _ZNK6KParts18StatusBarExtension9statusBarEv@Base 4:4.3.4
 _ZNK6KParts20BrowserHostExtension10frameNamesEv@Base 4:4.3.4
 _ZNK6KParts20BrowserHostExtension10metaObjectEv@Base 4:4.3.4
 _ZNK6KParts20BrowserHostExtension6framesEv@Base 4:4.3.4
 _ZNK6KParts20LiveConnectExtension10metaObjectEv@Base 4:4.3.4
 _ZNK6KParts25BrowserOpenOrSaveQuestion15selectedServiceEv@Base 4:4.4.0
 _ZNK6KParts4Part10metaObjectEv@Base 4:4.3.4
 _ZNK6KParts4Part12isSelectableEv@Base 4:4.3.4
 _ZNK6KParts4Part7managerEv@Base 4:4.3.4
 _ZNK6KParts5Event9eventNameEv@Base 4:4.3.4
 _ZNK6KParts6Plugin10metaObjectEv@Base 4:4.3.4
 _ZNK6KParts6Plugin12localXMLFileEv@Base 4:4.3.4
 _ZNK6KParts6Plugin7xmlFileEv@Base 4:4.3.4
 _ZNK6KParts7Factory10metaObjectEv@Base 4:4.3.4
 _ZNK6KParts8PartBase10partObjectEv@Base 4:4.3.4
 _ZTCN6KParts10MainWindowE0_13KXmlGuiWindow@Base 4:4.3.4
 _ZTCN6KParts10MainWindowE44_NS_8PartBaseE@Base 4:4.3.4
 _ZTCN6KParts12ReadOnlyPartE0_NS_4PartE@Base 4:4.3.4
 _ZTCN6KParts12ReadOnlyPartE8_NS_8PartBaseE@Base 4:4.3.4
 _ZTCN6KParts13ReadWritePartE0_NS_12ReadOnlyPartE@Base 4:4.3.4
 _ZTCN6KParts13ReadWritePartE0_NS_4PartE@Base 4:4.3.4
 _ZTCN6KParts13ReadWritePartE8_NS_8PartBaseE@Base 4:4.3.4
 _ZTCN6KParts4PartE8_NS_8PartBaseE@Base 4:4.3.4
 _ZTIN6KParts10BrowserRunE@Base 4:4.3.4
 _ZTIN6KParts10MainWindowE@Base 4:4.3.4
 _ZTIN6KParts11PartManagerE@Base 4:4.3.4
 _ZTIN6KParts12OpenUrlEventE@Base 4:4.3.4
 _ZTIN6KParts12ReadOnlyPartE@Base 4:4.3.4
 _ZTIN6KParts13ReadWritePartE@Base 4:4.3.4
 _ZTIN6KParts15HistoryProviderE@Base 4:4.3.4
 _ZTIN6KParts15PartSelectEventE@Base 4:4.3.4
 _ZTIN6KParts16BrowserArgumentsE@Base 4:4.3.4
 _ZTIN6KParts16BrowserExtensionE@Base 4:4.3.4
 _ZTIN6KParts16BrowserInterfaceE@Base 4:4.3.4
 _ZTIN6KParts16GUIActivateEventE@Base 4:4.3.4
 _ZTIN6KParts17PartActivateEventE@Base 4:4.3.4
 _ZTIN6KParts18StatusBarExtensionE@Base 4:4.3.4
 _ZTIN6KParts20BrowserHostExtensionE@Base 4:4.3.4
 _ZTIN6KParts20LiveConnectExtensionE@Base 4:4.3.4
 _ZTIN6KParts4PartE@Base 4:4.3.4
 _ZTIN6KParts5EventE@Base 4:4.3.4
 _ZTIN6KParts6PluginE@Base 4:4.3.4
 _ZTIN6KParts7FactoryE@Base 4:4.3.4
 _ZTIN6KParts8PartBaseE@Base 4:4.3.4
 _ZTSN6KParts10BrowserRunE@Base 4:4.3.4
 _ZTSN6KParts10MainWindowE@Base 4:4.3.4
 _ZTSN6KParts11PartManagerE@Base 4:4.3.4
 _ZTSN6KParts12OpenUrlEventE@Base 4:4.3.4
 _ZTSN6KParts12ReadOnlyPartE@Base 4:4.3.4
 _ZTSN6KParts13ReadWritePartE@Base 4:4.3.4
 _ZTSN6KParts15HistoryProviderE@Base 4:4.3.4
 _ZTSN6KParts15PartSelectEventE@Base 4:4.3.4
 _ZTSN6KParts16BrowserArgumentsE@Base 4:4.3.4
 _ZTSN6KParts16BrowserExtensionE@Base 4:4.3.4
 _ZTSN6KParts16BrowserInterfaceE@Base 4:4.3.4
 _ZTSN6KParts16GUIActivateEventE@Base 4:4.3.4
 _ZTSN6KParts17PartActivateEventE@Base 4:4.3.4
 _ZTSN6KParts18StatusBarExtensionE@Base 4:4.3.4
 _ZTSN6KParts20BrowserHostExtensionE@Base 4:4.3.4
 _ZTSN6KParts20LiveConnectExtensionE@Base 4:4.3.4
 _ZTSN6KParts4PartE@Base 4:4.3.4
 _ZTSN6KParts5EventE@Base 4:4.3.4
 _ZTSN6KParts6PluginE@Base 4:4.3.4
 _ZTSN6KParts7FactoryE@Base 4:4.3.4
 _ZTSN6KParts8PartBaseE@Base 4:4.3.4
 _ZTTN6KParts10MainWindowE@Base 4:4.3.4
 _ZTTN6KParts12ReadOnlyPartE@Base 4:4.3.4
 _ZTTN6KParts13ReadWritePartE@Base 4:4.3.4
 _ZTTN6KParts4PartE@Base 4:4.3.4
 _ZTTN6KParts6PluginE@Base 4:4.3.4
 _ZTTN6KParts8PartBaseE@Base 4:4.3.4
 _ZTVN6KParts10BrowserRunE@Base 4:4.3.4
 _ZTVN6KParts10MainWindowE@Base 4:4.3.4
 _ZTVN6KParts11PartManagerE@Base 4:4.3.4
 _ZTVN6KParts12OpenUrlEventE@Base 4:4.3.4
 _ZTVN6KParts12ReadOnlyPartE@Base 4:4.3.4
 _ZTVN6KParts13ReadWritePartE@Base 4:4.3.4
 _ZTVN6KParts15HistoryProviderE@Base 4:4.3.4
 _ZTVN6KParts15PartSelectEventE@Base 4:4.3.4
 _ZTVN6KParts16BrowserArgumentsE@Base 4:4.3.4
 _ZTVN6KParts16BrowserExtensionE@Base 4:4.3.4
 _ZTVN6KParts16BrowserInterfaceE@Base 4:4.3.4
 _ZTVN6KParts16GUIActivateEventE@Base 4:4.3.4
 _ZTVN6KParts17PartActivateEventE@Base 4:4.3.4
 _ZTVN6KParts18StatusBarExtensionE@Base 4:4.3.4
 _ZTVN6KParts20BrowserHostExtensionE@Base 4:4.3.4
 _ZTVN6KParts20LiveConnectExtensionE@Base 4:4.3.4
 _ZTVN6KParts4PartE@Base 4:4.3.4
 _ZTVN6KParts5EventE@Base 4:4.3.4
 _ZTVN6KParts6PluginE@Base 4:4.3.4
 _ZTVN6KParts7FactoryE@Base 4:4.3.4
 _ZTVN6KParts8PartBaseE@Base 4:4.3.4
 _ZThn24_N6KParts10MainWindowD0Ev@Base 4:4.3.4
 _ZThn24_N6KParts10MainWindowD1Ev@Base 4:4.3.4
 _ZThn8_N6KParts10MainWindowD0Ev@Base 4:4.3.4
 _ZThn8_N6KParts10MainWindowD1Ev@Base 4:4.3.4
 _ZThn8_N6KParts12ReadOnlyPartD0Ev@Base 4:4.3.4
 _ZThn8_N6KParts12ReadOnlyPartD1Ev@Base 4:4.3.4
 _ZThn8_N6KParts13ReadWritePartD0Ev@Base 4:4.3.4
 _ZThn8_N6KParts13ReadWritePartD1Ev@Base 4:4.3.4
 _ZThn8_N6KParts4PartD0Ev@Base 4:4.3.4
 _ZThn8_N6KParts4PartD1Ev@Base 4:4.3.4
 _ZTv0_n12_N6KParts10MainWindowD0Ev@Base 4:4.3.4
 _ZTv0_n12_N6KParts10MainWindowD1Ev@Base 4:4.3.4
 _ZTv0_n12_N6KParts12ReadOnlyPartD0Ev@Base 4:4.3.4
 _ZTv0_n12_N6KParts12ReadOnlyPartD1Ev@Base 4:4.3.4
 _ZTv0_n12_N6KParts13ReadWritePartD0Ev@Base 4:4.3.4
 _ZTv0_n12_N6KParts13ReadWritePartD1Ev@Base 4:4.3.4
 _ZTv0_n12_N6KParts4PartD0Ev@Base 4:4.3.4
 _ZTv0_n12_N6KParts4PartD1Ev@Base 4:4.3.4
 _ZTv0_n12_N6KParts6PluginD0Ev@Base 4:4.3.4
 _ZTv0_n12_N6KParts6PluginD1Ev@Base 4:4.3.4
 _ZTv0_n12_N6KParts8PartBaseD0Ev@Base 4:4.3.4
 _ZTv0_n12_N6KParts8PartBaseD1Ev@Base 4:4.3.4
 _ZTv0_n16_N6KParts10MainWindowD0Ev@Base 4:4.3.4
 _ZTv0_n16_N6KParts10MainWindowD1Ev@Base 4:4.3.4
 _ZTv0_n32_NK6KParts6Plugin7xmlFileEv@Base 4:4.3.4
 _ZTv0_n36_NK6KParts6Plugin12localXMLFileEv@Base 4:4.3.4
 _ZTv0_n40_N6KParts6Plugin16setComponentDataERK14KComponentData@Base 4:4.3.4
 _ZTv0_n40_N6KParts8PartBase16setComponentDataERK14KComponentData@Base 4:4.3.4
