libkio.so.5 libkio5 #MINVER#
* Build-Depends-Package: kdelibs5-dev
 _ZN10KAutoMount11qt_metacallEN11QMetaObject4CallEiPPv@Base 4:4.3.4
 _ZN10KAutoMount11qt_metacastEPKc@Base 4:4.3.4
 _ZN10KAutoMount16staticMetaObjectE@Base 4:4.3.4
 _ZN10KAutoMount5errorEv@Base 4:4.3.4
 _ZN10KAutoMount8finishedEv@Base 4:4.3.4
 _ZN10KAutoMountC1EbRK10QByteArrayRK7QStringS5_S5_b@Base 4:4.3.4
 _ZN10KAutoMountC2EbRK10QByteArrayRK7QStringS5_S5_b@Base 4:4.3.4
 _ZN10KAutoMountD0Ev@Base 4:4.3.4
 _ZN10KAutoMountD1Ev@Base 4:4.3.4
 _ZN10KAutoMountD2Ev@Base 4:4.3.4
 _ZN10KDirLister10deleteItemERK9KFileItem@Base 4:4.3.4
 _ZN10KDirLister10itemsAddedERK4KUrlRK13KFileItemList@Base 4:4.3.4
 _ZN10KDirLister10mainWindowEv@Base 4:4.3.4
 _ZN10KDirLister11emitChangesEv@Base 4:4.3.4
 _ZN10KDirLister11handleErrorEPN3KIO3JobE@Base 4:4.3.4
 _ZN10KDirLister11infoMessageERK7QString@Base 4:4.3.4
 _ZN10KDirLister11qt_metacallEN11QMetaObject4CallEiPPv@Base 4:4.3.4
 _ZN10KDirLister11qt_metacastEPKc@Base 4:4.3.4
 _ZN10KDirLister11redirectionERK4KUrl@Base 4:4.3.4
 _ZN10KDirLister11redirectionERK4KUrlS2_@Base 4:4.3.4
 _ZN10KDirLister12itemsDeletedERK13KFileItemList@Base 4:4.3.4
 _ZN10KDirLister12refreshItemsERK5QListI5QPairI9KFileItemS2_EE@Base 4:4.3.4
 _ZN10KDirLister13processedSizeEy@Base 4:4.3.4
 _ZN10KDirLister13setAutoUpdateEb@Base 4:4.3.4
 _ZN10KDirLister13setMainWindowEP7QWidget@Base 4:4.3.4
 _ZN10KDirLister13setMimeFilterERK11QStringList@Base 4:4.3.4
 _ZN10KDirLister13setNameFilterERK7QString@Base 4:4.3.4
 _ZN10KDirLister14setDirOnlyModeEb@Base 4:4.3.4
 _ZN10KDirLister15clearMimeFilterEv@Base 4:4.3.4
 _ZN10KDirLister15updateDirectoryERK4KUrl@Base 4:4.3.4
 _ZN10KDirLister16cachedItemForUrlERK4KUrl@Base 4:4.3.4
 _ZN10KDirLister16staticMetaObjectE@Base 4:4.3.4
 _ZN10KDirLister18setShowingDotFilesEb@Base 4:4.3.4
 _ZN10KDirLister19itemsFilteredByMimeERK13KFileItemList@Base 4:4.3.4
 _ZN10KDirLister19setDelayedMimeTypesEb@Base 4:4.3.4
 _ZN10KDirLister20setMimeExcludeFilterERK11QStringList@Base 4:4.3.4
 _ZN10KDirLister27setAutoErrorHandlingEnabledEbP7QWidget@Base 4:4.3.4
 _ZN10KDirLister4stopERK4KUrl@Base 4:4.3.4
 _ZN10KDirLister4stopEv@Base 4:4.3.4
 _ZN10KDirLister5clearERK4KUrl@Base 4:4.3.4
 _ZN10KDirLister5clearEv@Base 4:4.3.4
 _ZN10KDirLister5speedEi@Base 4:4.3.4
 _ZN10KDirLister7Private10addNewItemERK4KUrlRK9KFileItem@Base 4:4.3.4
 _ZN10KDirLister7Private10connectJobEPN3KIO7ListJobE@Base 4:4.3.4
 _ZN10KDirLister7Private10jobStartedEPN3KIO7ListJobE@Base 4:4.3.4
 _ZN10KDirLister7Private11addNewItemsERK4KUrlRK13KFileItemList@Base 4:4.3.4
 _ZN10KDirLister7Private11emitChangesEv@Base 4:4.3.4
 _ZN10KDirLister7Private12_k_slotSpeedEP4KJobm@Base 4:4.3.4
 _ZN10KDirLister7Private14CachedItemsJob11qt_metacallEN11QMetaObject4CallEiPPv@Base 4:4.3.4
 _ZN10KDirLister7Private14CachedItemsJob11qt_metacastEPKc@Base 4:4.3.4
 _ZN10KDirLister7Private14CachedItemsJob16staticMetaObjectE@Base 4:4.3.4
 _ZN10KDirLister7Private14CachedItemsJob4doneEv@Base 4:4.3.4
 _ZN10KDirLister7Private14CachedItemsJob6doKillEv@Base 4:4.6.1
 _ZN10KDirLister7Private14CachedItemsJobC1EPS_RK4KUrlb@Base 4:4.6.2
 _ZN10KDirLister7Private14CachedItemsJobC2EPS_RK4KUrlb@Base 4:4.6.2
 _ZN10KDirLister7Private14CachedItemsJobD0Ev@Base 4:4.7.2
 _ZN10KDirLister7Private14CachedItemsJobD1Ev@Base 4:4.7.2
 _ZN10KDirLister7Private14CachedItemsJobD2Ev@Base 4:4.7.2
 _ZN10KDirLister7Private14FilterSettingsC1ERKS1_@Base 4:4.7.4
 _ZN10KDirLister7Private14FilterSettingsC2ERKS1_@Base 4:4.7.4
 _ZN10KDirLister7Private14FilterSettingsaSERKS1_@Base 4:4.7.2
 _ZN10KDirLister7Private14_k_slotPercentEP4KJobm@Base 4:4.3.4
 _ZN10KDirLister7Private14addRefreshItemERK4KUrlRK9KFileItemS6_@Base 4:4.3.4
 _ZN10KDirLister7Private16_k_slotTotalSizeEP4KJoby@Base 4:4.3.4
 _ZN10KDirLister7Private16emitItemsDeletedERK13KFileItemList@Base 4:4.3.4
 _ZN10KDirLister7Private18_k_slotInfoMessageEP4KJobRK7QString@Base 4:4.3.4
 _ZN10KDirLister7Private20_k_slotProcessedSizeEP4KJoby@Base 4:4.3.4
 _ZN10KDirLister7Private7jobDoneEPN3KIO7ListJobE@Base 4:4.3.4
 _ZN10KDirLister7Private7numJobsEv@Base 4:4.3.4
 _ZN10KDirLister7Private8redirectERK4KUrlS3_b@Base 4:4.3.4
 _ZN10KDirLister7Private9emitItemsEv@Base 4:4.3.4
 _ZN10KDirLister7PrivateD1Ev@Base 4:4.7.4
 _ZN10KDirLister7PrivateD2Ev@Base 4:4.7.4
 _ZN10KDirLister7openUrlERK4KUrl6QFlagsINS_11OpenUrlFlagEE@Base 4:4.3.4
 _ZN10KDirLister7percentEi@Base 4:4.3.4
 _ZN10KDirLister7startedERK4KUrl@Base 4:4.3.4
 _ZN10KDirLister8canceledERK4KUrl@Base 4:4.3.4
 _ZN10KDirLister8canceledEv@Base 4:4.3.4
 _ZN10KDirLister8newItemsERK13KFileItemList@Base 4:4.3.4
 _ZN10KDirLister9completedERK4KUrl@Base 4:4.3.4
 _ZN10KDirLister9completedEv@Base 4:4.3.4
 _ZN10KDirLister9totalSizeEy@Base 4:4.3.4
 _ZN10KDirListerC1EP7QObject@Base 4:4.3.4
 _ZN10KDirListerC2EP7QObject@Base 4:4.3.4
 _ZN10KDirListerD0Ev@Base 4:4.3.4
 _ZN10KDirListerD1Ev@Base 4:4.3.4
 _ZN10KDirListerD2Ev@Base 4:4.3.4
 _ZN10KFileShare10nfsEnabledEv@Base 4:4.3.4
 _ZN10KFileShare10readConfigEv@Base 4:4.3.4
 _ZN10KFileShare12isRestrictedEv@Base 4:4.3.4
 _ZN10KFileShare12sambaEnabledEv@Base 4:4.3.4
 _ZN10KFileShare13authorizationEv@Base 4:4.3.4
 _ZN10KFileShare13readShareListEv@Base 4:4.3.4
 _ZN10KFileShare14fileShareGroupEv@Base 4:4.3.4
 _ZN10KFileShare14sharingEnabledEv@Base 4:4.3.4
 _ZN10KFileShare17isDirectorySharedERK7QString@Base 4:4.3.4
 _ZN10KFileShare9setSharedERK7QStringb@Base 4:4.3.4
 _ZN10KFileShare9shareModeEv@Base 4:4.3.4
 _ZN10KOCRDialog11qt_metacallEN11QMetaObject4CallEiPPv@Base 4:4.3.4
 _ZN10KOCRDialog11qt_metacastEPKc@Base 4:4.3.4
 _ZN10KOCRDialog12getOCRDialogEP7QWidget@Base 4:4.3.4
 _ZN10KOCRDialog14textRecognizedERK7QStringi@Base 4:4.3.4
 _ZN10KOCRDialog16staticMetaObjectE@Base 4:4.3.4
 _ZN10KOCRDialog6nextIdEv@Base 4:4.3.4
 _ZN10KOCRDialogC1EiiP7QWidgetb@Base 4:4.3.4
 _ZN10KOCRDialogC2EiiP7QWidgetb@Base 4:4.3.4
 _ZN10KOCRDialogD0Ev@Base 4:4.3.4
 _ZN10KOCRDialogD1Ev@Base 4:4.3.4
 _ZN10KOCRDialogD2Ev@Base 4:4.3.4
 _ZN10KSSLKeyGen10setKeySizeEi@Base 4:4.3.4
 _ZN10KSSLKeyGen11generateCSRERK7QStringS2_ii@Base 4:4.3.4
 _ZN10KSSLKeyGen11qt_metacallEN11QMetaObject4CallEiPPv@Base 4:4.3.4
 _ZN10KSSLKeyGen11qt_metacastEPKc@Base 4:4.3.4
 _ZN10KSSLKeyGen16staticMetaObjectE@Base 4:4.3.4
 _ZN10KSSLKeyGen17supportedKeySizesEv@Base 4:4.3.4
 _ZN10KSSLKeyGen19validateCurrentPageEv@Base 4:4.3.4
 _ZN10KSSLKeyGenC1EP7QWidget@Base 4:4.3.4
 _ZN10KSSLKeyGenC2EP7QWidget@Base 4:4.3.4
 _ZN10KSSLKeyGenD0Ev@Base 4:4.3.4
 _ZN10KSSLKeyGenD1Ev@Base 4:4.3.4
 _ZN10KSSLKeyGenD2Ev@Base 4:4.3.4
 _ZN10KSSLX509V3C1Ev@Base 4:4.3.4
 _ZN10KSSLX509V3C2Ev@Base 4:4.3.4
 _ZN10KSSLX509V3D1Ev@Base 4:4.3.4
 _ZN10KSSLX509V3D2Ev@Base 4:4.3.4
 _ZN10KUriFilter11filteredUriERK4KUrlRK11QStringList@Base 4:4.3.4
 _ZN10KUriFilter11filteredUriERK7QStringRK11QStringList@Base 4:4.3.4
 _ZN10KUriFilter11loadPluginsEv@Base 4:4.3.4
 _ZN10KUriFilter15filterSearchUriER14KUriFilterData6QFlagsINS_16SearchFilterTypeEE@Base 4:4.5.85
 _ZN10KUriFilter15filterSearchUriER14KUriFilterData@Base 4:4.4.95
 _ZN10KUriFilter4selfEv@Base 4:4.3.4
 _ZN10KUriFilter9filterUriER14KUriFilterDataRK11QStringList@Base 4:4.3.4
 _ZN10KUriFilter9filterUriER4KUrlRK11QStringList@Base 4:4.3.4
 _ZN10KUriFilter9filterUriER7QStringRK11QStringList@Base 4:4.3.4
 _ZN10KUriFilterC1Ev@Base 4:4.3.4
 _ZN10KUriFilterC2Ev@Base 4:4.3.4
 _ZN10KUriFilterD1Ev@Base 4:4.3.4
 _ZN10KUriFilterD2Ev@Base 4:4.3.4
 _ZN11KFileDialog10fileWidgetEv@Base 4:4.3.4
 _ZN11KFileDialog10getOpenUrlERK4KUrlRK7QStringP7QWidgetS5_@Base 4:4.3.4
 _ZN11KFileDialog10getSaveUrlERK4KUrlRK7QStringP7QWidgetS5_6QFlagsINS_6OptionEE@Base 4:4.4.0
 _ZN11KFileDialog10getSaveUrlERK4KUrlRK7QStringP7QWidgetS5_@Base 4:4.3.4
 _ZN11KFileDialog10slotCancelEv@Base 4:4.3.4
 _ZN11KFileDialog11clearFilterEv@Base 4:4.3.4
 _ZN11KFileDialog11getOpenUrlsERK4KUrlRK7QStringP7QWidgetS5_@Base 4:4.3.4
 _ZN11KFileDialog11getStartUrlERK4KUrlR7QString@Base 4:4.3.4
 _ZN11KFileDialog11qt_metacallEN11QMetaObject4CallEiPPv@Base 4:4.3.4
 _ZN11KFileDialog11qt_metacastEPKc@Base 4:4.3.4
 _ZN11KFileDialog11setStartDirERK4KUrl@Base 4:4.3.4
 _ZN11KFileDialog12fileSelectedERK4KUrl@Base 4:4.4.0
 _ZN11KFileDialog12fileSelectedERK7QString@Base 4:4.3.4
 _ZN11KFileDialog12setSelectionERK7QString@Base 4:4.3.4
 _ZN11KFileDialog13filterChangedERK7QString@Base 4:4.3.4
 _ZN11KFileDialog13keyPressEventEP9QKeyEvent@Base 4:4.3.4
 _ZN11KFileDialog13setMimeFilterERK11QStringListRK7QString@Base 4:4.3.4
 _ZN11KFileDialog15fileHighlightedERK4KUrl@Base 4:4.4.0
 _ZN11KFileDialog15fileHighlightedERK7QString@Base 4:4.3.4
 _ZN11KFileDialog15getImageOpenUrlERK4KUrlP7QWidgetRK7QString@Base 4:4.3.4
 _ZN11KFileDialog15getOpenFileNameERK4KUrlRK7QStringP7QWidgetS5_@Base 4:4.3.4
 _ZN11KFileDialog15getSaveFileNameERK4KUrlRK7QStringP7QWidgetS5_6QFlagsINS_6OptionEE@Base 4:4.4.0
 _ZN11KFileDialog15getSaveFileNameERK4KUrlRK7QStringP7QWidgetS5_@Base 4:4.3.4
 _ZN11KFileDialog15setKeepLocationEb@Base 4:4.3.4
 _ZN11KFileDialog16getOpenFileNamesERK4KUrlRK7QStringP7QWidgetS5_@Base 4:4.3.4
 _ZN11KFileDialog16selectionChangedEv@Base 4:4.3.4
 _ZN11KFileDialog16setLocationLabelERK7QString@Base 4:4.3.4
 _ZN11KFileDialog16setOperationModeENS_13OperationModeE@Base 4:4.3.4
 _ZN11KFileDialog16setPreviewWidgetEP18KPreviewWidgetBase@Base 4:4.3.4
 _ZN11KFileDialog16staticMetaObjectE@Base 4:4.3.4
 _ZN11KFileDialog18getOpenFileNameWIdERK4KUrlRK7QStringmS5_@Base 4:4.3.4
 _ZN11KFileDialog18getSaveFileNameWIdERK4KUrlRK7QStringmS5_6QFlagsINS_6OptionEE@Base 4:4.4.0
 _ZN11KFileDialog18getSaveFileNameWIdERK4KUrlRK7QStringmS5_@Base 4:4.3.4
 _ZN11KFileDialog19setConfirmOverwriteEb@Base 4:4.3.4
 _ZN11KFileDialog20getExistingDirectoryERK4KUrlP7QWidgetRK7QString@Base 4:4.3.4
 _ZN11KFileDialog21currentFilterMimeTypeEv@Base 4:4.3.4
 _ZN11KFileDialog21setInlinePreviewShownEb@Base 4:4.3.4
 _ZN11KFileDialog23getExistingDirectoryUrlERK4KUrlP7QWidgetRK7QString@Base 4:4.3.4
 _ZN11KFileDialog6acceptEv@Base 4:4.3.4
 _ZN11KFileDialog6setUrlERK4KUrlb@Base 4:4.3.4
 _ZN11KFileDialog6slotOkEv@Base 4:4.3.4
 _ZN11KFileDialog7setModeE6QFlagsIN5KFile4ModeEE@Base 4:4.3.4
 _ZN11KFileDialog9hideEventEP10QHideEvent@Base 4:4.3.4
 _ZN11KFileDialog9setFilterERK7QString@Base 4:4.3.4
 _ZN11KFileDialogC1ERK4KUrlRK7QStringP7QWidgetS7_@Base 4:4.3.4
 _ZN11KFileDialogC2ERK4KUrlRK7QStringP7QWidgetS7_@Base 4:4.3.4
 _ZN11KFileDialogD0Ev@Base 4:4.3.4
 _ZN11KFileDialogD1Ev@Base 4:4.3.4
 _ZN11KFileDialogD2Ev@Base 4:4.3.4
 _ZN11KIconButton11iconChangedERK7QString@Base 4:4.3.4
 _ZN11KIconButton11qt_metacallEN11QMetaObject4CallEiPPv@Base 4:4.3.4
 _ZN11KIconButton11qt_metacastEPKc@Base 4:4.3.4
 _ZN11KIconButton11setIconSizeEi@Base 4:4.3.4
 _ZN11KIconButton11setIconTypeEN11KIconLoader5GroupENS0_7ContextEb@Base 4:4.3.4
 _ZN11KIconButton16staticMetaObjectE@Base 4:4.3.4
 _ZN11KIconButton17setButtonIconSizeEi@Base 4:4.3.4
 _ZN11KIconButton17setStrictIconSizeEb@Base 4:4.3.4
 _ZN11KIconButton18KIconButtonPrivate14_k_newIconNameERK7QString@Base 4:4.3.4
 _ZN11KIconButton18KIconButtonPrivate17_k_slotChangeIconEv@Base 4:4.3.4
 _ZN11KIconButton18KIconButtonPrivateC1EPS_P11KIconLoader@Base 4:4.3.4
 _ZN11KIconButton18KIconButtonPrivateC2EPS_P11KIconLoader@Base 4:4.3.4
 _ZN11KIconButton18KIconButtonPrivateD1Ev@Base 4:4.3.4
 _ZN11KIconButton18KIconButtonPrivateD2Ev@Base 4:4.3.4
 _ZN11KIconButton7setIconERK5QIcon@Base 4:4.3.4
 _ZN11KIconButton7setIconERK7QString@Base 4:4.3.4
 _ZN11KIconButton9resetIconEv@Base 4:4.3.4
 _ZN11KIconButtonC1EP11KIconLoaderP7QWidget@Base 4:4.3.4
 _ZN11KIconButtonC1EP7QWidget@Base 4:4.3.4
 _ZN11KIconButtonC2EP11KIconLoaderP7QWidget@Base 4:4.3.4
 _ZN11KIconButtonC2EP7QWidget@Base 4:4.3.4
 _ZN11KIconButtonD0Ev@Base 4:4.3.4
 _ZN11KIconButtonD1Ev@Base 4:4.3.4
 _ZN11KIconButtonD2Ev@Base 4:4.3.4
 _ZN11KIconCanvas11nameChangedERK7QString@Base 4:4.3.4
 _ZN11KIconCanvas11qt_metacallEN11QMetaObject4CallEiPPv@Base 4:4.3.4
 _ZN11KIconCanvas11qt_metacastEPKc@Base 4:4.3.4
 _ZN11KIconCanvas11stopLoadingEv@Base 4:4.3.4
 _ZN11KIconCanvas12startLoadingEi@Base 4:4.3.4
 _ZN11KIconCanvas16staticMetaObjectE@Base 4:4.3.4
 _ZN11KIconCanvas18KIconCanvasPrivate16_k_slotLoadFilesEv@Base 4:4.3.4
 _ZN11KIconCanvas18KIconCanvasPrivate21_k_slotCurrentChangedEP15QListWidgetItem@Base 4:4.3.4
 _ZN11KIconCanvas8finishedEv@Base 4:4.3.4
 _ZN11KIconCanvas8progressEi@Base 4:4.3.4
 _ZN11KIconCanvas9loadFilesERK11QStringList@Base 4:4.3.4
 _ZN11KIconCanvasC1EP7QWidget@Base 4:4.3.4
 _ZN11KIconCanvasC2EP7QWidget@Base 4:4.3.4
 _ZN11KIconCanvasD0Ev@Base 4:4.3.4
 _ZN11KIconCanvasD1Ev@Base 4:4.3.4
 _ZN11KIconCanvasD2Ev@Base 4:4.3.4
 _ZN11KIconDialog10openDialogEv@Base 4:4.3.4
 _ZN11KIconDialog10showDialogEv@Base 4:4.3.4
 _ZN11KIconDialog11newIconNameERK7QString@Base 4:4.3.4
 _ZN11KIconDialog11qt_metacallEN11QMetaObject4CallEiPPv@Base 4:4.3.4
 _ZN11KIconDialog11qt_metacastEPKc@Base 4:4.3.4
 _ZN11KIconDialog11setIconSizeEi@Base 4:4.3.4
 _ZN11KIconDialog16staticMetaObjectE@Base 4:4.3.4
 _ZN11KIconDialog17setCustomLocationERK7QString@Base 4:4.3.4
 _ZN11KIconDialog17setStrictIconSizeEb@Base 4:4.3.4
 _ZN11KIconDialog18KIconDialogPrivate10setContextEN11KIconLoader7ContextE@Base 4:4.3.4
 _ZN11KIconDialog18KIconDialogPrivate13_k_slotBrowseEv@Base 4:4.3.4
 _ZN11KIconDialog18KIconDialogPrivate14_k_slotContextEi@Base 4:4.3.4
 _ZN11KIconDialog18KIconDialogPrivate15_k_slotFinishedEv@Base 4:4.3.4
 _ZN11KIconDialog18KIconDialogPrivate15_k_slotProgressEi@Base 4:4.3.4
 _ZN11KIconDialog18KIconDialogPrivate18_k_slotAcceptIconsEv@Base 4:4.3.4
 _ZN11KIconDialog18KIconDialogPrivate19_k_slotStartLoadingEi@Base 4:4.3.4
 _ZN11KIconDialog18KIconDialogPrivate23_k_slotOtherIconClickedEv@Base 4:4.3.4
 _ZN11KIconDialog18KIconDialogPrivate24_k_slotSystemIconClickedEv@Base 4:4.3.4
 _ZN11KIconDialog18KIconDialogPrivate4initEv@Base 4:4.3.4
 _ZN11KIconDialog18KIconDialogPrivate9showIconsEv@Base 4:4.3.4
 _ZN11KIconDialog5setupEN11KIconLoader5GroupENS0_7ContextEbibbb@Base 4:4.3.4
 _ZN11KIconDialog6slotOkEv@Base 4:4.3.4
 _ZN11KIconDialog7getIconEN11KIconLoader5GroupENS0_7ContextEbibP7QWidgetRK7QString@Base 4:4.3.4
 _ZN11KIconDialogC1EP11KIconLoaderP7QWidget@Base 4:4.3.4
 _ZN11KIconDialogC1EP7QWidget@Base 4:4.3.4
 _ZN11KIconDialogC2EP11KIconLoaderP7QWidget@Base 4:4.3.4
 _ZN11KIconDialogC2EP7QWidget@Base 4:4.3.4
 _ZN11KIconDialogD0Ev@Base 4:4.3.4
 _ZN11KIconDialogD1Ev@Base 4:4.3.4
 _ZN11KIconDialogD2Ev@Base 4:4.3.4
 _ZN11KRecentDirs3addERK7QStringS2_@Base 4:4.3.4
 _ZN11KRecentDirs3dirERK7QString@Base 4:4.3.4
 _ZN11KRecentDirs4listERK7QString@Base 4:4.3.4
 _ZN11KSambaShare11qt_metacallEN11QMetaObject4CallEiPPv@Base 4:4.3.4
 _ZN11KSambaShare11qt_metacastEPKc@Base 4:4.3.4
 _ZN11KSambaShare16staticMetaObjectE@Base 4:4.3.4
 _ZN11KSambaShare7changedEv@Base 4:4.3.4
 _ZN11KSambaShare8instanceEv@Base 4:4.3.4
 _ZN11KSambaShareC1Ev@Base 4:4.3.4
 _ZN11KSambaShareC2Ev@Base 4:4.3.4
 _ZN11KSambaShareD0Ev@Base 4:4.3.4
 _ZN11KSambaShareD1Ev@Base 4:4.3.4
 _ZN11KSambaShareD2Ev@Base 4:4.3.4
 _ZN11KScanDialog10finalImageERK6QImagei@Base 4:4.3.4
 _ZN11KScanDialog11qt_metacallEN11QMetaObject4CallEiPPv@Base 4:4.3.4
 _ZN11KScanDialog11qt_metacastEPKc@Base 4:4.3.4
 _ZN11KScanDialog13getScanDialogEP7QWidget@Base 4:4.3.4
 _ZN11KScanDialog14textRecognizedERK7QStringi@Base 4:4.3.4
 _ZN11KScanDialog16staticMetaObjectE@Base 4:4.3.4
 _ZN11KScanDialog5setupEv@Base 4:4.3.4
 _ZN11KScanDialog6nextIdEv@Base 4:4.3.4
 _ZN11KScanDialog7previewERK6QImagei@Base 4:4.3.4
 _ZN11KScanDialogC1EiiP7QWidget@Base 4:4.3.4
 _ZN11KScanDialogC2EiiP7QWidget@Base 4:4.3.4
 _ZN11KScanDialogD0Ev@Base 4:4.3.4
 _ZN11KScanDialogD1Ev@Base 4:4.3.4
 _ZN11KScanDialogD2Ev@Base 4:4.3.4
 _ZN12KAutoUnmount11qt_metacallEN11QMetaObject4CallEiPPv@Base 4:4.3.4
 _ZN12KAutoUnmount11qt_metacastEPKc@Base 4:4.3.4
 _ZN12KAutoUnmount16staticMetaObjectE@Base 4:4.3.4
 _ZN12KAutoUnmount5errorEv@Base 4:4.3.4
 _ZN12KAutoUnmount8finishedEv@Base 4:4.3.4
 _ZN12KAutoUnmountC1ERK7QStringS2_@Base 4:4.3.4
 _ZN12KAutoUnmountC2ERK7QStringS2_@Base 4:4.3.4
 _ZN12KAutoUnmountD0Ev@Base 4:4.3.4
 _ZN12KAutoUnmountD1Ev@Base 4:4.3.4
 _ZN12KAutoUnmountD2Ev@Base 4:4.3.4
 _ZN12KConfigGroup10writeEntryIbEEvPKcRKT_6QFlagsIN11KConfigBase15WriteConfigFlagEE@Base 4:4.6.2
 _ZN12KSSLSettings10getEGDPathEv@Base 4:4.3.4
 _ZN12KSSLSettings13getCipherListEv@Base 4:4.3.4
 _ZN12KSSLSettings14setWarnOnEnterEb@Base 4:4.3.4
 _ZN12KSSLSettings14setWarnOnLeaveEb@Base 4:4.3.4
 _ZN12KSSLSettings20setWarnOnUnencryptedEb@Base 4:4.3.4
 _ZN12KSSLSettings4loadEv@Base 4:4.3.4
 _ZN12KSSLSettings4saveEv@Base 4:4.3.4
 _ZN12KSSLSettings8defaultsEv@Base 4:4.3.4
 _ZN12KSSLSettingsC1Eb@Base 4:4.3.4
 _ZN12KSSLSettingsC2Eb@Base 4:4.3.4
 _ZN12KSSLSettingsD1Ev@Base 4:4.3.4
 _ZN12KSSLSettingsD2Ev@Base 4:4.3.4
 _ZN12KUrlComboBox11qt_metacallEN11QMetaObject4CallEiPPv@Base 4:4.3.4
 _ZN12KUrlComboBox11qt_metacastEPKc@Base 4:4.3.4
 _ZN12KUrlComboBox11setDefaultsEv@Base 4:4.3.4
 _ZN12KUrlComboBox11setMaxItemsEi@Base 4:4.3.4
 _ZN12KUrlComboBox12urlActivatedERK4KUrl@Base 4:4.3.4
 _ZN12KUrlComboBox13addDefaultUrlERK4KUrlRK5QIconRK7QString@Base 4:4.3.4
 _ZN12KUrlComboBox13addDefaultUrlERK4KUrlRK7QString@Base 4:4.3.4
 _ZN12KUrlComboBox14mouseMoveEventEP11QMouseEvent@Base 4:4.3.4
 _ZN12KUrlComboBox15mousePressEventEP11QMouseEvent@Base 4:4.3.4
 _ZN12KUrlComboBox16staticMetaObjectE@Base 4:4.3.4
 _ZN12KUrlComboBox19KUrlComboBoxPrivate10updateItemEPKNS0_13KUrlComboItemEiRK5QIcon@Base 4:4.3.4
 _ZN12KUrlComboBox19KUrlComboBoxPrivate13insertUrlItemEPKNS0_13KUrlComboItemE@Base 4:4.3.4
 _ZN12KUrlComboBox19KUrlComboBoxPrivate16_k_slotActivatedEi@Base 4:4.3.4
 _ZN12KUrlComboBox19KUrlComboBoxPrivate4initENS_4ModeE@Base 4:4.3.4
 _ZN12KUrlComboBox19setCompletionObjectEP11KCompletionb@Base 4:4.3.4
 _ZN12KUrlComboBox6setUrlERK4KUrl@Base 4:4.3.4
 _ZN12KUrlComboBox7setUrlsERK11QStringList@Base 4:4.3.4
 _ZN12KUrlComboBox7setUrlsERK11QStringListNS_17OverLoadResolvingE@Base 4:4.3.4
 _ZN12KUrlComboBox9removeUrlERK4KUrlb@Base 4:4.3.4
 _ZN12KUrlComboBoxC1ENS_4ModeEP7QWidget@Base 4:4.3.4
 _ZN12KUrlComboBoxC1ENS_4ModeEbP7QWidget@Base 4:4.3.4
 _ZN12KUrlComboBoxC2ENS_4ModeEP7QWidget@Base 4:4.3.4
 _ZN12KUrlComboBoxC2ENS_4ModeEbP7QWidget@Base 4:4.3.4
 _ZN12KUrlComboBoxD0Ev@Base 4:4.3.4
 _ZN12KUrlComboBoxD1Ev@Base 4:4.3.4
 _ZN12KUrlComboBoxD2Ev@Base 4:4.3.4
 _ZN12ThumbCreatorD0Ev@Base 4:4.3.4
 _ZN12ThumbCreatorD1Ev@Base 4:4.3.4
 _ZN12ThumbCreatorD2Ev@Base 4:4.3.4
 _ZN13KBookmarkMenu10addActionsEv@Base 4:4.3.4
 _ZN13KBookmarkMenu11contextMenuEP7QAction@Base 4:4.3.4
 _ZN13KBookmarkMenu11qt_metacallEN11QMetaObject4CallEiPPv@Base 4:4.3.4
 _ZN13KBookmarkMenu11qt_metacastEPKc@Base 4:4.3.4
 _ZN13KBookmarkMenu12addNewFolderEv@Base 4:4.3.4
 _ZN13KBookmarkMenu13addOpenInTabsEv@Base 4:4.3.4
 _ZN13KBookmarkMenu13fillBookmarksEv@Base 4:4.3.4
 _ZN13KBookmarkMenu13slotNewFolderEv@Base 4:4.3.4
 _ZN13KBookmarkMenu14addAddBookmarkEv@Base 4:4.3.4
 _ZN13KBookmarkMenu14ensureUpToDateEv@Base 4:4.3.4
 _ZN13KBookmarkMenu15slotAboutToShowEv@Base 4:4.3.4
 _ZN13KBookmarkMenu15slotAddBookmarkEv@Base 4:4.3.4
 _ZN13KBookmarkMenu16addEditBookmarksEv@Base 4:4.3.4
 _ZN13KBookmarkMenu16staticMetaObjectE@Base 4:4.3.4
 _ZN13KBookmarkMenu17actionForBookmarkERK9KBookmark@Base 4:4.3.4
 _ZN13KBookmarkMenu19addAddBookmarksListEv@Base 4:4.3.4
 _ZN13KBookmarkMenu20slotAddBookmarksListEv@Base 4:4.3.4
 _ZN13KBookmarkMenu20slotBookmarksChangedERK7QString@Base 4:4.3.4
 _ZN13KBookmarkMenu20slotOpenFolderInTabsEv@Base 4:4.3.4
 _ZN13KBookmarkMenu21slotCustomContextMenuERK6QPoint@Base 4:4.3.4
 _ZN13KBookmarkMenu5clearEv@Base 4:4.3.4
 _ZN13KBookmarkMenu6refillEv@Base 4:4.3.4
 _ZN13KBookmarkMenuC1EP16KBookmarkManagerP14KBookmarkOwnerP5KMenuP17KActionCollection@Base 4:4.3.4
 _ZN13KBookmarkMenuC1EP16KBookmarkManagerP14KBookmarkOwnerP5KMenuRK7QString@Base 4:4.3.4
 _ZN13KBookmarkMenuC2EP16KBookmarkManagerP14KBookmarkOwnerP5KMenuP17KActionCollection@Base 4:4.3.4
 _ZN13KBookmarkMenuC2EP16KBookmarkManagerP14KBookmarkOwnerP5KMenuRK7QString@Base 4:4.3.4
 _ZN13KBookmarkMenuD0Ev@Base 4:4.3.4
 _ZN13KBookmarkMenuD1Ev@Base 4:4.3.4
 _ZN13KBookmarkMenuD2Ev@Base 4:4.3.4
 _ZN13KDataToolInfo5queryERK7QStringS2_RK14KComponentData@Base 4:4.3.4
 _ZN13KDataToolInfoC1ERK10KSharedPtrI8KServiceERK14KComponentData@Base 4:4.3.4
 _ZN13KDataToolInfoC1ERKS_@Base 4:4.3.4
 _ZN13KDataToolInfoC1Ev@Base 4:4.3.4
 _ZN13KDataToolInfoC2ERK10KSharedPtrI8KServiceERK14KComponentData@Base 4:4.3.4
 _ZN13KDataToolInfoC2ERKS_@Base 4:4.3.4
 _ZN13KDataToolInfoC2Ev@Base 4:4.3.4
 _ZN13KDataToolInfoD1Ev@Base 4:4.3.4
 _ZN13KDataToolInfoD2Ev@Base 4:4.3.4
 _ZN13KDataToolInfoaSERKS_@Base 4:4.3.4
 _ZN13KFileItemListC1ERK5QListI9KFileItemE@Base 4:4.3.4
 _ZN13KFileItemListC1Ev@Base 4:4.3.4
 _ZN13KFileItemListC2ERK5QListI9KFileItemE@Base 4:4.3.4
 _ZN13KFileItemListC2Ev@Base 4:4.3.4
 _ZN13KFileMetaInfo12applyChangesEv@Base 4:4.3.4
 _ZN13KFileMetaInfo4itemERK7QString@Base 4:4.3.4
 _ZN13KFileMetaInfoC1ERK4KUrl@Base 4:4.3.4
 _ZN13KFileMetaInfoC1ERK7QStringS2_6QFlagsINS_4WhatEE@Base 4:4.3.4
 _ZN13KFileMetaInfoC1ERKS_@Base 4:4.3.4
 _ZN13KFileMetaInfoC1Ev@Base 4:4.3.4
 _ZN13KFileMetaInfoC2ERK4KUrl@Base 4:4.3.4
 _ZN13KFileMetaInfoC2ERK7QStringS2_6QFlagsINS_4WhatEE@Base 4:4.3.4
 _ZN13KFileMetaInfoC2ERKS_@Base 4:4.3.4
 _ZN13KFileMetaInfoC2Ev@Base 4:4.3.4
 _ZN13KFileMetaInfoD1Ev@Base 4:4.3.4
 _ZN13KFileMetaInfoD2Ev@Base 4:4.3.4
 _ZN13KFileMetaInfoaSERKS_@Base 4:4.3.4
 _ZN13KSSLCertChain12setCertChainERK11QStringList@Base 4:4.3.4
 _ZN13KSSLCertChain5depthEv@Base 4:4.3.4
 _ZN13KSSLCertChain7isValidEv@Base 4:4.3.4
 _ZN13KSSLCertChain8rawChainEv@Base 4:4.3.4
 _ZN13KSSLCertChain8setChainEPv@Base 4:4.3.4
 _ZN13KSSLCertChain8setChainERK5QListIP15KSSLCertificateE@Base 4:4.3.4
 _ZN13KSSLCertChain9replicateEv@Base 4:4.3.4
 _ZN13KSSLCertChainC1Ev@Base 4:4.3.4
 _ZN13KSSLCertChainC2Ev@Base 4:4.3.4
 _ZN13KSSLCertChainD1Ev@Base 4:4.3.4
 _ZN13KSSLCertChainD2Ev@Base 4:4.3.4
 _ZN13KUrlRequester11changeEventEP6QEvent@Base 4:4.3.4
 _ZN13KUrlRequester11eventFilterEP7QObjectP6QEvent@Base 4:4.3.4
 _ZN13KUrlRequester11qt_metacallEN11QMetaObject4CallEiPPv@Base 4:4.3.4
 _ZN13KUrlRequester11qt_metacastEPKc@Base 4:4.3.4
 _ZN13KUrlRequester11setStartDirERK4KUrl@Base 4:4.3.4
 _ZN13KUrlRequester11textChangedERK7QString@Base 4:4.3.4
 _ZN13KUrlRequester11urlSelectedERK4KUrl@Base 4:4.3.4
 _ZN13KUrlRequester12customEditorEv@Base 4:4.3.4
 _ZN13KUrlRequester13returnPressedERK7QString@Base 4:4.3.4
 _ZN13KUrlRequester13returnPressedEv@Base 4:4.3.4
 _ZN13KUrlRequester14openFileDialogEPS_@Base 4:4.3.4
 _ZN13KUrlRequester15setClickMessageERK7QString@Base 4:4.3.4
 _ZN13KUrlRequester16staticMetaObjectE@Base 4:4.3.4
 _ZN13KUrlRequester20KUrlRequesterPrivate16_k_slotUpdateUrlEv@Base 4:4.3.4
 _ZN13KUrlRequester20KUrlRequesterPrivate17_k_slotOpenDialogEv@Base 4:4.3.4
 _ZN13KUrlRequester20KUrlRequesterPrivate25_k_slotFileDialogFinishedEv@Base 4:4.4.0
 _ZN13KUrlRequester20KUrlRequesterPrivate4initEv@Base 4:4.3.4
 _ZN13KUrlRequester21setFileDialogModalityEN2Qt14WindowModalityE@Base 4:4.4.0
 _ZN13KUrlRequester5clearEv@Base 4:4.3.4
 _ZN13KUrlRequester6setUrlERK4KUrl@Base 4:4.3.4
 _ZN13KUrlRequester7setModeE6QFlagsIN5KFile4ModeEE@Base 4:4.3.4
 _ZN13KUrlRequester7setPathERK7QString@Base 4:4.3.4
 _ZN13KUrlRequester7setTextERK7QString@Base 4:4.3.4
 _ZN13KUrlRequester9setFilterERK7QString@Base 4:4.3.4
 _ZN13KUrlRequesterC1EP7QWidget@Base 4:4.3.4
 _ZN13KUrlRequesterC1EP7QWidgetS1_@Base 4:4.3.4
 _ZN13KUrlRequesterC1ERK4KUrlP7QWidget@Base 4:4.3.4
 _ZN13KUrlRequesterC2EP7QWidget@Base 4:4.3.4
 _ZN13KUrlRequesterC2EP7QWidgetS1_@Base 4:4.3.4
 _ZN13KUrlRequesterC2ERK4KUrlP7QWidget@Base 4:4.3.4
 _ZN13KUrlRequesterD0Ev@Base 4:4.3.4
 _ZN13KUrlRequesterD1Ev@Base 4:4.3.4
 _ZN13KUrlRequesterD2Ev@Base 4:4.3.4
 _ZN14KBookmarkGroup11addBookmarkERK7QStringRK4KUrlS2_@Base 4:4.3.4
 _ZN14KBookmarkGroup11addBookmarkERK9KBookmark@Base 4:4.3.4
 _ZN14KBookmarkGroup12moveBookmarkERK9KBookmarkS2_@Base 4:4.3.4
 _ZN14KBookmarkGroup14deleteBookmarkERK9KBookmark@Base 4:4.3.4
 _ZN14KBookmarkGroup15createNewFolderERK7QString@Base 4:4.3.4
 _ZN14KBookmarkGroup18createNewSeparatorEv@Base 4:4.3.4
 _ZN14KBookmarkGroup8moveItemERK9KBookmarkS2_@Base 4:4.3.4
 _ZN14KBookmarkGroupC1ERK11QDomElement@Base 4:4.3.4
 _ZN14KBookmarkGroupC1Ev@Base 4:4.3.4
 _ZN14KBookmarkGroupC2ERK11QDomElement@Base 4:4.3.4
 _ZN14KBookmarkGroupC2Ev@Base 4:4.3.4
 _ZN14KBookmarkOwner14bookmarkDialogEP16KBookmarkManagerP7QWidget@Base 4:4.3.4
 _ZN14KBookmarkOwner16openFolderinTabsERK14KBookmarkGroup@Base 4:4.3.4
 _ZN14KDiskFreeSpace11qt_metacallEN11QMetaObject4CallEiPPv@Base 4:4.3.4
 _ZN14KDiskFreeSpace11qt_metacastEPKc@Base 4:4.3.4
 _ZN14KDiskFreeSpace13findUsageInfoERK7QString@Base 4:4.3.4
 _ZN14KDiskFreeSpace15foundMountPointERK7QStringyyy@Base 4:4.3.4
 _ZN14KDiskFreeSpace16staticMetaObjectE@Base 4:4.3.4
 _ZN14KDiskFreeSpace4doneEv@Base 4:4.3.4
 _ZN14KDiskFreeSpace6readDFERK7QString@Base 4:4.3.4
 _ZN14KDiskFreeSpace7Private21_k_calculateFreeSpaceEv@Base 4:4.3.4
 _ZN14KDiskFreeSpaceC1EP7QObject@Base 4:4.3.4
 _ZN14KDiskFreeSpaceC2EP7QObject@Base 4:4.3.4
 _ZN14KDiskFreeSpaceD0Ev@Base 4:4.3.4
 _ZN14KDiskFreeSpaceD1Ev@Base 4:4.3.4
 _ZN14KDiskFreeSpaceD2Ev@Base 4:4.3.4
 _ZN14KEMailSettings10setDefaultERK7QString@Base 4:4.3.4
 _ZN14KEMailSettings10setProfileERK7QString@Base 4:4.3.4
 _ZN14KEMailSettings10setSettingENS_7SettingERK7QString@Base 4:4.3.4
 _ZN14KEMailSettingsC1Ev@Base 4:4.3.4
 _ZN14KEMailSettingsC2Ev@Base 4:4.3.4
 _ZN14KEMailSettingsD1Ev@Base 4:4.3.4
 _ZN14KEMailSettingsD2Ev@Base 4:4.3.4
 _ZN14KSslInfoDialog10setSslInfoERK5QListI15QSslCertificateERK7QStringS7_S7_S7_iiRKS0_IS0_IN9KSslError5ErrorEEE@Base 4:4.3.4
 _ZN14KSslInfoDialog11qt_metacallEN11QMetaObject4CallEiPPv@Base 4:4.3.4
 _ZN14KSslInfoDialog11qt_metacastEPKc@Base 4:4.3.4
 _ZN14KSslInfoDialog12launchConfigEv@Base 4:4.3.4
 _ZN14KSslInfoDialog16displayFromChainEi@Base 4:4.3.4
 _ZN14KSslInfoDialog16errorsFromStringERK7QString@Base 4:4.3.4
 _ZN14KSslInfoDialog16staticMetaObjectE@Base 4:4.3.4
 _ZN14KSslInfoDialog20setMainPartEncryptedEb@Base 4:4.3.4
 _ZN14KSslInfoDialog25updateWhichPartsEncryptedEv@Base 4:4.3.4
 _ZN14KSslInfoDialog26setAuxiliaryPartsEncryptedEb@Base 4:4.3.4
 _ZN14KSslInfoDialogC1EP7QWidget@Base 4:4.3.4
 _ZN14KSslInfoDialogC2EP7QWidget@Base 4:4.3.4
 _ZN14KSslInfoDialogD0Ev@Base 4:4.3.4
 _ZN14KSslInfoDialogD1Ev@Base 4:4.3.4
 _ZN14KSslInfoDialogD2Ev@Base 4:4.3.4
 _ZN14KUriFilterData15setAbsolutePathERK7QString@Base 4:4.3.4
 _ZN14KUriFilterData19setDefaultUrlSchemeERK7QString@Base 4:4.5.85
 _ZN14KUriFilterData22setCheckForExecutablesEb@Base 4:4.3.4
 _ZN14KUriFilterData25setSearchFilteringOptionsE6QFlagsINS_18SearchFilterOptionEE@Base 4:4.5.85
 _ZN14KUriFilterData27setAlternateSearchProvidersERK11QStringList@Base 4:4.4.95
 _ZN14KUriFilterData33setAlternateDefaultSearchProviderERK7QString@Base 4:4.4.95
 _ZN14KUriFilterData7setDataERK4KUrl@Base 4:4.3.4
 _ZN14KUriFilterData7setDataERK7QString@Base 4:4.3.4
 _ZN14KUriFilterData8iconNameEv@Base 4:4.3.4
 _ZN14KUriFilterDataC1ERK4KUrl@Base 4:4.3.4
 _ZN14KUriFilterDataC1ERK7QString@Base 4:4.3.4
 _ZN14KUriFilterDataC1ERKS_@Base 4:4.3.4
 _ZN14KUriFilterDataC1Ev@Base 4:4.3.4
 _ZN14KUriFilterDataC2ERK4KUrl@Base 4:4.3.4
 _ZN14KUriFilterDataC2ERK7QString@Base 4:4.3.4
 _ZN14KUriFilterDataC2ERKS_@Base 4:4.3.4
 _ZN14KUriFilterDataC2Ev@Base 4:4.3.4
 _ZN14KUriFilterDataD1Ev@Base 4:4.3.4
 _ZN14KUriFilterDataD2Ev@Base 4:4.3.4
 _ZN14KUriFilterDataaSERK4KUrl@Base 4:4.3.4
 _ZN14KUriFilterDataaSERK7QString@Base 4:4.3.4
 _ZN14KUrlCompletion11customEventEP6QEvent@Base 4:4.3.4
 _ZN14KUrlCompletion11qt_metacallEN11QMetaObject4CallEiPPv@Base 4:4.3.4
 _ZN14KUrlCompletion11qt_metacastEPKc@Base 4:4.3.4
 _ZN14KUrlCompletion12replacedPathERK7QStringbb@Base 4:4.3.4
 _ZN14KUrlCompletion13setReplaceEnvEb@Base 4:4.3.4
 _ZN14KUrlCompletion14makeCompletionERK7QString@Base 4:4.3.4
 _ZN14KUrlCompletion14setReplaceHomeEb@Base 4:4.3.4
 _ZN14KUrlCompletion16staticMetaObjectE@Base 4:4.3.4
 _ZN14KUrlCompletion4stopEv@Base 4:4.3.4
 _ZN14KUrlCompletion6setDirERK7QString@Base 4:4.3.4
 _ZN14KUrlCompletion7setModeENS_4ModeE@Base 4:4.3.4
 _ZN14KUrlCompletionC1ENS_4ModeE@Base 4:4.3.4
 _ZN14KUrlCompletionC1Ev@Base 4:4.3.4
 _ZN14KUrlCompletionC2ENS_4ModeE@Base 4:4.3.4
 _ZN14KUrlCompletionC2Ev@Base 4:4.3.4
 _ZN14KUrlCompletionD0Ev@Base 4:4.3.4
 _ZN14KUrlCompletionD1Ev@Base 4:4.3.4
 _ZN14KUrlCompletionD2Ev@Base 4:4.3.4
 _ZN14ThumbCreatorV218writeConfigurationEPK7QWidget@Base 4:4.7.0
 _ZN14ThumbCreatorV225createConfigurationWidgetEv@Base 4:4.7.0
 _ZN14ThumbCreatorV2D0Ev@Base 4:4.7.0
 _ZN14ThumbCreatorV2D1Ev@Base 4:4.7.0
 _ZN14ThumbCreatorV2D2Ev@Base 4:4.7.0
 _ZN15KBookmarkAction11qt_metacallEN11QMetaObject4CallEiPPv@Base 4:4.3.4
 _ZN15KBookmarkAction11qt_metacastEPKc@Base 4:4.3.4
 _ZN15KBookmarkAction12slotSelectedE6QFlagsIN2Qt11MouseButtonEES0_INS1_16KeyboardModifierEE@Base 4:4.3.4
 _ZN15KBookmarkAction16staticMetaObjectE@Base 4:4.3.4
 _ZN15KBookmarkActionC1ERK9KBookmarkP14KBookmarkOwnerP7QObject@Base 4:4.3.4
 _ZN15KBookmarkActionC2ERK9KBookmarkP14KBookmarkOwnerP7QObject@Base 4:4.3.4
 _ZN15KBookmarkActionD0Ev@Base 4:4.3.4
 _ZN15KBookmarkActionD1Ev@Base 4:4.3.4
 _ZN15KBookmarkActionD2Ev@Base 4:4.3.4
 _ZN15KBookmarkDialog10initLayoutEv@Base 4:4.3.4
 _ZN15KBookmarkDialog11aboutToShowENS_18BookmarkDialogModeE@Base 4:4.3.4
 _ZN15KBookmarkDialog11addBookmarkERK7QStringRK4KUrl9KBookmark@Base 4:4.3.4
 _ZN15KBookmarkDialog11qt_metacallEN11QMetaObject4CallEiPPv@Base 4:4.3.4
 _ZN15KBookmarkDialog11qt_metacastEPKc@Base 4:4.3.4
 _ZN15KBookmarkDialog12addBookmarksERK5QListI5QPairI7QStringS2_EERKS2_14KBookmarkGroup@Base 4:4.3.4
 _ZN15KBookmarkDialog12editBookmarkERK9KBookmark@Base 4:4.3.4
 _ZN15KBookmarkDialog12selectFolderE9KBookmark@Base 4:4.3.4
 _ZN15KBookmarkDialog14parentBookmarkEv@Base 4:4.3.4
 _ZN15KBookmarkDialog15createNewFolderERK7QString9KBookmark@Base 4:4.3.4
 _ZN15KBookmarkDialog15newFolderButtonEv@Base 4:4.3.4
 _ZN15KBookmarkDialog16staticMetaObjectE@Base 4:4.3.4
 _ZN15KBookmarkDialog17initLayoutPrivateEv@Base 4:4.3.4
 _ZN15KBookmarkDialog17setParentBookmarkERK9KBookmark@Base 4:4.3.4
 _ZN15KBookmarkDialog17slotButtonClickedEi@Base 4:4.3.4
 _ZN15KBookmarkDialog4saveENS_18BookmarkDialogModeERK9KBookmark@Base 4:4.3.4
 _ZN15KBookmarkDialog9fillGroupEP15QTreeWidgetItemRK14KBookmarkGroup@Base 4:4.3.4
 _ZN15KBookmarkDialogC1EP16KBookmarkManagerP7QWidget@Base 4:4.3.4
 _ZN15KBookmarkDialogC2EP16KBookmarkManagerP7QWidget@Base 4:4.3.4
 _ZN15KBookmarkDialogD0Ev@Base 4:4.7.2
 _ZN15KBookmarkDialogD1Ev@Base 4:4.7.2
 _ZN15KBookmarkDialogD2Ev@Base 4:4.7.2
 _ZN15KDataToolAction11qt_metacallEN11QMetaObject4CallEiPPv@Base 4:4.3.4
 _ZN15KDataToolAction11qt_metacastEPKc@Base 4:4.3.4
 _ZN15KDataToolAction13slotActivatedEv@Base 4:4.3.4
 _ZN15KDataToolAction13toolActivatedERK13KDataToolInfoRK7QString@Base 4:4.3.4
 _ZN15KDataToolAction16staticMetaObjectE@Base 4:4.3.4
 _ZN15KDataToolAction18dataToolActionListERK5QListI13KDataToolInfoEPK7QObjectPKcP17KActionCollection@Base 4:4.3.4
 _ZN15KDataToolActionC1ERK7QStringRK13KDataToolInfoS2_P7QObject@Base 4:4.3.4
 _ZN15KDataToolActionC2ERK7QStringRK13KDataToolInfoS2_P7QObject@Base 4:4.3.4
 _ZN15KDataToolActionD0Ev@Base 4:4.3.4
 _ZN15KDataToolActionD1Ev@Base 4:4.3.4
 _ZN15KDataToolActionD2Ev@Base 4:4.3.4
 _ZN15KOpenWithDialog11qt_metacallEN11QMetaObject4CallEiPPv@Base 4:4.3.4
 _ZN15KOpenWithDialog11qt_metacastEPKc@Base 4:4.3.4
 _ZN15KOpenWithDialog12slotSelectedERK7QStringS2_@Base 4:4.3.4
 _ZN15KOpenWithDialog15slotHighlightedERK7QStringS2_@Base 4:4.3.4
 _ZN15KOpenWithDialog15slotTextChangedEv@Base 4:4.3.4
 _ZN15KOpenWithDialog16staticMetaObjectE@Base 4:4.3.4
 _ZN15KOpenWithDialog17hideNoCloseOnExitEv@Base 4:4.3.4
 _ZN15KOpenWithDialog17hideRunInTerminalEv@Base 4:4.3.4
 _ZN15KOpenWithDialog19slotTerminalToggledEb@Base 4:4.3.4
 _ZN15KOpenWithDialog22setSaveNewApplicationsEb@Base 4:4.3.4
 _ZN15KOpenWithDialog6acceptEv@Base 4:4.3.4
 _ZN15KOpenWithDialogC1EP7QWidget@Base 4:4.3.4
 _ZN15KOpenWithDialogC1ERK7QStringS2_P7QWidget@Base 4:4.3.4
 _ZN15KOpenWithDialogC1ERKN4KUrl4ListEP7QWidget@Base 4:4.3.4
 _ZN15KOpenWithDialogC1ERKN4KUrl4ListERK7QStringS6_P7QWidget@Base 4:4.3.4
 _ZN15KOpenWithDialogC2EP7QWidget@Base 4:4.3.4
 _ZN15KOpenWithDialogC2ERK7QStringS2_P7QWidget@Base 4:4.3.4
 _ZN15KOpenWithDialogC2ERKN4KUrl4ListEP7QWidget@Base 4:4.3.4
 _ZN15KOpenWithDialogC2ERKN4KUrl4ListERK7QStringS6_P7QWidget@Base 4:4.3.4
 _ZN15KOpenWithDialogD0Ev@Base 4:4.3.4
 _ZN15KOpenWithDialogD1Ev@Base 4:4.3.4
 _ZN15KOpenWithDialogD2Ev@Base 4:4.3.4
 _ZN15KRecentDocument12maximumItemsEv@Base 4:4.3.4
 _ZN15KRecentDocument15recentDocumentsEv@Base 4:4.3.4
 _ZN15KRecentDocument23recentDocumentDirectoryEv@Base 4:4.3.4
 _ZN15KRecentDocument3addERK4KUrl@Base 4:4.3.4
 _ZN15KRecentDocument3addERK4KUrlRK7QString@Base 4:4.3.4
 _ZN15KRecentDocument3addERK7QStringb@Base 4:4.3.4
 _ZN15KRecentDocument5clearEv@Base 4:4.3.4
 _ZN15KRemoteEncoding11setEncodingEPKc@Base 4:4.3.4
 _ZN15KRemoteEncoding12virtual_hookEiPv@Base 4:4.3.4
 _ZN15KRemoteEncodingC1EPKc@Base 4:4.3.4
 _ZN15KRemoteEncodingC2EPKc@Base 4:4.3.4
 _ZN15KRemoteEncodingD0Ev@Base 4:4.3.4
 _ZN15KRemoteEncodingD1Ev@Base 4:4.3.4
 _ZN15KRemoteEncodingD2Ev@Base 4:4.3.4
 _ZN15KSSLCertificate10fromStringERK10QByteArray@Base 4:4.3.4
 _ZN15KSSLCertificate10revalidateENS_11KSSLPurposeE@Base 4:4.3.4
 _ZN15KSSLCertificate10revalidateEv@Base 4:4.3.4
 _ZN15KSSLCertificate10toNetscapeEv@Base 4:4.3.4
 _ZN15KSSLCertificate10verifyTextENS_14KSSLValidationE@Base 4:4.3.4
 _ZN15KSSLCertificate12processErrorEi@Base 4:4.3.4
 _ZN15KSSLCertificate15validateVerboseENS_11KSSLPurposeE@Base 4:4.3.4
 _ZN15KSSLCertificate15validateVerboseENS_11KSSLPurposeEPS_@Base 4:4.3.4
 _ZN15KSSLCertificate16x509V3ExtensionsEv@Base 4:4.3.4
 _ZN15KSSLCertificate22getMD5DigestFromKDEKeyERK7QString@Base 4:4.3.4
 _ZN15KSSLCertificate5chainEv@Base 4:4.3.4
 _ZN15KSSLCertificate5toDerEv@Base 4:4.3.4
 _ZN15KSSLCertificate5toPemEv@Base 4:4.3.4
 _ZN15KSSLCertificate6toTextEv@Base 4:4.3.4
 _ZN15KSSLCertificate7getCertEv@Base 4:4.3.4
 _ZN15KSSLCertificate7isValidENS_11KSSLPurposeE@Base 4:4.3.4
 _ZN15KSSLCertificate7isValidEv@Base 4:4.3.4
 _ZN15KSSLCertificate7setCertEP7x509_st@Base 4:4.3.4
 _ZN15KSSLCertificate7setCertERK7QString@Base 4:4.3.4
 _ZN15KSSLCertificate8fromX509EP7x509_st@Base 4:4.3.4
 _ZN15KSSLCertificate8isSignerEv@Base 4:4.3.4
 _ZN15KSSLCertificate8setChainEPv@Base 4:4.3.4
 _ZN15KSSLCertificate8toStringEv@Base 4:4.3.4
 _ZN15KSSLCertificate8validateENS_11KSSLPurposeE@Base 4:4.3.4
 _ZN15KSSLCertificate8validateEv@Base 4:4.3.4
 _ZN15KSSLCertificate9replicateEv@Base 4:4.3.4
 _ZN15KSSLCertificateC1ERKS_@Base 4:4.3.4
 _ZN15KSSLCertificateC1Ev@Base 4:4.3.4
 _ZN15KSSLCertificateC2ERKS_@Base 4:4.3.4
 _ZN15KSSLCertificateC2Ev@Base 4:4.3.4
 _ZN15KSSLCertificateD1Ev@Base 4:4.3.4
 _ZN15KSSLCertificateD2Ev@Base 4:4.3.4
 _ZN15KSambaShareData10setCommentERK7QString@Base 4:4.7.0
 _ZN15KSambaShareData18setGuestPermissionERKNS_15GuestPermissionE@Base 4:4.7.0
 _ZN15KSambaShareData4saveEv@Base 4:4.7.0
 _ZN15KSambaShareData6removeEv@Base 4:4.7.0
 _ZN15KSambaShareData6setAclERK7QString@Base 4:4.7.0
 _ZN15KSambaShareData7setNameERK7QString@Base 4:4.7.0
 _ZN15KSambaShareData7setPathERK7QString@Base 4:4.7.0
 _ZN15KSambaShareDataC1ERKS_@Base 4:4.7.0
 _ZN15KSambaShareDataC1Ev@Base 4:4.7.0
 _ZN15KSambaShareDataC2ERKS_@Base 4:4.7.0
 _ZN15KSambaShareDataC2Ev@Base 4:4.7.0
 _ZN15KSambaShareDataD1Ev@Base 4:4.7.0
 _ZN15KSambaShareDataD2Ev@Base 4:4.7.0
 _ZN15KSambaShareDataaSERKS_@Base 4:4.7.0
 _ZN16KBookmarkManager11emitChangedERK14KBookmarkGroup@Base 4:4.3.4
 _ZN16KBookmarkManager11emitChangedEv@Base 4:4.3.4
 _ZN16KBookmarkManager11qt_metacallEN11QMetaObject4CallEiPPv@Base 4:4.3.4
 _ZN16KBookmarkManager11qt_metacastEPKc@Base 4:4.3.4
 _ZN16KBookmarkManager13configChangedEv@Base 4:4.3.4
 _ZN16KBookmarkManager13findByAddressERK7QString@Base 4:4.3.4
 _ZN16KBookmarkManager13notifyChangedERK7QStringRK12QDBusMessage@Base 4:4.3.4
 _ZN16KBookmarkManager13updateFaviconERK7QStringS2_@Base 4:4.3.4
 _ZN16KBookmarkManager14managerForFileERK7QStringS2_@Base 4:4.3.4
 _ZN16KBookmarkManager15slotFileChangedERK7QString@Base 4:4.3.4
 _ZN16KBookmarkManager16bookmarksChangedE7QString@Base 4:4.3.4
 _ZN16KBookmarkManager16setEditorOptionsERK7QStringb@Base 4:4.3.4
 _ZN16KBookmarkManager16staticMetaObjectE@Base 4:4.3.4
 _ZN16KBookmarkManager17createTempManagerEv@Base 4:4.3.4
 _ZN16KBookmarkManager17emitConfigChangedEv@Base 4:4.3.4
 _ZN16KBookmarkManager17slotEditBookmarksEv@Base 4:4.3.4
 _ZN16KBookmarkManager19notifyConfigChangedEv@Base 4:4.3.4
 _ZN16KBookmarkManager20notifyCompleteChangeERK7QString@Base 4:4.3.4
 _ZN16KBookmarkManager20updateAccessMetadataERK7QString@Base 4:4.3.4
 _ZN16KBookmarkManager20userBookmarksManagerEv@Base 4:4.3.4
 _ZN16KBookmarkManager21bookmarkConfigChangedEv@Base 4:4.3.4
 _ZN16KBookmarkManager22bookmarkCompleteChangeE7QString@Base 4:4.3.4
 _ZN16KBookmarkManager22managerForExternalFileERK7QString@Base 4:4.3.4
 _ZN16KBookmarkManager26slotEditBookmarksAtAddressERK7QString@Base 4:4.3.4
 _ZN16KBookmarkManager27setAutoErrorHandlingEnabledEbP7QWidget@Base 4:4.5.86
 _ZN16KBookmarkManager4initERK7QString@Base 4:4.3.4
 _ZN16KBookmarkManager5errorERK7QString@Base 4:4.5.86
 _ZN16KBookmarkManager7changedERK7QStringS2_@Base 4:4.3.4
 _ZN16KBookmarkManager7toolbarEv@Base 4:4.3.4
 _ZN16KBookmarkManager9setUpdateEb@Base 4:4.3.4
 _ZN16KBookmarkManagerC1ERK7QString@Base 4:4.3.4
 _ZN16KBookmarkManagerC1ERK7QStringS2_@Base 4:4.3.4
 _ZN16KBookmarkManagerC1Ev@Base 4:4.3.4
 _ZN16KBookmarkManagerC2ERK7QString@Base 4:4.3.4
 _ZN16KBookmarkManagerC2ERK7QStringS2_@Base 4:4.3.4
 _ZN16KBookmarkManagerC2Ev@Base 4:4.3.4
 _ZN16KBookmarkManagerD0Ev@Base 4:4.3.4
 _ZN16KBookmarkManagerD1Ev@Base 4:4.3.4
 _ZN16KBookmarkManagerD2Ev@Base 4:4.3.4
 _ZN16KDeviceListModel11qt_metacallEN11QMetaObject4CallEiPPv@Base 4:4.3.4
 _ZN16KDeviceListModel11qt_metacastEPKc@Base 4:4.3.4
 _ZN16KDeviceListModel16modelInitializedEv@Base 4:4.3.4
 _ZN16KDeviceListModel16staticMetaObjectE@Base 4:4.3.4
 _ZN16KDeviceListModel7Private10initializeERKN5Solid9PredicateE@Base 4:4.3.4
 _ZN16KDeviceListModel7Private12removeBranchERK7QString@Base 4:4.3.4
 _ZN16KDeviceListModel7Private14_k_deviceAddedERK7QString@Base 4:4.3.4
 _ZN16KDeviceListModel7Private16_k_deviceRemovedERK7QString@Base 4:4.3.4
 _ZN16KDeviceListModel7Private17_k_initDeviceListEv@Base 4:4.3.4
 _ZN16KDeviceListModel7Private9addDeviceERKN5Solid6DeviceE@Base 4:4.3.4
 _ZN16KDeviceListModelC1EP7QObject@Base 4:4.3.4
 _ZN16KDeviceListModelC1ERK7QStringP7QObject@Base 4:4.3.4
 _ZN16KDeviceListModelC1ERKN5Solid9PredicateEP7QObject@Base 4:4.3.4
 _ZN16KDeviceListModelC2EP7QObject@Base 4:4.3.4
 _ZN16KDeviceListModelC2ERK7QStringP7QObject@Base 4:4.3.4
 _ZN16KDeviceListModelC2ERKN5Solid9PredicateEP7QObject@Base 4:4.3.4
 _ZN16KDeviceListModelD0Ev@Base 4:4.3.4
 _ZN16KDeviceListModelD1Ev@Base 4:4.3.4
 _ZN16KDeviceListModelD2Ev@Base 4:4.3.4
 _ZN16KFileItemActions11qt_metacallEN11QMetaObject4CallEiPPv@Base 4:4.3.4
 _ZN16KFileItemActions11qt_metacastEPKc@Base 4:4.3.4
 _ZN16KFileItemActions15setParentWidgetEP7QWidget@Base 4:4.3.4
 _ZN16KFileItemActions16staticMetaObjectE@Base 4:4.3.4
 _ZN16KFileItemActions19addServiceActionsToEP5QMenu@Base 4:4.3.4
 _ZN16KFileItemActions20addOpenWithActionsToEP5QMenuRK7QString@Base 4:4.3.4
 _ZN16KFileItemActions21setItemListPropertiesERK23KFileItemListProperties@Base 4:4.3.4
 _ZN16KFileItemActions22associatedApplicationsERK11QStringListRK7QString@Base 4:4.4.0
 _ZN16KFileItemActions23preferredOpenWithActionERK7QString@Base 4:4.3.4
 _ZN16KFileItemActions24runPreferredApplicationsERK13KFileItemListRK7QString@Base 4:4.4.95
 _ZN16KFileItemActions28openWithDialogAboutToBeShownEv@Base 4:4.8.2
 _ZN16KFileItemActionsC1EP7QObject@Base 4:4.3.4
 _ZN16KFileItemActionsC2EP7QObject@Base 4:4.3.4
 _ZN16KFileItemActionsD0Ev@Base 4:4.3.4
 _ZN16KFileItemActionsD1Ev@Base 4:4.3.4
 _ZN16KFileItemActionsD2Ev@Base 4:4.3.4
 _ZN16KFileMetaPreview11qt_metacallEN11QMetaObject4CallEiPPv@Base 4:4.3.4
 _ZN16KFileMetaPreview11qt_metacastEPKc@Base 4:4.3.4
 _ZN16KFileMetaPreview11showPreviewERK4KUrl@Base 4:4.3.4
 _ZN16KFileMetaPreview12clearPreviewEv@Base 4:4.3.4
 _ZN16KFileMetaPreview16staticMetaObjectE@Base 4:4.3.4
 _ZN16KFileMetaPreview17s_tryAudioPreviewE@Base 4:4.3.4
 _ZN16KFileMetaPreview18addPreviewProviderERK7QStringP18KPreviewWidgetBase@Base 4:4.3.4
 _ZN16KFileMetaPreview18createAudioPreviewEP7QWidget@Base 4:4.3.4
 _ZN16KFileMetaPreview18previewProviderForERK7QString@Base 4:4.3.4
 _ZN16KFileMetaPreview20initPreviewProvidersEv@Base 4:4.3.4
 _ZN16KFileMetaPreview21clearPreviewProvidersEv@Base 4:4.3.4
 _ZN16KFileMetaPreviewC1EP7QWidget@Base 4:4.3.4
 _ZN16KFileMetaPreviewC2EP7QWidget@Base 4:4.3.4
 _ZN16KFileMetaPreviewD0Ev@Base 4:4.3.4
 _ZN16KFileMetaPreviewD1Ev@Base 4:4.3.4
 _ZN16KFileMetaPreviewD2Ev@Base 4:4.3.4
 _ZN16KFileWritePlugin11qt_metacallEN11QMetaObject4CallEiPPv@Base 4:4.3.4
 _ZN16KFileWritePlugin11qt_metacastEPKc@Base 4:4.3.4
 _ZN16KFileWritePlugin16staticMetaObjectE@Base 4:4.3.4
 _ZN16KFileWritePluginC1EP7QObjectRK11QStringList@Base 4:4.3.4
 _ZN16KFileWritePluginC2EP7QObjectRK11QStringList@Base 4:4.3.4
 _ZN16KFileWritePluginD0Ev@Base 4:4.3.4
 _ZN16KFileWritePluginD1Ev@Base 4:4.3.4
 _ZN16KFileWritePluginD2Ev@Base 4:4.3.4
 _ZN16KMimeTypeChooser11qt_metacallEN11QMetaObject4CallEiPPv@Base 4:4.3.4
 _ZN16KMimeTypeChooser11qt_metacastEPKc@Base 4:4.3.4
 _ZN16KMimeTypeChooser16staticMetaObjectE@Base 4:4.3.4
 _ZN16KMimeTypeChooserC1ERK7QStringRK11QStringListS2_S5_iP7QWidget@Base 4:4.3.4
 _ZN16KMimeTypeChooserC2ERK7QStringRK11QStringListS2_S5_iP7QWidget@Base 4:4.3.4
 _ZN16KMimeTypeChooserD0Ev@Base 4:4.3.4
 _ZN16KMimeTypeChooserD1Ev@Base 4:4.3.4
 _ZN16KMimeTypeChooserD2Ev@Base 4:4.3.4
 _ZN16KProtocolManager10autoResumeEv@Base 4:4.3.4
 _ZN16KProtocolManager10noProxyForEv@Base 4:4.3.4
 _ZN16KProtocolManager10outputTypeERK4KUrl@Base 4:4.3.4
 _ZN16KProtocolManager11markPartialEv@Base 4:4.3.4
 _ZN16KProtocolManager11maxCacheAgeEv@Base 4:4.3.4
 _ZN16KProtocolManager11proxyForUrlERK4KUrl@Base 4:4.3.4
 _ZN16KProtocolManager11readTimeoutEv@Base 4:4.3.4
 _ZN16KProtocolManager12cacheControlEv@Base 4:4.3.4
 _ZN16KProtocolManager12maxCacheSizeEv@Base 4:4.3.4
 _ZN16KProtocolManager13canCopyToFileERK4KUrl@Base 4:4.3.4
 _ZN16KProtocolManager13proxiesForUrlERK4KUrl@Base 4:4.7.0
 _ZN16KProtocolManager13proxyAuthModeEv@Base 4:4.3.4
 _ZN16KProtocolManager13slaveProtocolERK4KUrlR11QStringList@Base 4:4.7.0
 _ZN16KProtocolManager13slaveProtocolERK4KUrlR7QString@Base 4:4.3.4
 _ZN16KProtocolManager14connectTimeoutEv@Base 4:4.3.4
 _ZN16KProtocolManager14supportsMovingERK4KUrl@Base 4:4.3.4
 _ZN16KProtocolManager15canCopyFromFileERK4KUrl@Base 4:4.3.4
 _ZN16KProtocolManager15canRenameToFileERK4KUrl@Base 4:4.3.4
 _ZN16KProtocolManager15defaultMimetypeERK4KUrl@Base 4:4.3.4
 _ZN16KProtocolManager15minimumKeepSizeEv@Base 4:4.3.4
 _ZN16KProtocolManager15responseTimeoutEv@Base 4:4.3.4
 _ZN16KProtocolManager15supportsLinkingERK4KUrl@Base 4:4.3.4
 _ZN16KProtocolManager15supportsListingERK4KUrl@Base 4:4.3.4
 _ZN16KProtocolManager15supportsMakeDirERK4KUrl@Base 4:4.3.4
 _ZN16KProtocolManager15supportsOpeningERK4KUrl@Base 4:4.3.4
 _ZN16KProtocolManager15supportsReadingERK4KUrl@Base 4:4.3.4
 _ZN16KProtocolManager15supportsWritingERK4KUrl@Base 4:4.3.4
 _ZN16KProtocolManager15useReverseProxyEv@Base 4:4.3.4
 _ZN16KProtocolManager16defaultUserAgentERK7QString@Base 4:4.3.4
 _ZN16KProtocolManager16defaultUserAgentEv@Base 4:4.3.4
 _ZN16KProtocolManager16isSourceProtocolERK4KUrl@Base 4:4.3.4
 _ZN16KProtocolManager16supportsDeletingERK4KUrl@Base 4:4.3.4
 _ZN16KProtocolManager16userAgentForHostERK7QString@Base 4:4.3.4
 _ZN16KProtocolManager17canRenameFromFileERK4KUrl@Base 4:4.3.4
 _ZN16KProtocolManager17proxyConfigScriptEv@Base 4:4.3.4
 _ZN16KProtocolManager18canDeleteRecursiveERK4KUrl@Base 4:4.3.4
 _ZN16KProtocolManager19proxyConnectTimeoutEv@Base 4:4.3.4
 _ZN16KProtocolManager20reparseConfigurationEv@Base 4:4.3.4
 _ZN16KProtocolManager21acceptLanguagesHeaderEv@Base 4:4.3.4
 _ZN16KProtocolManager21persistentConnectionsEv@Base 4:4.3.4
 _ZN16KProtocolManager22fileNameUsedForCopyingERK4KUrl@Base 4:4.3.4
 _ZN16KProtocolManager23userAgentForApplicationERK7QStringS2_RK11QStringList@Base 4:4.3.4
 _ZN16KProtocolManager25persistentProxyConnectionEv@Base 4:4.3.4
 _ZN16KProtocolManager26protocolForArchiveMimetypeERK7QString@Base 4:4.3.4
 _ZN16KProtocolManager30getSystemNameVersionAndMachineER7QStringS1_S1_@Base 4:4.3.4
 _ZN16KProtocolManager7listingERK4KUrl@Base 4:4.3.4
 _ZN16KProtocolManager8badProxyERK7QString@Base 4:4.3.4
 _ZN16KProtocolManager8cacheDirEv@Base 4:4.3.4
 _ZN16KProtocolManager8proxyForERK7QString@Base 4:4.3.4
 _ZN16KProtocolManager8useCacheEv@Base 4:4.3.4
 _ZN16KProtocolManager8useProxyEv@Base 4:4.3.4
 _ZN16KProtocolManager9inputTypeERK4KUrl@Base 4:4.3.4
 _ZN16KProtocolManager9proxyTypeEv@Base 4:4.3.4
 _ZN16KShellCompletion11qt_metacallEN11QMetaObject4CallEiPPv@Base 4:4.3.4
 _ZN16KShellCompletion11qt_metacastEPKc@Base 4:4.3.4
 _ZN16KShellCompletion14makeCompletionERK7QString@Base 4:4.3.4
 _ZN16KShellCompletion16staticMetaObjectE@Base 4:4.3.4
 _ZN16KShellCompletionC1Ev@Base 4:4.3.4
 _ZN16KShellCompletionC2Ev@Base 4:4.3.4
 _ZN16KShellCompletionD0Ev@Base 4:4.3.4
 _ZN16KShellCompletionD1Ev@Base 4:4.3.4
 _ZN16KShellCompletionD2Ev@Base 4:4.3.4
 _ZN16KUriFilterPlugin11qt_metacallEN11QMetaObject4CallEiPPv@Base 4:4.3.4
 _ZN16KUriFilterPlugin11qt_metacastEPKc@Base 4:4.3.4
 _ZN16KUriFilterPlugin16staticMetaObjectE@Base 4:4.3.4
 _ZN16KUriFilterPluginC1ERK7QStringP7QObject@Base 4:4.3.4
 _ZN16KUriFilterPluginC2ERK7QStringP7QObject@Base 4:4.3.4
 _ZN16KUriFilterPluginD0Ev@Base 4:4.7.2
 _ZN16KUriFilterPluginD1Ev@Base 4:4.7.2
 _ZN16KUriFilterPluginD2Ev@Base 4:4.7.2
 _ZN16KonqBookmarkMenu11contextMenuEP7QAction@Base 4:4.3.4
 _ZN16KonqBookmarkMenu11qt_metacallEN11QMetaObject4CallEiPPv@Base 4:4.3.4
 _ZN16KonqBookmarkMenu11qt_metacastEPKc@Base 4:4.3.4
 _ZN16KonqBookmarkMenu16staticMetaObjectE@Base 4:4.3.4
 _ZN16KonqBookmarkMenu17actionForBookmarkERK9KBookmark@Base 4:4.3.4
 _ZN16KonqBookmarkMenu19setDynamicBookmarksERK7QStringRKNS_11DynMenuInfoE@Base 4:4.3.4
 _ZN16KonqBookmarkMenu20dynamicBookmarksListEv@Base 4:4.3.4
 _ZN16KonqBookmarkMenu20fillDynamicBookmarksEv@Base 4:4.3.4
 _ZN16KonqBookmarkMenu20showDynamicBookmarksERK7QString@Base 4:4.3.4
 _ZN16KonqBookmarkMenu6refillEv@Base 4:4.3.4
 _ZN17KFileItemDelegate11editorEventEP6QEventP18QAbstractItemModelRK20QStyleOptionViewItemRK11QModelIndex@Base 4:4.3.4
 _ZN17KFileItemDelegate11eventFilterEP7QObjectP6QEvent@Base 4:4.3.4
 _ZN17KFileItemDelegate11qt_metacallEN11QMetaObject4CallEiPPv@Base 4:4.3.4
 _ZN17KFileItemDelegate11qt_metacastEPKc@Base 4:4.3.4
 _ZN17KFileItemDelegate11setWrapModeEN11QTextOption8WrapModeE@Base 4:4.4.0
 _ZN17KFileItemDelegate13setShadowBlurEd@Base 4:4.3.4
 _ZN17KFileItemDelegate14setMaximumSizeERK5QSize@Base 4:4.3.4
 _ZN17KFileItemDelegate14setShadowColorERK6QColor@Base 4:4.3.4
 _ZN17KFileItemDelegate15setShadowOffsetERK7QPointF@Base 4:4.3.4
 _ZN17KFileItemDelegate16staticMetaObjectE@Base 4:4.3.4
 _ZN17KFileItemDelegate18setShowInformationENS_11InformationE@Base 4:4.3.4
 _ZN17KFileItemDelegate18setShowInformationERK5QListINS_11InformationEE@Base 4:4.3.4
 _ZN17KFileItemDelegate22setJobTransfersVisibleEb@Base 4:4.4.95
 _ZN17KFileItemDelegate24setShowToolTipWhenElidedEb@Base 4:4.3.4
 _ZN17KFileItemDelegate5shapeERK20QStyleOptionViewItemRK11QModelIndex@Base 4:4.3.4
 _ZN17KFileItemDelegate7Private10gotNewIconERK11QModelIndex@Base 4:4.3.4
 _ZN17KFileItemDelegate7Private16restartAnimationEPN3KIO14AnimationStateE@Base 4:4.3.4
 _ZN17KFileItemDelegate7Private17paintJobTransfersEP8QPainterRKdRK6QPointRK22QStyleOptionViewItemV4@Base 4:4.7.0
 _ZN17KFileItemDelegate7Private17setVerticalMarginENS0_10MarginTypeEiiii@Base 4:4.3.4
 _ZN17KFileItemDelegate7Private19setHorizontalMarginENS0_10MarginTypeEiiii@Base 4:4.3.4
 _ZN17KFileItemDelegate7PrivateC1EPS_@Base 4:4.3.4
 _ZN17KFileItemDelegate7PrivateC2EPS_@Base 4:4.3.4
 _ZN17KFileItemDelegate9helpEventEP10QHelpEventP17QAbstractItemViewRK20QStyleOptionViewItemRK11QModelIndex@Base 4:4.3.4
 _ZN17KFileItemDelegateC1EP7QObject@Base 4:4.3.4
 _ZN17KFileItemDelegateC2EP7QObject@Base 4:4.3.4
 _ZN17KFileItemDelegateD0Ev@Base 4:4.3.4
 _ZN17KFileItemDelegateD1Ev@Base 4:4.3.4
 _ZN17KFileItemDelegateD2Ev@Base 4:4.3.4
 _ZN17KFileMetaInfoItem8addValueERK8QVariant@Base 4:4.3.4
 _ZN17KFileMetaInfoItem8setValueERK8QVariant@Base 4:4.3.4
 _ZN17KFileMetaInfoItemC1ERK7QStringRK8QVariantP16KFileWritePluginb@Base 4:4.5.1
 _ZN17KFileMetaInfoItemC1ERKS_@Base 4:4.3.4
 _ZN17KFileMetaInfoItemC1Ev@Base 4:4.3.4
 _ZN17KFileMetaInfoItemC2ERK7QStringRK8QVariantP16KFileWritePluginb@Base 4:4.5.1
 _ZN17KFileMetaInfoItemC2ERKS_@Base 4:4.3.4
 _ZN17KFileMetaInfoItemC2Ev@Base 4:4.3.4
 _ZN17KFileMetaInfoItemD1Ev@Base 4:4.3.4
 _ZN17KFileMetaInfoItemD2Ev@Base 4:4.3.4
 _ZN17KFileMetaInfoItemaSERKS_@Base 4:4.3.4
 _ZN17KImageFilePreview10gotPreviewERK9KFileItemRK7QPixmap@Base 4:4.3.4
 _ZN17KImageFilePreview11qt_metacallEN11QMetaObject4CallEiPPv@Base 4:4.3.4
 _ZN17KImageFilePreview11qt_metacastEPKc@Base 4:4.3.4
 _ZN17KImageFilePreview11resizeEventEP12QResizeEvent@Base 4:4.3.4
 _ZN17KImageFilePreview11showPreviewERK4KUrl@Base 4:4.3.4
 _ZN17KImageFilePreview11showPreviewERK4KUrlb@Base 4:4.3.4
 _ZN17KImageFilePreview11showPreviewEv@Base 4:4.3.4
 _ZN17KImageFilePreview12clearPreviewEv@Base 4:4.3.4
 _ZN17KImageFilePreview16staticMetaObjectE@Base 4:4.3.4
 _ZN17KImageFilePreview24KImageFilePreviewPrivate13_k_slotFailedERK9KFileItem@Base 4:4.3.4
 _ZN17KImageFilePreview24KImageFilePreviewPrivate13_k_slotResultEP4KJob@Base 4:4.3.4
 _ZN17KImageFilePreview24KImageFilePreviewPrivate15_k_slotFinishedEv@Base 4:4.3.4
 _ZN17KImageFilePreview24KImageFilePreviewPrivate20_k_slotStepAnimationEi@Base 4:4.3.4
 _ZN17KImageFilePreview9createJobERK4KUrlii@Base 4:4.3.4
 _ZN17KImageFilePreviewC1EP7QWidget@Base 4:4.3.4
 _ZN17KImageFilePreviewC2EP7QWidget@Base 4:4.3.4
 _ZN17KImageFilePreviewD0Ev@Base 4:4.3.4
 _ZN17KImageFilePreviewD1Ev@Base 4:4.3.4
 _ZN17KImageFilePreviewD2Ev@Base 4:4.3.4
 _ZN17KMimeTypeResolver11qt_metacallEN11QMetaObject4CallEiPPv@Base 4:4.3.4
 _ZN17KMimeTypeResolver11qt_metacastEPKc@Base 4:4.3.4
 _ZN17KMimeTypeResolver16staticMetaObjectE@Base 4:4.3.4
 _ZN17KMimeTypeResolverC1EP17QAbstractItemViewP19QAbstractProxyModel@Base 4:4.3.4
 _ZN17KMimeTypeResolverC1EP17QAbstractItemViewP9KDirModel@Base 4:4.3.4
 _ZN17KMimeTypeResolverC1EP20KAbstractViewAdapter@Base 4:4.3.4
 _ZN17KMimeTypeResolverC2EP17QAbstractItemViewP19QAbstractProxyModel@Base 4:4.3.4
 _ZN17KMimeTypeResolverC2EP17QAbstractItemViewP9KDirModel@Base 4:4.3.4
 _ZN17KMimeTypeResolverC2EP20KAbstractViewAdapter@Base 4:4.3.4
 _ZN17KMimeTypeResolverD0Ev@Base 4:4.3.4
 _ZN17KMimeTypeResolverD1Ev@Base 4:4.3.4
 _ZN17KMimeTypeResolverD2Ev@Base 4:4.3.4
 _ZN17KPropertiesDialog10canDisplayERK13KFileItemList@Base 4:4.3.4
 _ZN17KPropertiesDialog10showDialogERK13KFileItemListP7QWidgetb@Base 4:4.3.4
 _ZN17KPropertiesDialog10showDialogERK4KUrlP7QWidgetb@Base 4:4.3.4
 _ZN17KPropertiesDialog10showDialogERK9KFileItemP7QWidgetb@Base 4:4.3.4
 _ZN17KPropertiesDialog10slotCancelEv@Base 4:4.3.4
 _ZN17KPropertiesDialog11qt_metacallEN11QMetaObject4CallEiPPv@Base 4:4.3.4
 _ZN17KPropertiesDialog11qt_metacastEPKc@Base 4:4.3.4
 _ZN17KPropertiesDialog12insertPluginEP23KPropertiesDialogPlugin@Base 4:4.3.4
 _ZN17KPropertiesDialog13abortApplyingEv@Base 4:4.3.4
 _ZN17KPropertiesDialog13leaveModalityEv@Base 4:4.3.4
 _ZN17KPropertiesDialog16propertiesClosedEv@Base 4:4.3.4
 _ZN17KPropertiesDialog16staticMetaObjectE@Base 4:4.3.4
 _ZN17KPropertiesDialog18setFileSharingPageEP7QWidget@Base 4:4.3.4
 _ZN17KPropertiesDialog19setFileNameReadOnlyEb@Base 4:4.3.4
 _ZN17KPropertiesDialog19showFileSharingPageEv@Base 4:4.3.4
 _ZN17KPropertiesDialog24KPropertiesDialogPrivate11insertPagesEv@Base 4:4.3.4
 _ZN17KPropertiesDialog24KPropertiesDialogPrivate4initEv@Base 4:4.3.4
 _ZN17KPropertiesDialog4itemEv@Base 4:4.3.4
 _ZN17KPropertiesDialog6renameERK7QString@Base 4:4.3.4
 _ZN17KPropertiesDialog6saveAsERK4KUrlRS0_@Base 4:4.3.4
 _ZN17KPropertiesDialog6slotOkEv@Base 4:4.3.4
 _ZN17KPropertiesDialog7appliedEv@Base 4:4.3.4
 _ZN17KPropertiesDialog8canceledEv@Base 4:4.3.4
 _ZN17KPropertiesDialog9updateUrlERK4KUrl@Base 4:4.3.4
 _ZN17KPropertiesDialogC1ERK13KFileItemListP7QWidget@Base 4:4.3.4
 _ZN17KPropertiesDialogC1ERK4KUrlP7QWidget@Base 4:4.3.4
 _ZN17KPropertiesDialogC1ERK4KUrlS2_RK7QStringP7QWidget@Base 4:4.3.4
 _ZN17KPropertiesDialogC1ERK7QStringP7QWidget@Base 4:4.3.4
 _ZN17KPropertiesDialogC1ERK9KFileItemP7QWidget@Base 4:4.3.4
 _ZN17KPropertiesDialogC2ERK13KFileItemListP7QWidget@Base 4:4.3.4
 _ZN17KPropertiesDialogC2ERK4KUrlP7QWidget@Base 4:4.3.4
 _ZN17KPropertiesDialogC2ERK4KUrlS2_RK7QStringP7QWidget@Base 4:4.3.4
 _ZN17KPropertiesDialogC2ERK7QStringP7QWidget@Base 4:4.3.4
 _ZN17KPropertiesDialogC2ERK9KFileItemP7QWidget@Base 4:4.3.4
 _ZN17KPropertiesDialogD0Ev@Base 4:4.3.4
 _ZN17KPropertiesDialogD1Ev@Base 4:4.3.4
 _ZN17KPropertiesDialogD2Ev@Base 4:4.3.4
 _ZN17KonqBookmarkOwnerD0Ev@Base 4:4.3.4
 _ZN17KonqBookmarkOwnerD1Ev@Base 4:4.3.4
 _ZN17KonqBookmarkOwnerD2Ev@Base 4:4.3.4
 _ZN18KDiskFreeSpaceInfo13freeSpaceInfoERK7QString@Base 4:4.3.4
 _ZN18KDiskFreeSpaceInfoC1ERKS_@Base 4:4.3.4
 _ZN18KDiskFreeSpaceInfoC1Ev@Base 4:4.3.4
 _ZN18KDiskFreeSpaceInfoC2ERKS_@Base 4:4.3.4
 _ZN18KDiskFreeSpaceInfoC2Ev@Base 4:4.3.4
 _ZN18KDiskFreeSpaceInfoD1Ev@Base 4:4.3.4
 _ZN18KDiskFreeSpaceInfoD2Ev@Base 4:4.3.4
 _ZN18KDiskFreeSpaceInfoaSERKS_@Base 4:4.3.4
 _ZN18KFileMetaInfoGroupC1ERKS_@Base 4:4.3.4
 _ZN18KFileMetaInfoGroupC2ERKS_@Base 4:4.3.4
 _ZN18KFileMetaInfoGroupD1Ev@Base 4:4.3.4
 _ZN18KFileMetaInfoGroupD2Ev@Base 4:4.3.4
 _ZN18KPreviewWidgetBase11qt_metacallEN11QMetaObject4CallEiPPv@Base 4:4.3.4
 _ZN18KPreviewWidgetBase11qt_metacastEPKc@Base 4:4.3.4
 _ZN18KPreviewWidgetBase16staticMetaObjectE@Base 4:4.3.4
 _ZN18KPreviewWidgetBase21setSupportedMimeTypesERK11QStringList@Base 4:4.3.4
 _ZN18KPreviewWidgetBaseC1EP7QWidget@Base 4:4.3.4
 _ZN18KPreviewWidgetBaseC2EP7QWidget@Base 4:4.3.4
 _ZN18KPreviewWidgetBaseD0Ev@Base 4:4.3.4
 _ZN18KPreviewWidgetBaseD1Ev@Base 4:4.3.4
 _ZN18KPreviewWidgetBaseD2Ev@Base 4:4.3.4
 _ZN18KSslCertificateBox11qt_metacallEN11QMetaObject4CallEiPPv@Base 4:4.3.4
 _ZN18KSslCertificateBox11qt_metacastEPKc@Base 4:4.3.4
 _ZN18KSslCertificateBox14setCertificateERK15QSslCertificateNS_16CertificatePartyE@Base 4:4.3.4
 _ZN18KSslCertificateBox16staticMetaObjectE@Base 4:4.3.4
 _ZN18KSslCertificateBox5clearEv@Base 4:4.3.4
 _ZN18KSslCertificateBoxC1EP7QWidget@Base 4:4.3.4
 _ZN18KSslCertificateBoxC2EP7QWidget@Base 4:4.3.4
 _ZN18KSslCertificateBoxD0Ev@Base 4:4.3.4
 _ZN18KSslCertificateBoxD1Ev@Base 4:4.3.4
 _ZN18KSslCertificateBoxD2Ev@Base 4:4.3.4
 _ZN18KUrlComboRequester11qt_metacallEN11QMetaObject4CallEiPPv@Base 4:4.3.4
 _ZN18KUrlComboRequester11qt_metacastEPKc@Base 4:4.3.4
 _ZN18KUrlComboRequester16staticMetaObjectE@Base 4:4.3.4
 _ZN18KUrlComboRequesterC1EP7QWidget@Base 4:4.3.4
 _ZN18KUrlComboRequesterC2EP7QWidget@Base 4:4.3.4
 _ZN18KUrlComboRequesterD0Ev@Base 4:4.7.2
 _ZN18KUrlComboRequesterD1Ev@Base 4:4.7.2
 _ZN18KUrlComboRequesterD2Ev@Base 4:4.7.2
 _ZN18KUrlPixmapProvider12virtual_hookEiPv@Base 4:4.3.4
 _ZN18KUrlPixmapProvider9pixmapForERK7QStringi@Base 4:4.3.4
 _ZN18KUrlPixmapProviderC1Ev@Base 4:4.3.4
 _ZN18KUrlPixmapProviderC2Ev@Base 4:4.3.4
 _ZN18KUrlPixmapProviderD0Ev@Base 4:4.3.4
 _ZN18KUrlPixmapProviderD1Ev@Base 4:4.3.4
 _ZN18KUrlPixmapProviderD2Ev@Base 4:4.3.4
 _ZN19KAbstractFileModule11qt_metacallEN11QMetaObject4CallEiPPv@Base 4:4.3.4
 _ZN19KAbstractFileModule11qt_metacastEPKc@Base 4:4.3.4
 _ZN19KAbstractFileModule16staticMetaObjectE@Base 4:4.3.4
 _ZN19KAbstractFileModuleC1EP7QObject@Base 4:4.3.4
 _ZN19KAbstractFileModuleC2EP7QObject@Base 4:4.3.4
 _ZN19KAbstractFileModuleD0Ev@Base 4:4.7.2
 _ZN19KAbstractFileModuleD1Ev@Base 4:4.7.2
 _ZN19KAbstractFileModuleD2Ev@Base 4:4.7.2
 _ZN19KBookmarkActionMenuC1ERK9KBookmarkP7QObject@Base 4:4.3.4
 _ZN19KBookmarkActionMenuC1ERK9KBookmarkRK7QStringP7QObject@Base 4:4.3.4
 _ZN19KBookmarkActionMenuC2ERK9KBookmarkP7QObject@Base 4:4.3.4
 _ZN19KBookmarkActionMenuC2ERK9KBookmarkRK7QStringP7QObject@Base 4:4.3.4
 _ZN19KBookmarkActionMenuD0Ev@Base 4:4.3.4
 _ZN19KBookmarkActionMenuD1Ev@Base 4:4.3.4
 _ZN19KBookmarkActionMenuD2Ev@Base 4:4.3.4
 _ZN19KBookmarkDomBuilder11newBookmarkERK7QStringS2_S2_@Base 4:4.3.4
 _ZN19KBookmarkDomBuilder11qt_metacallEN11QMetaObject4CallEiPPv@Base 4:4.3.4
 _ZN19KBookmarkDomBuilder11qt_metacastEPKc@Base 4:4.3.4
 _ZN19KBookmarkDomBuilder12newSeparatorEv@Base 4:4.3.4
 _ZN19KBookmarkDomBuilder15connectImporterEPK7QObject@Base 4:4.3.4
 _ZN19KBookmarkDomBuilder16staticMetaObjectE@Base 4:4.3.4
 _ZN19KBookmarkDomBuilder9endFolderEv@Base 4:4.3.4
 _ZN19KBookmarkDomBuilder9newFolderERK7QStringbS2_@Base 4:4.3.4
 _ZN19KBookmarkDomBuilderC1ERK14KBookmarkGroupP16KBookmarkManager@Base 4:4.3.4
 _ZN19KBookmarkDomBuilderC2ERK14KBookmarkGroupP16KBookmarkManager@Base 4:4.3.4
 _ZN19KBookmarkDomBuilderD0Ev@Base 4:4.3.4
 _ZN19KBookmarkDomBuilderD1Ev@Base 4:4.3.4
 _ZN19KBookmarkDomBuilderD2Ev@Base 4:4.3.4
 _ZN19KDBusServiceStarter14findServiceForERK7QStringS2_PS0_S3_i@Base 4:4.3.4
 _ZN19KDBusServiceStarter15startServiceForERK7QStringS2_PS0_S3_i@Base 4:4.3.4
 _ZN19KDBusServiceStarter4selfEv@Base 4:4.3.4
 _ZN19KDBusServiceStarterC1Ev@Base 4:4.3.4
 _ZN19KDBusServiceStarterC2Ev@Base 4:4.3.4
 _ZN19KDBusServiceStarterD0Ev@Base 4:4.3.4
 _ZN19KDBusServiceStarterD1Ev@Base 4:4.3.4
 _ZN19KDBusServiceStarterD2Ev@Base 4:4.3.4
 _ZN19KDesktopFileActions14executeServiceERKN4KUrl4ListERK14KServiceAction@Base 4:4.3.4
 _ZN19KDesktopFileActions15builtinServicesERK4KUrl@Base 4:4.3.4
 _ZN19KDesktopFileActions19userDefinedServicesERK7QStringRK12KDesktopFilebRKN4KUrl4ListE@Base 4:4.3.4
 _ZN19KDesktopFileActions19userDefinedServicesERK7QStringb@Base 4:4.3.4
 _ZN19KDesktopFileActions19userDefinedServicesERK8KServicebRKN4KUrl4ListE@Base 4:4.3.4
 _ZN19KDesktopFileActions3runERK4KUrlb@Base 4:4.3.4
 _ZN19KEncodingFileDialog11qt_metacallEN11QMetaObject4CallEiPPv@Base 4:4.3.4
 _ZN19KEncodingFileDialog11qt_metacastEPKc@Base 4:4.3.4
 _ZN19KEncodingFileDialog16staticMetaObjectE@Base 4:4.3.4
 _ZN19KEncodingFileDialog21getOpenUrlAndEncodingERK7QStringS2_S2_P7QWidgetS2_@Base 4:4.3.4
 _ZN19KEncodingFileDialog21getSaveUrlAndEncodingERK7QStringS2_S2_P7QWidgetS2_@Base 4:4.3.4
 _ZN19KEncodingFileDialog22getOpenUrlsAndEncodingERK7QStringS2_S2_P7QWidgetS2_@Base 4:4.3.4
 _ZN19KEncodingFileDialog26getOpenFileNameAndEncodingERK7QStringS2_S2_P7QWidgetS2_@Base 4:4.3.4
 _ZN19KEncodingFileDialog26getSaveFileNameAndEncodingERK7QStringS2_S2_P7QWidgetS2_@Base 4:4.3.4
 _ZN19KEncodingFileDialog27getOpenFileNamesAndEncodingERK7QStringS2_S2_P7QWidgetS2_@Base 4:4.3.4
 _ZN19KEncodingFileDialogC1ERK7QStringS2_S2_S2_N11KFileDialog13OperationModeEP7QWidget@Base 4:4.3.4
 _ZN19KEncodingFileDialogC2ERK7QStringS2_S2_S2_N11KFileDialog13OperationModeEP7QWidget@Base 4:4.3.4
 _ZN19KEncodingFileDialogD0Ev@Base 4:4.3.4
 _ZN19KEncodingFileDialogD1Ev@Base 4:4.3.4
 _ZN19KEncodingFileDialogD2Ev@Base 4:4.3.4
 _ZN19KFileMetaDataWidget11qt_metacallEN11QMetaObject4CallEiPPv@Base 4:4.4.95
 _ZN19KFileMetaDataWidget11qt_metacastEPKc@Base 4:4.4.95
 _ZN19KFileMetaDataWidget11setReadOnlyEb@Base 4:4.4.95
 _ZN19KFileMetaDataWidget12urlActivatedERK4KUrl@Base 4:4.4.95
 _ZN19KFileMetaDataWidget16staticMetaObjectE@Base 4:4.4.95
 _ZN19KFileMetaDataWidget23metaDataRequestFinishedERK13KFileItemList@Base 4:4.5.1
 _ZN19KFileMetaDataWidget5eventEP6QEvent@Base 4:4.4.95
 _ZN19KFileMetaDataWidget7Private10deleteRowsEv@Base 4:4.5.85
 _ZN19KFileMetaDataWidget7Private17slotLinkActivatedERK7QString@Base 4:4.4.95
 _ZN19KFileMetaDataWidget7Private19slotLoadingFinishedEv@Base 4:4.4.95
 _ZN19KFileMetaDataWidget7Private20initMetaInfoSettingsEv@Base 4:4.4.95
 _ZN19KFileMetaDataWidget7Private21slotDataChangeStartedEv@Base 4:4.4.95
 _ZN19KFileMetaDataWidget7Private22slotDataChangeFinishedEv@Base 4:4.4.95
 _ZN19KFileMetaDataWidget7PrivateC1EPS_@Base 4:4.4.95
 _ZN19KFileMetaDataWidget7PrivateC2EPS_@Base 4:4.4.95
 _ZN19KFileMetaDataWidget7PrivateD1Ev@Base 4:4.4.95
 _ZN19KFileMetaDataWidget7PrivateD2Ev@Base 4:4.4.95
 _ZN19KFileMetaDataWidget8setItemsERK13KFileItemList@Base 4:4.4.95
 _ZN19KFileMetaDataWidgetC1EP7QWidget@Base 4:4.4.95
 _ZN19KFileMetaDataWidgetC2EP7QWidget@Base 4:4.4.95
 _ZN19KFileMetaDataWidgetD0Ev@Base 4:4.4.95
 _ZN19KFileMetaDataWidgetD1Ev@Base 4:4.4.95
 _ZN19KFileMetaDataWidgetD2Ev@Base 4:4.4.95
 _ZN19KFileMetaInfoWidget10makeWidgetEv@Base 4:4.3.4
 _ZN19KFileMetaInfoWidget11qt_metacallEN11QMetaObject4CallEiPPv@Base 4:4.3.4
 _ZN19KFileMetaInfoWidget11qt_metacastEPKc@Base 4:4.3.4
 _ZN19KFileMetaInfoWidget11slotChangedEb@Base 4:4.3.4
 _ZN19KFileMetaInfoWidget11slotChangedEd@Base 4:4.3.4
 _ZN19KFileMetaInfoWidget11slotChangedEi@Base 4:4.3.4
 _ZN19KFileMetaInfoWidget12valueChangedERK8QVariant@Base 4:4.3.4
 _ZN19KFileMetaInfoWidget13makeIntWidgetEv@Base 4:4.3.4
 _ZN19KFileMetaInfoWidget14makeBoolWidgetEv@Base 4:4.3.4
 _ZN19KFileMetaInfoWidget14makeDateWidgetEv@Base 4:4.3.4
 _ZN19KFileMetaInfoWidget14makeTimeWidgetEv@Base 4:4.3.4
 _ZN19KFileMetaInfoWidget15slotDateChangedERK5QDate@Base 4:4.3.4
 _ZN19KFileMetaInfoWidget15slotTimeChangedERK5QTime@Base 4:4.3.4
 _ZN19KFileMetaInfoWidget16makeDoubleWidgetEv@Base 4:4.3.4
 _ZN19KFileMetaInfoWidget16makeStringWidgetEv@Base 4:4.3.4
 _ZN19KFileMetaInfoWidget16slotComboChangedERK7QString@Base 4:4.3.4
 _ZN19KFileMetaInfoWidget16staticMetaObjectE@Base 4:4.3.4
 _ZN19KFileMetaInfoWidget17reparentValidatorEP7QWidgetP10QValidator@Base 4:4.3.4
 _ZN19KFileMetaInfoWidget18makeDateTimeWidgetEv@Base 4:4.3.4
 _ZN19KFileMetaInfoWidget19slotDateTimeChangedERK9QDateTime@Base 4:4.3.4
 _ZN19KFileMetaInfoWidget19slotLineEditChangedERK7QString@Base 4:4.3.4
 _ZN19KFileMetaInfoWidget24slotMultiLineEditChangedEv@Base 4:4.3.4
 _ZN19KFileMetaInfoWidget5applyEv@Base 4:4.3.4
 _ZN19KFileMetaInfoWidget8setValueERK8QVariant@Base 4:4.3.4
 _ZN19KFileMetaInfoWidgetC1E17KFileMetaInfoItemNS_4ModeEP10QValidatorP7QWidget@Base 4:4.3.4
 _ZN19KFileMetaInfoWidgetC1E17KFileMetaInfoItemP10QValidatorP7QWidget@Base 4:4.3.4
 _ZN19KFileMetaInfoWidgetC2E17KFileMetaInfoItemNS_4ModeEP10QValidatorP7QWidget@Base 4:4.3.4
 _ZN19KFileMetaInfoWidgetC2E17KFileMetaInfoItemP10QValidatorP7QWidget@Base 4:4.3.4
 _ZN19KFileMetaInfoWidgetD0Ev@Base 4:4.3.4
 _ZN19KFileMetaInfoWidgetD1Ev@Base 4:4.3.4
 _ZN19KFileMetaInfoWidgetD2Ev@Base 4:4.3.4
 _ZN19KPreviewPropsPlugin11qt_metacallEN11QMetaObject4CallEiPPv@Base 4:4.3.4
 _ZN19KPreviewPropsPlugin11qt_metacastEPKc@Base 4:4.3.4
 _ZN19KPreviewPropsPlugin12createLayoutEv@Base 4:4.3.4
 _ZN19KPreviewPropsPlugin16staticMetaObjectE@Base 4:4.3.4
 _ZN19KPreviewPropsPlugin18currentPageChangedEP15KPageWidgetItemS1_@Base 4:4.3.4
 _ZN19KPreviewPropsPlugin8supportsERK13KFileItemList@Base 4:4.3.4
 _ZN19KPreviewPropsPluginC1EP17KPropertiesDialog@Base 4:4.3.4
 _ZN19KPreviewPropsPluginC2EP17KPropertiesDialog@Base 4:4.3.4
 _ZN19KPreviewPropsPluginD0Ev@Base 4:4.3.4
 _ZN19KPreviewPropsPluginD1Ev@Base 4:4.3.4
 _ZN19KPreviewPropsPluginD2Ev@Base 4:4.3.4
 _ZN19KUrlRequesterDialog10fileDialogEv@Base 4:4.3.4
 _ZN19KUrlRequesterDialog11qt_metacallEN11QMetaObject4CallEiPPv@Base 4:4.3.4
 _ZN19KUrlRequesterDialog11qt_metacastEPKc@Base 4:4.3.4
 _ZN19KUrlRequesterDialog12urlRequesterEv@Base 4:4.3.4
 _ZN19KUrlRequesterDialog16staticMetaObjectE@Base 4:4.3.4
 _ZN19KUrlRequesterDialog6getUrlERK7QStringP7QWidgetS2_@Base 4:4.3.4
 _ZN19KUrlRequesterDialogC1ERK7QStringP7QWidget@Base 4:4.3.4
 _ZN19KUrlRequesterDialogC1ERK7QStringS2_P7QWidget@Base 4:4.3.4
 _ZN19KUrlRequesterDialogC2ERK7QStringP7QWidget@Base 4:4.3.4
 _ZN19KUrlRequesterDialogC2ERK7QStringS2_P7QWidget@Base 4:4.3.4
 _ZN19KUrlRequesterDialogD0Ev@Base 4:4.3.4
 _ZN19KUrlRequesterDialogD1Ev@Base 4:4.3.4
 _ZN19KUrlRequesterDialogD2Ev@Base 4:4.3.4
 _ZN19PredicateProperties7Private10nullStringE@Base 4:4.3.4
 _ZN19PredicateProperties7Private14nullStringListE@Base 4:4.3.4
 _ZN19PredicateProperties7Private6nullPPE@Base 4:4.3.4
 _ZN19PredicatePropertiesC1ERK7QString@Base 4:4.3.4
 _ZN19PredicatePropertiesC1ERKS_@Base 4:4.3.4
 _ZN19PredicatePropertiesC2ERK7QString@Base 4:4.3.4
 _ZN19PredicatePropertiesC2ERKS_@Base 4:4.3.4
 _ZN19PredicatePropertiesD1Ev@Base 4:4.3.4
 _ZN19PredicatePropertiesD2Ev@Base 4:4.3.4
 _ZN19PredicatePropertiesaSERKS_@Base 4:4.3.4
 _ZN20KBookmarkContextMenu10addActionsEv@Base 4:4.3.4
 _ZN20KBookmarkContextMenu10slotEditAtEv@Base 4:4.3.4
 _ZN20KBookmarkContextMenu10slotInsertEv@Base 4:4.3.4
 _ZN20KBookmarkContextMenu10slotRemoveEv@Base 4:4.3.4
 _ZN20KBookmarkContextMenu11addBookmarkEv@Base 4:4.3.4
 _ZN20KBookmarkContextMenu11qt_metacallEN11QMetaObject4CallEiPPv@Base 4:4.3.4
 _ZN20KBookmarkContextMenu11qt_metacastEPKc@Base 4:4.3.4
 _ZN20KBookmarkContextMenu13addPropertiesEv@Base 4:4.3.4
 _ZN20KBookmarkContextMenu14slotPropertiesEv@Base 4:4.3.4
 _ZN20KBookmarkContextMenu15slotAboutToShowEv@Base 4:4.3.4
 _ZN20KBookmarkContextMenu16addFolderActionsEv@Base 4:4.3.4
 _ZN20KBookmarkContextMenu16slotCopyLocationEv@Base 4:4.3.4
 _ZN20KBookmarkContextMenu16staticMetaObjectE@Base 4:4.3.4
 _ZN20KBookmarkContextMenu18addBookmarkActionsEv@Base 4:4.3.4
 _ZN20KBookmarkContextMenu19addOpenFolderInTabsEv@Base 4:4.3.4
 _ZN20KBookmarkContextMenu20slotOpenFolderInTabsEv@Base 4:4.3.4
 _ZN20KBookmarkContextMenuC1ERK9KBookmarkP16KBookmarkManagerP14KBookmarkOwnerP7QWidget@Base 4:4.3.4
 _ZN20KBookmarkContextMenuC2ERK9KBookmarkP16KBookmarkManagerP14KBookmarkOwnerP7QWidget@Base 4:4.3.4
 _ZN20KBookmarkContextMenuD0Ev@Base 4:4.3.4
 _ZN20KBookmarkContextMenuD1Ev@Base 4:4.3.4
 _ZN20KBookmarkContextMenuD2Ev@Base 4:4.3.4
 _ZN20KFileMetaPropsPlugin11qt_metacallEN11QMetaObject4CallEiPPv@Base 4:4.3.4
 _ZN20KFileMetaPropsPlugin11qt_metacastEPKc@Base 4:4.3.4
 _ZN20KFileMetaPropsPlugin12applyChangesEv@Base 4:4.3.4
 _ZN20KFileMetaPropsPlugin16staticMetaObjectE@Base 4:4.3.4
 _ZN20KFileMetaPropsPlugin27KFileMetaPropsPluginPrivate22configureShownMetaDataEv@Base 4:4.4.95
 _ZN20KFileMetaPropsPlugin27KFileMetaPropsPluginPrivateC1Ev@Base 4:4.4.95
 _ZN20KFileMetaPropsPlugin27KFileMetaPropsPluginPrivateC2Ev@Base 4:4.4.95
 _ZN20KFileMetaPropsPlugin27KFileMetaPropsPluginPrivateD1Ev@Base 4:4.4.95
 _ZN20KFileMetaPropsPlugin27KFileMetaPropsPluginPrivateD2Ev@Base 4:4.4.95
 _ZN20KFileMetaPropsPlugin8supportsERK13KFileItemList@Base 4:4.3.4
 _ZN20KFileMetaPropsPluginC1EP17KPropertiesDialog@Base 4:4.3.4
 _ZN20KFileMetaPropsPluginC2EP17KPropertiesDialog@Base 4:4.3.4
 _ZN20KFileMetaPropsPluginD0Ev@Base 4:4.3.4
 _ZN20KFileMetaPropsPluginD1Ev@Base 4:4.3.4
 _ZN20KFileMetaPropsPluginD2Ev@Base 4:4.3.4
 _ZN20ThumbSequenceCreator16setSequenceIndexEf@Base 4:4.3.4
 _ZN20ThumbSequenceCreatorC1Ev@Base 4:4.3.4
 _ZN20ThumbSequenceCreatorC2Ev@Base 4:4.3.4
 _ZN20ThumbSequenceCreatorD0Ev@Base 4:4.3.4
 _ZN20ThumbSequenceCreatorD1Ev@Base 4:4.3.4
 _ZN20ThumbSequenceCreatorD2Ev@Base 4:4.3.4
 _ZN21KBookmarkImporterBase11newBookmarkERK7QStringS2_S2_@Base 4:4.3.4
 _ZN21KBookmarkImporterBase11qt_metacallEN11QMetaObject4CallEiPPv@Base 4:4.3.4
 _ZN21KBookmarkImporterBase11qt_metacastEPKc@Base 4:4.3.4
 _ZN21KBookmarkImporterBase12newSeparatorEv@Base 4:4.3.4
 _ZN21KBookmarkImporterBase16staticMetaObjectE@Base 4:4.3.4
 _ZN21KBookmarkImporterBase19setupSignalForwardsEP7QObjectS1_@Base 4:4.3.4
 _ZN21KBookmarkImporterBase7factoryERK7QString@Base 4:4.3.4
 _ZN21KBookmarkImporterBase9endFolderEv@Base 4:4.3.4
 _ZN21KBookmarkImporterBase9newFolderERK7QStringbS2_@Base 4:4.3.4
 _ZN21KFileItemActionPlugin11qt_metacallEN11QMetaObject4CallEiPPv@Base 4:4.5.85
 _ZN21KFileItemActionPlugin11qt_metacastEPKc@Base 4:4.5.85
 _ZN21KFileItemActionPlugin16staticMetaObjectE@Base 4:4.5.85
 _ZN21KFileItemActionPluginC1EP7QObject@Base 4:4.5.85
 _ZN21KFileItemActionPluginC2EP7QObject@Base 4:4.5.85
 _ZN21KFileItemActionPluginD0Ev@Base 4:4.5.85
 _ZN21KFileItemActionPluginD1Ev@Base 4:4.5.85
 _ZN21KFileItemActionPluginD2Ev@Base 4:4.5.85
 _ZN21KFileSharePropsPlugin11qt_metacallEN11QMetaObject4CallEiPPv@Base 4:4.3.4
 _ZN21KFileSharePropsPlugin11qt_metacastEPKc@Base 4:4.3.4
 _ZN21KFileSharePropsPlugin12applyChangesEv@Base 4:4.3.4
 _ZN21KFileSharePropsPlugin16staticMetaObjectE@Base 4:4.3.4
 _ZN21KFileSharePropsPlugin24slotConfigureFileSharingEv@Base 4:4.3.4
 _ZN21KFileSharePropsPlugin28slotConfigureFileSharingDoneEv@Base 4:4.3.4
 _ZN21KFileSharePropsPlugin4initEv@Base 4:4.3.4
 _ZN21KFileSharePropsPlugin8supportsERK13KFileItemList@Base 4:4.3.4
 _ZN21KFileSharePropsPlugin9setSharedERK7QStringb@Base 4:4.3.4
 _ZN21KFileSharePropsPluginC1EP17KPropertiesDialog@Base 4:4.3.4
 _ZN21KFileSharePropsPluginC2EP17KPropertiesDialog@Base 4:4.3.4
 _ZN21KFileSharePropsPluginD0Ev@Base 4:4.3.4
 _ZN21KFileSharePropsPluginD1Ev@Base 4:4.3.4
 _ZN21KFileSharePropsPluginD2Ev@Base 4:4.3.4
 _ZN22KCrashBookmarkImporter11newBookmarkERK7QStringS2_S2_@Base 4:4.3.4
 _ZN22KCrashBookmarkImporter11qt_metacallEN11QMetaObject4CallEiPPv@Base 4:4.3.4
 _ZN22KCrashBookmarkImporter11qt_metacastEPKc@Base 4:4.3.4
 _ZN22KCrashBookmarkImporter12newSeparatorEv@Base 4:4.3.4
 _ZN22KCrashBookmarkImporter16staticMetaObjectE@Base 4:4.3.4
 _ZN22KCrashBookmarkImporter17crashBookmarksDirEv@Base 4:4.3.4
 _ZN22KCrashBookmarkImporter19parseCrashBookmarksEb@Base 4:4.3.4
 _ZN22KCrashBookmarkImporter9endFolderEv@Base 4:4.3.4
 _ZN22KCrashBookmarkImporter9newFolderERK7QStringbS2_@Base 4:4.3.4
 _ZN22KMimeTypeChooserDialog7Private4initEv@Base 4:4.3.4
 _ZN22KMimeTypeChooserDialog7chooserEv@Base 4:4.3.4
 _ZN22KMimeTypeChooserDialogC1ERK7QStringS2_RK11QStringListS2_P7QWidget@Base 4:4.3.4
 _ZN22KMimeTypeChooserDialogC1ERK7QStringS2_RK11QStringListS2_S5_iP7QWidget@Base 4:4.3.4
 _ZN22KMimeTypeChooserDialogC2ERK7QStringS2_RK11QStringListS2_P7QWidget@Base 4:4.3.4
 _ZN22KMimeTypeChooserDialogC2ERK7QStringS2_RK11QStringListS2_S5_iP7QWidget@Base 4:4.3.4
 _ZN22KMimeTypeChooserDialogD0Ev@Base 4:4.3.4
 _ZN22KMimeTypeChooserDialogD1Ev@Base 4:4.3.4
 _ZN22KMimeTypeChooserDialogD2Ev@Base 4:4.3.4
 _ZN23KBookmarkGroupTraverser10visitEnterERK14KBookmarkGroup@Base 4:4.3.4
 _ZN23KBookmarkGroupTraverser10visitLeaveERK14KBookmarkGroup@Base 4:4.3.4
 _ZN23KBookmarkGroupTraverser5visitERK9KBookmark@Base 4:4.3.4
 _ZN23KBookmarkGroupTraverser8traverseERK14KBookmarkGroup@Base 4:4.3.4
 _ZN23KBookmarkGroupTraverserD0Ev@Base 4:4.3.4
 _ZN23KBookmarkGroupTraverserD1Ev@Base 4:4.3.4
 _ZN23KBookmarkGroupTraverserD2Ev@Base 4:4.3.4
 _ZN23KFileItemListProperties8setItemsERK13KFileItemList@Base 4:4.3.4
 _ZN23KFileItemListPropertiesC1ERK13KFileItemList@Base 4:4.3.4
 _ZN23KFileItemListPropertiesC1ERKS_@Base 4:4.3.4
 _ZN23KFileItemListPropertiesC1Ev@Base 4:4.3.4
 _ZN23KFileItemListPropertiesC2ERK13KFileItemList@Base 4:4.3.4
 _ZN23KFileItemListPropertiesC2ERKS_@Base 4:4.3.4
 _ZN23KFileItemListPropertiesC2Ev@Base 4:4.3.4
 _ZN23KFileItemListPropertiesD0Ev@Base 4:4.3.4
 _ZN23KFileItemListPropertiesD1Ev@Base 4:4.3.4
 _ZN23KFileItemListPropertiesD2Ev@Base 4:4.3.4
 _ZN23KFileItemListPropertiesaSERKS_@Base 4:4.3.4
 _ZN23KIEBookmarkExporterImpl5writeERK14KBookmarkGroup@Base 4:4.3.4
 _ZN23KIEBookmarkImporterImpl5parseEv@Base 4:4.3.4
 _ZN23KIEBookmarkImporterImplD0Ev@Base 4:4.7.2
 _ZN23KIEBookmarkImporterImplD1Ev@Base 4:4.7.2
 _ZN23KIEBookmarkImporterImplD2Ev@Base 4:4.7.2
 _ZN23KNSBookmarkExporterImpl5writeERK14KBookmarkGroup@Base 4:4.3.4
 _ZN23KNSBookmarkExporterImpl7setUtf8Eb@Base 4:4.3.4
 _ZN23KNSBookmarkImporterImpl5parseEv@Base 4:4.3.4
 _ZN23KNSBookmarkImporterImplD0Ev@Base 4:4.7.2
 _ZN23KNSBookmarkImporterImplD1Ev@Base 4:4.7.2
 _ZN23KNSBookmarkImporterImplD2Ev@Base 4:4.7.2
 _ZN23KPropertiesDialogPlugin11qt_metacallEN11QMetaObject4CallEiPPv@Base 4:4.3.4
 _ZN23KPropertiesDialogPlugin11qt_metacastEPKc@Base 4:4.3.4
 _ZN23KPropertiesDialogPlugin12applyChangesEv@Base 4:4.3.4
 _ZN23KPropertiesDialogPlugin13isDesktopFileERK9KFileItem@Base 4:4.3.4
 _ZN23KPropertiesDialogPlugin16staticMetaObjectE@Base 4:4.3.4
 _ZN23KPropertiesDialogPlugin7changedEv@Base 4:4.3.4
 _ZN23KPropertiesDialogPlugin8setDirtyEb@Base 4:4.3.4
 _ZN23KPropertiesDialogPlugin8setDirtyEv@Base 4:4.3.4
 _ZN23KPropertiesDialogPluginC1EP17KPropertiesDialog@Base 4:4.3.4
 _ZN23KPropertiesDialogPluginC2EP17KPropertiesDialog@Base 4:4.3.4
 _ZN23KPropertiesDialogPluginD0Ev@Base 4:4.3.4
 _ZN23KPropertiesDialogPluginD1Ev@Base 4:4.3.4
 _ZN23KPropertiesDialogPluginD2Ev@Base 4:4.3.4
 _ZN23KonqBookmarkContextMenu10addActionsEv@Base 4:4.3.4
 _ZN23KonqBookmarkContextMenu11qt_metacallEN11QMetaObject4CallEiPPv@Base 4:4.3.4
 _ZN23KonqBookmarkContextMenu11qt_metacastEPKc@Base 4:4.3.4
 _ZN23KonqBookmarkContextMenu12openInNewTabEv@Base 4:4.3.4
 _ZN23KonqBookmarkContextMenu15openInNewWindowEv@Base 4:4.3.4
 _ZN23KonqBookmarkContextMenu16staticMetaObjectE@Base 4:4.3.4
 _ZN23KonqBookmarkContextMenu19toggleShowInToolbarEv@Base 4:4.3.4
 _ZN23KonqBookmarkContextMenuC1ERK9KBookmarkP16KBookmarkManagerP17KonqBookmarkOwner@Base 4:4.3.4
 _ZN23KonqBookmarkContextMenuC2ERK9KBookmarkP16KBookmarkManagerP17KonqBookmarkOwner@Base 4:4.3.4
 _ZN23KonqBookmarkContextMenuD0Ev@Base 4:4.3.4
 _ZN23KonqBookmarkContextMenuD1Ev@Base 4:4.3.4
 _ZN23KonqBookmarkContextMenuD2Ev@Base 4:4.3.4
 _ZN24KBookmarkActionInterfaceC1ERK9KBookmark@Base 4:4.3.4
 _ZN24KBookmarkActionInterfaceC2ERK9KBookmark@Base 4:4.3.4
 _ZN24KBookmarkActionInterfaceD0Ev@Base 4:4.3.4
 _ZN24KBookmarkActionInterfaceD1Ev@Base 4:4.3.4
 _ZN24KBookmarkActionInterfaceD2Ev@Base 4:4.3.4
 _ZN24KUriFilterSearchProvider11setIconNameERK7QString@Base 4:4.5.85
 _ZN24KUriFilterSearchProvider19setDesktopEntryNameERK7QString@Base 4:4.5.85
 _ZN24KUriFilterSearchProvider7setKeysERK11QStringList@Base 4:4.5.85
 _ZN24KUriFilterSearchProvider7setNameERK7QString@Base 4:4.5.85
 _ZN24KUriFilterSearchProviderC1ERKS_@Base 4:4.5.85
 _ZN24KUriFilterSearchProviderC1Ev@Base 4:4.5.85
 _ZN24KUriFilterSearchProviderC2ERKS_@Base 4:4.5.85
 _ZN24KUriFilterSearchProviderC2Ev@Base 4:4.5.85
 _ZN24KUriFilterSearchProviderD0Ev@Base 4:4.5.85
 _ZN24KUriFilterSearchProviderD1Ev@Base 4:4.5.85
 _ZN24KUriFilterSearchProviderD2Ev@Base 4:4.5.85
 _ZN24KUriFilterSearchProvideraSERKS_@Base 4:4.5.85
 _ZN25KXBELBookmarkImporterImpl10visitEnterERK14KBookmarkGroup@Base 4:4.3.4
 _ZN25KXBELBookmarkImporterImpl10visitLeaveERK14KBookmarkGroup@Base 4:4.3.4
 _ZN25KXBELBookmarkImporterImpl11qt_metacallEN11QMetaObject4CallEiPPv@Base 4:4.3.4
 _ZN25KXBELBookmarkImporterImpl11qt_metacastEPKc@Base 4:4.3.4
 _ZN25KXBELBookmarkImporterImpl16staticMetaObjectE@Base 4:4.3.4
 _ZN25KXBELBookmarkImporterImpl5parseEv@Base 4:4.3.4
 _ZN25KXBELBookmarkImporterImpl5visitERK9KBookmark@Base 4:4.3.4
 _ZN25KXBELBookmarkImporterImplD0Ev@Base 4:4.7.2
 _ZN25KXBELBookmarkImporterImplD1Ev@Base 4:4.7.2
 _ZN25KXBELBookmarkImporterImplD2Ev@Base 4:4.7.2
 _ZN25OrgKdeKDirNotifyInterface10FilesAddedERK7QString@Base 4:4.3.4
 _ZN25OrgKdeKDirNotifyInterface11FileRenamedERK7QStringS2_@Base 4:4.3.4
 _ZN25OrgKdeKDirNotifyInterface11qt_metacallEN11QMetaObject4CallEiPPv@Base 4:4.3.4
 _ZN25OrgKdeKDirNotifyInterface11qt_metacastEPKc@Base 4:4.3.4
 _ZN25OrgKdeKDirNotifyInterface12FilesChangedERK11QStringList@Base 4:4.3.4
 _ZN25OrgKdeKDirNotifyInterface12FilesRemovedERK11QStringList@Base 4:4.3.4
 _ZN25OrgKdeKDirNotifyInterface13emitFileMovedERK7QStringS2_@Base 4:4.3.4
 _ZN25OrgKdeKDirNotifyInterface13leftDirectoryERK7QString@Base 4:4.3.4
 _ZN25OrgKdeKDirNotifyInterface14emitFilesAddedERK7QString@Base 4:4.3.4
 _ZN25OrgKdeKDirNotifyInterface15emitFileRenamedERK7QStringS2_@Base 4:4.3.4
 _ZN25OrgKdeKDirNotifyInterface16emitFilesChangedERK11QStringList@Base 4:4.3.4
 _ZN25OrgKdeKDirNotifyInterface16emitFilesRemovedERK11QStringList@Base 4:4.3.4
 _ZN25OrgKdeKDirNotifyInterface16enteredDirectoryERK7QString@Base 4:4.3.4
 _ZN25OrgKdeKDirNotifyInterface16staticMetaObjectE@Base 4:4.3.4
 _ZN25OrgKdeKDirNotifyInterface17emitLeftDirectoryERK7QString@Base 4:4.3.4
 _ZN25OrgKdeKDirNotifyInterface20emitEnteredDirectoryERK7QString@Base 4:4.3.4
 _ZN25OrgKdeKDirNotifyInterface9FileMovedERK7QStringS2_@Base 4:4.3.4
 _ZN25OrgKdeKDirNotifyInterfaceC1ERK7QStringS2_RK15QDBusConnectionP7QObject@Base 4:4.3.4
 _ZN25OrgKdeKDirNotifyInterfaceC2ERK7QStringS2_RK15QDBusConnectionP7QObject@Base 4:4.3.4
 _ZN25OrgKdeKDirNotifyInterfaceD0Ev@Base 4:4.3.4
 _ZN25OrgKdeKDirNotifyInterfaceD1Ev@Base 4:4.3.4
 _ZN25OrgKdeKDirNotifyInterfaceD2Ev@Base 4:4.3.4
 _ZN26KBuildSycocaProgressDialog11qt_metacallEN11QMetaObject4CallEiPPv@Base 4:4.3.4
 _ZN26KBuildSycocaProgressDialog11qt_metacastEPKc@Base 4:4.3.4
 _ZN26KBuildSycocaProgressDialog14rebuildKSycocaEP7QWidget@Base 4:4.3.4
 _ZN26KBuildSycocaProgressDialog16staticMetaObjectE@Base 4:4.3.4
 _ZN26KBuildSycocaProgressDialogC1EP7QWidgetRK7QStringS4_@Base 4:4.3.4
 _ZN26KBuildSycocaProgressDialogC2EP7QWidgetRK7QStringS4_@Base 4:4.3.4
 _ZN26KBuildSycocaProgressDialogD0Ev@Base 4:4.3.4
 _ZN26KBuildSycocaProgressDialogD1Ev@Base 4:4.3.4
 _ZN26KBuildSycocaProgressDialogD2Ev@Base 4:4.3.4
 _ZN26KCrashBookmarkImporterImpl12getCrashLogsEv@Base 4:4.3.4
 _ZN26KCrashBookmarkImporterImpl15setShouldDeleteEb@Base 4:4.3.4
 _ZN26KCrashBookmarkImporterImpl20parseCrashLog_noemitERK7QStringb@Base 4:4.3.4
 _ZN26KCrashBookmarkImporterImpl5parseEv@Base 4:4.3.4
 _ZN26KCrashBookmarkImporterImplD0Ev@Base 4:4.7.2
 _ZN26KCrashBookmarkImporterImplD1Ev@Base 4:4.7.2
 _ZN26KCrashBookmarkImporterImplD2Ev@Base 4:4.7.2
 _ZN26KOperaBookmarkExporterImpl5writeERK14KBookmarkGroup@Base 4:4.3.4
 _ZN26KOperaBookmarkImporterImpl5parseEv@Base 4:4.3.4
 _ZN26KOperaBookmarkImporterImplD0Ev@Base 4:4.7.2
 _ZN26KOperaBookmarkImporterImplD1Ev@Base 4:4.7.2
 _ZN26KOperaBookmarkImporterImplD2Ev@Base 4:4.7.2
 _ZN26KStatusBarOfflineIndicator11qt_metacallEN11QMetaObject4CallEiPPv@Base 4:4.3.4
 _ZN26KStatusBarOfflineIndicator11qt_metacastEPKc@Base 4:4.3.4
 _ZN26KStatusBarOfflineIndicator16staticMetaObjectE@Base 4:4.3.4
 _ZN26KStatusBarOfflineIndicatorC1EP7QWidget@Base 4:4.3.4
 _ZN26KStatusBarOfflineIndicatorC2EP7QWidget@Base 4:4.3.4
 _ZN26KStatusBarOfflineIndicatorD0Ev@Base 4:4.3.4
 _ZN26KStatusBarOfflineIndicatorD1Ev@Base 4:4.3.4
 _ZN26KStatusBarOfflineIndicatorD2Ev@Base 4:4.3.4
 _ZN28KMozillaBookmarkImporterImplD0Ev@Base 4:4.7.2
 _ZN28KMozillaBookmarkImporterImplD1Ev@Base 4:4.7.2
 _ZN28KMozillaBookmarkImporterImplD2Ev@Base 4:4.7.2
 _ZN29KAbstractFileItemActionPlugin11qt_metacallEN11QMetaObject4CallEiPPv@Base 4:4.6.1
 _ZN29KAbstractFileItemActionPlugin11qt_metacastEPKc@Base 4:4.6.1
 _ZN29KAbstractFileItemActionPlugin16staticMetaObjectE@Base 4:4.6.1
 _ZN29KAbstractFileItemActionPluginC1EP7QObject@Base 4:4.6.1
 _ZN29KAbstractFileItemActionPluginC2EP7QObject@Base 4:4.6.1
 _ZN29KAbstractFileItemActionPluginD0Ev@Base 4:4.6.1
 _ZN29KAbstractFileItemActionPluginD1Ev@Base 4:4.6.1
 _ZN29KAbstractFileItemActionPluginD2Ev@Base 4:4.6.1
 _ZN32KFileMetaDataConfigurationWidget11qt_metacallEN11QMetaObject4CallEiPPv@Base 4:4.4.95
 _ZN32KFileMetaDataConfigurationWidget11qt_metacastEPKc@Base 4:4.4.95
 _ZN32KFileMetaDataConfigurationWidget16staticMetaObjectE@Base 4:4.4.95
 _ZN32KFileMetaDataConfigurationWidget4saveEv@Base 4:4.4.95
 _ZN32KFileMetaDataConfigurationWidget5eventEP6QEvent@Base 4:4.4.95
 _ZN32KFileMetaDataConfigurationWidget7Private12loadMetaDataEv@Base 4:4.4.95
 _ZN32KFileMetaDataConfigurationWidget7Private19slotLoadingFinishedEv@Base 4:4.4.95
 _ZN32KFileMetaDataConfigurationWidget7Private7addItemERK4KUrl@Base 4:4.4.95
 _ZN32KFileMetaDataConfigurationWidget7PrivateC1EPS_@Base 4:4.4.95
 _ZN32KFileMetaDataConfigurationWidget7PrivateC2EPS_@Base 4:4.4.95
 _ZN32KFileMetaDataConfigurationWidget7PrivateD1Ev@Base 4:4.4.95
 _ZN32KFileMetaDataConfigurationWidget7PrivateD2Ev@Base 4:4.4.95
 _ZN32KFileMetaDataConfigurationWidget8setItemsERK13KFileItemList@Base 4:4.4.95
 _ZN32KFileMetaDataConfigurationWidgetC1EP7QWidget@Base 4:4.4.95
 _ZN32KFileMetaDataConfigurationWidgetC2EP7QWidget@Base 4:4.4.95
 _ZN32KFileMetaDataConfigurationWidgetD0Ev@Base 4:4.4.95
 _ZN32KFileMetaDataConfigurationWidgetD1Ev@Base 4:4.4.95
 _ZN32KFileMetaDataConfigurationWidgetD2Ev@Base 4:4.4.95
 _ZN3KDE6renameERK7QStringS2_@Base 4:4.7.4
 _ZN3KIO10Connection11qt_metacallEN11QMetaObject4CallEiPPv@Base 4:4.3.4
 _ZN3KIO10Connection11qt_metacastEPKc@Base 4:4.3.4
 _ZN3KIO10Connection15connectToRemoteERK7QString@Base 4:4.3.4
 _ZN3KIO10Connection16staticMetaObjectE@Base 4:4.3.4
 _ZN3KIO10Connection19waitForIncomingTaskEi@Base 4:4.3.4
 _ZN3KIO10Connection4readEPiR10QByteArray@Base 4:4.3.4
 _ZN3KIO10Connection4sendEiRK10QByteArray@Base 4:4.3.4
 _ZN3KIO10Connection5closeEv@Base 4:4.3.4
 _ZN3KIO10Connection6resumeEv@Base 4:4.3.4
 _ZN3KIO10Connection7sendnowEiRK10QByteArray@Base 4:4.3.4
 _ZN3KIO10Connection7suspendEv@Base 4:4.3.4
 _ZN3KIO10Connection9readyReadEv@Base 4:4.3.4
 _ZN3KIO10ConnectionC1EP7QObject@Base 4:4.3.4
 _ZN3KIO10ConnectionC2EP7QObject@Base 4:4.3.4
 _ZN3KIO10ConnectionD0Ev@Base 4:4.3.4
 _ZN3KIO10ConnectionD1Ev@Base 4:4.3.4
 _ZN3KIO10ConnectionD2Ev@Base 4:4.3.4
 _ZN3KIO10PreviewJob10gotPreviewERK9KFileItemRK7QPixmap@Base 4:4.3.4
 _ZN3KIO10PreviewJob10removeItemERK4KUrl@Base 4:4.3.4
 _ZN3KIO10PreviewJob10slotResultEP4KJob@Base 4:4.3.4
 _ZN3KIO10PreviewJob11qt_metacallEN11QMetaObject4CallEiPPv@Base 4:4.3.4
 _ZN3KIO10PreviewJob11qt_metacastEPKc@Base 4:4.3.4
 _ZN3KIO10PreviewJob12setScaleTypeENS0_9ScaleTypeE@Base 4:4.7.0
 _ZN3KIO10PreviewJob15maximumFileSizeEv@Base 4:4.3.4
 _ZN3KIO10PreviewJob16availablePluginsEv@Base 4:4.3.4
 _ZN3KIO10PreviewJob16setSequenceIndexEi@Base 4:4.3.4
 _ZN3KIO10PreviewJob16staticMetaObjectE@Base 4:4.3.4
 _ZN3KIO10PreviewJob18setOverlayIconSizeEi@Base 4:4.7.0
 _ZN3KIO10PreviewJob18supportedMimeTypesEv@Base 4:4.3.4
 _ZN3KIO10PreviewJob19setOverlayIconAlphaEi@Base 4:4.7.0
 _ZN3KIO10PreviewJob20setIgnoreMaximumSizeEb@Base 4:4.3.4
 _ZN3KIO10PreviewJob6failedERK9KFileItem@Base 4:4.3.4
 _ZN3KIO10PreviewJobC1ERK13KFileItemListRK5QSizePK11QStringList@Base 4:4.7.0
 _ZN3KIO10PreviewJobC1ERK13KFileItemListiiiibbPK11QStringList@Base 4:4.3.4
 _ZN3KIO10PreviewJobC2ERK13KFileItemListRK5QSizePK11QStringList@Base 4:4.7.0
 _ZN3KIO10PreviewJobC2ERK13KFileItemListiiiibbPK11QStringList@Base 4:4.3.4
 _ZN3KIO10PreviewJobD0Ev@Base 4:4.3.4
 _ZN3KIO10PreviewJobD1Ev@Base 4:4.3.4
 _ZN3KIO10PreviewJobD2Ev@Base 4:4.3.4
 _ZN3KIO10SkipDialog11qt_metacallEN11QMetaObject4CallEiPPv@Base 4:4.3.4
 _ZN3KIO10SkipDialog11qt_metacastEPKc@Base 4:4.3.4
 _ZN3KIO10SkipDialog11skipPressedEv@Base 4:4.3.4
 _ZN3KIO10SkipDialog13cancelPressedEv@Base 4:4.3.4
 _ZN3KIO10SkipDialog15autoSkipPressedEv@Base 4:4.3.4
 _ZN3KIO10SkipDialog16staticMetaObjectE@Base 4:4.3.4
 _ZN3KIO10SkipDialog6resultEPS0_i@Base 4:4.3.4
 _ZN3KIO10SkipDialogC1EP7QWidgetbRK7QString@Base 4:4.3.4
 _ZN3KIO10SkipDialogC2EP7QWidgetbRK7QString@Base 4:4.3.4
 _ZN3KIO10SkipDialogD0Ev@Base 4:4.3.4
 _ZN3KIO10SkipDialogD1Ev@Base 4:4.3.4
 _ZN3KIO10SkipDialogD2Ev@Base 4:4.3.4
 _ZN3KIO10SpecialJob11qt_metacallEN11QMetaObject4CallEiPPv@Base 4:4.3.4
 _ZN3KIO10SpecialJob11qt_metacastEPKc@Base 4:4.3.4
 _ZN3KIO10SpecialJob12setArgumentsERK10QByteArray@Base 4:4.3.4
 _ZN3KIO10SpecialJob16staticMetaObjectE@Base 4:4.3.4
 _ZN3KIO10SpecialJobC1ERK4KUrlRK10QByteArray@Base 4:4.3.4
 _ZN3KIO10SpecialJobC2ERK4KUrlRK10QByteArray@Base 4:4.3.4
 _ZN3KIO10SpecialJobD0Ev@Base 4:4.3.4
 _ZN3KIO10SpecialJobD1Ev@Base 4:4.3.4
 _ZN3KIO10SpecialJobD2Ev@Base 4:4.3.4
 _ZN3KIO11FileCopyJob10slotResultEP4KJob@Base 4:4.3.4
 _ZN3KIO11FileCopyJob11qt_metacallEN11QMetaObject4CallEiPPv@Base 4:4.3.4
 _ZN3KIO11FileCopyJob11qt_metacastEPKc@Base 4:4.3.4
 _ZN3KIO11FileCopyJob13setSourceSizeEy@Base 4:4.3.4
 _ZN3KIO11FileCopyJob16staticMetaObjectE@Base 4:4.3.4
 _ZN3KIO11FileCopyJob19setModificationTimeERK9QDateTime@Base 4:4.3.4
 _ZN3KIO11FileCopyJob8doResumeEv@Base 4:4.3.4
 _ZN3KIO11FileCopyJob8mimetypeEPNS_3JobERK7QString@Base 4:4.3.4
 _ZN3KIO11FileCopyJob9doSuspendEv@Base 4:4.3.4
 _ZN3KIO11FileCopyJobC1ERNS_18FileCopyJobPrivateE@Base 4:4.3.4
 _ZN3KIO11FileCopyJobC2ERNS_18FileCopyJobPrivateE@Base 4:4.3.4
 _ZN3KIO11FileCopyJobD0Ev@Base 4:4.3.4
 _ZN3KIO11FileCopyJobD1Ev@Base 4:4.3.4
 _ZN3KIO11FileCopyJobD2Ev@Base 4:4.3.4
 _ZN3KIO11ImageFilter10shadowBlurER6QImagefRK6QColor@Base 4:4.3.4
 _ZN3KIO11Integration21sslConfigFromMetaDataERKNS_8MetaDataER17QSslConfiguration@Base 4:4.4.95
 _ZN3KIO11Integration9CookieJar11qt_metacallEN11QMetaObject4CallEiPPv@Base 4:4.4.0
 _ZN3KIO11Integration9CookieJar11qt_metacastEPKc@Base 4:4.4.0
 _ZN3KIO11Integration9CookieJar11setWindowIdEm@Base 4:4.4.0
 _ZN3KIO11Integration9CookieJar16staticMetaObjectE@Base 4:4.4.0
 _ZN3KIO11Integration9CookieJar17setCookiesFromUrlERK5QListI14QNetworkCookieERK4QUrl@Base 4:4.4.0
 _ZN3KIO11Integration9CookieJar20reparseConfigurationEv@Base 4:4.4.0
 _ZN3KIO11Integration9CookieJar23setDisableCookieStorageEb@Base 4:4.5.85
 _ZN3KIO11Integration9CookieJarC1EP7QObject@Base 4:4.4.0
 _ZN3KIO11Integration9CookieJarC2EP7QObject@Base 4:4.4.0
 _ZN3KIO11Integration9CookieJarD0Ev@Base 4:4.4.0
 _ZN3KIO11Integration9CookieJarD1Ev@Base 4:4.4.0
 _ZN3KIO11Integration9CookieJarD2Ev@Base 4:4.4.0
 _ZN3KIO11MetaInfoJob10removeItemERK9KFileItem@Base 4:4.3.4
 _ZN3KIO11MetaInfoJob10slotResultEP4KJob@Base 4:4.3.4
 _ZN3KIO11MetaInfoJob11getMetaInfoEv@Base 4:4.3.4
 _ZN3KIO11MetaInfoJob11gotMetaInfoERK9KFileItem@Base 4:4.3.4
 _ZN3KIO11MetaInfoJob11qt_metacallEN11QMetaObject4CallEiPPv@Base 4:4.3.4
 _ZN3KIO11MetaInfoJob11qt_metacastEPKc@Base 4:4.3.4
 _ZN3KIO11MetaInfoJob12slotMetaInfoEPNS_3JobERK10QByteArray@Base 4:4.3.4
 _ZN3KIO11MetaInfoJob16staticMetaObjectE@Base 4:4.3.4
 _ZN3KIO11MetaInfoJob17determineNextFileEv@Base 4:4.3.4
 _ZN3KIO11MetaInfoJob5startEv@Base 4:4.3.4
 _ZN3KIO11MetaInfoJob6failedERK9KFileItem@Base 4:4.3.4
 _ZN3KIO11MetaInfoJobC1ERK13KFileItemList6QFlagsIN13KFileMetaInfo4WhatEEiiRK11QStringListSA_@Base 4:4.3.4
 _ZN3KIO11MetaInfoJobC2ERK13KFileItemList6QFlagsIN13KFileMetaInfo4WhatEEiiRK11QStringListSA_@Base 4:4.3.4
 _ZN3KIO11MetaInfoJobD0Ev@Base 4:4.3.4
 _ZN3KIO11MetaInfoJobD1Ev@Base 4:4.3.4
 _ZN3KIO11MetaInfoJobD2Ev@Base 4:4.3.4
 _ZN3KIO11MimetypeJob11qt_metacallEN11QMetaObject4CallEiPPv@Base 4:4.3.4
 _ZN3KIO11MimetypeJob11qt_metacastEPKc@Base 4:4.3.4
 _ZN3KIO11MimetypeJob12slotFinishedEv@Base 4:4.3.4
 _ZN3KIO11MimetypeJob16staticMetaObjectE@Base 4:4.3.4
 _ZN3KIO11MimetypeJobC1ERNS_18MimetypeJobPrivateE@Base 4:4.3.4
 _ZN3KIO11MimetypeJobC2ERNS_18MimetypeJobPrivateE@Base 4:4.3.4
 _ZN3KIO11MimetypeJobD0Ev@Base 4:4.3.4
 _ZN3KIO11MimetypeJobD1Ev@Base 4:4.3.4
 _ZN3KIO11MimetypeJobD2Ev@Base 4:4.3.4
 _ZN3KIO11MultiGetJob11qt_metacallEN11QMetaObject4CallEiPPv@Base 4:4.3.4
 _ZN3KIO11MultiGetJob11qt_metacastEPKc@Base 4:4.3.4
 _ZN3KIO11MultiGetJob12slotFinishedEv@Base 4:4.3.4
 _ZN3KIO11MultiGetJob12slotMimetypeERK7QString@Base 4:4.3.4
 _ZN3KIO11MultiGetJob15slotRedirectionERK4KUrl@Base 4:4.3.4
 _ZN3KIO11MultiGetJob16staticMetaObjectE@Base 4:4.3.4
 _ZN3KIO11MultiGetJob3getElRK4KUrlRKNS_8MetaDataE@Base 4:4.3.4
 _ZN3KIO11MultiGetJob4dataElRK10QByteArray@Base 4:4.3.4
 _ZN3KIO11MultiGetJob6resultEl@Base 4:4.3.4
 _ZN3KIO11MultiGetJob8mimetypeElRK7QString@Base 4:4.3.4
 _ZN3KIO11MultiGetJob8slotDataERK10QByteArray@Base 4:4.3.4
 _ZN3KIO11MultiGetJobC1ERNS_18MultiGetJobPrivateE@Base 4:4.3.4
 _ZN3KIO11MultiGetJobC2ERNS_18MultiGetJobPrivateE@Base 4:4.3.4
 _ZN3KIO11MultiGetJobD0Ev@Base 4:4.3.4
 _ZN3KIO11MultiGetJobD1Ev@Base 4:4.3.4
 _ZN3KIO11MultiGetJobD2Ev@Base 4:4.3.4
 _ZN3KIO11SessionData11qt_metacallEN11QMetaObject4CallEiPPv@Base 4:4.3.4
 _ZN3KIO11SessionData11qt_metacastEPKc@Base 4:4.3.4
 _ZN3KIO11SessionData13configDataForERNS_8MetaDataERK7QStringS5_@Base 4:4.3.4
 _ZN3KIO11SessionData16staticMetaObjectE@Base 4:4.3.4
 _ZN3KIO11SessionData5resetEv@Base 4:4.3.4
 _ZN3KIO11SessionDataC1Ev@Base 4:4.3.4
 _ZN3KIO11SessionDataC2Ev@Base 4:4.3.4
 _ZN3KIO11SessionDataD0Ev@Base 4:4.3.4
 _ZN3KIO11SessionDataD1Ev@Base 4:4.3.4
 _ZN3KIO11SessionDataD2Ev@Base 4:4.3.4
 _ZN3KIO11SlaveConfig10configDataERK7QStringS3_@Base 4:4.3.4
 _ZN3KIO11SlaveConfig10configDataERK7QStringS3_S3_@Base 4:4.3.4
 _ZN3KIO11SlaveConfig11qt_metacallEN11QMetaObject4CallEiPPv@Base 4:4.3.4
 _ZN3KIO11SlaveConfig11qt_metacastEPKc@Base 4:4.3.4
 _ZN3KIO11SlaveConfig12configNeededERK7QStringS3_@Base 4:4.3.4
 _ZN3KIO11SlaveConfig13setConfigDataERK7QStringS3_RKNS_8MetaDataE@Base 4:4.3.4
 _ZN3KIO11SlaveConfig13setConfigDataERK7QStringS3_S3_S3_@Base 4:4.3.4
 _ZN3KIO11SlaveConfig16staticMetaObjectE@Base 4:4.3.4
 _ZN3KIO11SlaveConfig4selfEv@Base 4:4.3.4
 _ZN3KIO11SlaveConfig5resetEv@Base 4:4.3.4
 _ZN3KIO11SlaveConfigC1Ev@Base 4:4.3.4
 _ZN3KIO11SlaveConfigC2Ev@Base 4:4.3.4
 _ZN3KIO11SlaveConfigD0Ev@Base 4:4.3.4
 _ZN3KIO11SlaveConfigD1Ev@Base 4:4.3.4
 _ZN3KIO11SlaveConfigD2Ev@Base 4:4.3.4
 _ZN3KIO11TransferJob10slotResultEP4KJob@Base 4:4.3.4
 _ZN3KIO11TransferJob11qt_metacallEN11QMetaObject4CallEiPPv@Base 4:4.3.4
 _ZN3KIO11TransferJob11qt_metacastEPKc@Base 4:4.3.4
 _ZN3KIO11TransferJob11redirectionEPNS_3JobERK4KUrl@Base 4:4.3.4
 _ZN3KIO11TransferJob11slotDataReqEv@Base 4:4.3.4
 _ZN3KIO11TransferJob12setTotalSizeEy@Base 4:4.3.4
 _ZN3KIO11TransferJob12slotFinishedEv@Base 4:4.3.4
 _ZN3KIO11TransferJob12slotMetaDataERKNS_8MetaDataE@Base 4:4.3.4
 _ZN3KIO11TransferJob12slotMimetypeERK7QString@Base 4:4.3.4
 _ZN3KIO11TransferJob13sendAsyncDataERK10QByteArray@Base 4:4.3.4
 _ZN3KIO11TransferJob15slotRedirectionERK4KUrl@Base 4:4.3.4
 _ZN3KIO11TransferJob16staticMetaObjectE@Base 4:4.3.4
 _ZN3KIO11TransferJob17setReportDataSentEb@Base 4:4.3.4
 _ZN3KIO11TransferJob19setAsyncDataEnabledEb@Base 4:4.3.4
 _ZN3KIO11TransferJob19setModificationTimeERK9QDateTime@Base 4:4.3.4
 _ZN3KIO11TransferJob20permanentRedirectionEPNS_3JobERK4KUrlS5_@Base 4:4.3.4
 _ZN3KIO11TransferJob4dataEPNS_3JobERK10QByteArray@Base 4:4.3.4
 _ZN3KIO11TransferJob7dataReqEPNS_3JobER10QByteArray@Base 4:4.3.4
 _ZN3KIO11TransferJob8doResumeEv@Base 4:4.3.4
 _ZN3KIO11TransferJob8mimetypeEPNS_3JobERK7QString@Base 4:4.3.4
 _ZN3KIO11TransferJob8slotDataERK10QByteArray@Base 4:4.3.4
 _ZN3KIO11TransferJob9canResumeEPNS_3JobEy@Base 4:4.3.4
 _ZN3KIO11TransferJobC1ERNS_18TransferJobPrivateE@Base 4:4.3.4
 _ZN3KIO11TransferJobC2ERNS_18TransferJobPrivateE@Base 4:4.3.4
 _ZN3KIO11TransferJobD0Ev@Base 4:4.3.4
 _ZN3KIO11TransferJobD1Ev@Base 4:4.3.4
 _ZN3KIO11TransferJobD2Ev@Base 4:4.3.4
 _ZN3KIO11convertSizeEy@Base 4:4.3.4
 _ZN3KIO11davPropFindERK4KUrlRK12QDomDocumentRK7QString6QFlagsINS_7JobFlagEE@Base 4:4.3.4
 _ZN3KIO11filePreviewERK13KFileItemListRK5QSizePK11QStringList@Base 4:4.7.0
 _ZN3KIO11filePreviewERK13KFileItemListiiiibbPK11QStringList@Base 4:4.3.4
 _ZN3KIO11filePreviewERKN4KUrl4ListEiiiibbPK11QStringList@Base 4:4.3.4
 _ZN3KIO11file_deleteERK4KUrl6QFlagsINS_7JobFlagEE@Base 4:4.3.4
 _ZN3KIO11http_deleteERK4KUrl6QFlagsINS_7JobFlagEE@Base 4:4.7.4
 _ZN3KIO12RenameDialog10newDestUrlEv@Base 4:4.3.4
 _ZN3KIO12RenameDialog11createLabelEP7QWidgetRK7QStringb@Base 4:4.5.85
 _ZN3KIO12RenameDialog11qt_metacallEN11QMetaObject4CallEiPPv@Base 4:4.3.4
 _ZN3KIO12RenameDialog11qt_metacastEPKc@Base 4:4.3.4
 _ZN3KIO12RenameDialog11showSrcIconERK9KFileItem@Base 4:4.4.95
 _ZN3KIO12RenameDialog11skipPressedEv@Base 4:4.3.4
 _ZN3KIO12RenameDialog11suggestNameERK4KUrlRK7QString@Base 4:4.3.4
 _ZN3KIO12RenameDialog12resizePanelsEv@Base 4:4.7.4
 _ZN3KIO12RenameDialog12showDestIconERK9KFileItem@Base 4:4.4.95
 _ZN3KIO12RenameDialog13cancelPressedEv@Base 4:4.3.4
 _ZN3KIO12RenameDialog13renamePressedEv@Base 4:4.3.4
 _ZN3KIO12RenameDialog13resumePressedEv@Base 4:4.3.4
 _ZN3KIO12RenameDialog14showSrcPreviewERK9KFileItemRK7QPixmap@Base 4:4.4.95
 _ZN3KIO12RenameDialog15applyAllPressedEv@Base 4:4.4.95
 _ZN3KIO12RenameDialog15autoSkipPressedEv@Base 4:4.3.4
 _ZN3KIO12RenameDialog15showDestPreviewERK9KFileItemRK7QPixmap@Base 4:4.4.95
 _ZN3KIO12RenameDialog16overwritePressedEv@Base 4:4.3.4
 _ZN3KIO12RenameDialog16resumeAllPressedEv@Base 4:4.3.4
 _ZN3KIO12RenameDialog16staticMetaObjectE@Base 4:4.3.4
 _ZN3KIO12RenameDialog18enableRenameButtonERK7QString@Base 4:4.3.4
 _ZN3KIO12RenameDialog19createSqueezedLabelEP7QWidgetRK7QString@Base 4:4.5.85
 _ZN3KIO12RenameDialog19overwriteAllPressedEv@Base 4:4.3.4
 _ZN3KIO12RenameDialog21createContainerLayoutEP7QWidgetRK9KFileItemP6QLabel@Base 4:4.4.95
 _ZN3KIO12RenameDialog21suggestNewNamePressedEv@Base 4:4.3.4
 _ZN3KIO12RenameDialogC1EP7QWidgetRK7QStringRK4KUrlS8_NS_17RenameDialog_ModeEyyllll@Base 4:4.3.4
 _ZN3KIO12RenameDialogC2EP7QWidgetRK7QStringRK4KUrlS8_NS_17RenameDialog_ModeEyyllll@Base 4:4.3.4
 _ZN3KIO12RenameDialogD0Ev@Base 4:4.3.4
 _ZN3KIO12RenameDialogD1Ev@Base 4:4.3.4
 _ZN3KIO12RenameDialogD2Ev@Base 4:4.3.4
 _ZN3KIO12TCPSlaveBase11setBlockingEb@Base 4:4.3.4
 _ZN3KIO12TCPSlaveBase12virtual_hookEiPv@Base 4:4.3.4
 _ZN3KIO12TCPSlaveBase13connectToHostERK7QStringS3_t@Base 4:4.3.4
 _ZN3KIO12TCPSlaveBase13connectToHostERK7QStringtPS1_@Base 4:4.7.2
 _ZN3KIO12TCPSlaveBase15waitForResponseEi@Base 4:4.3.4
 _ZN3KIO12TCPSlaveBase18disconnectFromHostEv@Base 4:4.3.4
 _ZN3KIO12TCPSlaveBase19TcpSlaveBasePrivate16startTLSInternalEN10KTcpSocket10SslVersionERK17QSslConfigurationi@Base 4:4.8.4
 _ZN3KIO12TCPSlaveBase23selectClientCertificateEv@Base 4:4.3.4
 _ZN3KIO12TCPSlaveBase23verifyServerCertificateEv@Base 4:4.3.4
 _ZN3KIO12TCPSlaveBase4readEPci@Base 4:4.3.4
 _ZN3KIO12TCPSlaveBase5writeEPKci@Base 4:4.3.4
 _ZN3KIO12TCPSlaveBase8readLineEPci@Base 4:4.3.4
 _ZN3KIO12TCPSlaveBase8startSslEv@Base 4:4.3.4
 _ZN3KIO12TCPSlaveBaseC1ERK10QByteArrayS3_S3_b@Base 4:4.3.4
 _ZN3KIO12TCPSlaveBaseC2ERK10QByteArrayS3_S3_b@Base 4:4.3.4
 _ZN3KIO12TCPSlaveBaseD0Ev@Base 4:4.3.4
 _ZN3KIO12TCPSlaveBaseD1Ev@Base 4:4.3.4
 _ZN3KIO12TCPSlaveBaseD2Ev@Base 4:4.3.4
 _ZN3KIO12davPropPatchERK4KUrlRK12QDomDocument6QFlagsINS_7JobFlagEE@Base 4:4.3.4
 _ZN3KIO12fileMetaInfoERK13KFileItemList@Base 4:4.3.4
 _ZN3KIO12fileMetaInfoERKN4KUrl4ListE@Base 4:4.3.4
 _ZN3KIO12mostLocalUrlERK4KUrl6QFlagsINS_7JobFlagEE@Base 4:4.4.0
 _ZN3KIO12pixmapForUrlERK4KUrljN11KIconLoader5GroupEiiP7QString@Base 4:4.3.4
 _ZN3KIO13AccessManager11qt_metacallEN11QMetaObject4CallEiPPv@Base 4:4.3.4
 _ZN3KIO13AccessManager11qt_metacastEPKc@Base 4:4.3.4
 _ZN3KIO13AccessManager13createRequestEN21QNetworkAccessManager9OperationERK15QNetworkRequestP9QIODevice@Base 4:4.3.4
 _ZN3KIO13AccessManager14putReplyOnHoldEP13QNetworkReply@Base 4:4.6.0
 _ZN3KIO13AccessManager15requestMetaDataEv@Base 4:4.4.0
 _ZN3KIO13AccessManager15sessionMetaDataEv@Base 4:4.4.0
 _ZN3KIO13AccessManager16staticMetaObjectE@Base 4:4.3.4
 _ZN3KIO13AccessManager20AccessManagerPrivate21setMetaDataForRequestE15QNetworkRequestRNS_8MetaDataE@Base 4:4.6.0
 _ZN3KIO13AccessManager20setCookieJarWindowIdEm@Base 4:4.4.0
 _ZN3KIO13AccessManager25setExternalContentAllowedEb@Base 4:4.3.4
 _ZN3KIO13AccessManager32setEmitReadyReadOnMetaDataChangeEb@Base 4:4.7.0
 _ZN3KIO13AccessManager9setWindowEP7QWidget@Base 4:4.7.0
 _ZN3KIO13AccessManagerC1EP7QObject@Base 4:4.3.4
 _ZN3KIO13AccessManagerC2EP7QObject@Base 4:4.3.4
 _ZN3KIO13AccessManagerD0Ev@Base 4:4.3.4
 _ZN3KIO13AccessManagerD1Ev@Base 4:4.3.4
 _ZN3KIO13AccessManagerD2Ev@Base 4:4.3.4
 _ZN3KIO13JobUiDelegate11qt_metacallEN11QMetaObject4CallEiPPv@Base 4:4.3.4
 _ZN3KIO13JobUiDelegate11qt_metacastEPKc@Base 4:4.3.4
 _ZN3KIO13JobUiDelegate13askFileRenameEP4KJobRK7QStringS5_S5_NS_17RenameDialog_ModeERS3_yyllll@Base 4:4.3.4
 _ZN3KIO13JobUiDelegate16staticMetaObjectE@Base 4:4.3.4
 _ZN3KIO13JobUiDelegate21askDeleteConfirmationERKN4KUrl4ListENS0_12DeletionTypeENS0_16ConfirmationTypeE@Base 4:4.3.4
 _ZN3KIO13JobUiDelegate7askSkipEP4KJobbRK7QString@Base 4:4.3.4
 _ZN3KIO13JobUiDelegate9setWindowEP7QWidget@Base 4:4.3.4
 _ZN3KIO13JobUiDelegateC1Ev@Base 4:4.3.4
 _ZN3KIO13JobUiDelegateC2Ev@Base 4:4.3.4
 _ZN3KIO13JobUiDelegateD0Ev@Base 4:4.3.4
 _ZN3KIO13JobUiDelegateD1Ev@Base 4:4.3.4
 _ZN3KIO13JobUiDelegateD2Ev@Base 4:4.3.4
 _ZN3KIO13directorySizeERK13KFileItemList@Base 4:4.3.4
 _ZN3KIO13directorySizeERK4KUrl@Base 4:4.3.4
 _ZN3KIO13getJobTrackerEv@Base 4:4.3.4
 _ZN3KIO13listRecursiveERK4KUrl6QFlagsINS_7JobFlagEEb@Base 4:4.3.4
 _ZN3KIO13pasteMimeDataEPK9QMimeDataRK4KUrlRK7QStringP7QWidget@Base 4:4.7.0
 _ZN3KIO14PasswordDialog11qt_metacallEN11QMetaObject4CallEiPPv@Base 4:4.3.4
 _ZN3KIO14PasswordDialog11qt_metacastEPKc@Base 4:4.3.4
 _ZN3KIO14PasswordDialog16staticMetaObjectE@Base 4:4.3.4
 _ZN3KIO14PasswordDialog18getNameAndPasswordER7QStringS2_PbRKS1_bS5_S5_S5_@Base 4:4.3.4
 _ZN3KIO14PasswordDialogC1ERK7QStringS3_bbP7QWidget@Base 4:4.3.4
 _ZN3KIO14PasswordDialogC2ERK7QStringS3_bbP7QWidget@Base 4:4.3.4
 _ZN3KIO14PasswordDialogD0Ev@Base 4:4.3.4
 _ZN3KIO14PasswordDialogD1Ev@Base 4:4.3.4
 _ZN3KIO14PasswordDialogD2Ev@Base 4:4.3.4
 _ZN3KIO14SlaveInterface10messageBoxEiRK7QStringS3_S3_S3_@Base 4:4.3.4
 _ZN3KIO14SlaveInterface10messageBoxEiRK7QStringS3_S3_S3_S3_@Base 4:4.3.4
 _ZN3KIO14SlaveInterface11dropNetworkERK7QStringS3_@Base 4:4.3.4
 _ZN3KIO14SlaveInterface11infoMessageERK7QString@Base 4:4.3.4
 _ZN3KIO14SlaveInterface11listEntriesERK5QListINS_8UDSEntryEE@Base 4:4.3.4
 _ZN3KIO14SlaveInterface11qt_metacallEN11QMetaObject4CallEiPPv@Base 4:4.3.4
 _ZN3KIO14SlaveInterface11qt_metacastEPKc@Base 4:4.3.4
 _ZN3KIO14SlaveInterface11redirectionERK4KUrl@Base 4:4.3.4
 _ZN3KIO14SlaveInterface11slaveStatusEiRK10QByteArrayRK7QStringb@Base 4:4.3.4
 _ZN3KIO14SlaveInterface13processedSizeEy@Base 4:4.3.4
 _ZN3KIO14SlaveInterface13setConnectionEPNS_10ConnectionE@Base 4:4.3.4
 _ZN3KIO14SlaveInterface14needSubUrlDataEv@Base 4:4.3.4
 _ZN3KIO14SlaveInterface14requestNetworkERK7QStringS3_@Base 4:4.3.4
 _ZN3KIO14SlaveInterface16sendResumeAnswerEb@Base 4:4.3.4
 _ZN3KIO14SlaveInterface16staticMetaObjectE@Base 4:4.3.4
 _ZN3KIO14SlaveInterface4dataERK10QByteArray@Base 4:4.3.4
 _ZN3KIO14SlaveInterface4openEv@Base 4:4.3.4
 _ZN3KIO14SlaveInterface5errorEiRK7QString@Base 4:4.3.4
 _ZN3KIO14SlaveInterface5speedEm@Base 4:4.3.4
 _ZN3KIO14SlaveInterface7dataReqEv@Base 4:4.3.4
 _ZN3KIO14SlaveInterface7warningERK7QString@Base 4:4.3.4
 _ZN3KIO14SlaveInterface7writtenEy@Base 4:4.3.4
 _ZN3KIO14SlaveInterface8dispatchEiRK10QByteArray@Base 4:4.3.4
 _ZN3KIO14SlaveInterface8dispatchEv@Base 4:4.3.4
 _ZN3KIO14SlaveInterface8finishedEv@Base 4:4.3.4
 _ZN3KIO14SlaveInterface8metaDataERKNS_8MetaDataE@Base 4:4.3.4
 _ZN3KIO14SlaveInterface8mimeTypeERK7QString@Base 4:4.3.4
 _ZN3KIO14SlaveInterface8positionEy@Base 4:4.3.4
 _ZN3KIO14SlaveInterface9calcSpeedEv@Base 4:4.3.4
 _ZN3KIO14SlaveInterface9canResumeEy@Base 4:4.3.4
 _ZN3KIO14SlaveInterface9connectedEv@Base 4:4.3.4
 _ZN3KIO14SlaveInterface9errorPageEv@Base 4:4.3.4
 _ZN3KIO14SlaveInterface9setOffsetEy@Base 4:4.3.4
 _ZN3KIO14SlaveInterface9setWindowEP7QWidget@Base 4:4.8.4
 _ZN3KIO14SlaveInterface9statEntryERKNS_8UDSEntryE@Base 4:4.3.4
 _ZN3KIO14SlaveInterface9totalSizeEy@Base 4:4.3.4
 _ZN3KIO14SlaveInterfaceC1ERNS_21SlaveInterfacePrivateEP7QObject@Base 4:4.3.4
 _ZN3KIO14SlaveInterfaceC2ERNS_21SlaveInterfacePrivateEP7QObject@Base 4:4.3.4
 _ZN3KIO14SlaveInterfaceD0Ev@Base 4:4.3.4
 _ZN3KIO14SlaveInterfaceD1Ev@Base 4:4.3.4
 _ZN3KIO14SlaveInterfaceD2Ev@Base 4:4.3.4
 _ZN3KIO14convertSecondsEj@Base 4:4.3.4
 _ZN3KIO14decodeFileNameERK7QString@Base 4:4.3.4
 _ZN3KIO14encodeFileNameERK7QString@Base 4:4.3.4
 _ZN3KIO14pasteClipboardERK4KUrlP7QWidgetb@Base 4:4.3.4
 _ZN3KIO14pasteDataAsyncERK4KUrlRK10QByteArrayP7QWidgetRK7QString@Base 4:4.3.4
 _ZN3KIO14rawErrorDetailEiRK7QStringPK4KUrli@Base 4:4.3.4
 _ZN3KIO14storedHttpPostEP9QIODeviceRK4KUrlx6QFlagsINS_7JobFlagEE@Base 4:4.7.0
 _ZN3KIO14storedHttpPostERK10QByteArrayRK4KUrl6QFlagsINS_7JobFlagEE@Base 4:4.3.4
 _ZN3KIO15FileUndoManager11UiInterface12virtual_hookEiPv@Base 4:4.3.4
 _ZN3KIO15FileUndoManager11UiInterface15confirmDeletionERKN4KUrl4ListE@Base 4:4.3.4
 _ZN3KIO15FileUndoManager11UiInterface15setParentWidgetEP7QWidget@Base 4:4.3.4
 _ZN3KIO15FileUndoManager11UiInterface19setShowProgressInfoEb@Base 4:4.3.4
 _ZN3KIO15FileUndoManager11UiInterface21copiedFileWasModifiedERK4KUrlS4_RK9KDateTimeS7_@Base 4:4.3.4
 _ZN3KIO15FileUndoManager11UiInterface8jobErrorEPNS_3JobE@Base 4:4.3.4
 _ZN3KIO15FileUndoManager11UiInterfaceC1Ev@Base 4:4.3.4
 _ZN3KIO15FileUndoManager11UiInterfaceC2Ev@Base 4:4.3.4
 _ZN3KIO15FileUndoManager11UiInterfaceD0Ev@Base 4:4.3.4
 _ZN3KIO15FileUndoManager11UiInterfaceD1Ev@Base 4:4.3.4
 _ZN3KIO15FileUndoManager11UiInterfaceD2Ev@Base 4:4.3.4
 _ZN3KIO15FileUndoManager11qt_metacallEN11QMetaObject4CallEiPPv@Base 4:4.3.4
 _ZN3KIO15FileUndoManager11qt_metacastEPKc@Base 4:4.3.4
 _ZN3KIO15FileUndoManager13recordCopyJobEPNS_7CopyJobE@Base 4:4.3.4
 _ZN3KIO15FileUndoManager13undoAvailableEb@Base 4:4.3.4
 _ZN3KIO15FileUndoManager14setUiInterfaceEPNS0_11UiInterfaceE@Base 4:4.3.4
 _ZN3KIO15FileUndoManager15undoJobFinishedEv@Base 4:4.3.4
 _ZN3KIO15FileUndoManager15undoTextChangedERK7QString@Base 4:4.3.4
 _ZN3KIO15FileUndoManager16staticMetaObjectE@Base 4:4.3.4
 _ZN3KIO15FileUndoManager19jobRecordingStartedENS0_11CommandTypeE@Base 4:4.3.4
 _ZN3KIO15FileUndoManager20jobRecordingFinishedENS0_11CommandTypeE@Base 4:4.3.4
 _ZN3KIO15FileUndoManager22newCommandSerialNumberEv@Base 4:4.3.4
 _ZN3KIO15FileUndoManager4selfEv@Base 4:4.3.4
 _ZN3KIO15FileUndoManager4undoEv@Base 4:4.3.4
 _ZN3KIO15FileUndoManager9recordJobENS0_11CommandTypeERKN4KUrl4ListERKS2_PNS_3JobE@Base 4:4.3.4
 _ZN3KIO15FileUndoManagerC1Ev@Base 4:4.3.4
 _ZN3KIO15FileUndoManagerC2Ev@Base 4:4.3.4
 _ZN3KIO15FileUndoManagerD0Ev@Base 4:4.3.4
 _ZN3KIO15FileUndoManagerD1Ev@Base 4:4.3.4
 _ZN3KIO15FileUndoManagerD2Ev@Base 4:4.3.4
 _ZN3KIO15pasteActionTextEv@Base 4:4.3.4
 _ZN3KIO15pasteMimeSourceEPK9QMimeDataRK4KUrlRK7QStringP7QWidgetb@Base 4:4.3.4
 _ZN3KIO16ConnectionServer11qt_metacallEN11QMetaObject4CallEiPPv@Base 4:4.3.4
 _ZN3KIO16ConnectionServer11qt_metacastEPKc@Base 4:4.3.4
 _ZN3KIO16ConnectionServer13newConnectionEv@Base 4:4.3.4
 _ZN3KIO16ConnectionServer15listenForRemoteEv@Base 4:4.3.4
 _ZN3KIO16ConnectionServer16staticMetaObjectE@Base 4:4.3.4
 _ZN3KIO16ConnectionServer21nextPendingConnectionEv@Base 4:4.3.4
 _ZN3KIO16ConnectionServer24setNextPendingConnectionEPNS_10ConnectionE@Base 4:4.3.4
 _ZN3KIO16ConnectionServer5closeEv@Base 4:4.3.4
 _ZN3KIO16ConnectionServerC1EP7QObject@Base 4:4.3.4
 _ZN3KIO16ConnectionServerC2EP7QObject@Base 4:4.3.4
 _ZN3KIO16ConnectionServerD0Ev@Base 4:4.3.4
 _ZN3KIO16ConnectionServerD1Ev@Base 4:4.3.4
 _ZN3KIO16ConnectionServerD2Ev@Base 4:4.3.4
 _ZN3KIO16DirectorySizeJob10slotResultEP4KJob@Base 4:4.3.4
 _ZN3KIO16DirectorySizeJob11qt_metacallEN11QMetaObject4CallEiPPv@Base 4:4.3.4
 _ZN3KIO16DirectorySizeJob11qt_metacastEPKc@Base 4:4.3.4
 _ZN3KIO16DirectorySizeJob16staticMetaObjectE@Base 4:4.3.4
 _ZN3KIO16DirectorySizeJobC1ERNS_23DirectorySizeJobPrivateE@Base 4:4.3.4
 _ZN3KIO16DirectorySizeJobC2ERNS_23DirectorySizeJobPrivateE@Base 4:4.3.4
 _ZN3KIO16DirectorySizeJobD0Ev@Base 4:4.3.4
 _ZN3KIO16DirectorySizeJobD1Ev@Base 4:4.3.4
 _ZN3KIO16DirectorySizeJobD2Ev@Base 4:4.3.4
 _ZN3KIO16buildErrorStringEiRK7QString@Base 4:4.3.4
 _ZN3KIO17StoredTransferJob11qt_metacallEN11QMetaObject4CallEiPPv@Base 4:4.3.4
 _ZN3KIO17StoredTransferJob11qt_metacastEPKc@Base 4:4.3.4
 _ZN3KIO17StoredTransferJob16staticMetaObjectE@Base 4:4.3.4
 _ZN3KIO17StoredTransferJob7setDataERK10QByteArray@Base 4:4.3.4
 _ZN3KIO17StoredTransferJobC1ERNS_24StoredTransferJobPrivateE@Base 4:4.3.4
 _ZN3KIO17StoredTransferJobC2ERNS_24StoredTransferJobPrivateE@Base 4:4.3.4
 _ZN3KIO17StoredTransferJobD0Ev@Base 4:4.3.4
 _ZN3KIO17StoredTransferJobD1Ev@Base 4:4.3.4
 _ZN3KIO17StoredTransferJobD2Ev@Base 4:4.3.4
 _ZN3KIO17http_update_cacheERK4KUrlbl@Base 4:4.3.4
 _ZN3KIO17parseCacheControlERK7QString@Base 4:4.3.4
 _ZN3KIO18DefaultViewAdapter7connectEN20KAbstractViewAdapter6SignalEP7QObjectPKc@Base 4:4.3.4
 _ZN3KIO18DefaultViewAdapterC1EP17QAbstractItemViewP7QObject@Base 4:4.3.4
 _ZN3KIO18DefaultViewAdapterC2EP17QAbstractItemViewP7QObject@Base 4:4.3.4
 _ZN3KIO18DefaultViewAdapterD0Ev@Base 4:4.7.2
 _ZN3KIO18DefaultViewAdapterD1Ev@Base 4:4.7.2
 _ZN3KIO18DefaultViewAdapterD2Ev@Base 4:4.7.2
 _ZN3KIO18RenameDialogPlugin11qt_metacallEN11QMetaObject4CallEiPPv@Base 4:4.3.4
 _ZN3KIO18RenameDialogPlugin11qt_metacastEPKc@Base 4:4.3.4
 _ZN3KIO18RenameDialogPlugin16staticMetaObjectE@Base 4:4.3.4
 _ZN3KIO18RenameDialogPlugin8FileItemC1ERK4KUrlRK7QStringyll@Base 4:4.3.4
 _ZN3KIO18RenameDialogPlugin8FileItemC2ERK4KUrlRK7QStringyll@Base 4:4.3.4
 _ZN3KIO18RenameDialogPlugin8FileItemD1Ev@Base 4:4.3.4
 _ZN3KIO18RenameDialogPlugin8FileItemD2Ev@Base 4:4.3.4
 _ZN3KIO18RenameDialogPluginC1EP7QDialog@Base 4:4.3.4
 _ZN3KIO18RenameDialogPluginC2EP7QDialog@Base 4:4.3.4
 _ZN3KIO18RenameDialogPluginD0Ev@Base 4:4.7.2
 _ZN3KIO18RenameDialogPluginD1Ev@Base 4:4.7.2
 _ZN3KIO18RenameDialogPluginD2Ev@Base 4:4.7.2
 _ZN3KIO18calculateRemainingEyyy@Base 4:4.3.4
 _ZN3KIO18canPasteMimeSourceEPK9QMimeData@Base 4:4.3.4
 _ZN3KIO18convertSizeFromKiBEy@Base 4:4.3.4
 _ZN3KIO18itemsSummaryStringEjjjyb@Base 4:4.3.4
 _ZN3KIO19ForwardingSlaveBase11qt_metacallEN11QMetaObject4CallEiPPv@Base 4:4.3.4
 _ZN3KIO19ForwardingSlaveBase11qt_metacastEPKc@Base 4:4.3.4
 _ZN3KIO19ForwardingSlaveBase16staticMetaObjectE@Base 4:4.3.4
 _ZN3KIO19ForwardingSlaveBase19setModificationTimeERK4KUrlRK9QDateTime@Base 4:4.3.4
 _ZN3KIO19ForwardingSlaveBase3delERK4KUrlb@Base 4:4.3.4
 _ZN3KIO19ForwardingSlaveBase3getERK4KUrl@Base 4:4.3.4
 _ZN3KIO19ForwardingSlaveBase3putERK4KUrli6QFlagsINS_7JobFlagEE@Base 4:4.3.4
 _ZN3KIO19ForwardingSlaveBase4copyERK4KUrlS3_i6QFlagsINS_7JobFlagEE@Base 4:4.3.4
 _ZN3KIO19ForwardingSlaveBase4statERK4KUrl@Base 4:4.3.4
 _ZN3KIO19ForwardingSlaveBase5chmodERK4KUrli@Base 4:4.3.4
 _ZN3KIO19ForwardingSlaveBase5mkdirERK4KUrli@Base 4:4.3.4
 _ZN3KIO19ForwardingSlaveBase6renameERK4KUrlS3_6QFlagsINS_7JobFlagEE@Base 4:4.3.4
 _ZN3KIO19ForwardingSlaveBase7listDirERK4KUrl@Base 4:4.3.4
 _ZN3KIO19ForwardingSlaveBase7symlinkERK7QStringRK4KUrl6QFlagsINS_7JobFlagEE@Base 4:4.3.4
 _ZN3KIO19ForwardingSlaveBase8mimetypeERK4KUrl@Base 4:4.3.4
 _ZN3KIO19ForwardingSlaveBaseC1ERK10QByteArrayS3_S3_@Base 4:4.3.4
 _ZN3KIO19ForwardingSlaveBaseC2ERK10QByteArrayS3_S3_@Base 4:4.3.4
 _ZN3KIO19ForwardingSlaveBaseD0Ev@Base 4:4.3.4
 _ZN3KIO19ForwardingSlaveBaseD1Ev@Base 4:4.3.4
 _ZN3KIO19ForwardingSlaveBaseD2Ev@Base 4:4.3.4
 _ZN3KIO19setModificationTimeERK4KUrlRK9QDateTime@Base 4:4.3.4
 _ZN3KIO21getCacheControlStringENS_12CacheControlE@Base 4:4.3.4
 _ZN3KIO25calculateRemainingSecondsEyyy@Base 4:4.3.4
 _ZN3KIO28unsupportedActionErrorStringERK7QStringi@Base 4:4.3.4
 _ZN3KIO3Job11addMetaDataERK4QMapI7QStringS2_E@Base 4:4.3.4
 _ZN3KIO3Job11addMetaDataERK7QStringS3_@Base 4:4.3.4
 _ZN3KIO3Job11qt_metacallEN11QMetaObject4CallEiPPv@Base 4:4.3.4
 _ZN3KIO3Job11qt_metacastEPKc@Base 4:4.3.4
 _ZN3KIO3Job11setMetaDataERKNS_8MetaDataE@Base 4:4.3.4
 _ZN3KIO3Job12removeSubjobEP4KJob@Base 4:4.3.4
 _ZN3KIO3Job12setParentJobEPS0_@Base 4:4.3.4
 _ZN3KIO3Job13mergeMetaDataERK4QMapI7QStringS2_E@Base 4:4.3.4
 _ZN3KIO3Job13queryMetaDataERK7QString@Base 4:4.3.4
 _ZN3KIO3Job15showErrorDialogEP7QWidget@Base 4:4.3.4
 _ZN3KIO3Job16staticMetaObjectE@Base 4:4.3.4
 _ZN3KIO3Job6doKillEv@Base 4:4.3.4
 _ZN3KIO3Job8canceledEP4KJob@Base 4:4.3.4
 _ZN3KIO3Job8doResumeEv@Base 4:4.3.4
 _ZN3KIO3Job9addSubjobEP4KJob@Base 4:4.3.4
 _ZN3KIO3Job9connectedEPS0_@Base 4:4.3.4
 _ZN3KIO3Job9doSuspendEv@Base 4:4.3.4
 _ZN3KIO3JobC1ERNS_10JobPrivateE@Base 4:4.3.4
 _ZN3KIO3JobC1Ev@Base 4:4.3.4
 _ZN3KIO3JobC2ERNS_10JobPrivateE@Base 4:4.3.4
 _ZN3KIO3JobC2Ev@Base 4:4.3.4
 _ZN3KIO3JobD0Ev@Base 4:4.3.4
 _ZN3KIO3JobD1Ev@Base 4:4.3.4
 _ZN3KIO3JobD2Ev@Base 4:4.3.4
 _ZN3KIO3delERK4KUrl6QFlagsINS_7JobFlagEE@Base 4:4.3.4
 _ZN3KIO3delERKN4KUrl4ListE6QFlagsINS_7JobFlagEE@Base 4:4.3.4
 _ZN3KIO3getERK4KUrlNS_8LoadTypeE6QFlagsINS_7JobFlagEE@Base 4:4.3.4
 _ZN3KIO3putERK4KUrli6QFlagsINS_7JobFlagEE@Base 4:4.3.4
 _ZN3KIO4copyERK4KUrlS2_6QFlagsINS_7JobFlagEE@Base 4:4.3.4
 _ZN3KIO4copyERKN4KUrl4ListERKS0_6QFlagsINS_7JobFlagEE@Base 4:4.3.4
 _ZN3KIO4linkERK4KUrlS2_6QFlagsINS_7JobFlagEE@Base 4:4.3.4
 _ZN3KIO4linkERKN4KUrl4ListERKS0_6QFlagsINS_7JobFlagEE@Base 4:4.3.4
 _ZN3KIO4moveERK4KUrlS2_6QFlagsINS_7JobFlagEE@Base 4:4.3.4
 _ZN3KIO4moveERKN4KUrl4ListERKS0_6QFlagsINS_7JobFlagEE@Base 4:4.3.4
 _ZN3KIO4openERK4KUrl6QFlagsIN9QIODevice12OpenModeFlagEE@Base 4:4.3.4
 _ZN3KIO4statERK4KUrl6QFlagsINS_7JobFlagEE@Base 4:4.3.4
 _ZN3KIO4statERK4KUrlNS_7StatJob8StatSideEs6QFlagsINS_7JobFlagEE@Base 4:4.3.4
 _ZN3KIO4statERK4KUrlbs6QFlagsINS_7JobFlagEE@Base 4:4.3.4
 _ZN3KIO5NetRC4selfEv@Base 4:4.3.4
 _ZN3KIO5NetRC5openfERK7QString@Base 4:4.3.4
 _ZN3KIO5NetRC5parseEi@Base 4:4.3.4
 _ZN3KIO5NetRC6lookupERK4KUrlRNS0_9AutoLoginEbRK7QString6QFlagsINS0_14LookUpModeFlagEE@Base 4:4.3.4
 _ZN3KIO5NetRC6reloadEv@Base 4:4.3.4
 _ZN3KIO5NetRC7extractEPKcS2_Ri@Base 4:4.3.4
 _ZN3KIO5NetRC8instanceE@Base 4:4.3.4
 _ZN3KIO5NetRC9AutoLoginD1Ev@Base 4:4.8.3
 _ZN3KIO5NetRC9AutoLoginD2Ev@Base 4:4.8.3
 _ZN3KIO5NetRCC1Ev@Base 4:4.3.4
 _ZN3KIO5NetRCC2Ev@Base 4:4.3.4
 _ZN3KIO5NetRCD1Ev@Base 4:4.3.4
 _ZN3KIO5NetRCD2Ev@Base 4:4.3.4
 _ZN3KIO5Slave11createSlaveERK7QStringRK4KUrlRiRS1_@Base 4:4.3.4
 _ZN3KIO5Slave11isConnectedEv@Base 4:4.3.4
 _ZN3KIO5Slave11qt_metacallEN11QMetaObject4CallEiPPv@Base 4:4.3.4
 _ZN3KIO5Slave11qt_metacastEPKc@Base 4:4.3.4
 _ZN3KIO5Slave11setProtocolERK7QString@Base 4:4.3.4
 _ZN3KIO5Slave12setConnectedEb@Base 4:4.3.4
 _ZN3KIO5Slave13slaveProtocolEv@Base 4:4.3.4
 _ZN3KIO5Slave16staticMetaObjectE@Base 4:4.3.4
 _ZN3KIO5Slave17checkForHeldSlaveERK4KUrl@Base 4:4.7.0
 _ZN3KIO5Slave3refEv@Base 4:4.3.4
 _ZN3KIO5Slave4holdERK4KUrl@Base 4:4.3.4
 _ZN3KIO5Slave4hostEv@Base 4:4.3.4
 _ZN3KIO5Slave4killEv@Base 4:4.3.4
 _ZN3KIO5Slave4portEv@Base 4:4.3.4
 _ZN3KIO5Slave4sendEiRK10QByteArray@Base 4:4.3.4
 _ZN3KIO5Slave4userEv@Base 4:4.3.4
 _ZN3KIO5Slave5derefEv@Base 4:4.3.4
 _ZN3KIO5Slave6acceptEv@Base 4:4.3.4
 _ZN3KIO5Slave6passwdEv@Base 4:4.3.4
 _ZN3KIO5Slave6resumeEv@Base 4:4.3.4
 _ZN3KIO5Slave6setJobEPNS_9SimpleJobE@Base 4:4.4.95
 _ZN3KIO5Slave6setPIDEi@Base 4:4.3.4
 _ZN3KIO5Slave7isAliveEv@Base 4:4.3.4
 _ZN3KIO5Slave7setHostERK7QStringtS3_S3_@Base 4:4.3.4
 _ZN3KIO5Slave7setIdleEv@Base 4:4.3.4
 _ZN3KIO5Slave7suspendEv@Base 4:4.3.4
 _ZN3KIO5Slave7timeoutEv@Base 4:4.3.4
 _ZN3KIO5Slave8gotInputEv@Base 4:4.3.4
 _ZN3KIO5Slave8idleTimeEv@Base 4:4.3.4
 _ZN3KIO5Slave8protocolEv@Base 4:4.3.4
 _ZN3KIO5Slave9holdSlaveERK7QStringRK4KUrl@Base 4:4.3.4
 _ZN3KIO5Slave9resetHostEv@Base 4:4.3.4
 _ZN3KIO5Slave9setConfigERKNS_8MetaDataE@Base 4:4.3.4
 _ZN3KIO5Slave9slaveDiedEPS0_@Base 4:4.3.4
 _ZN3KIO5Slave9slave_pidEv@Base 4:4.3.4
 _ZN3KIO5Slave9suspendedEv@Base 4:4.3.4
 _ZN3KIO5SlaveC1ERK7QStringP7QObject@Base 4:4.3.4
 _ZN3KIO5SlaveC2ERK7QStringP7QObject@Base 4:4.3.4
 _ZN3KIO5SlaveD0Ev@Base 4:4.3.4
 _ZN3KIO5SlaveD1Ev@Base 4:4.3.4
 _ZN3KIO5SlaveD2Ev@Base 4:4.3.4
 _ZN3KIO5SslUi18askIgnoreSslErrorsEPK10KTcpSocketNS0_12RulesStorageE@Base 4:4.3.4
 _ZN3KIO5SslUi18askIgnoreSslErrorsERK15KSslErrorUiDataNS0_12RulesStorageE@Base 4:4.3.4
 _ZN3KIO5chmodERK13KFileItemListiiRK7QStringS5_b6QFlagsINS_7JobFlagEE@Base 4:4.3.4
 _ZN3KIO5chmodERK4KUrli@Base 4:4.3.4
 _ZN3KIO5chownERK4KUrlRK7QStringS5_@Base 4:4.3.4
 _ZN3KIO5mkdirERK4KUrli@Base 4:4.3.4
 _ZN3KIO5mountEbRK10QByteArrayRK7QStringS5_6QFlagsINS_7JobFlagEE@Base 4:4.3.4
 _ZN3KIO5rmdirERK4KUrl@Base 4:4.3.4
 _ZN3KIO5trashERK4KUrl6QFlagsINS_7JobFlagEE@Base 4:4.3.4
 _ZN3KIO5trashERKN4KUrl4ListE6QFlagsINS_7JobFlagEE@Base 4:4.3.4
 _ZN3KIO6DavJob11qt_metacallEN11QMetaObject4CallEiPPv@Base 4:4.3.4
 _ZN3KIO6DavJob11qt_metacastEPKc@Base 4:4.3.4
 _ZN3KIO6DavJob12slotFinishedEv@Base 4:4.3.4
 _ZN3KIO6DavJob16staticMetaObjectE@Base 4:4.3.4
 _ZN3KIO6DavJob8responseEv@Base 4:4.3.4
 _ZN3KIO6DavJob8slotDataERK10QByteArray@Base 4:4.3.4
 _ZN3KIO6DavJobC1ERNS_13DavJobPrivateEiRK7QString@Base 4:4.3.4
 _ZN3KIO6DavJobC2ERNS_13DavJobPrivateEiRK7QString@Base 4:4.3.4
 _ZN3KIO6DavJobD0Ev@Base 4:4.7.2
 _ZN3KIO6DavJobD1Ev@Base 4:4.7.2
 _ZN3KIO6DavJobD2Ev@Base 4:4.7.2
 _ZN3KIO6copyAsERK4KUrlS2_6QFlagsINS_7JobFlagEE@Base 4:4.3.4
 _ZN3KIO6linkAsERK4KUrlS2_6QFlagsINS_7JobFlagEE@Base 4:4.3.4
 _ZN3KIO6moveAsERK4KUrlS2_6QFlagsINS_7JobFlagEE@Base 4:4.3.4
 _ZN3KIO6numberEy@Base 4:4.3.4
 _ZN3KIO6renameERK4KUrlS2_6QFlagsINS_7JobFlagEE@Base 4:4.3.4
 _ZN3KIO7CopyJob10emitResultEv@Base 4:4.3.4
 _ZN3KIO7CopyJob10slotResultEP4KJob@Base 4:4.3.4
 _ZN3KIO7CopyJob10totalFilesEP4KJobm@Base 4:4.3.4
 _ZN3KIO7CopyJob11copyingDoneEPNS_3JobERK4KUrlS5_lbb@Base 4:4.3.4
 _ZN3KIO7CopyJob11creatingDirEPNS_3JobERK4KUrl@Base 4:4.3.4
 _ZN3KIO7CopyJob11qt_metacallEN11QMetaObject4CallEiPPv@Base 4:4.3.4
 _ZN3KIO7CopyJob11qt_metacastEPKc@Base 4:4.3.4
 _ZN3KIO7CopyJob11setAutoSkipEb@Base 4:4.3.4
 _ZN3KIO7CopyJob13aboutToCreateEPNS_3JobERK5QListINS_8CopyInfoEE@Base 4:4.3.4
 _ZN3KIO7CopyJob13processedDirsEPNS_3JobEm@Base 4:4.3.4
 _ZN3KIO7CopyJob13setAutoRenameEb@Base 4:4.7.0
 _ZN3KIO7CopyJob14processedFilesEPNS_3JobEm@Base 4:4.3.4
 _ZN3KIO7CopyJob15copyingLinkDoneEPNS_3JobERK4KUrlRK7QStringS5_@Base 4:4.3.4
 _ZN3KIO7CopyJob16staticMetaObjectE@Base 4:4.3.4
 _ZN3KIO7CopyJob21setDefaultPermissionsEb@Base 4:4.3.4
 _ZN3KIO7CopyJob31setWriteIntoExistingDirectoriesEb@Base 4:4.3.4
 _ZN3KIO7CopyJob6movingEPNS_3JobERK4KUrlS5_@Base 4:4.3.4
 _ZN3KIO7CopyJob7copyingEPNS_3JobERK4KUrlS5_@Base 4:4.3.4
 _ZN3KIO7CopyJob7linkingEPNS_3JobERK7QStringRK4KUrl@Base 4:4.3.4
 _ZN3KIO7CopyJob7renamedEPNS_3JobERK4KUrlS5_@Base 4:4.3.4
 _ZN3KIO7CopyJob9doSuspendEv@Base 4:4.3.4
 _ZN3KIO7CopyJob9totalDirsEP4KJobm@Base 4:4.3.4
 _ZN3KIO7CopyJobC1ERNS_14CopyJobPrivateE@Base 4:4.3.4
 _ZN3KIO7CopyJobC2ERNS_14CopyJobPrivateE@Base 4:4.3.4
 _ZN3KIO7CopyJobD0Ev@Base 4:4.3.4
 _ZN3KIO7CopyJobD1Ev@Base 4:4.3.4
 _ZN3KIO7CopyJobD2Ev@Base 4:4.3.4
 _ZN3KIO7FileJob11qt_metacallEN11QMetaObject4CallEiPPv@Base 4:4.3.4
 _ZN3KIO7FileJob11qt_metacastEPKc@Base 4:4.3.4
 _ZN3KIO7FileJob11redirectionEPNS_3JobERK4KUrl@Base 4:4.3.4
 _ZN3KIO7FileJob16staticMetaObjectE@Base 4:4.3.4
 _ZN3KIO7FileJob4dataEPNS_3JobERK10QByteArray@Base 4:4.3.4
 _ZN3KIO7FileJob4openEPNS_3JobE@Base 4:4.3.4
 _ZN3KIO7FileJob4readEy@Base 4:4.3.4
 _ZN3KIO7FileJob4seekEy@Base 4:4.3.4
 _ZN3KIO7FileJob4sizeEv@Base 4:4.3.4
 _ZN3KIO7FileJob5closeEPNS_3JobE@Base 4:4.3.4
 _ZN3KIO7FileJob5closeEv@Base 4:4.3.4
 _ZN3KIO7FileJob5writeERK10QByteArray@Base 4:4.3.4
 _ZN3KIO7FileJob7writtenEPNS_3JobEy@Base 4:4.3.4
 _ZN3KIO7FileJob8mimetypeEPNS_3JobERK7QString@Base 4:4.3.4
 _ZN3KIO7FileJob8positionEPNS_3JobEy@Base 4:4.3.4
 _ZN3KIO7FileJobC1ERNS_14FileJobPrivateE@Base 4:4.3.4
 _ZN3KIO7FileJobC2ERNS_14FileJobPrivateE@Base 4:4.3.4
 _ZN3KIO7FileJobD0Ev@Base 4:4.3.4
 _ZN3KIO7FileJobD1Ev@Base 4:4.3.4
 _ZN3KIO7FileJobD2Ev@Base 4:4.3.4
 _ZN3KIO7ListJob10slotResultEP4KJob@Base 4:4.3.4
 _ZN3KIO7ListJob11qt_metacallEN11QMetaObject4CallEiPPv@Base 4:4.3.4
 _ZN3KIO7ListJob11qt_metacastEPKc@Base 4:4.3.4
 _ZN3KIO7ListJob11redirectionEPNS_3JobERK4KUrl@Base 4:4.3.4
 _ZN3KIO7ListJob12slotFinishedEv@Base 4:4.3.4
 _ZN3KIO7ListJob12slotMetaDataERKNS_8MetaDataE@Base 4:4.3.4
 _ZN3KIO7ListJob15setUnrestrictedEb@Base 4:4.3.4
 _ZN3KIO7ListJob16staticMetaObjectE@Base 4:4.3.4
 _ZN3KIO7ListJob20permanentRedirectionEPNS_3JobERK4KUrlS5_@Base 4:4.3.4
 _ZN3KIO7ListJob7entriesEPNS_3JobERK5QListINS_8UDSEntryEE@Base 4:4.3.4
 _ZN3KIO7ListJobC1ERNS_14ListJobPrivateE@Base 4:4.3.4
 _ZN3KIO7ListJobC2ERNS_14ListJobPrivateE@Base 4:4.3.4
 _ZN3KIO7ListJobD0Ev@Base 4:4.3.4
 _ZN3KIO7ListJobD1Ev@Base 4:4.3.4
 _ZN3KIO7ListJobD2Ev@Base 4:4.3.4
 _ZN3KIO7StatJob10setDetailsEs@Base 4:4.3.4
 _ZN3KIO7StatJob11qt_metacallEN11QMetaObject4CallEiPPv@Base 4:4.3.4
 _ZN3KIO7StatJob11qt_metacastEPKc@Base 4:4.3.4
 _ZN3KIO7StatJob11redirectionEPNS_3JobERK4KUrl@Base 4:4.3.4
 _ZN3KIO7StatJob12slotFinishedEv@Base 4:4.3.4
 _ZN3KIO7StatJob12slotMetaDataERKNS_8MetaDataE@Base 4:4.3.4
 _ZN3KIO7StatJob16staticMetaObjectE@Base 4:4.3.4
 _ZN3KIO7StatJob20permanentRedirectionEPNS_3JobERK4KUrlS5_@Base 4:4.3.4
 _ZN3KIO7StatJob7setSideENS0_8StatSideE@Base 4:4.3.4
 _ZN3KIO7StatJob7setSideEb@Base 4:4.3.4
 _ZN3KIO7StatJobC1ERNS_14StatJobPrivateE@Base 4:4.3.4
 _ZN3KIO7StatJobC2ERNS_14StatJobPrivateE@Base 4:4.3.4
 _ZN3KIO7StatJobD0Ev@Base 4:4.3.4
 _ZN3KIO7StatJobD1Ev@Base 4:4.3.4
 _ZN3KIO7StatJobD2Ev@Base 4:4.3.4
 _ZN3KIO7listDirERK4KUrl6QFlagsINS_7JobFlagEEb@Base 4:4.3.4
 _ZN3KIO7specialERK4KUrlRK10QByteArray6QFlagsINS_7JobFlagEE@Base 4:4.3.4
 _ZN3KIO7symlinkERK7QStringRK4KUrl6QFlagsINS_7JobFlagEE@Base 4:4.3.4
 _ZN3KIO7unmountERK7QString6QFlagsINS_7JobFlagEE@Base 4:4.3.4
 _ZN3KIO8AuthInfo11setModifiedEb@Base 4:4.3.4
 _ZN3KIO8AuthInfo13setExtraFieldERK7QStringRK8QVariant@Base 4:4.3.4
 _ZN3KIO8AuthInfo17registerMetaTypesEv@Base 4:4.3.4
 _ZN3KIO8AuthInfo18setExtraFieldFlagsERK7QStringNS0_10FieldFlagsE@Base 4:4.3.4
 _ZN3KIO8AuthInfoC1ERKS0_@Base 4:4.3.4
 _ZN3KIO8AuthInfoC1Ev@Base 4:4.3.4
 _ZN3KIO8AuthInfoC2ERKS0_@Base 4:4.3.4
 _ZN3KIO8AuthInfoC2Ev@Base 4:4.3.4
 _ZN3KIO8AuthInfoD1Ev@Base 4:4.3.4
 _ZN3KIO8AuthInfoD2Ev@Base 4:4.3.4
 _ZN3KIO8AuthInfoaSERKS0_@Base 4:4.3.4
 _ZN3KIO8ChmodJob10slotResultEP4KJob@Base 4:4.3.4
 _ZN3KIO8ChmodJob11qt_metacallEN11QMetaObject4CallEiPPv@Base 4:4.3.4
 _ZN3KIO8ChmodJob11qt_metacastEPKc@Base 4:4.3.4
 _ZN3KIO8ChmodJob16staticMetaObjectE@Base 4:4.3.4
 _ZN3KIO8ChmodJobC1ERNS_15ChmodJobPrivateE@Base 4:4.3.4
 _ZN3KIO8ChmodJobC2ERNS_15ChmodJobPrivateE@Base 4:4.3.4
 _ZN3KIO8ChmodJobD0Ev@Base 4:4.3.4
 _ZN3KIO8ChmodJobD1Ev@Base 4:4.3.4
 _ZN3KIO8ChmodJobD2Ev@Base 4:4.3.4
 _ZN3KIO8HostInfo10lookupHostERK7QStringP7QObjectPKc@Base 4:4.7.0
 _ZN3KIO8HostInfo10lookupHostERK7QStringm@Base 4:4.7.0
 _ZN3KIO8HostInfo11cacheLookupERK9QHostInfo@Base 4:4.7.0
 _ZN3KIO8HostInfo12prefetchHostERK7QString@Base 4:4.3.4
 _ZN3KIO8HostInfo12setCacheSizeEi@Base 4:4.3.4
 _ZN3KIO8HostInfo23lookupCachedHostInfoForERK7QString@Base 4:4.7.0
 _ZN3KIO8HostInfo6setTTLEi@Base 4:4.3.4
 _ZN3KIO8MetaDataC1ERK4QMapI7QString8QVariantE@Base 4:4.3.4
 _ZN3KIO8MetaDataC2ERK4QMapI7QString8QVariantE@Base 4:4.3.4
 _ZN3KIO8MetaDataaSERK4QMapI7QString8QVariantE@Base 4:4.3.4
 _ZN3KIO8MetaDatapLERK4QMapI7QString8QVariantE@Base 4:4.3.4
 _ZN3KIO8MkdirJob11qt_metacallEN11QMetaObject4CallEiPPv@Base 4:4.3.4
 _ZN3KIO8MkdirJob11qt_metacastEPKc@Base 4:4.3.4
 _ZN3KIO8MkdirJob11redirectionEPNS_3JobERK4KUrl@Base 4:4.3.4
 _ZN3KIO8MkdirJob12slotFinishedEv@Base 4:4.3.4
 _ZN3KIO8MkdirJob16staticMetaObjectE@Base 4:4.3.4
 _ZN3KIO8MkdirJob20permanentRedirectionEPNS_3JobERK4KUrlS5_@Base 4:4.3.4
 _ZN3KIO8MkdirJobC1ERNS_15MkdirJobPrivateE@Base 4:4.3.4
 _ZN3KIO8MkdirJobC2ERNS_15MkdirJobPrivateE@Base 4:4.3.4
 _ZN3KIO8MkdirJobD0Ev@Base 4:4.3.4
 _ZN3KIO8MkdirJobD1Ev@Base 4:4.3.4
 _ZN3KIO8MkdirJobD2Ev@Base 4:4.3.4
 _ZN3KIO8UDSEntry5clearEv@Base 4:4.3.4
 _ZN3KIO8UDSEntry6insertEjRK7QString@Base 4:4.3.4
 _ZN3KIO8UDSEntry6insertEjx@Base 4:4.3.4
 _ZN3KIO8UDSEntry6removeEj@Base 4:4.3.4
 _ZN3KIO8UDSEntryC1ERKS0_@Base 4:4.3.4
 _ZN3KIO8UDSEntryC1Ev@Base 4:4.3.4
 _ZN3KIO8UDSEntryC2ERKS0_@Base 4:4.3.4
 _ZN3KIO8UDSEntryC2Ev@Base 4:4.3.4
 _ZN3KIO8UDSEntryD1Ev@Base 4:4.3.4
 _ZN3KIO8UDSEntryD2Ev@Base 4:4.3.4
 _ZN3KIO8UDSEntryaSERKS0_@Base 4:4.3.4
 _ZN3KIO8mimetypeERK4KUrl6QFlagsINS_7JobFlagEE@Base 4:4.3.4
 _ZN3KIO9DeleteJob10slotResultEP4KJob@Base 4:4.3.4
 _ZN3KIO9DeleteJob10totalFilesEP4KJobm@Base 4:4.3.4
 _ZN3KIO9DeleteJob11qt_metacallEN11QMetaObject4CallEiPPv@Base 4:4.3.4
 _ZN3KIO9DeleteJob11qt_metacastEPKc@Base 4:4.3.4
 _ZN3KIO9DeleteJob13processedDirsEPNS_3JobEm@Base 4:4.3.4
 _ZN3KIO9DeleteJob14processedFilesEPNS_3JobEm@Base 4:4.3.4
 _ZN3KIO9DeleteJob16staticMetaObjectE@Base 4:4.3.4
 _ZN3KIO9DeleteJob8deletingEPNS_3JobERK4KUrl@Base 4:4.3.4
 _ZN3KIO9DeleteJob9totalDirsEP4KJobm@Base 4:4.3.4
 _ZN3KIO9DeleteJobC1ERNS_16DeleteJobPrivateE@Base 4:4.3.4
 _ZN3KIO9DeleteJobC2ERNS_16DeleteJobPrivateE@Base 4:4.3.4
 _ZN3KIO9DeleteJobD0Ev@Base 4:4.3.4
 _ZN3KIO9DeleteJobD1Ev@Base 4:4.3.4
 _ZN3KIO9DeleteJobD2Ev@Base 4:4.3.4
 _ZN3KIO9NetAccess10enter_loopEv@Base 4:4.3.4
 _ZN3KIO9NetAccess10slotResultEP4KJob@Base 4:4.3.4
 _ZN3KIO9NetAccess11delInternalERK4KUrlP7QWidget@Base 4:4.3.4
 _ZN3KIO9NetAccess11qt_metacallEN11QMetaObject4CallEiPPv@Base 4:4.3.4
 _ZN3KIO9NetAccess11qt_metacastEPKc@Base 4:4.3.4
 _ZN3KIO9NetAccess12fish_executeERK4KUrlRK7QStringP7QWidget@Base 4:4.3.4
 _ZN3KIO9NetAccess12mostLocalUrlERK4KUrlP7QWidget@Base 4:4.3.4
 _ZN3KIO9NetAccess12slotMimetypeEPNS_3JobERK7QString@Base 4:4.3.4
 _ZN3KIO9NetAccess12statInternalERK4KUrliNS0_8StatSideEP7QWidget@Base 4:4.3.4
 _ZN3KIO9NetAccess13leaveModalityEv@Base 4:4.3.4
 _ZN3KIO9NetAccess13mkdirInternalERK4KUrliP7QWidget@Base 4:4.3.4
 _ZN3KIO9NetAccess14removeTempFileERK7QString@Base 4:4.3.4
 _ZN3KIO9NetAccess14synchronousRunEPNS_3JobEP7QWidgetP10QByteArrayP4KUrlP4QMapI7QStringSA_E@Base 4:4.3.4
 _ZN3KIO9NetAccess15dircopyInternalERKN4KUrl4ListERKS1_P7QWidgetb@Base 4:4.3.4
 _ZN3KIO9NetAccess15lastErrorStringEv@Base 4:4.3.4
 _ZN3KIO9NetAccess15slotRedirectionEPNS_3JobERK4KUrl@Base 4:4.3.4
 _ZN3KIO9NetAccess16filecopyInternalERK4KUrlS3_i6QFlagsINS_7JobFlagEEP7QWidgetb@Base 4:4.3.4
 _ZN3KIO9NetAccess16mimetypeInternalERK4KUrlP7QWidget@Base 4:4.3.4
 _ZN3KIO9NetAccess16staticMetaObjectE@Base 4:4.3.4
 _ZN3KIO9NetAccess20fish_executeInternalERK4KUrlRK7QStringP7QWidget@Base 4:4.3.4
 _ZN3KIO9NetAccess22synchronousRunInternalEPNS_3JobEP7QWidgetP10QByteArrayP4KUrlP4QMapI7QStringSA_E@Base 4:4.3.4
 _ZN3KIO9NetAccess3delERK4KUrlP7QWidget@Base 4:4.3.4
 _ZN3KIO9NetAccess4copyERK4KUrlS3_P7QWidget@Base 4:4.3.4
 _ZN3KIO9NetAccess4moveERK4KUrlS3_P7QWidget@Base 4:4.3.4
 _ZN3KIO9NetAccess4moveERKN4KUrl4ListERKS1_P7QWidget@Base 4:4.3.4
 _ZN3KIO9NetAccess4statERK4KUrlRNS_8UDSEntryEP7QWidget@Base 4:4.3.4
 _ZN3KIO9NetAccess5mkdirERK4KUrlP7QWidgeti@Base 4:4.3.4
 _ZN3KIO9NetAccess6existsERK4KUrlNS0_8StatSideEP7QWidget@Base 4:4.3.4
 _ZN3KIO9NetAccess6existsERK4KUrlbP7QWidget@Base 4:4.3.4
 _ZN3KIO9NetAccess6uploadERK7QStringRK4KUrlP7QWidget@Base 4:4.3.4
 _ZN3KIO9NetAccess7dircopyERK4KUrlS3_P7QWidget@Base 4:4.3.4
 _ZN3KIO9NetAccess7dircopyERKN4KUrl4ListERKS1_P7QWidget@Base 4:4.3.4
 _ZN3KIO9NetAccess8downloadERK4KUrlR7QStringP7QWidget@Base 4:4.3.4
 _ZN3KIO9NetAccess8mimetypeERK4KUrlP7QWidget@Base 4:4.3.4
 _ZN3KIO9NetAccess8slotDataEPNS_3JobERK10QByteArray@Base 4:4.3.4
 _ZN3KIO9NetAccess9file_copyERK4KUrlS3_P7QWidget@Base 4:4.3.4
 _ZN3KIO9NetAccess9lastErrorEv@Base 4:4.3.4
 _ZN3KIO9NetAccessC1Ev@Base 4:4.3.4
 _ZN3KIO9NetAccessC2Ev@Base 4:4.3.4
 _ZN3KIO9NetAccessD0Ev@Base 4:4.3.4
 _ZN3KIO9NetAccessD1Ev@Base 4:4.3.4
 _ZN3KIO9NetAccessD2Ev@Base 4:4.3.4
 _ZN3KIO9Scheduler10disconnectEPK7QObjectPKcS3_S5_@Base 4:4.3.4
 _ZN3KIO9Scheduler10slaveErrorEPNS_5SlaveEiRK7QString@Base 4:4.3.4
 _ZN3KIO9Scheduler11jobFinishedEPNS_9SimpleJobEPNS_5SlaveE@Base 4:4.3.4
 _ZN3KIO9Scheduler11qt_metacallEN11QMetaObject4CallEiPPv@Base 4:4.3.4
 _ZN3KIO9Scheduler11qt_metacastEPKc@Base 4:4.3.4
 _ZN3KIO9Scheduler11scheduleJobEPNS_9SimpleJobE@Base 4:4.3.4
 _ZN3KIO9Scheduler14putSlaveOnHoldEPNS_9SimpleJobERK4KUrl@Base 4:4.3.4
 _ZN3KIO9Scheduler14registerWindowEP7QWidget@Base 4:4.3.4
 _ZN3KIO9Scheduler14setJobPriorityEPNS_9SimpleJobEi@Base 4:4.4.95
 _ZN3KIO9Scheduler14slaveConnectedEPNS_5SlaveE@Base 4:4.3.4
 _ZN3KIO9Scheduler15disconnectSlaveEPNS_5SlaveE@Base 4:4.3.4
 _ZN3KIO9Scheduler16assignJobToSlaveEPNS_5SlaveEPNS_9SimpleJobE@Base 4:4.3.4
 _ZN3KIO9Scheduler16checkSlaveOnHoldEb@Base 4:4.3.4
 _ZN3KIO9Scheduler16isSlaveOnHoldForERK4KUrl@Base 4:4.7.0
 _ZN3KIO9Scheduler16staticMetaObjectE@Base 4:4.3.4
 _ZN3KIO9Scheduler16unregisterWindowEP7QObject@Base 4:4.3.4
 _ZN3KIO9Scheduler17getConnectedSlaveERK4KUrlRKNS_8MetaDataE@Base 4:4.3.4
 _ZN3KIO9Scheduler17removeSlaveOnHoldEv@Base 4:4.3.4
 _ZN3KIO9Scheduler18publishSlaveOnHoldEv@Base 4:4.3.4
 _ZN3KIO9Scheduler22slaveOnHoldListChangedEv@Base 4:4.7.0
 _ZN3KIO9Scheduler22updateInternalMetaDataEPNS_9SimpleJobE@Base 4:4.6.5
 _ZN3KIO9Scheduler25reparseSlaveConfigurationERK7QString@Base 4:4.3.4
 _ZN3KIO9Scheduler29emitReparseSlaveConfigurationEv@Base 4:4.3.4
 _ZN3KIO9Scheduler4selfEv@Base 4:4.3.4
 _ZN3KIO9Scheduler5doJobEPNS_9SimpleJobE@Base 4:4.3.4
 _ZN3KIO9Scheduler6d_funcEv@Base 4:4.7.0
 _ZN3KIO9Scheduler7connectEPK7QObjectPKcS3_S5_@Base 4:4.3.4
 _ZN3KIO9Scheduler7connectEPK7QObjectPKcS5_@Base 4:4.3.4
 _ZN3KIO9Scheduler7connectEPKcPK7QObjectS2_@Base 4:4.3.4
 _ZN3KIO9Scheduler9cancelJobEPNS_9SimpleJobE@Base 4:4.3.4
 _ZN3KIO9SchedulerC1Ev@Base 4:4.3.4
 _ZN3KIO9SchedulerC2Ev@Base 4:4.3.4
 _ZN3KIO9SchedulerD0Ev@Base 4:4.3.4
 _ZN3KIO9SchedulerD1Ev@Base 4:4.3.4
 _ZN3KIO9SchedulerD2Ev@Base 4:4.3.4
 _ZN3KIO9SimpleJob11qt_metacallEN11QMetaObject4CallEiPPv@Base 4:4.3.4
 _ZN3KIO9SimpleJob11qt_metacastEPKc@Base 4:4.3.4
 _ZN3KIO9SimpleJob11slotWarningERK7QString@Base 4:4.3.4
 _ZN3KIO9SimpleJob12removeOnHoldEv@Base 4:4.3.4
 _ZN3KIO9SimpleJob12slotFinishedEv@Base 4:4.3.4
 _ZN3KIO9SimpleJob12slotMetaDataERKNS_8MetaDataE@Base 4:4.3.4
 _ZN3KIO9SimpleJob16staticMetaObjectE@Base 4:4.3.4
 _ZN3KIO9SimpleJob22storeSSLSessionFromJobERK4KUrl@Base 4:4.3.4
 _ZN3KIO9SimpleJob29setRedirectionHandlingEnabledEb@Base 4:4.4.0
 _ZN3KIO9SimpleJob6doKillEv@Base 4:4.3.4
 _ZN3KIO9SimpleJob8doResumeEv@Base 4:4.3.4
 _ZN3KIO9SimpleJob9doSuspendEv@Base 4:4.3.4
 _ZN3KIO9SimpleJob9putOnHoldEv@Base 4:4.3.4
 _ZN3KIO9SimpleJob9slotErrorEiRK7QString@Base 4:4.3.4
 _ZN3KIO9SimpleJobC1ERNS_16SimpleJobPrivateE@Base 4:4.3.4
 _ZN3KIO9SimpleJobC2ERNS_16SimpleJobPrivateE@Base 4:4.3.4
 _ZN3KIO9SimpleJobD0Ev@Base 4:4.3.4
 _ZN3KIO9SimpleJobD1Ev@Base 4:4.3.4
 _ZN3KIO9SimpleJobD2Ev@Base 4:4.3.4
 _ZN3KIO9SlaveBase10lookupHostERK7QString@Base 4:4.3.4
 _ZN3KIO9SlaveBase10messageBoxENS0_14MessageBoxTypeERK7QStringS4_S4_S4_@Base 4:4.3.4
 _ZN3KIO9SlaveBase10messageBoxERK7QStringNS0_14MessageBoxTypeES3_S3_S3_S3_@Base 4:4.3.4
 _ZN3KIO9SlaveBase11dropNetworkERK7QString@Base 4:4.3.4
 _ZN3KIO9SlaveBase11infoMessageERK7QString@Base 4:4.3.4
 _ZN3KIO9SlaveBase11listEntriesERK5QListINS_8UDSEntryEE@Base 4:4.3.4
 _ZN3KIO9SlaveBase11readTimeoutEv@Base 4:4.3.4
 _ZN3KIO9SlaveBase11redirectionERK4KUrl@Base 4:4.3.4
 _ZN3KIO9SlaveBase11setKillFlagEv@Base 4:4.3.4
 _ZN3KIO9SlaveBase11setLinkDestERK4KUrlRK7QString@Base 4:4.3.4
 _ZN3KIO9SlaveBase11setMetaDataERK7QStringS3_@Base 4:4.3.4
 _ZN3KIO9SlaveBase11slaveStatusERK7QStringb@Base 4:4.3.4
 _ZN3KIO9SlaveBase12connectSlaveERK7QString@Base 4:4.3.4
 _ZN3KIO9SlaveBase12dispatchLoopEv@Base 4:4.3.4
 _ZN3KIO9SlaveBase12sendMetaDataEv@Base 4:4.3.4
 _ZN3KIO9SlaveBase12slave_statusEv@Base 4:4.3.4
 _ZN3KIO9SlaveBase12virtual_hookEiPv@Base 4:4.3.4
 _ZN3KIO9SlaveBase13processedSizeEy@Base 4:4.3.4
 _ZN3KIO9SlaveBase13waitForAnswerEiiR10QByteArrayPi@Base 4:4.3.4
 _ZN3KIO9SlaveBase14connectTimeoutEv@Base 4:4.3.4
 _ZN3KIO9SlaveBase14needSubUrlDataEv@Base 4:4.3.4
 _ZN3KIO9SlaveBase14openConnectionEv@Base 4:4.3.4
 _ZN3KIO9SlaveBase14remoteEncodingEv@Base 4:4.3.4
 _ZN3KIO9SlaveBase14requestNetworkERK7QString@Base 4:4.3.4
 _ZN3KIO9SlaveBase15closeConnectionEv@Base 4:4.3.4
 _ZN3KIO9SlaveBase15disconnectSlaveEv@Base 4:4.3.4
 _ZN3KIO9SlaveBase15responseTimeoutEv@Base 4:4.3.4
 _ZN3KIO9SlaveBase15waitForHostInfoER9QHostInfo@Base 4:4.3.4
 _ZN3KIO9SlaveBase16processedPercentEf@Base 4:4.3.4
 _ZN3KIO9SlaveBase18openPasswordDialogERNS_8AuthInfoERK7QString@Base 4:4.3.4
 _ZN3KIO9SlaveBase19cacheAuthenticationERKNS_8AuthInfoE@Base 4:4.3.4
 _ZN3KIO9SlaveBase19dispatchOpenCommandEiRK10QByteArray@Base 4:4.3.4
 _ZN3KIO9SlaveBase19proxyConnectTimeoutEv@Base 4:4.3.4
 _ZN3KIO9SlaveBase19sendAndKeepMetaDataEv@Base 4:4.3.4
 _ZN3KIO9SlaveBase19setModificationTimeERK4KUrlRK9QDateTime@Base 4:4.3.4
 _ZN3KIO9SlaveBase20reparseConfigurationEv@Base 4:4.3.4
 _ZN3KIO9SlaveBase24setTimeoutSpecialCommandEiRK10QByteArray@Base 4:4.3.4
 _ZN3KIO9SlaveBase25checkCachedAuthenticationERNS_8AuthInfoE@Base 4:4.3.4
 _ZN3KIO9SlaveBase3delERK4KUrlb@Base 4:4.3.4
 _ZN3KIO9SlaveBase3getERK4KUrl@Base 4:4.3.4
 _ZN3KIO9SlaveBase3putERK4KUrli6QFlagsINS_7JobFlagEE@Base 4:4.3.4
 _ZN3KIO9SlaveBase4copyERK4KUrlS3_i6QFlagsINS_7JobFlagEE@Base 4:4.3.4
 _ZN3KIO9SlaveBase4dataERK10QByteArray@Base 4:4.3.4
 _ZN3KIO9SlaveBase4exitEv@Base 4:4.3.4
 _ZN3KIO9SlaveBase4openERK4KUrl6QFlagsIN9QIODevice12OpenModeFlagEE@Base 4:4.3.4
 _ZN3KIO9SlaveBase4readEy@Base 4:4.3.4
 _ZN3KIO9SlaveBase4seekEy@Base 4:4.3.4
 _ZN3KIO9SlaveBase4sendEiRK10QByteArray@Base 4:4.3.4
 _ZN3KIO9SlaveBase4statERK4KUrl@Base 4:4.3.4
 _ZN3KIO9SlaveBase5chmodERK4KUrli@Base 4:4.3.4
 _ZN3KIO9SlaveBase5chownERK4KUrlRK7QStringS6_@Base 4:4.3.4
 _ZN3KIO9SlaveBase5closeEv@Base 4:4.3.4
 _ZN3KIO9SlaveBase5errorEiRK7QString@Base 4:4.3.4
 _ZN3KIO9SlaveBase5mkdirERK4KUrli@Base 4:4.3.4
 _ZN3KIO9SlaveBase5speedEm@Base 4:4.3.4
 _ZN3KIO9SlaveBase5writeERK10QByteArray@Base 4:4.3.4
 _ZN3KIO9SlaveBase6configEv@Base 4:4.3.4
 _ZN3KIO9SlaveBase6openedEv@Base 4:4.3.4
 _ZN3KIO9SlaveBase6renameERK4KUrlS3_6QFlagsINS_7JobFlagEE@Base 4:4.3.4
 _ZN3KIO9SlaveBase7dataReqEv@Base 4:4.3.4
 _ZN3KIO9SlaveBase7listDirERK4KUrl@Base 4:4.3.4
 _ZN3KIO9SlaveBase7setHostERK7QStringtS3_S3_@Base 4:4.3.4
 _ZN3KIO9SlaveBase7specialERK10QByteArray@Base 4:4.3.4
 _ZN3KIO9SlaveBase7symlinkERK7QStringRK4KUrl6QFlagsINS_7JobFlagEE@Base 4:4.3.4
 _ZN3KIO9SlaveBase7warningERK7QString@Base 4:4.3.4
 _ZN3KIO9SlaveBase7writtenEy@Base 4:4.3.4
 _ZN3KIO9SlaveBase8dispatchEiRK10QByteArray@Base 4:4.3.4
 _ZN3KIO9SlaveBase8finishedEv@Base 4:4.3.4
 _ZN3KIO9SlaveBase8mimeTypeERK7QString@Base 4:4.3.4
 _ZN3KIO9SlaveBase8mimetypeERK4KUrl@Base 4:4.3.4
 _ZN3KIO9SlaveBase8multiGetERK10QByteArray@Base 4:4.3.4
 _ZN3KIO9SlaveBase8positionEy@Base 4:4.3.4
 _ZN3KIO9SlaveBase8readDataER10QByteArray@Base 4:4.3.4
 _ZN3KIO9SlaveBase9canResumeEv@Base 4:4.3.4
 _ZN3KIO9SlaveBase9canResumeEy@Base 4:4.3.4
 _ZN3KIO9SlaveBase9connectedEv@Base 4:4.3.4
 _ZN3KIO9SlaveBase9errorPageEv@Base 4:4.3.4
 _ZN3KIO9SlaveBase9listEntryERKNS_8UDSEntryEb@Base 4:4.3.4
 _ZN3KIO9SlaveBase9setSubUrlERK4KUrl@Base 4:4.3.4
 _ZN3KIO9SlaveBase9statEntryERKNS_8UDSEntryE@Base 4:4.3.4
 _ZN3KIO9SlaveBase9totalSizeEy@Base 4:4.3.4
 _ZN3KIO9SlaveBaseC1ERK10QByteArrayS3_S3_@Base 4:4.3.4
 _ZN3KIO9SlaveBaseC2ERK10QByteArrayS3_S3_@Base 4:4.3.4
 _ZN3KIO9SlaveBaseD0Ev@Base 4:4.3.4
 _ZN3KIO9SlaveBaseD1Ev@Base 4:4.3.4
 _ZN3KIO9SlaveBaseD2Ev@Base 4:4.3.4
 _ZN3KIO9davReportERK4KUrlRK7QStringS5_6QFlagsINS_7JobFlagEE@Base 4:4.4.0
 _ZN3KIO9davSearchERK4KUrlRK7QStringS5_S5_6QFlagsINS_7JobFlagEE@Base 4:4.3.4
 _ZN3KIO9file_copyERK4KUrlS2_i6QFlagsINS_7JobFlagEE@Base 4:4.3.4
 _ZN3KIO9file_moveERK4KUrlS2_i6QFlagsINS_7JobFlagEE@Base 4:4.3.4
 _ZN3KIO9http_postERK4KUrlP9QIODevicex6QFlagsINS_7JobFlagEE@Base 4:4.7.0
 _ZN3KIO9http_postERK4KUrlRK10QByteArray6QFlagsINS_7JobFlagEE@Base 4:4.3.4
 _ZN3KIO9multi_getElRK4KUrlRKNS_8MetaDataE@Base 4:4.3.4
 _ZN3KIO9pasteDataERK4KUrlRK10QByteArrayP7QWidget@Base 4:4.3.4
 _ZN3KIO9storedGetERK4KUrlNS_8LoadTypeE6QFlagsINS_7JobFlagEE@Base 4:4.3.4
 _ZN3KIO9storedPutERK10QByteArrayRK4KUrli6QFlagsINS_7JobFlagEE@Base 4:4.3.4
 _ZN3KIOlsER11QDataStreamRKNS_8AuthInfoE@Base 4:4.3.4
 _ZN3KIOlsER13QDBusArgumentRKNS_8AuthInfoE@Base 4:4.3.4
 _ZN3KIOrsER11QDataStreamRNS_8AuthInfoE@Base 4:4.3.4
 _ZN3KIOrsERK13QDBusArgumentRNS_8AuthInfoE@Base 4:4.3.4
 _ZN4KACL11KACLPrivate18setMaskPermissionsEt@Base 4:4.3.4
 _ZN4KACL11KACLPrivate19setAllUsersOrGroupsERK5QListI5QPairI7QStringtEEi@Base 4:4.3.4
 _ZN4KACL11KACLPrivate30setNamedUserOrGroupPermissionsERK7QStringti@Base 4:4.3.4
 _ZN4KACL12virtual_hookEiPv@Base 4:4.3.4
 _ZN4KACL18setMaskPermissionsEt@Base 4:4.3.4
 _ZN4KACL19setOwnerPermissionsEt@Base 4:4.3.4
 _ZN4KACL20setOthersPermissionsEt@Base 4:4.3.4
 _ZN4KACL21setAllUserPermissionsERK5QListI5QPairI7QStringtEE@Base 4:4.3.4
 _ZN4KACL22setAllGroupPermissionsERK5QListI5QPairI7QStringtEE@Base 4:4.3.4
 _ZN4KACL23setNamedUserPermissionsERK7QStringt@Base 4:4.3.4
 _ZN4KACL24setNamedGroupPermissionsERK7QStringt@Base 4:4.3.4
 _ZN4KACL25setOwningGroupPermissionsEt@Base 4:4.3.4
 _ZN4KACL6setACLERK7QString@Base 4:4.3.4
 _ZN4KACLC1ERK7QString@Base 4:4.3.4
 _ZN4KACLC1ERKS_@Base 4:4.3.4
 _ZN4KACLC1Ej@Base 4:4.3.4
 _ZN4KACLC1Ev@Base 4:4.3.4
 _ZN4KACLC2ERK7QString@Base 4:4.3.4
 _ZN4KACLC2ERKS_@Base 4:4.3.4
 _ZN4KACLC2Ej@Base 4:4.3.4
 _ZN4KACLC2Ev@Base 4:4.3.4
 _ZN4KACLD0Ev@Base 4:4.3.4
 _ZN4KACLD1Ev@Base 4:4.3.4
 _ZN4KACLD2Ev@Base 4:4.3.4
 _ZN4KACLaSERKS_@Base 4:4.3.4
 _ZN4KRun10binaryNameERK7QStringb@Base 4:4.3.4
 _ZN4KRun10runCommandERK7QStringP7QWidget@Base 4:4.3.4
 _ZN4KRun10runCommandERK7QStringP7QWidgetS2_@Base 4:4.4.0
 _ZN4KRun10runCommandERK7QStringS2_S2_P7QWidgetRK10QByteArray@Base 4:4.3.4
 _ZN4KRun10runCommandERK7QStringS2_S2_P7QWidgetRK10QByteArrayS2_@Base 4:4.4.0
 _ZN4KRun10shellQuoteER7QString@Base 4:4.3.4
 _ZN4KRun11KRunPrivate10startTimerEv@Base 4:4.3.4
 _ZN4KRun11KRunPrivate13runExecutableERK7QString@Base 4:4.8.1
 _ZN4KRun11KRunPrivate4initERK4KUrlP7QWidgetjbbRK10QByteArray@Base 4:4.3.4
 _ZN4KRun11KRunPrivateC1EPS_@Base 4:4.3.4
 _ZN4KRun11KRunPrivateC2EPS_@Base 4:4.3.4
 _ZN4KRun11qt_metacallEN11QMetaObject4CallEiPPv@Base 4:4.3.4
 _ZN4KRun11qt_metacastEPKc@Base 4:4.3.4
 _ZN4KRun11setFinishedEb@Base 4:4.3.4
 _ZN4KRun11slotTimeoutEv@Base 4:4.3.4
 _ZN4KRun12isExecutableERK7QString@Base 4:4.3.4
 _ZN4KRun13foundMimeTypeERK7QString@Base 4:4.3.4
 _ZN4KRun13setAutoDeleteEb@Base 4:4.3.4
 _ZN4KRun13setDoScanFileEb@Base 4:4.3.4
 _ZN4KRun13setIsDirecoryEb@Base 4:4.3.4
 _ZN4KRun14setIsLocalFileEb@Base 4:4.3.4
 _ZN4KRun14slotStatResultEP4KJob@Base 4:4.3.4
 _ZN4KRun15setProgressInfoEb@Base 4:4.3.4
 _ZN4KRun16isExecutableFileERK4KUrlRK7QString@Base 4:4.3.4
 _ZN4KRun16slotScanFinishedEP4KJob@Base 4:4.3.4
 _ZN4KRun16slotScanMimeTypeEPN3KIO3JobERK7QString@Base 4:4.3.4
 _ZN4KRun16staticMetaObjectE@Base 4:4.3.4
 _ZN4KRun17setRunExecutablesEb@Base 4:4.3.4
 _ZN4KRun18checkStartupNotifyERK7QStringPK8KServicePbP10QByteArray@Base 4:4.3.4
 _ZN4KRun18mimeTypeDeterminedERK7QString@Base 4:4.3.4
 _ZN4KRun18processDesktopExecERK8KServiceRKN4KUrl4ListEbRK7QString@Base 4:4.3.4
 _ZN4KRun19setPreferredServiceERK7QString@Base 4:4.3.4
 _ZN4KRun20setSuggestedFileNameERK7QString@Base 4:4.3.4
 _ZN4KRun21displayOpenWithDialogERKN4KUrl4ListEP7QWidgetbRK7QStringRK10QByteArray@Base 4:4.3.4
 _ZN4KRun23setInitializeNextActionEb@Base 4:4.3.4
 _ZN4KRun24setEnableExternalBrowserEb@Base 4:4.3.4
 _ZN4KRun3jobEv@Base 4:4.3.4
 _ZN4KRun3runERK7QStringRKN4KUrl4ListEP7QWidgetS2_S2_RK10QByteArray@Base 4:4.3.4
 _ZN4KRun3runERK8KServiceRKN4KUrl4ListEP7QWidgetbRK7QStringRK10QByteArray@Base 4:4.3.4
 _ZN4KRun4initEv@Base 4:4.3.4
 _ZN4KRun5abortEv@Base 4:4.3.4
 _ZN4KRun5errorEv@Base 4:4.3.4
 _ZN4KRun5timerEv@Base 4:4.3.4
 _ZN4KRun6runUrlERK4KUrlRK7QStringP7QWidgetbbS5_RK10QByteArray@Base 4:4.3.4
 _ZN4KRun6setJobEPN3KIO3JobE@Base 4:4.3.4
 _ZN4KRun6setUrlERK4KUrl@Base 4:4.3.4
 _ZN4KRun7killJobEv@Base 4:4.3.4
 _ZN4KRun7setModeEj@Base 4:4.3.4
 _ZN4KRun8finishedEv@Base 4:4.3.4
 _ZN4KRun8scanFileEv@Base 4:4.3.4
 _ZN4KRun8setErrorEb@Base 4:4.3.4
 _ZN4KRunC1ERK4KUrlP7QWidgetjbbRK10QByteArray@Base 4:4.3.4
 _ZN4KRunC2ERK4KUrlP7QWidgetjbbRK10QByteArray@Base 4:4.3.4
 _ZN4KRunD0Ev@Base 4:4.3.4
 _ZN4KRunD1Ev@Base 4:4.3.4
 _ZN4KRunD2Ev@Base 4:4.3.4
 _ZN4KSSL10initializeEv@Base 4:4.3.4
 _ZN4KSSL11doesSSLWorkEv@Base 4:4.3.4
 _ZN4KSSL11m_bSSLWorksE@Base 4:4.3.4
 _ZN4KSSL11seedWithEGDEv@Base 4:4.3.4
 _ZN4KSSL11setSettingsEP12KSSLSettings@Base 4:4.3.4
 _ZN4KSSL12reInitializeEv@Base 4:4.3.4
 _ZN4KSSL15setAutoReconfigEb@Base 4:4.3.4
 _ZN4KSSL5closeEv@Base 4:4.3.4
 _ZN4KSSL8reconfigEv@Base 4:4.3.4
 _ZN4KSSL8settingsEv@Base 4:4.3.4
 _ZN4KSSLC1Eb@Base 4:4.3.4
 _ZN4KSSLC2Eb@Base 4:4.3.4
 _ZN4KSSLD1Ev@Base 4:4.3.4
 _ZN4KSSLD2Ev@Base 4:4.3.4
 _ZN5KFile10isTreeViewERKNS_8FileViewE@Base 4:4.3.4
 _ZN5KFile12isDetailViewERKNS_8FileViewE@Base 4:4.3.4
 _ZN5KFile12isSimpleViewERKNS_8FileViewE@Base 4:4.3.4
 _ZN5KFile12isSortByDateERK6QFlagsIN4QDir8SortFlagEE@Base 4:4.3.4
 _ZN5KFile12isSortByNameERK6QFlagsIN4QDir8SortFlagEE@Base 4:4.3.4
 _ZN5KFile12isSortBySizeERK6QFlagsIN4QDir8SortFlagEE@Base 4:4.3.4
 _ZN5KFile12isSortByTypeERK6QFlagsIN4QDir8SortFlagEE@Base 4:4.3.4
 _ZN5KFile13isDefaultViewERKNS_8FileViewE@Base 4:4.3.4
 _ZN5KFile13isPreviewInfoERKNS_8FileViewE@Base 4:4.3.4
 _ZN5KFile14isSeparateDirsERKNS_8FileViewE@Base 4:4.3.4
 _ZN5KFile15isSortDirsFirstERK6QFlagsIN4QDir8SortFlagEE@Base 4:4.3.4
 _ZN5KFile16isDetailTreeViewERKNS_8FileViewE@Base 4:4.3.4
 _ZN5KFile16staticMetaObjectE@Base 4:4.3.4
 _ZN5KFile17isPreviewContentsERKNS_8FileViewE@Base 4:4.3.4
 _ZN5KFile21isSortCaseInsensitiveERK6QFlagsIN4QDir8SortFlagEE@Base 4:4.3.4
 _ZN8KImageIO11isSupportedERK7QStringNS_4ModeE@Base 4:4.3.4
 _ZN8KImageIO11typeForMimeERK7QString@Base 4:4.3.4
 _ZN8KImageIO5typesENS_4ModeE@Base 4:4.3.4
 _ZN8KImageIO7patternENS_4ModeE@Base 4:4.3.4
 _ZN8KImageIO9mimeTypesENS_4ModeE@Base 4:4.3.4
 _ZN9KBookmark11nextAddressERK7QString@Base 4:4.3.4
 _ZN9KBookmark11setFullTextERK7QString@Base 4:4.3.4
 _ZN9KBookmark11setMimeTypeERK7QString@Base 4:4.3.4
 _ZN9KBookmark12commonParentERK7QStringS2_@Base 4:4.3.4
 _ZN9KBookmark13parentAddressERK7QString@Base 4:4.3.4
 _ZN9KBookmark14setDescriptionERK7QString@Base 4:4.4.0
 _ZN9KBookmark15previousAddressERK7QString@Base 4:4.3.4
 _ZN9KBookmark15setMetaDataItemERK7QStringS2_NS_21MetaDataOverwriteModeE@Base 4:4.3.4
 _ZN9KBookmark16positionInParentERK7QString@Base 4:4.3.4
 _ZN9KBookmark16setShowInToolbarEb@Base 4:4.3.4
 _ZN9KBookmark18standaloneBookmarkERK7QStringRK4KUrlS2_@Base 4:4.3.4
 _ZN9KBookmark20updateAccessMetadataEv@Base 4:4.3.4
 _ZN9KBookmark4List12fromMimeDataEPK9QMimeData@Base 4:4.3.4
 _ZN9KBookmark4List12fromMimeDataEPK9QMimeDataR12QDomDocument@Base 4:4.3.4
 _ZN9KBookmark4List13mimeDataTypesEv@Base 4:4.3.4
 _ZN9KBookmark4List9canDecodeEPK9QMimeData@Base 4:4.3.4
 _ZN9KBookmark4ListC1Ev@Base 4:4.3.4
 _ZN9KBookmark4ListC2Ev@Base 4:4.3.4
 _ZN9KBookmark6setUrlERK4KUrl@Base 4:4.3.4
 _ZN9KBookmark7setIconERK7QString@Base 4:4.3.4
 _ZN9KBookmarkC1ERK11QDomElement@Base 4:4.3.4
 _ZN9KBookmarkC1Ev@Base 4:4.3.4
 _ZN9KBookmarkC2ERK11QDomElement@Base 4:4.3.4
 _ZN9KBookmarkC2Ev@Base 4:4.3.4
 _ZN9KDataTool11qt_metacallEN11QMetaObject4CallEiPPv@Base 4:4.3.4
 _ZN9KDataTool11qt_metacastEPKc@Base 4:4.3.4
 _ZN9KDataTool16setComponentDataERK14KComponentData@Base 4:4.3.4
 _ZN9KDataTool16staticMetaObjectE@Base 4:4.3.4
 _ZN9KDataToolC1EP7QObject@Base 4:4.3.4
 _ZN9KDataToolC2EP7QObject@Base 4:4.3.4
 _ZN9KDataToolD0Ev@Base 4:4.3.4
 _ZN9KDataToolD1Ev@Base 4:4.3.4
 _ZN9KDataToolD2Ev@Base 4:4.3.4
 _ZN9KDirModel10insertRowsEiiRK11QModelIndex@Base 4:4.3.4
 _ZN9KDirModel10removeRowsEiiRK11QModelIndex@Base 4:4.3.4
 _ZN9KDirModel11expandToUrlERK4KUrl@Base 4:4.3.4
 _ZN9KDirModel11itemChangedERK11QModelIndex@Base 4:4.3.4
 _ZN9KDirModel11qt_metacallEN11QMetaObject4CallEiPPv@Base 4:4.3.4
 _ZN9KDirModel11qt_metacastEPKc@Base 4:4.3.4
 _ZN9KDirModel12dropMimeDataEPK9QMimeDataN2Qt10DropActionEiiRK11QModelIndex@Base 4:4.3.4
 _ZN9KDirModel12setDirListerEP10KDirLister@Base 4:4.3.4
 _ZN9KDirModel13insertColumnsEiiRK11QModelIndex@Base 4:4.3.4
 _ZN9KDirModel13removeColumnsEiiRK11QModelIndex@Base 4:4.3.4
 _ZN9KDirModel15setDropsAllowedE6QFlagsINS_16DropsAllowedFlagEE@Base 4:4.3.4
 _ZN9KDirModel16needSequenceIconERK11QModelIndexi@Base 4:4.3.4
 _ZN9KDirModel16staticMetaObjectE@Base 4:4.3.4
 _ZN9KDirModel17simplifiedUrlListERKN4KUrl4ListE@Base 4:4.3.4
 _ZN9KDirModel19requestSequenceIconERK11QModelIndexi@Base 4:4.3.4
 _ZN9KDirModel22setJobTransfersVisibleEb@Base 4:4.4.95
 _ZN9KDirModel4sortEiN2Qt9SortOrderE@Base 4:4.3.4
 _ZN9KDirModel6expandERK11QModelIndex@Base 4:4.3.4
 _ZN9KDirModel7setDataERK11QModelIndexRK8QVarianti@Base 4:4.3.4
 _ZN9KDirModel9fetchMoreERK11QModelIndex@Base 4:4.3.4
 _ZN9KDirModelC1EP7QObject@Base 4:4.3.4
 _ZN9KDirModelC2EP7QObject@Base 4:4.3.4
 _ZN9KDirModelD0Ev@Base 4:4.3.4
 _ZN9KDirModelD1Ev@Base 4:4.3.4
 _ZN9KDirModelD2Ev@Base 4:4.3.4
 _ZN9KFileItem11setUDSEntryERKN3KIO8UDSEntryERK4KUrlbb@Base 4:4.3.4
 _ZN9KFileItem12setExtraDataEPKvPv@Base 4:4.3.4
 _ZN9KFileItem15refreshMimeTypeEv@Base 4:4.3.4
 _ZN9KFileItem15removeExtraDataEPKv@Base 4:4.3.4
 _ZN9KFileItem4markEv@Base 4:4.3.4
 _ZN9KFileItem6assignERKS_@Base 4:4.3.4
 _ZN9KFileItem6setUrlERK4KUrl@Base 4:4.3.4
 _ZN9KFileItem6unmarkEv@Base 4:4.3.4
 _ZN9KFileItem7refreshEv@Base 4:4.3.4
 _ZN9KFileItem7setNameERK7QString@Base 4:4.3.4
 _ZN9KFileItemC1ERK4KUrlRK7QStringj@Base 4:4.3.4
 _ZN9KFileItemC1ERKN3KIO8UDSEntryERK4KUrlbb@Base 4:4.3.4
 _ZN9KFileItemC1ERKS_@Base 4:4.3.4
 _ZN9KFileItemC1EjjRK4KUrlb@Base 4:4.3.4
 _ZN9KFileItemC1Ev@Base 4:4.3.4
 _ZN9KFileItemC2ERK4KUrlRK7QStringj@Base 4:4.3.4
 _ZN9KFileItemC2ERKN3KIO8UDSEntryERK4KUrlbb@Base 4:4.3.4
 _ZN9KFileItemC2ERKS_@Base 4:4.3.4
 _ZN9KFileItemC2EjjRK4KUrlb@Base 4:4.3.4
 _ZN9KFileItemC2Ev@Base 4:4.3.4
 _ZN9KFileItemD1Ev@Base 4:4.3.4
 _ZN9KFileItemD2Ev@Base 4:4.3.4
 _ZN9KFileItemaSERKS_@Base 4:4.3.4
 _ZN9KNFSShare11qt_metacallEN11QMetaObject4CallEiPPv@Base 4:4.3.4
 _ZN9KNFSShare11qt_metacastEPKc@Base 4:4.3.4
 _ZN9KNFSShare16KNFSSharePrivate15findExportsFileEv@Base 4:4.3.4
 _ZN9KNFSShare16KNFSSharePrivate15readExportsFileEv@Base 4:4.3.4
 _ZN9KNFSShare16KNFSSharePrivate17_k_slotFileChangeERK7QString@Base 4:4.3.4
 _ZN9KNFSShare16KNFSSharePrivateC1EPS_@Base 4:4.3.4
 _ZN9KNFSShare16KNFSSharePrivateC2EPS_@Base 4:4.3.4
 _ZN9KNFSShare16staticMetaObjectE@Base 4:4.3.4
 _ZN9KNFSShare7changedEv@Base 4:4.3.4
 _ZN9KNFSShare8instanceEv@Base 4:4.3.4
 _ZN9KNFSShareC1Ev@Base 4:4.3.4
 _ZN9KNFSShareC2Ev@Base 4:4.3.4
 _ZN9KNFSShareD0Ev@Base 4:4.3.4
 _ZN9KNFSShareD1Ev@Base 4:4.3.4
 _ZN9KNFSShareD2Ev@Base 4:4.3.4
 _ZNK10KAutoMount10metaObjectEv@Base 4:4.3.4
 _ZNK10KDirLister10autoUpdateEv@Base 4:4.3.4
 _ZNK10KDirLister10findByNameERK7QString@Base 4:4.3.4
 _ZNK10KDirLister10isFinishedEv@Base 4:4.3.4
 _ZNK10KDirLister10metaObjectEv@Base 4:4.3.4
 _ZNK10KDirLister10nameFilterEv@Base 4:4.3.4
 _ZNK10KDirLister11dirOnlyModeEv@Base 4:4.3.4
 _ZNK10KDirLister11directoriesEv@Base 4:4.3.4
 _ZNK10KDirLister11itemsForDirERK4KUrlNS_10WhichItemsE@Base 4:4.3.4
 _ZNK10KDirLister11mimeFiltersEv@Base 4:4.3.4
 _ZNK10KDirLister12doMimeFilterERK7QStringRK11QStringList@Base 4:4.3.4
 _ZNK10KDirLister12doNameFilterERK7QStringRK5QListI7QRegExpE@Base 4:4.3.4
 _ZNK10KDirLister13matchesFilterERK7QString@Base 4:4.3.4
 _ZNK10KDirLister13matchesFilterERK9KFileItem@Base 4:4.3.4
 _ZNK10KDirLister15showingDotFilesEv@Base 4:4.3.4
 _ZNK10KDirLister16delayedMimeTypesEv@Base 4:4.3.4
 _ZNK10KDirLister17matchesMimeFilterERK7QString@Base 4:4.3.4
 _ZNK10KDirLister17matchesMimeFilterERK9KFileItem@Base 4:4.3.4
 _ZNK10KDirLister24autoErrorHandlingEnabledEv@Base 4:4.3.4
 _ZNK10KDirLister3urlEv@Base 4:4.3.4
 _ZNK10KDirLister5itemsENS_10WhichItemsE@Base 4:4.3.4
 _ZNK10KDirLister7Private13isItemVisibleERK9KFileItem@Base 4:4.3.4
 _ZNK10KDirLister7Private14CachedItemsJob10metaObjectEv@Base 4:4.3.4
 _ZNK10KDirLister7Private19doMimeExcludeFilterERK7QStringRK11QStringList@Base 4:4.3.4
 _ZNK10KDirLister7Private20cachedItemsJobForUrlERK4KUrl@Base 4:4.6.1
 _ZNK10KDirLister8rootItemEv@Base 4:4.3.4
 _ZNK10KDirLister9findByUrlERK4KUrl@Base 4:4.3.4
 _ZNK10KOCRDialog10metaObjectEv@Base 4:4.3.4
 _ZNK10KOCRDialog2idEv@Base 4:4.3.4
 _ZNK10KSSLKeyGen10metaObjectEv@Base 4:4.3.4
 _ZNK10KSSLX509V310certTypeCAEv@Base 4:4.3.4
 _ZNK10KSSLX509V313certTypeSMIMEEv@Base 4:4.3.4
 _ZNK10KSSLX509V313certTypeSSLCAEv@Base 4:4.3.4
 _ZNK10KSSLX509V314certTypeCodeCAEv@Base 4:4.3.4
 _ZNK10KSSLX509V315certTypeCRLSignEv@Base 4:4.3.4
 _ZNK10KSSLX509V315certTypeEmailCAEv@Base 4:4.3.4
 _ZNK10KSSLX509V317certTypeSMIMESignEv@Base 4:4.3.4
 _ZNK10KSSLX509V317certTypeSSLClientEv@Base 4:4.3.4
 _ZNK10KSSLX509V317certTypeSSLServerEv@Base 4:4.3.4
 _ZNK10KSSLX509V319certTypeNSSSLServerEv@Base 4:4.3.4
 _ZNK10KSSLX509V320certTypeSMIMEEncryptEv@Base 4:4.3.4
 _ZNK10KUriFilter11pluginNamesEv@Base 4:4.3.4
 _ZNK11KFileDialog10metaObjectEv@Base 4:4.3.4
 _ZNK11KFileDialog11selectedUrlEv@Base 4:4.3.4
 _ZNK11KFileDialog12cancelButtonEv@Base 4:4.3.4
 _ZNK11KFileDialog12filterWidgetEv@Base 4:4.3.4
 _ZNK11KFileDialog12locationEditEv@Base 4:4.3.4
 _ZNK11KFileDialog12selectedFileEv@Base 4:4.3.4
 _ZNK11KFileDialog12selectedUrlsEv@Base 4:4.3.4
 _ZNK11KFileDialog13currentFilterEv@Base 4:4.3.4
 _ZNK11KFileDialog13keepsLocationEv@Base 4:4.3.4
 _ZNK11KFileDialog13operationModeEv@Base 4:4.3.4
 _ZNK11KFileDialog13selectedFilesEv@Base 4:4.3.4
 _ZNK11KFileDialog16actionCollectionEv@Base 4:4.3.4
 _ZNK11KFileDialog17currentMimeFilterEv@Base 4:4.3.4
 _ZNK11KFileDialog4modeEv@Base 4:4.3.4
 _ZNK11KFileDialog7baseUrlEv@Base 4:4.3.4
 _ZNK11KFileDialog7toolBarEv@Base 4:4.3.4
 _ZNK11KFileDialog8okButtonEv@Base 4:4.3.4
 _ZNK11KFileDialog8sizeHintEv@Base 4:4.3.4
 _ZNK11KIconButton10metaObjectEv@Base 4:4.3.4
 _ZNK11KIconButton14buttonIconSizeEv@Base 4:4.3.4
 _ZNK11KIconButton14strictIconSizeEv@Base 4:4.3.4
 _ZNK11KIconButton4iconEv@Base 4:4.3.4
 _ZNK11KIconButton8iconSizeEv@Base 4:4.3.4
 _ZNK11KIconCanvas10getCurrentEv@Base 4:4.3.4
 _ZNK11KIconCanvas10metaObjectEv@Base 4:4.3.4
 _ZNK11KIconDialog10metaObjectEv@Base 4:4.3.4
 _ZNK11KIconDialog14strictIconSizeEv@Base 4:4.3.4
 _ZNK11KIconDialog8iconSizeEv@Base 4:4.3.4
 _ZNK11KSambaShare10metaObjectEv@Base 4:4.3.4
 _ZNK11KSambaShare10shareNamesEv@Base 4:4.7.0
 _ZNK11KSambaShare11smbConfPathEv@Base 4:4.3.4
 _ZNK11KSambaShare14getShareByNameERK7QString@Base 4:4.7.0
 _ZNK11KSambaShare15getSharesByPathERK7QString@Base 4:4.7.0
 _ZNK11KSambaShare17isDirectorySharedERK7QString@Base 4:4.3.4
 _ZNK11KSambaShare17sharedDirectoriesEv@Base 4:4.3.4
 _ZNK11KSambaShare20isShareNameAvailableERK7QString@Base 4:4.7.0
 _ZNK11KScanDialog10metaObjectEv@Base 4:4.3.4
 _ZNK11KScanDialog2idEv@Base 4:4.3.4
 _ZNK12KAutoUnmount10metaObjectEv@Base 4:4.3.4
 _ZNK12KConfigGroup13readListCheckIiEE5QListIT_EPKcRKS3_@Base 4:4.6.1
 _ZNK12KConfigGroup9readCheckIbEET_PKcRKS1_@Base 4:4.7.4
 _ZNK12KSSLSettings11warnOnEnterEv@Base 4:4.3.4
 _ZNK12KSSLSettings11warnOnLeaveEv@Base 4:4.3.4
 _ZNK12KSSLSettings11warnOnMixedEv@Base 4:4.3.4
 _ZNK12KSSLSettings12autoSendX509Ev@Base 4:4.3.4
 _ZNK12KSSLSettings14promptSendX509Ev@Base 4:4.3.4
 _ZNK12KSSLSettings17warnOnUnencryptedEv@Base 4:4.3.4
 _ZNK12KSSLSettings6useEGDEv@Base 4:4.3.4
 _ZNK12KSSLSettings8useEFileEv@Base 4:4.3.4
 _ZNK12KUrlComboBox10metaObjectEv@Base 4:4.3.4
 _ZNK12KUrlComboBox19KUrlComboBoxPrivate7getIconERK4KUrl@Base 4:4.3.4
 _ZNK12KUrlComboBox4urlsEv@Base 4:4.3.4
 _ZNK12KUrlComboBox8maxItemsEv@Base 4:4.3.4
 _ZNK12ThumbCreator5flagsEv@Base 4:4.7.0
 _ZNK13KBookmarkMenu10metaObjectEv@Base 4:4.3.4
 _ZNK13KBookmarkMenu10parentMenuEv@Base 4:4.3.4
 _ZNK13KBookmarkMenu13parentAddressEv@Base 4:4.3.4
 _ZNK13KBookmarkMenu5ownerEv@Base 4:4.3.4
 _ZNK13KBookmarkMenu6isRootEv@Base 4:4.3.4
 _ZNK13KBookmarkMenu7isDirtyEv@Base 4:4.3.4
 _ZNK13KBookmarkMenu7managerEv@Base 4:4.3.4
 _ZNK13KDataToolInfo10createToolEP7QObject@Base 4:4.3.4
 _ZNK13KDataToolInfo10isReadOnlyEv@Base 4:4.3.4
 _ZNK13KDataToolInfo12userCommandsEv@Base 4:4.3.4
 _ZNK13KDataToolInfo13componentDataEv@Base 4:4.3.4
 _ZNK13KDataToolInfo4iconEv@Base 4:4.3.4
 _ZNK13KDataToolInfo7isValidEv@Base 4:4.3.4
 _ZNK13KDataToolInfo7serviceEv@Base 4:4.3.4
 _ZNK13KDataToolInfo8commandsEv@Base 4:4.3.4
 _ZNK13KDataToolInfo8dataTypeEv@Base 4:4.3.4
 _ZNK13KDataToolInfo8iconNameEv@Base 4:4.3.4
 _ZNK13KDataToolInfo8miniIconEv@Base 4:4.3.4
 _ZNK13KDataToolInfo9mimeTypesEv@Base 4:4.3.4
 _ZNK13KFileItemList10findByNameERK7QString@Base 4:4.3.4
 _ZNK13KFileItemList13targetUrlListEv@Base 4:4.3.4
 _ZNK13KFileItemList7urlListEv@Base 4:4.3.4
 _ZNK13KFileItemList9findByUrlERK4KUrl@Base 4:4.3.4
 _ZNK13KFileMetaInfo13preferredKeysEv@Base 4:4.3.4
 _ZNK13KFileMetaInfo13supportedKeysEv@Base 4:4.3.4
 _ZNK13KFileMetaInfo15preferredGroupsEv@Base 4:4.3.4
 _ZNK13KFileMetaInfo15supportedGroupsEv@Base 4:4.3.4
 _ZNK13KFileMetaInfo3urlEv@Base 4:4.3.4
 _ZNK13KFileMetaInfo4itemERK7QString@Base 4:4.3.4
 _ZNK13KFileMetaInfo4keysEv@Base 4:4.3.4
 _ZNK13KFileMetaInfo5itemsEv@Base 4:4.3.4
 _ZNK13KFileMetaInfo7isValidEv@Base 4:4.3.4
 _ZNK13KSSLCertChain8getChainEv@Base 4:4.3.4
 _ZNK13KUrlRequester10fileDialogEv@Base 4:4.3.4
 _ZNK13KUrlRequester10metaObjectEv@Base 4:4.3.4
 _ZNK13KUrlRequester12clickMessageEv@Base 4:4.3.4
 _ZNK13KUrlRequester16completionObjectEv@Base 4:4.3.4
 _ZNK13KUrlRequester18fileDialogModalityEv@Base 4:4.4.0
 _ZNK13KUrlRequester3urlEv@Base 4:4.3.4
 _ZNK13KUrlRequester4modeEv@Base 4:4.3.4
 _ZNK13KUrlRequester4textEv@Base 4:4.3.4
 _ZNK13KUrlRequester6buttonEv@Base 4:4.3.4
 _ZNK13KUrlRequester6filterEv@Base 4:4.3.4
 _ZNK13KUrlRequester8comboBoxEv@Base 4:4.3.4
 _ZNK13KUrlRequester8lineEditEv@Base 4:4.3.4
 _ZNK13KUrlRequester8startDirEv@Base 4:4.3.4
 _ZNK14KBookmarkGroup11findToolbarEv@Base 4:4.3.4
 _ZNK14KBookmarkGroup12groupUrlListEv@Base 4:4.3.4
 _ZNK14KBookmarkGroup12nextKnownTagERK11QDomElementb@Base 4:4.3.4
 _ZNK14KBookmarkGroup14isToolbarGroupEv@Base 4:4.3.4
 _ZNK14KBookmarkGroup4nextERK9KBookmark@Base 4:4.3.4
 _ZNK14KBookmarkGroup5firstEv@Base 4:4.3.4
 _ZNK14KBookmarkGroup6isOpenEv@Base 4:4.3.4
 _ZNK14KBookmarkGroup7indexOfERK9KBookmark@Base 4:4.3.4
 _ZNK14KBookmarkGroup8previousERK9KBookmark@Base 4:4.3.4
 _ZNK14KBookmarkOwner12enableOptionENS_14BookmarkOptionE@Base 4:4.3.4
 _ZNK14KDiskFreeSpace10metaObjectEv@Base 4:4.3.4
 _ZNK14KEMailSettings10getSettingENS_7SettingE@Base 4:4.3.4
 _ZNK14KEMailSettings18currentProfileNameEv@Base 4:4.3.4
 _ZNK14KEMailSettings18defaultProfileNameEv@Base 4:4.3.4
 _ZNK14KEMailSettings8profilesEv@Base 4:4.3.4
 _ZNK14KSslInfoDialog10metaObjectEv@Base 4:4.3.4
 _ZNK14KUriFilterData10searchTermEv@Base 4:4.4.95
 _ZNK14KUriFilterData11typedStringEv@Base 4:4.3.4
 _ZNK14KUriFilterData12absolutePathEv@Base 4:4.3.4
 _ZNK14KUriFilterData14argsAndOptionsEv@Base 4:4.3.4
 _ZNK14KUriFilterData14searchProviderEv@Base 4:4.4.95
 _ZNK14KUriFilterData15hasAbsolutePathEv@Base 4:4.3.4
 _ZNK14KUriFilterData16defaultUrlSchemeEv@Base 4:4.5.85
 _ZNK14KUriFilterData17hasArgsAndOptionsEv@Base 4:4.3.4
 _ZNK14KUriFilterData19checkForExecutablesEv@Base 4:4.3.4
 _ZNK14KUriFilterData19searchTermSeparatorEv@Base 4:4.4.95
 _ZNK14KUriFilterData22queryForSearchProviderERK7QString@Base 4:4.5.85
 _ZNK14KUriFilterData22searchFilteringOptionsEv@Base 4:4.5.85
 _ZNK14KUriFilterData24alternateSearchProvidersEv@Base 4:4.4.95
 _ZNK14KUriFilterData24preferredSearchProvidersEv@Base 4:4.4.95
 _ZNK14KUriFilterData27allQueriesForSearchProviderERK7QString@Base 4:4.5.85
 _ZNK14KUriFilterData30alternateDefaultSearchProviderEv@Base 4:4.4.95
 _ZNK14KUriFilterData31queryForPreferredSearchProviderERK7QString@Base 4:4.4.95
 _ZNK14KUriFilterData34iconNameForPreferredSearchProviderERK7QString@Base 4:4.4.95
 _ZNK14KUriFilterData3uriEv@Base 4:4.3.4
 _ZNK14KUriFilterData7uriTypeEv@Base 4:4.3.4
 _ZNK14KUriFilterData8errorMsgEv@Base 4:4.3.4
 _ZNK14KUrlCompletion10metaObjectEv@Base 4:4.3.4
 _ZNK14KUrlCompletion10replaceEnvEv@Base 4:4.3.4
 _ZNK14KUrlCompletion11replaceHomeEv@Base 4:4.3.4
 _ZNK14KUrlCompletion12replacedPathERK7QString@Base 4:4.3.4
 _ZNK14KUrlCompletion16postProcessMatchEP7QString@Base 4:4.3.4
 _ZNK14KUrlCompletion18postProcessMatchesEP11QStringList@Base 4:4.3.4
 _ZNK14KUrlCompletion18postProcessMatchesEP18KCompletionMatches@Base 4:4.3.4
 _ZNK14KUrlCompletion3dirEv@Base 4:4.3.4
 _ZNK14KUrlCompletion4modeEv@Base 4:4.3.4
 _ZNK14KUrlCompletion9isRunningEv@Base 4:4.3.4
 _ZNK15KBookmarkAction10metaObjectEv@Base 4:4.3.4
 _ZNK15KBookmarkDialog10metaObjectEv@Base 4:4.3.4
 _ZNK15KDataToolAction10metaObjectEv@Base 4:4.3.4
 _ZNK15KOpenWithDialog10metaObjectEv@Base 4:4.3.4
 _ZNK15KOpenWithDialog4textEv@Base 4:4.3.4
 _ZNK15KOpenWithDialog7serviceEv@Base 4:4.3.4
 _ZNK15KRemoteEncoding11encodingMibEv@Base 4:4.3.4
 _ZNK15KRemoteEncoding6decodeERK10QByteArray@Base 4:4.3.4
 _ZNK15KRemoteEncoding6encodeERK4KUrl@Base 4:4.3.4
 _ZNK15KRemoteEncoding6encodeERK7QString@Base 4:4.3.4
 _ZNK15KRemoteEncoding8encodingEv@Base 4:4.3.4
 _ZNK15KRemoteEncoding8fileNameERK4KUrl@Base 4:4.3.4
 _ZNK15KRemoteEncoding9directoryERK4KUrlb@Base 4:4.3.4
 _ZNK15KSSLCertificate10getKeyTypeEv@Base 4:4.3.4
 _ZNK15KSSLCertificate10getSubjectEv@Base 4:4.3.4
 _ZNK15KSSLCertificate11getNotAfterEv@Base 4:4.3.4
 _ZNK15KSSLCertificate12getMD5DigestEv@Base 4:4.3.4
 _ZNK15KSSLCertificate12getNotBeforeEv@Base 4:4.3.4
 _ZNK15KSSLCertificate12subjAltNamesEv@Base 4:4.3.4
 _ZNK15KSSLCertificate14getQDTNotAfterEv@Base 4:4.3.4
 _ZNK15KSSLCertificate15getQDTNotBeforeEv@Base 4:4.3.4
 _ZNK15KSSLCertificate15getSerialNumberEv@Base 4:4.3.4
 _ZNK15KSSLCertificate16getMD5DigestTextEv@Base 4:4.3.4
 _ZNK15KSSLCertificate16getPublicKeyTextEv@Base 4:4.3.4
 _ZNK15KSSLCertificate16getSignatureTextEv@Base 4:4.3.4
 _ZNK15KSSLCertificate16purposeToOpenSSLENS_11KSSLPurposeE@Base 4:4.3.4
 _ZNK15KSSLCertificate9getEmailsER11QStringList@Base 4:4.3.4
 _ZNK15KSSLCertificate9getIssuerEv@Base 4:4.3.4
 _ZNK15KSSLCertificate9getKDEKeyEv@Base 4:4.3.4
 _ZNK15KSambaShareData15guestPermissionEv@Base 4:4.7.0
 _ZNK15KSambaShareData3aclEv@Base 4:4.7.0
 _ZNK15KSambaShareData4nameEv@Base 4:4.7.0
 _ZNK15KSambaShareData4pathEv@Base 4:4.7.0
 _ZNK15KSambaShareData7commentEv@Base 4:4.7.0
 _ZNK15KSambaShareDataeqERKS_@Base 4:4.7.0
 _ZNK15KSambaShareDataneERKS_@Base 4:4.7.0
 _ZNK16KBookmarkManager10metaObjectEv@Base 4:4.3.4
 _ZNK16KBookmarkManager16internalDocumentEv@Base 4:4.3.4
 _ZNK16KBookmarkManager24autoErrorHandlingEnabledEv@Base 4:4.5.86
 _ZNK16KBookmarkManager4pathEv@Base 4:4.3.4
 _ZNK16KBookmarkManager4rootEv@Base 4:4.3.4
 _ZNK16KBookmarkManager4saveEb@Base 4:4.3.4
 _ZNK16KBookmarkManager5parseEv@Base 4:4.3.4
 _ZNK16KBookmarkManager6saveAsERK7QStringb@Base 4:4.3.4
 _ZNK16KDeviceListModel10headerDataEiN2Qt11OrientationEi@Base 4:4.3.4
 _ZNK16KDeviceListModel10metaObjectEv@Base 4:4.3.4
 _ZNK16KDeviceListModel11columnCountERK11QModelIndex@Base 4:4.3.4
 _ZNK16KDeviceListModel14deviceForIndexERK11QModelIndex@Base 4:4.3.4
 _ZNK16KDeviceListModel4dataERK11QModelIndexi@Base 4:4.3.4
 _ZNK16KDeviceListModel5indexEiiRK11QModelIndex@Base 4:4.3.4
 _ZNK16KDeviceListModel6parentERK11QModelIndex@Base 4:4.3.4
 _ZNK16KDeviceListModel7Private12indexForItemEP15KDeviceListItem@Base 4:4.3.4
 _ZNK16KDeviceListModel8rowCountERK11QModelIndex@Base 4:4.3.4
 _ZNK16KDeviceListModel9rootIndexEv@Base 4:4.3.4
 _ZNK16KFileItemActions10metaObjectEv@Base 4:4.3.4
 _ZNK16KFileMetaPreview10metaObjectEv@Base 4:4.3.4
 _ZNK16KFileMetaPreview20findExistingProviderERK7QStringRK10KSharedPtrI9KMimeTypeE@Base 4:4.3.4
 _ZNK16KFileWritePlugin10metaObjectEv@Base 4:4.3.4
 _ZNK16KMimeTypeChooser10metaObjectEv@Base 4:4.3.4
 _ZNK16KMimeTypeChooser8patternsEv@Base 4:4.3.4
 _ZNK16KMimeTypeChooser9mimeTypesEv@Base 4:4.3.4
 _ZNK16KShellCompletion10metaObjectEv@Base 4:4.3.4
 _ZNK16KShellCompletion16postProcessMatchEP7QString@Base 4:4.3.4
 _ZNK16KShellCompletion18postProcessMatchesEP11QStringList@Base 4:4.3.4
 _ZNK16KShellCompletion18postProcessMatchesEP18KCompletionMatches@Base 4:4.3.4
 _ZNK16KUriFilterPlugin10configNameEv@Base 4:4.3.4
 _ZNK16KUriFilterPlugin10metaObjectEv@Base 4:4.3.4
 _ZNK16KUriFilterPlugin10setUriTypeER14KUriFilterDataNS0_8UriTypesE@Base 4:4.3.4
 _ZNK16KUriFilterPlugin11iconNameForERK4KUrlN14KUriFilterData8UriTypesE@Base 4:4.4.95
 _ZNK16KUriFilterPlugin11resolveNameERK7QStringm@Base 4:4.7.0
 _ZNK16KUriFilterPlugin11setErrorMsgER14KUriFilterDataRK7QString@Base 4:4.3.4
 _ZNK16KUriFilterPlugin12configModuleEP7QWidgetPKc@Base 4:4.3.4
 _ZNK16KUriFilterPlugin12setArgumentsER14KUriFilterDataRK7QString@Base 4:4.3.4
 _ZNK16KUriFilterPlugin14setFilteredUriER14KUriFilterDataRK4KUrl@Base 4:4.3.4
 _ZNK16KUriFilterPlugin17setSearchProviderER14KUriFilterDataRK7QStringS4_RK5QChar@Base 4:4.4.95
 _ZNK16KUriFilterPlugin18setSearchProvidersER14KUriFilterDataRK5QListIP24KUriFilterSearchProviderE@Base 4:4.5.85
 _ZNK16KUriFilterPlugin27setPreferredSearchProvidersER14KUriFilterDataRK5QHashI7QString5QPairIS3_S3_EE@Base 4:4.4.95
 _ZNK16KonqBookmarkMenu10metaObjectEv@Base 4:4.3.4
 _ZNK17KFileItemDelegate10metaObjectEv@Base 4:4.3.4
 _ZNK17KFileItemDelegate10shadowBlurEv@Base 4:4.3.4
 _ZNK17KFileItemDelegate11maximumSizeEv@Base 4:4.3.4
 _ZNK17KFileItemDelegate11shadowColorEv@Base 4:4.3.4
 _ZNK17KFileItemDelegate12createEditorEP7QWidgetRK20QStyleOptionViewItemRK11QModelIndex@Base 4:4.3.4
 _ZNK17KFileItemDelegate12setModelDataEP7QWidgetP18QAbstractItemModelRK11QModelIndex@Base 4:4.3.4
 _ZNK17KFileItemDelegate12shadowOffsetEv@Base 4:4.3.4
 _ZNK17KFileItemDelegate13setEditorDataEP7QWidgetRK11QModelIndex@Base 4:4.3.4
 _ZNK17KFileItemDelegate15showInformationEv@Base 4:4.3.4
 _ZNK17KFileItemDelegate19jobTransfersVisibleEv@Base 4:4.4.95
 _ZNK17KFileItemDelegate20updateEditorGeometryEP7QWidgetRK20QStyleOptionViewItemRK11QModelIndex@Base 4:4.3.4
 _ZNK17KFileItemDelegate21showToolTipWhenElidedEv@Base 4:4.3.4
 _ZNK17KFileItemDelegate5paintEP8QPainterRK20QStyleOptionViewItemRK11QModelIndex@Base 4:4.3.4
 _ZNK17KFileItemDelegate7Private10decorationERK22QStyleOptionViewItemV4RK11QModelIndex@Base 4:4.3.4
 _ZNK17KFileItemDelegate7Private10elidedTextER11QTextLayoutRK22QStyleOptionViewItemV4RK5QSize@Base 4:4.3.4
 _ZNK17KFileItemDelegate7Private10isListViewERK22QStyleOptionViewItemV4@Base 4:4.3.4
 _ZNK17KFileItemDelegate7Private10layoutTextER11QTextLayoutRK22QStyleOptionViewItemV4RK7QStringRK5QSize@Base 4:4.3.4
 _ZNK17KFileItemDelegate7Private10layoutTextER11QTextLayoutRK7QStringi@Base 4:4.3.4
 _ZNK17KFileItemDelegate7Private10transitionERK7QPixmapS3_d@Base 4:4.3.4
 _ZNK17KFileItemDelegate7Private11informationERK22QStyleOptionViewItemV4RK11QModelIndexRK9KFileItem@Base 4:4.3.4
 _ZNK17KFileItemDelegate7Private12iconPositionERK22QStyleOptionViewItemV4@Base 4:4.3.4
 _ZNK17KFileItemDelegate7Private13drawFocusRectEP8QPainterRK22QStyleOptionViewItemV4RK5QRect@Base 4:4.3.4
 _ZNK17KFileItemDelegate7Private13drawTextItemsEP8QPainterRK11QTextLayoutS5_RK5QRect@Base 4:4.3.4
 _ZNK17KFileItemDelegate7Private14animationStateERK22QStyleOptionViewItemV4RK11QModelIndexPK17QAbstractItemView@Base 4:4.3.4
 _ZNK17KFileItemDelegate7Private14labelRectangleERK22QStyleOptionViewItemV4@Base 4:4.3.4
 _ZNK17KFileItemDelegate7Private15displaySizeHintERK22QStyleOptionViewItemV4RK11QModelIndex@Base 4:4.3.4
 _ZNK17KFileItemDelegate7Private15foregroundBrushERK22QStyleOptionViewItemV4RK11QModelIndex@Base 4:4.3.4
 _ZNK17KFileItemDelegate7Private15initStyleOptionEP22QStyleOptionViewItemV4RK11QModelIndex@Base 4:4.3.4
 _ZNK17KFileItemDelegate7Private15layoutTextItemsERK22QStyleOptionViewItemV4RK11QModelIndexP11QTextLayoutS8_P5QRect@Base 4:4.3.4
 _ZNK17KFileItemDelegate7Private15replaceNewlinesERK7QString@Base 4:4.3.4
 _ZNK17KFileItemDelegate7Private16applyHoverEffectERK7QPixmap@Base 4:4.3.4
 _ZNK17KFileItemDelegate7Private18decorationSizeHintERK22QStyleOptionViewItemV4RK11QModelIndex@Base 4:4.3.4
 _ZNK17KFileItemDelegate7Private7displayERK11QModelIndex@Base 4:4.3.4
 _ZNK17KFileItemDelegate7Private8itemSizeERK11QModelIndexRK9KFileItem@Base 4:4.3.4
 _ZNK17KFileItemDelegate8iconRectERK20QStyleOptionViewItemRK11QModelIndex@Base 4:4.4.0
 _ZNK17KFileItemDelegate8sizeHintERK20QStyleOptionViewItemRK11QModelIndex@Base 4:4.3.4
 _ZNK17KFileItemDelegate8wrapModeEv@Base 4:4.4.0
 _ZNK17KFileMetaInfoItem10isEditableEv@Base 4:4.3.4
 _ZNK17KFileMetaInfoItem10isModifiedEv@Base 4:4.3.4
 _ZNK17KFileMetaInfoItem10propertiesEv@Base 4:4.3.4
 _ZNK17KFileMetaInfoItem4nameEv@Base 4:4.3.4
 _ZNK17KFileMetaInfoItem5valueEv@Base 4:4.3.4
 _ZNK17KFileMetaInfoItem6prefixEv@Base 4:4.3.4
 _ZNK17KFileMetaInfoItem6suffixEv@Base 4:4.3.4
 _ZNK17KFileMetaInfoItem7isValidEv@Base 4:4.3.4
 _ZNK17KFileMetaInfoItem9isRemovedEv@Base 4:4.3.4
 _ZNK17KFileMetaInfoItem9isSkippedEv@Base 4:4.3.4
 _ZNK17KImageFilePreview10metaObjectEv@Base 4:4.3.4
 _ZNK17KImageFilePreview8sizeHintEv@Base 4:4.3.4
 _ZNK17KMimeTypeResolver10metaObjectEv@Base 4:4.3.4
 _ZNK17KPropertiesDialog10currentDirEv@Base 4:4.3.4
 _ZNK17KPropertiesDialog10metaObjectEv@Base 4:4.3.4
 _ZNK17KPropertiesDialog11defaultNameEv@Base 4:4.3.4
 _ZNK17KPropertiesDialog4kurlEv@Base 4:4.3.4
 _ZNK17KPropertiesDialog5itemsEv@Base 4:4.3.4
 _ZNK18KDiskFreeSpaceInfo10mountPointEv@Base 4:4.3.4
 _ZNK18KDiskFreeSpaceInfo4sizeEv@Base 4:4.3.4
 _ZNK18KDiskFreeSpaceInfo4usedEv@Base 4:4.3.4
 _ZNK18KDiskFreeSpaceInfo7isValidEv@Base 4:4.3.4
 _ZNK18KDiskFreeSpaceInfo9availableEv@Base 4:4.3.4
 _ZNK18KFileMetaInfoGroup4nameEv@Base 4:4.3.4
 _ZNK18KFileMetaInfoGroup5itemsEv@Base 4:4.3.4
 _ZNK18KPreviewWidgetBase10metaObjectEv@Base 4:4.3.4
 _ZNK18KPreviewWidgetBase18supportedMimeTypesEv@Base 4:4.3.4
 _ZNK18KSslCertificateBox10metaObjectEv@Base 4:4.3.4
 _ZNK18KUrlComboRequester10metaObjectEv@Base 4:4.3.4
 _ZNK19KAbstractFileModule10metaObjectEv@Base 4:4.3.4
 _ZNK19KBookmarkDomBuilder10metaObjectEv@Base 4:4.3.4
 _ZNK19KEncodingFileDialog10metaObjectEv@Base 4:4.3.4
 _ZNK19KEncodingFileDialog16selectedEncodingEv@Base 4:4.3.4
 _ZNK19KFileMetaDataWidget10isReadOnlyEv@Base 4:4.4.95
 _ZNK19KFileMetaDataWidget10metaObjectEv@Base 4:4.4.95
 _ZNK19KFileMetaDataWidget5itemsEv@Base 4:4.4.95
 _ZNK19KFileMetaDataWidget7Private10sortedKeysERK5QHashI4KUrlN7Nepomuk7VariantEE@Base 4:4.4.95
 _ZNK19KFileMetaDataWidget7Private14hasNepomukUrisEv@Base 4:4.5.85
 _ZNK19KFileMetaDataWidget8sizeHintEv@Base 4:4.4.95
 _ZNK19KFileMetaInfoWidget10metaObjectEv@Base 4:4.3.4
 _ZNK19KFileMetaInfoWidget4itemEv@Base 4:4.3.4
 _ZNK19KFileMetaInfoWidget5valueEv@Base 4:4.3.4
 _ZNK19KFileMetaInfoWidget9validatorEv@Base 4:4.3.4
 _ZNK19KPreviewPropsPlugin10metaObjectEv@Base 4:4.3.4
 _ZNK19KUrlRequesterDialog10metaObjectEv@Base 4:4.3.4
 _ZNK19KUrlRequesterDialog11selectedUrlEv@Base 4:4.3.4
 _ZNK19PredicateProperties10attributesEv@Base 4:4.3.4
 _ZNK19PredicateProperties14maxCardinalityEv@Base 4:4.3.4
 _ZNK19PredicateProperties14minCardinalityEv@Base 4:4.3.4
 _ZNK19PredicateProperties15createValidatorEv@Base 4:4.3.4
 _ZNK19PredicateProperties15suggestedValuesEv@Base 4:4.3.4
 _ZNK19PredicateProperties4nameEv@Base 4:4.3.4
 _ZNK19PredicateProperties4typeEv@Base 4:4.3.4
 _ZNK19PredicateProperties6parentEv@Base 4:4.3.4
 _ZNK19PredicateProperties7isValidEv@Base 4:4.3.4
 _ZNK20KBookmarkContextMenu10metaObjectEv@Base 4:4.3.4
 _ZNK20KBookmarkContextMenu5ownerEv@Base 4:4.3.4
 _ZNK20KBookmarkContextMenu7managerEv@Base 4:4.3.4
 _ZNK20KBookmarkContextMenu8bookmarkEv@Base 4:4.3.4
 _ZNK20KFileMetaPropsPlugin10metaObjectEv@Base 4:4.3.4
 _ZNK20ThumbSequenceCreator13sequenceIndexEv@Base 4:4.3.4
 _ZNK21KBookmarkImporterBase10metaObjectEv@Base 4:4.3.4
 _ZNK21KFileItemActionPlugin10metaObjectEv@Base 4:4.5.85
 _ZNK21KFileSharePropsPlugin10metaObjectEv@Base 4:4.3.4
 _ZNK21KFileSharePropsPlugin4pageEv@Base 4:4.3.4
 _ZNK22KCrashBookmarkImporter10metaObjectEv@Base 4:4.3.4
 _ZNK23KFileItemListProperties11isDirectoryEv@Base 4:4.3.4
 _ZNK23KFileItemListProperties14supportsMovingEv@Base 4:4.3.4
 _ZNK23KFileItemListProperties15supportsReadingEv@Base 4:4.3.4
 _ZNK23KFileItemListProperties15supportsWritingEv@Base 4:4.3.4
 _ZNK23KFileItemListProperties16supportsDeletingEv@Base 4:4.3.4
 _ZNK23KFileItemListProperties5itemsEv@Base 4:4.3.4
 _ZNK23KFileItemListProperties7isLocalEv@Base 4:4.3.4
 _ZNK23KFileItemListProperties7urlListEv@Base 4:4.3.4
 _ZNK23KFileItemListProperties8mimeTypeEv@Base 4:4.3.4
 _ZNK23KFileItemListProperties9mimeGroupEv@Base 4:4.3.4
 _ZNK23KIEBookmarkImporterImpl19findDefaultLocationEb@Base 4:4.3.4
 _ZNK23KNSBookmarkExporterImpl14folderAsStringERK14KBookmarkGroup@Base 4:4.3.4
 _ZNK23KNSBookmarkImporterImpl19findDefaultLocationEb@Base 4:4.3.4
 _ZNK23KPropertiesDialogPlugin10fontHeightEv@Base 4:4.3.4
 _ZNK23KPropertiesDialogPlugin10metaObjectEv@Base 4:4.3.4
 _ZNK23KPropertiesDialogPlugin7isDirtyEv@Base 4:4.3.4
 _ZNK23KonqBookmarkContextMenu10metaObjectEv@Base 4:4.3.4
 _ZNK24KBookmarkActionInterface8bookmarkEv@Base 4:4.3.4
 _ZNK24KUriFilterSearchProvider10defaultKeyEv@Base 4:4.5.85
 _ZNK24KUriFilterSearchProvider16desktopEntryNameEv@Base 4:4.5.85
 _ZNK24KUriFilterSearchProvider4keysEv@Base 4:4.5.85
 _ZNK24KUriFilterSearchProvider4nameEv@Base 4:4.5.85
 _ZNK24KUriFilterSearchProvider8iconNameEv@Base 4:4.5.85
 _ZNK25KXBELBookmarkImporterImpl10metaObjectEv@Base 4:4.3.4
 _ZNK25OrgKdeKDirNotifyInterface10metaObjectEv@Base 4:4.3.4
 _ZNK26KBuildSycocaProgressDialog10metaObjectEv@Base 4:4.3.4
 _ZNK26KCrashBookmarkImporterImpl19findDefaultLocationEb@Base 4:4.3.4
 _ZNK26KOperaBookmarkImporterImpl19findDefaultLocationEb@Base 4:4.3.4
 _ZNK26KStatusBarOfflineIndicator10metaObjectEv@Base 4:4.3.4
 _ZNK29KAbstractFileItemActionPlugin10metaObjectEv@Base 4:4.6.1
 _ZNK32KFileMetaDataConfigurationWidget10metaObjectEv@Base 4:4.4.95
 _ZNK32KFileMetaDataConfigurationWidget5itemsEv@Base 4:4.4.95
 _ZNK32KFileMetaDataConfigurationWidget8sizeHintEv@Base 4:4.4.95
 _ZNK3KIO10Connection10metaObjectEv@Base 4:4.3.4
 _ZNK3KIO10Connection11errorStringEv@Base 4:4.3.4
 _ZNK3KIO10Connection11isConnectedEv@Base 4:4.3.4
 _ZNK3KIO10Connection16hasTaskAvailableEv@Base 4:4.3.4
 _ZNK3KIO10Connection6initedEv@Base 4:4.3.4
 _ZNK3KIO10Connection9suspendedEv@Base 4:4.3.4
 _ZNK3KIO10PreviewJob10metaObjectEv@Base 4:4.3.4
 _ZNK3KIO10PreviewJob13sequenceIndexEv@Base 4:4.3.4
 _ZNK3KIO10PreviewJob15overlayIconSizeEv@Base 4:4.7.0
 _ZNK3KIO10PreviewJob16overlayIconAlphaEv@Base 4:4.7.0
 _ZNK3KIO10PreviewJob9scaleTypeEv@Base 4:4.7.0
 _ZNK3KIO10SkipDialog10metaObjectEv@Base 4:4.3.4
 _ZNK3KIO10SpecialJob10metaObjectEv@Base 4:4.3.4
 _ZNK3KIO10SpecialJob9argumentsEv@Base 4:4.3.4
 _ZNK3KIO11FileCopyJob10metaObjectEv@Base 4:4.3.4
 _ZNK3KIO11FileCopyJob6srcUrlEv@Base 4:4.3.4
 _ZNK3KIO11FileCopyJob7destUrlEv@Base 4:4.3.4
 _ZNK3KIO11Integration9CookieJar10metaObjectEv@Base 4:4.4.0
 _ZNK3KIO11Integration9CookieJar13cookiesForUrlERK4QUrl@Base 4:4.4.0
 _ZNK3KIO11Integration9CookieJar23isCookieStorageDisabledEv@Base 4:4.5.85
 _ZNK3KIO11Integration9CookieJar8windowIdEv@Base 4:4.4.0
 _ZNK3KIO11MetaInfoJob10metaObjectEv@Base 4:4.3.4
 _ZNK3KIO11MimetypeJob10metaObjectEv@Base 4:4.3.4
 _ZNK3KIO11MultiGetJob10metaObjectEv@Base 4:4.3.4
 _ZNK3KIO11SessionData10metaObjectEv@Base 4:4.3.4
 _ZNK3KIO11SlaveConfig10metaObjectEv@Base 4:4.3.4
 _ZNK3KIO11TransferJob10metaObjectEv@Base 4:4.3.4
 _ZNK3KIO11TransferJob11isErrorPageEv@Base 4:4.3.4
 _ZNK3KIO11TransferJob14reportDataSentEv@Base 4:4.3.4
 _ZNK3KIO11TransferJob8mimetypeEv@Base 4:4.3.4
 _ZNK3KIO12RenameDialog10metaObjectEv@Base 4:4.3.4
 _ZNK3KIO12RenameDialog11autoDestUrlEv@Base 4:4.4.95
 _ZNK3KIO12TCPSlaveBase10isUsingSslEv@Base 4:4.3.4
 _ZNK3KIO12TCPSlaveBase11isConnectedEv@Base 4:4.3.4
 _ZNK3KIO12TCPSlaveBase4portEv@Base 4:4.3.4
 _ZNK3KIO12TCPSlaveBase5atEndEv@Base 4:4.3.4
 _ZNK3KIO12TCPSlaveBase6socketEv@Base 4:4.3.4
 _ZNK3KIO12TCPSlaveBase9isAutoSslEv@Base 4:4.3.4
 _ZNK3KIO13AccessManager10metaObjectEv@Base 4:4.3.4
 _ZNK3KIO13AccessManager17cookieJarWindowidEv@Base 4:4.4.0
 _ZNK3KIO13AccessManager24isExternalContentAllowedEv@Base 4:4.3.4
 _ZNK3KIO13AccessManager6windowEv@Base 4:4.7.0
 _ZNK3KIO13JobUiDelegate10metaObjectEv@Base 4:4.3.4
 _ZNK3KIO14PasswordDialog10metaObjectEv@Base 4:4.3.4
 _ZNK3KIO14SlaveInterface10connectionEv@Base 4:4.3.4
 _ZNK3KIO14SlaveInterface10metaObjectEv@Base 4:4.3.4
 _ZNK3KIO14SlaveInterface6offsetEv@Base 4:4.3.4
 _ZNK3KIO14SlaveInterface6windowEv@Base 4:4.8.4
 _ZNK3KIO15FileUndoManager10metaObjectEv@Base 4:4.3.4
 _ZNK3KIO15FileUndoManager11UiInterface12parentWidgetEv@Base 4:4.3.4
 _ZNK3KIO15FileUndoManager11UiInterface16showProgressInfoEv@Base 4:4.3.4
 _ZNK3KIO15FileUndoManager11uiInterfaceEv@Base 4:4.3.4
 _ZNK3KIO15FileUndoManager13undoAvailableEv@Base 4:4.3.4
 _ZNK3KIO15FileUndoManager26currentCommandSerialNumberEv@Base 4:4.3.4
 _ZNK3KIO15FileUndoManager8undoTextEv@Base 4:4.3.4
 _ZNK3KIO16ConnectionServer10metaObjectEv@Base 4:4.3.4
 _ZNK3KIO16ConnectionServer11isListeningEv@Base 4:4.3.4
 _ZNK3KIO16ConnectionServer7addressEv@Base 4:4.3.4
 _ZNK3KIO16DirectorySizeJob10metaObjectEv@Base 4:4.3.4
 _ZNK3KIO16DirectorySizeJob10totalFilesEv@Base 4:4.3.4
 _ZNK3KIO16DirectorySizeJob12totalSubdirsEv@Base 4:4.3.4
 _ZNK3KIO16DirectorySizeJob9totalSizeEv@Base 4:4.3.4
 _ZNK3KIO17StoredTransferJob10metaObjectEv@Base 4:4.3.4
 _ZNK3KIO17StoredTransferJob4dataEv@Base 4:4.3.4
 _ZNK3KIO18DefaultViewAdapter10visualRectERK11QModelIndex@Base 4:4.3.4
 _ZNK3KIO18DefaultViewAdapter11visibleAreaEv@Base 4:4.3.4
 _ZNK3KIO18DefaultViewAdapter5modelEv@Base 4:4.3.4
 _ZNK3KIO18DefaultViewAdapter7paletteEv@Base 4:4.3.4
 _ZNK3KIO18DefaultViewAdapter8iconSizeEv@Base 4:4.3.4
 _ZNK3KIO18RenameDialogPlugin10metaObjectEv@Base 4:4.3.4
 _ZNK3KIO18RenameDialogPlugin8FileItem3urlEv@Base 4:4.3.4
 _ZNK3KIO18RenameDialogPlugin8FileItem5cTimeEv@Base 4:4.3.4
 _ZNK3KIO18RenameDialogPlugin8FileItem5mTimeEv@Base 4:4.3.4
 _ZNK3KIO18RenameDialogPlugin8FileItem8fileSizeEv@Base 4:4.3.4
 _ZNK3KIO18RenameDialogPlugin8FileItem8mimeTypeEv@Base 4:4.3.4
 _ZNK3KIO19ForwardingSlaveBase10metaObjectEv@Base 4:4.3.4
 _ZNK3KIO19ForwardingSlaveBase12processedUrlEv@Base 4:4.3.4
 _ZNK3KIO19ForwardingSlaveBase12requestedUrlEv@Base 4:4.3.4
 _ZNK3KIO19ForwardingSlaveBase15prepareUDSEntryERNS_8UDSEntryEb@Base 4:4.3.4
 _ZNK3KIO3Job10metaObjectEv@Base 4:4.3.4
 _ZNK3KIO3Job11errorStringEv@Base 4:4.3.4
 _ZNK3KIO3Job13isInteractiveEv@Base 4:4.3.4
 _ZNK3KIO3Job16outgoingMetaDataEv@Base 4:4.3.4
 _ZNK3KIO3Job20detailedErrorStringsEPK4KUrli@Base 4:4.3.4
 _ZNK3KIO3Job2uiEv@Base 4:4.3.4
 _ZNK3KIO3Job8metaDataEv@Base 4:4.3.4
 _ZNK3KIO3Job9parentJobEv@Base 4:4.3.4
 _ZNK3KIO5Slave10metaObjectEv@Base 4:4.3.4
 _ZNK3KIO5Slave3jobEv@Base 4:4.4.95
 _ZNK3KIO6DavJob10metaObjectEv@Base 4:4.3.4
 _ZNK3KIO7CopyJob10metaObjectEv@Base 4:4.3.4
 _ZNK3KIO7CopyJob13operationModeEv@Base 4:4.3.4
 _ZNK3KIO7CopyJob7destUrlEv@Base 4:4.3.4
 _ZNK3KIO7CopyJob7srcUrlsEv@Base 4:4.3.4
 _ZNK3KIO7FileJob10metaObjectEv@Base 4:4.3.4
 _ZNK3KIO7ListJob10metaObjectEv@Base 4:4.3.4
 _ZNK3KIO7ListJob14redirectionUrlEv@Base 4:4.3.4
 _ZNK3KIO7StatJob10metaObjectEv@Base 4:4.3.4
 _ZNK3KIO7StatJob10statResultEv@Base 4:4.3.4
 _ZNK3KIO7StatJob12mostLocalUrlEv@Base 4:4.4.0
 _ZNK3KIO8AuthInfo10isModifiedEv@Base 4:4.3.4
 _ZNK3KIO8AuthInfo13getExtraFieldERK7QString@Base 4:4.3.4
 _ZNK3KIO8AuthInfo18getExtraFieldFlagsERK7QString@Base 4:4.3.4
 _ZNK3KIO8ChmodJob10metaObjectEv@Base 4:4.3.4
 _ZNK3KIO8MetaData9toVariantEv@Base 4:4.3.4
 _ZNK3KIO8MkdirJob10metaObjectEv@Base 4:4.3.4
 _ZNK3KIO8UDSEntry10listFieldsEv@Base 4:4.3.4
 _ZNK3KIO8UDSEntry11numberValueEjx@Base 4:4.3.4
 _ZNK3KIO8UDSEntry11stringValueEj@Base 4:4.3.4
 _ZNK3KIO8UDSEntry5countEv@Base 4:4.3.4
 _ZNK3KIO8UDSEntry5isDirEv@Base 4:4.3.4
 _ZNK3KIO8UDSEntry6isLinkEv@Base 4:4.3.4
 _ZNK3KIO8UDSEntry8containsEj@Base 4:4.3.4
 _ZNK3KIO9DeleteJob10metaObjectEv@Base 4:4.3.4
 _ZNK3KIO9DeleteJob4urlsEv@Base 4:4.3.4
 _ZNK3KIO9NetAccess10metaObjectEv@Base 4:4.3.4
 _ZNK3KIO9Scheduler10metaObjectEv@Base 4:4.3.4
 _ZNK3KIO9SimpleJob10metaObjectEv@Base 4:4.3.4
 _ZNK3KIO9SimpleJob28isRedirectionHandlingEnabledEv@Base 4:4.4.0
 _ZNK3KIO9SimpleJob3urlEv@Base 4:4.3.4
 _ZNK3KIO9SlaveBase11allMetaDataEv@Base 4:4.3.4
 _ZNK3KIO9SlaveBase11hasMetaDataERK7QString@Base 4:4.3.4
 _ZNK3KIO9SlaveBase8metaDataERK7QString@Base 4:4.3.4
 _ZNK3KIO9SlaveBase9wasKilledEv@Base 4:4.3.4
 _ZNK4KACL10isExtendedEv@Base 4:4.3.4
 _ZNK4KACL11KACLPrivate11getUserNameEj@Base 4:4.3.4
 _ZNK4KACL11KACLPrivate12getGroupNameEj@Base 4:4.3.4
 _ZNK4KACL15basePermissionsEv@Base 4:4.3.4
 _ZNK4KACL15maskPermissionsERb@Base 4:4.3.4
 _ZNK4KACL16ownerPermissionsEv@Base 4:4.3.4
 _ZNK4KACL17othersPermissionsEv@Base 4:4.3.4
 _ZNK4KACL18allUserPermissionsEv@Base 4:4.3.4
 _ZNK4KACL19allGroupPermissionsEv@Base 4:4.3.4
 _ZNK4KACL20namedUserPermissionsERK7QStringPb@Base 4:4.3.4
 _ZNK4KACL21namedGroupPermissionsERK7QStringPb@Base 4:4.3.4
 _ZNK4KACL22owningGroupPermissionsEv@Base 4:4.3.4
 _ZNK4KACL7isValidEv@Base 4:4.3.4
 _ZNK4KACL8asStringEv@Base 4:4.3.4
 _ZNK4KACLeqERKS_@Base 4:4.3.4
 _ZNK4KACLneERKS_@Base 4:4.3.4
 _ZNK4KRun10autoDeleteEv@Base 4:4.3.4
 _ZNK4KRun10doScanFileEv@Base 4:4.3.4
 _ZNK4KRun10metaObjectEv@Base 4:4.3.4
 _ZNK4KRun11hasFinishedEv@Base 4:4.3.4
 _ZNK4KRun11isDirectoryEv@Base 4:4.3.4
 _ZNK4KRun11isLocalFileEv@Base 4:4.3.4
 _ZNK4KRun12progressInfoEv@Base 4:4.3.4
 _ZNK4KRun17suggestedFileNameEv@Base 4:4.3.4
 _ZNK4KRun20initializeNextActionEv@Base 4:4.3.4
 _ZNK4KRun3urlEv@Base 4:4.3.4
 _ZNK4KRun4modeEv@Base 4:4.3.4
 _ZNK4KRun8hasErrorEv@Base 4:4.3.4
 _ZNK8KService14createInstanceI23KPropertiesDialogPluginEEPT_P7QWidgetP7QObjectRK5QListI8QVariantEP7QString@Base 4:4.7.4
 _ZNK9KBookmark11descriptionEv@Base 4:4.4.0
 _ZNK9KBookmark11isSeparatorEv@Base 4:4.3.4
 _ZNK9KBookmark11parentGroupEv@Base 4:4.3.4
 _ZNK9KBookmark12metaDataItemERK7QString@Base 4:4.3.4
 _ZNK9KBookmark13showInToolbarEv@Base 4:4.3.4
 _ZNK9KBookmark15internalElementEv@Base 4:4.3.4
 _ZNK9KBookmark16populateMimeDataEP9QMimeData@Base 4:4.3.4
 _ZNK9KBookmark16positionInParentEv@Base 4:4.3.4
 _ZNK9KBookmark3urlEv@Base 4:4.3.4
 _ZNK9KBookmark4List16populateMimeDataEP9QMimeData@Base 4:4.3.4
 _ZNK9KBookmark4iconEv@Base 4:4.3.4
 _ZNK9KBookmark4textEv@Base 4:4.3.4
 _ZNK9KBookmark6isNullEv@Base 4:4.3.4
 _ZNK9KBookmark7addressEv@Base 4:4.3.4
 _ZNK9KBookmark7isGroupEv@Base 4:4.3.4
 _ZNK9KBookmark7toGroupEv@Base 4:4.3.4
 _ZNK9KBookmark8fullTextEv@Base 4:4.3.4
 _ZNK9KBookmark8metaDataERK7QStringb@Base 4:4.3.4
 _ZNK9KBookmark8mimeTypeEv@Base 4:4.3.4
 _ZNK9KBookmark9hasParentEv@Base 4:4.3.4
 _ZNK9KBookmarkeqERKS_@Base 4:4.3.4
 _ZNK9KDataTool10metaObjectEv@Base 4:4.3.4
 _ZNK9KDataTool13componentDataEv@Base 4:4.3.4
 _ZNK9KDirModel10headerDataEiN2Qt11OrientationEi@Base 4:4.3.4
 _ZNK9KDirModel10metaObjectEv@Base 4:4.3.4
 _ZNK9KDirModel11columnCountERK11QModelIndex@Base 4:4.3.4
 _ZNK9KDirModel11hasChildrenERK11QModelIndex@Base 4:4.3.4
 _ZNK9KDirModel11indexForUrlERK4KUrl@Base 4:4.3.4
 _ZNK9KDirModel12canFetchMoreERK11QModelIndex@Base 4:4.3.4
 _ZNK9KDirModel12indexForItemEPK9KFileItem@Base 4:4.3.4
 _ZNK9KDirModel12indexForItemERK9KFileItem@Base 4:4.3.4
 _ZNK9KDirModel12itemForIndexERK11QModelIndex@Base 4:4.3.4
 _ZNK9KDirModel19jobTransfersVisibleEv@Base 4:4.4.95
 _ZNK9KDirModel4dataERK11QModelIndexi@Base 4:4.3.4
 _ZNK9KDirModel5flagsERK11QModelIndex@Base 4:4.3.4
 _ZNK9KDirModel5indexEiiRK11QModelIndex@Base 4:4.3.4
 _ZNK9KDirModel6parentERK11QModelIndex@Base 4:4.3.4
 _ZNK9KDirModel8mimeDataERK5QListI11QModelIndexE@Base 4:4.3.4
 _ZNK9KDirModel8rowCountERK11QModelIndex@Base 4:4.3.4
 _ZNK9KDirModel9dirListerEv@Base 4:4.3.4
 _ZNK9KDirModel9mimeTypesEv@Base 4:4.3.4
 _ZNK9KFileItem10defaultACLEv@Base 4:4.3.4
 _ZNK9KFileItem10isReadableEv@Base 4:4.3.4
 _ZNK9KFileItem10isWritableEv@Base 4:4.3.4
 _ZNK9KFileItem10nepomukUriEv@Base 4:4.4.0
 _ZNK9KFileItem10timeStringENS_9FileTimesE@Base 4:4.3.4
 _ZNK9KFileItem10timeStringEj@Base 4:4.3.4
 _ZNK9KFileItem11isLocalFileEv@Base 4:4.3.4
 _ZNK9KFileItem11mimeCommentEv@Base 4:4.3.4
 _ZNK9KFileItem11mimeTypePtrEv@Base 4:4.3.4
 _ZNK9KFileItem11permissionsEv@Base 4:4.3.4
 _ZNK9KFileItem11setMetaInfoERK13KFileMetaInfo@Base 4:4.3.4
 _ZNK9KFileItem12acceptsDropsEv@Base 4:4.3.4
 _ZNK9KFileItem12mostLocalUrlERb@Base 4:4.3.4
 _ZNK9KFileItem12mostLocalUrlEv@Base 4:4.5.85
 _ZNK9KFileItem13isDesktopFileEv@Base 4:4.3.4
 _ZNK9KFileItem13isRegularFileEv@Base 4:4.3.4
 _ZNK9KFileItem14getToolTipTextEi@Base 4:4.3.4
 _ZNK9KFileItem14hasExtendedACLEv@Base 4:4.3.4
 _ZNK9KFileItem15isMimeTypeKnownEv@Base 4:4.3.4
 _ZNK9KFileItem16getStatusBarInfoEv@Base 4:4.3.4
 _ZNK9KFileItem17determineMimeTypeEv@Base 4:4.3.4
 _ZNK9KFileItem17permissionsStringEv@Base 4:4.3.4
 _ZNK9KFileItem3ACLEv@Base 4:4.3.4
 _ZNK9KFileItem3cmpERKS_@Base 4:4.3.4
 _ZNK9KFileItem3runEP7QWidget@Base 4:4.3.4
 _ZNK9KFileItem3urlEv@Base 4:4.3.4
 _ZNK9KFileItem4modeEv@Base 4:4.3.4
 _ZNK9KFileItem4nameEb@Base 4:4.3.4
 _ZNK9KFileItem4sizeEv@Base 4:4.3.4
 _ZNK9KFileItem4textEv@Base 4:4.3.4
 _ZNK9KFileItem4timeENS_9FileTimesE@Base 4:4.3.4
 _ZNK9KFileItem4timeEj@Base 4:4.3.4
 _ZNK9KFileItem4userEv@Base 4:4.3.4
 _ZNK9KFileItem5entryEv@Base 4:4.3.4
 _ZNK9KFileItem5groupEv@Base 4:4.3.4
 _ZNK9KFileItem5isDirEv@Base 4:4.3.4
 _ZNK9KFileItem6isFileEv@Base 4:4.3.4
 _ZNK9KFileItem6isLinkEv@Base 4:4.3.4
 _ZNK9KFileItem6isNullEv@Base 4:4.3.4
 _ZNK9KFileItem6isSlowEv@Base 4:4.7.4
 _ZNK9KFileItem6pixmapEii@Base 4:4.3.4
 _ZNK9KFileItem7commentEv@Base 4:4.5.85
 _ZNK9KFileItem8iconNameEv@Base 4:4.3.4
 _ZNK9KFileItem8isHiddenEv@Base 4:4.3.4
 _ZNK9KFileItem8isMarkedEv@Base 4:4.3.4
 _ZNK9KFileItem8linkDestEv@Base 4:4.3.4
 _ZNK9KFileItem8metaInfoEbi@Base 4:4.3.4
 _ZNK9KFileItem8mimetypeEv@Base 4:4.3.4
 _ZNK9KFileItem8overlaysEv@Base 4:4.3.4
 _ZNK9KFileItem9extraDataEPKv@Base 4:4.3.4
 _ZNK9KFileItem9localPathEv@Base 4:4.3.4
 _ZNK9KFileItem9targetUrlEv@Base 4:4.3.4
 _ZNK9KFileItemcv8QVariantEv@Base 4:4.3.4
 _ZNK9KFileItemeqERKS_@Base 4:4.3.4
 _ZNK9KFileItemneERKS_@Base 4:4.3.4
 _ZNK9KNFSShare10metaObjectEv@Base 4:4.3.4
 _ZNK9KNFSShare11exportsPathEv@Base 4:4.3.4
 _ZNK9KNFSShare17isDirectorySharedERK7QString@Base 4:4.3.4
 _ZNK9KNFSShare17sharedDirectoriesEv@Base 4:4.3.4
 _ZTI10KAutoMount@Base 4:4.3.4
 _ZTI10KDirLister@Base 4:4.3.4
 _ZTI10KOCRDialog@Base 4:4.3.4
 _ZTI10KSSLKeyGen@Base 4:4.3.4
 _ZTI11KFileDialog@Base 4:4.3.4
 _ZTI11KIconButton@Base 4:4.3.4
 _ZTI11KIconCanvas@Base 4:4.3.4
 _ZTI11KIconDialog@Base 4:4.3.4
 _ZTI11KSambaShare@Base 4:4.3.4
 _ZTI11KScanDialog@Base 4:4.3.4
 _ZTI12KAutoUnmount@Base 4:4.3.4
 _ZTI12KUrlComboBox@Base 4:4.3.4
 _ZTI12ThumbCreator@Base 4:4.3.4
 _ZTI13KBookmarkMenu@Base 4:4.3.4
 _ZTI13KUrlRequester@Base 4:4.3.4
 _ZTI14KBookmarkOwner@Base 4:4.3.4
 _ZTI14KDiskFreeSpace@Base 4:4.3.4
 _ZTI14KSslInfoDialog@Base 4:4.3.4
 _ZTI14KUrlCompletion@Base 4:4.3.4
 _ZTI14ThumbCreatorV2@Base 4:4.7.0
 _ZTI15KBookmarkAction@Base 4:4.3.4
 _ZTI15KBookmarkDialog@Base 4:4.3.4
 _ZTI15KDataToolAction@Base 4:4.3.4
 _ZTI15KOpenWithDialog@Base 4:4.3.4
 _ZTI15KRemoteEncoding@Base 4:4.3.4
 _ZTI16KBookmarkManager@Base 4:4.3.4
 _ZTI16KDeviceListModel@Base 4:4.3.4
 _ZTI16KFileItemActions@Base 4:4.3.4
 _ZTI16KFileMetaPreview@Base 4:4.3.4
 _ZTI16KFileWritePlugin@Base 4:4.3.4
 _ZTI16KMimeTypeChooser@Base 4:4.3.4
 _ZTI16KShellCompletion@Base 4:4.3.4
 _ZTI16KUriFilterPlugin@Base 4:4.3.4
 _ZTI16KonqBookmarkMenu@Base 4:4.3.4
 _ZTI17KFileItemDelegate@Base 4:4.3.4
 _ZTI17KImageFilePreview@Base 4:4.3.4
 _ZTI17KMimeTypeResolver@Base 4:4.3.4
 _ZTI17KPropertiesDialog@Base 4:4.3.4
 _ZTI17KonqBookmarkOwner@Base 4:4.3.4
 _ZTI18KPreviewWidgetBase@Base 4:4.3.4
 _ZTI18KSslCertificateBox@Base 4:4.3.4
 _ZTI18KUrlComboRequester@Base 4:4.3.4
 _ZTI18KUrlPixmapProvider@Base 4:4.3.4
 _ZTI19KAbstractFileModule@Base 4:4.3.4
 _ZTI19KBookmarkActionMenu@Base 4:4.3.4
 _ZTI19KBookmarkDomBuilder@Base 4:4.3.4
 _ZTI19KDBusServiceStarter@Base 4:4.3.4
 _ZTI19KEncodingFileDialog@Base 4:4.3.4
 _ZTI19KFileMetaDataWidget@Base 4:4.4.95
 _ZTI19KFileMetaInfoWidget@Base 4:4.3.4
 _ZTI19KPreviewPropsPlugin@Base 4:4.3.4
 _ZTI19KUrlRequesterDialog@Base 4:4.3.4
 _ZTI20KBookmarkContextMenu@Base 4:4.3.4
 _ZTI20KFileMetaPropsPlugin@Base 4:4.3.4
 _ZTI20ThumbSequenceCreator@Base 4:4.3.4
 _ZTI21KBookmarkExporterBase@Base 4:4.3.4
 _ZTI21KBookmarkImporterBase@Base 4:4.3.4
 _ZTI21KFileItemActionPlugin@Base 4:4.5.85
 _ZTI21KFileSharePropsPlugin@Base 4:4.3.4
 _ZTI22KCrashBookmarkImporter@Base 4:4.3.4
 _ZTI22KMimeTypeChooserDialog@Base 4:4.3.4
 _ZTI23KBookmarkGroupTraverser@Base 4:4.3.4
 _ZTI23KFileItemListProperties@Base 4:4.3.4
 _ZTI23KIEBookmarkExporterImpl@Base 4:4.3.4
 _ZTI23KIEBookmarkImporterImpl@Base 4:4.3.4
 _ZTI23KNSBookmarkExporterImpl@Base 4:4.3.4
 _ZTI23KNSBookmarkImporterImpl@Base 4:4.3.4
 _ZTI23KPropertiesDialogPlugin@Base 4:4.3.4
 _ZTI23KonqBookmarkContextMenu@Base 4:4.3.4
 _ZTI24KBookmarkActionInterface@Base 4:4.3.4
 _ZTI24KUriFilterSearchProvider@Base 4:4.5.85
 _ZTI25KXBELBookmarkImporterImpl@Base 4:4.3.4
 _ZTI25OrgKdeKDirNotifyInterface@Base 4:4.3.4
 _ZTI26KBuildSycocaProgressDialog@Base 4:4.3.4
 _ZTI26KCrashBookmarkImporterImpl@Base 4:4.3.4
 _ZTI26KOperaBookmarkExporterImpl@Base 4:4.3.4
 _ZTI26KOperaBookmarkImporterImpl@Base 4:4.3.4
 _ZTI26KStatusBarOfflineIndicator@Base 4:4.3.4
 _ZTI28KMozillaBookmarkImporterImpl@Base 4:4.3.4
 _ZTI29KAbstractFileItemActionPlugin@Base 4:4.6.1
 _ZTI32KFileMetaDataConfigurationWidget@Base 4:4.4.95
 _ZTI4KACL@Base 4:4.3.4
 _ZTI4KRun@Base 4:4.3.4
 _ZTI9KDataTool@Base 4:4.3.4
 _ZTI9KDirModel@Base 4:4.3.4
 _ZTI9KNFSShare@Base 4:4.3.4
 _ZTIN10KDirLister7Private14CachedItemsJobE@Base 4:4.3.4
 _ZTIN3KIO10ConnectionE@Base 4:4.3.4
 _ZTIN3KIO10PreviewJobE@Base 4:4.3.4
 _ZTIN3KIO10SkipDialogE@Base 4:4.3.4
 _ZTIN3KIO10SpecialJobE@Base 4:4.3.4
 _ZTIN3KIO11FileCopyJobE@Base 4:4.3.4
 _ZTIN3KIO11Integration9CookieJarE@Base 4:4.4.0
 _ZTIN3KIO11MetaInfoJobE@Base 4:4.3.4
 _ZTIN3KIO11MimetypeJobE@Base 4:4.3.4
 _ZTIN3KIO11MultiGetJobE@Base 4:4.3.4
 _ZTIN3KIO11SessionDataE@Base 4:4.3.4
 _ZTIN3KIO11SlaveConfigE@Base 4:4.3.4
 _ZTIN3KIO11TransferJobE@Base 4:4.3.4
 _ZTIN3KIO12RenameDialogE@Base 4:4.3.4
 _ZTIN3KIO12TCPSlaveBaseE@Base 4:4.3.4
 _ZTIN3KIO13AccessManagerE@Base 4:4.3.4
 _ZTIN3KIO13JobUiDelegateE@Base 4:4.3.4
 _ZTIN3KIO14PasswordDialogE@Base 4:4.3.4
 _ZTIN3KIO14SlaveInterfaceE@Base 4:4.3.4
 _ZTIN3KIO15FileUndoManager11UiInterfaceE@Base 4:4.3.4
 _ZTIN3KIO15FileUndoManagerE@Base 4:4.3.4
 _ZTIN3KIO16ConnectionServerE@Base 4:4.3.4
 _ZTIN3KIO16DirectorySizeJobE@Base 4:4.3.4
 _ZTIN3KIO17StoredTransferJobE@Base 4:4.3.4
 _ZTIN3KIO18DefaultViewAdapterE@Base 4:4.3.4
 _ZTIN3KIO18RenameDialogPluginE@Base 4:4.3.4
 _ZTIN3KIO19ForwardingSlaveBaseE@Base 4:4.3.4
 _ZTIN3KIO3JobE@Base 4:4.3.4
 _ZTIN3KIO5SlaveE@Base 4:4.3.4
 _ZTIN3KIO6DavJobE@Base 4:4.3.4
 _ZTIN3KIO7CopyJobE@Base 4:4.3.4
 _ZTIN3KIO7FileJobE@Base 4:4.3.4
 _ZTIN3KIO7ListJobE@Base 4:4.3.4
 _ZTIN3KIO7StatJobE@Base 4:4.3.4
 _ZTIN3KIO8ChmodJobE@Base 4:4.3.4
 _ZTIN3KIO8MkdirJobE@Base 4:4.3.4
 _ZTIN3KIO9DeleteJobE@Base 4:4.3.4
 _ZTIN3KIO9NetAccessE@Base 4:4.3.4
 _ZTIN3KIO9SchedulerE@Base 4:4.3.4
 _ZTIN3KIO9SimpleJobE@Base 4:4.3.4
 _ZTIN3KIO9SlaveBaseE@Base 4:4.3.4
 _ZTS10KAutoMount@Base 4:4.3.4
 _ZTS10KDirLister@Base 4:4.3.4
 _ZTS10KOCRDialog@Base 4:4.3.4
 _ZTS10KSSLKeyGen@Base 4:4.3.4
 _ZTS11KFileDialog@Base 4:4.3.4
 _ZTS11KIconButton@Base 4:4.3.4
 _ZTS11KIconCanvas@Base 4:4.3.4
 _ZTS11KIconDialog@Base 4:4.3.4
 _ZTS11KSambaShare@Base 4:4.3.4
 _ZTS11KScanDialog@Base 4:4.3.4
 _ZTS12KAutoUnmount@Base 4:4.3.4
 _ZTS12KUrlComboBox@Base 4:4.3.4
 _ZTS12ThumbCreator@Base 4:4.3.4
 _ZTS13KBookmarkMenu@Base 4:4.3.4
 _ZTS13KUrlRequester@Base 4:4.3.4
 _ZTS14KBookmarkOwner@Base 4:4.3.4
 _ZTS14KDiskFreeSpace@Base 4:4.3.4
 _ZTS14KSslInfoDialog@Base 4:4.3.4
 _ZTS14KUrlCompletion@Base 4:4.3.4
 _ZTS14ThumbCreatorV2@Base 4:4.7.0
 _ZTS15KBookmarkAction@Base 4:4.3.4
 _ZTS15KBookmarkDialog@Base 4:4.3.4
 _ZTS15KDataToolAction@Base 4:4.3.4
 _ZTS15KOpenWithDialog@Base 4:4.3.4
 _ZTS15KRemoteEncoding@Base 4:4.3.4
 _ZTS16KBookmarkManager@Base 4:4.3.4
 _ZTS16KDeviceListModel@Base 4:4.3.4
 _ZTS16KFileItemActions@Base 4:4.3.4
 _ZTS16KFileMetaPreview@Base 4:4.3.4
 _ZTS16KFileWritePlugin@Base 4:4.3.4
 _ZTS16KMimeTypeChooser@Base 4:4.3.4
 _ZTS16KShellCompletion@Base 4:4.3.4
 _ZTS16KUriFilterPlugin@Base 4:4.3.4
 _ZTS16KonqBookmarkMenu@Base 4:4.3.4
 _ZTS17KFileItemDelegate@Base 4:4.3.4
 _ZTS17KImageFilePreview@Base 4:4.3.4
 _ZTS17KMimeTypeResolver@Base 4:4.3.4
 _ZTS17KPropertiesDialog@Base 4:4.3.4
 _ZTS17KonqBookmarkOwner@Base 4:4.3.4
 _ZTS18KPreviewWidgetBase@Base 4:4.3.4
 _ZTS18KSslCertificateBox@Base 4:4.3.4
 _ZTS18KUrlComboRequester@Base 4:4.3.4
 _ZTS18KUrlPixmapProvider@Base 4:4.3.4
 _ZTS19KAbstractFileModule@Base 4:4.3.4
 _ZTS19KBookmarkActionMenu@Base 4:4.3.4
 _ZTS19KBookmarkDomBuilder@Base 4:4.3.4
 _ZTS19KDBusServiceStarter@Base 4:4.3.4
 _ZTS19KEncodingFileDialog@Base 4:4.3.4
 _ZTS19KFileMetaDataWidget@Base 4:4.4.95
 _ZTS19KFileMetaInfoWidget@Base 4:4.3.4
 _ZTS19KPreviewPropsPlugin@Base 4:4.3.4
 _ZTS19KUrlRequesterDialog@Base 4:4.3.4
 _ZTS20KBookmarkContextMenu@Base 4:4.3.4
 _ZTS20KFileMetaPropsPlugin@Base 4:4.3.4
 _ZTS20ThumbSequenceCreator@Base 4:4.3.4
 _ZTS21KBookmarkExporterBase@Base 4:4.3.4
 _ZTS21KBookmarkImporterBase@Base 4:4.3.4
 _ZTS21KFileItemActionPlugin@Base 4:4.5.85
 _ZTS21KFileSharePropsPlugin@Base 4:4.3.4
 _ZTS22KCrashBookmarkImporter@Base 4:4.3.4
 _ZTS22KMimeTypeChooserDialog@Base 4:4.3.4
 _ZTS23KBookmarkGroupTraverser@Base 4:4.3.4
 _ZTS23KFileItemListProperties@Base 4:4.3.4
 _ZTS23KIEBookmarkExporterImpl@Base 4:4.3.4
 _ZTS23KIEBookmarkImporterImpl@Base 4:4.3.4
 _ZTS23KNSBookmarkExporterImpl@Base 4:4.3.4
 _ZTS23KNSBookmarkImporterImpl@Base 4:4.3.4
 _ZTS23KPropertiesDialogPlugin@Base 4:4.3.4
 _ZTS23KonqBookmarkContextMenu@Base 4:4.3.4
 _ZTS24KBookmarkActionInterface@Base 4:4.3.4
 _ZTS24KUriFilterSearchProvider@Base 4:4.5.85
 _ZTS25KXBELBookmarkImporterImpl@Base 4:4.3.4
 _ZTS25OrgKdeKDirNotifyInterface@Base 4:4.3.4
 _ZTS26KBuildSycocaProgressDialog@Base 4:4.3.4
 _ZTS26KCrashBookmarkImporterImpl@Base 4:4.3.4
 _ZTS26KOperaBookmarkExporterImpl@Base 4:4.3.4
 _ZTS26KOperaBookmarkImporterImpl@Base 4:4.3.4
 _ZTS26KStatusBarOfflineIndicator@Base 4:4.3.4
 _ZTS28KMozillaBookmarkImporterImpl@Base 4:4.3.4
 _ZTS29KAbstractFileItemActionPlugin@Base 4:4.6.1
 _ZTS32KFileMetaDataConfigurationWidget@Base 4:4.4.95
 _ZTS4KACL@Base 4:4.3.4
 _ZTS4KRun@Base 4:4.3.4
 _ZTS9KDataTool@Base 4:4.3.4
 _ZTS9KDirModel@Base 4:4.3.4
 _ZTS9KNFSShare@Base 4:4.3.4
 _ZTSN10KDirLister7Private14CachedItemsJobE@Base 4:4.3.4
 _ZTSN3KIO10ConnectionE@Base 4:4.3.4
 _ZTSN3KIO10PreviewJobE@Base 4:4.3.4
 _ZTSN3KIO10SkipDialogE@Base 4:4.3.4
 _ZTSN3KIO10SpecialJobE@Base 4:4.3.4
 _ZTSN3KIO11FileCopyJobE@Base 4:4.3.4
 _ZTSN3KIO11Integration9CookieJarE@Base 4:4.4.0
 _ZTSN3KIO11MetaInfoJobE@Base 4:4.3.4
 _ZTSN3KIO11MimetypeJobE@Base 4:4.3.4
 _ZTSN3KIO11MultiGetJobE@Base 4:4.3.4
 _ZTSN3KIO11SessionDataE@Base 4:4.3.4
 _ZTSN3KIO11SlaveConfigE@Base 4:4.3.4
 _ZTSN3KIO11TransferJobE@Base 4:4.3.4
 _ZTSN3KIO12RenameDialogE@Base 4:4.3.4
 _ZTSN3KIO12TCPSlaveBaseE@Base 4:4.3.4
 _ZTSN3KIO13AccessManagerE@Base 4:4.3.4
 _ZTSN3KIO13JobUiDelegateE@Base 4:4.3.4
 _ZTSN3KIO14PasswordDialogE@Base 4:4.3.4
 _ZTSN3KIO14SlaveInterfaceE@Base 4:4.3.4
 _ZTSN3KIO15FileUndoManager11UiInterfaceE@Base 4:4.3.4
 _ZTSN3KIO15FileUndoManagerE@Base 4:4.3.4
 _ZTSN3KIO16ConnectionServerE@Base 4:4.3.4
 _ZTSN3KIO16DirectorySizeJobE@Base 4:4.3.4
 _ZTSN3KIO17StoredTransferJobE@Base 4:4.3.4
 _ZTSN3KIO18DefaultViewAdapterE@Base 4:4.3.4
 _ZTSN3KIO18RenameDialogPluginE@Base 4:4.3.4
 _ZTSN3KIO19ForwardingSlaveBaseE@Base 4:4.3.4
 _ZTSN3KIO3JobE@Base 4:4.3.4
 _ZTSN3KIO5SlaveE@Base 4:4.3.4
 _ZTSN3KIO6DavJobE@Base 4:4.3.4
 _ZTSN3KIO7CopyJobE@Base 4:4.3.4
 _ZTSN3KIO7FileJobE@Base 4:4.3.4
 _ZTSN3KIO7ListJobE@Base 4:4.3.4
 _ZTSN3KIO7StatJobE@Base 4:4.3.4
 _ZTSN3KIO8ChmodJobE@Base 4:4.3.4
 _ZTSN3KIO8MkdirJobE@Base 4:4.3.4
 _ZTSN3KIO9DeleteJobE@Base 4:4.3.4
 _ZTSN3KIO9NetAccessE@Base 4:4.3.4
 _ZTSN3KIO9SchedulerE@Base 4:4.3.4
 _ZTSN3KIO9SimpleJobE@Base 4:4.3.4
 _ZTSN3KIO9SlaveBaseE@Base 4:4.3.4
 _ZTV10KAutoMount@Base 4:4.3.4
 _ZTV10KDirLister@Base 4:4.3.4
 _ZTV10KOCRDialog@Base 4:4.3.4
 _ZTV10KSSLKeyGen@Base 4:4.3.4
 _ZTV11KFileDialog@Base 4:4.3.4
 _ZTV11KIconButton@Base 4:4.3.4
 _ZTV11KIconCanvas@Base 4:4.3.4
 _ZTV11KIconDialog@Base 4:4.3.4
 _ZTV11KSambaShare@Base 4:4.3.4
 _ZTV11KScanDialog@Base 4:4.3.4
 _ZTV12KAutoUnmount@Base 4:4.3.4
 _ZTV12KUrlComboBox@Base 4:4.3.4
 _ZTV12ThumbCreator@Base 4:4.3.4
 _ZTV13KBookmarkMenu@Base 4:4.3.4
 _ZTV13KUrlRequester@Base 4:4.3.4
 _ZTV14KBookmarkOwner@Base 4:4.3.4
 _ZTV14KDiskFreeSpace@Base 4:4.3.4
 _ZTV14KSslInfoDialog@Base 4:4.3.4
 _ZTV14KUrlCompletion@Base 4:4.3.4
 _ZTV14ThumbCreatorV2@Base 4:4.7.0
 _ZTV15KBookmarkAction@Base 4:4.3.4
 _ZTV15KBookmarkDialog@Base 4:4.3.4
 _ZTV15KDataToolAction@Base 4:4.3.4
 _ZTV15KOpenWithDialog@Base 4:4.3.4
 _ZTV15KRemoteEncoding@Base 4:4.3.4
 _ZTV16KBookmarkManager@Base 4:4.3.4
 _ZTV16KDeviceListModel@Base 4:4.3.4
 _ZTV16KFileItemActions@Base 4:4.3.4
 _ZTV16KFileMetaPreview@Base 4:4.3.4
 _ZTV16KFileWritePlugin@Base 4:4.3.4
 _ZTV16KMimeTypeChooser@Base 4:4.3.4
 _ZTV16KShellCompletion@Base 4:4.3.4
 _ZTV16KUriFilterPlugin@Base 4:4.3.4
 _ZTV16KonqBookmarkMenu@Base 4:4.3.4
 _ZTV17KFileItemDelegate@Base 4:4.3.4
 _ZTV17KImageFilePreview@Base 4:4.3.4
 _ZTV17KMimeTypeResolver@Base 4:4.3.4
 _ZTV17KPropertiesDialog@Base 4:4.3.4
 _ZTV17KonqBookmarkOwner@Base 4:4.3.4
 _ZTV18KPreviewWidgetBase@Base 4:4.3.4
 _ZTV18KSslCertificateBox@Base 4:4.3.4
 _ZTV18KUrlComboRequester@Base 4:4.3.4
 _ZTV18KUrlPixmapProvider@Base 4:4.3.4
 _ZTV19KAbstractFileModule@Base 4:4.3.4
 _ZTV19KBookmarkActionMenu@Base 4:4.3.4
 _ZTV19KBookmarkDomBuilder@Base 4:4.3.4
 _ZTV19KDBusServiceStarter@Base 4:4.3.4
 _ZTV19KEncodingFileDialog@Base 4:4.3.4
 _ZTV19KFileMetaDataWidget@Base 4:4.4.95
 _ZTV19KFileMetaInfoWidget@Base 4:4.3.4
 _ZTV19KPreviewPropsPlugin@Base 4:4.3.4
 _ZTV19KUrlRequesterDialog@Base 4:4.3.4
 _ZTV20KBookmarkContextMenu@Base 4:4.3.4
 _ZTV20KFileMetaPropsPlugin@Base 4:4.3.4
 _ZTV20ThumbSequenceCreator@Base 4:4.3.4
 _ZTV21KBookmarkExporterBase@Base 4:4.3.4
 _ZTV21KBookmarkImporterBase@Base 4:4.3.4
 _ZTV21KFileItemActionPlugin@Base 4:4.5.85
 _ZTV21KFileSharePropsPlugin@Base 4:4.3.4
 _ZTV22KCrashBookmarkImporter@Base 4:4.3.4
 _ZTV22KMimeTypeChooserDialog@Base 4:4.3.4
 _ZTV23KBookmarkGroupTraverser@Base 4:4.3.4
 _ZTV23KFileItemListProperties@Base 4:4.3.4
 _ZTV23KIEBookmarkExporterImpl@Base 4:4.3.4
 _ZTV23KIEBookmarkImporterImpl@Base 4:4.3.4
 _ZTV23KNSBookmarkExporterImpl@Base 4:4.3.4
 _ZTV23KNSBookmarkImporterImpl@Base 4:4.3.4
 _ZTV23KPropertiesDialogPlugin@Base 4:4.3.4
 _ZTV23KonqBookmarkContextMenu@Base 4:4.3.4
 _ZTV24KBookmarkActionInterface@Base 4:4.3.4
 _ZTV24KUriFilterSearchProvider@Base 4:4.5.85
 _ZTV25KXBELBookmarkImporterImpl@Base 4:4.3.4
 _ZTV25OrgKdeKDirNotifyInterface@Base 4:4.3.4
 _ZTV26KBuildSycocaProgressDialog@Base 4:4.3.4
 _ZTV26KCrashBookmarkImporterImpl@Base 4:4.3.4
 _ZTV26KOperaBookmarkExporterImpl@Base 4:4.3.4
 _ZTV26KOperaBookmarkImporterImpl@Base 4:4.3.4
 _ZTV26KStatusBarOfflineIndicator@Base 4:4.3.4
 _ZTV28KMozillaBookmarkImporterImpl@Base 4:4.3.4
 _ZTV29KAbstractFileItemActionPlugin@Base 4:4.6.1
 _ZTV32KFileMetaDataConfigurationWidget@Base 4:4.4.95
 _ZTV4KACL@Base 4:4.3.4
 _ZTV4KRun@Base 4:4.3.4
 _ZTV9KDataTool@Base 4:4.3.4
 _ZTV9KDirModel@Base 4:4.3.4
 _ZTV9KNFSShare@Base 4:4.3.4
 _ZTVN10KDirLister7Private14CachedItemsJobE@Base 4:4.3.4
 _ZTVN3KIO10ConnectionE@Base 4:4.3.4
 _ZTVN3KIO10PreviewJobE@Base 4:4.3.4
 _ZTVN3KIO10SkipDialogE@Base 4:4.3.4
 _ZTVN3KIO10SpecialJobE@Base 4:4.3.4
 _ZTVN3KIO11FileCopyJobE@Base 4:4.3.4
 _ZTVN3KIO11Integration9CookieJarE@Base 4:4.4.0
 _ZTVN3KIO11MetaInfoJobE@Base 4:4.3.4
 _ZTVN3KIO11MimetypeJobE@Base 4:4.3.4
 _ZTVN3KIO11MultiGetJobE@Base 4:4.3.4
 _ZTVN3KIO11SessionDataE@Base 4:4.3.4
 _ZTVN3KIO11SlaveConfigE@Base 4:4.3.4
 _ZTVN3KIO11TransferJobE@Base 4:4.3.4
 _ZTVN3KIO12RenameDialogE@Base 4:4.3.4
 _ZTVN3KIO12TCPSlaveBaseE@Base 4:4.3.4
 _ZTVN3KIO13AccessManagerE@Base 4:4.3.4
 _ZTVN3KIO13JobUiDelegateE@Base 4:4.3.4
 _ZTVN3KIO14PasswordDialogE@Base 4:4.3.4
 _ZTVN3KIO14SlaveInterfaceE@Base 4:4.3.4
 _ZTVN3KIO15FileUndoManager11UiInterfaceE@Base 4:4.3.4
 _ZTVN3KIO15FileUndoManagerE@Base 4:4.3.4
 _ZTVN3KIO16ConnectionServerE@Base 4:4.3.4
 _ZTVN3KIO16DirectorySizeJobE@Base 4:4.3.4
 _ZTVN3KIO17StoredTransferJobE@Base 4:4.3.4
 _ZTVN3KIO18DefaultViewAdapterE@Base 4:4.3.4
 _ZTVN3KIO18RenameDialogPluginE@Base 4:4.3.4
 _ZTVN3KIO19ForwardingSlaveBaseE@Base 4:4.3.4
 _ZTVN3KIO3JobE@Base 4:4.3.4
 _ZTVN3KIO5SlaveE@Base 4:4.3.4
 _ZTVN3KIO6DavJobE@Base 4:4.3.4
 _ZTVN3KIO7CopyJobE@Base 4:4.3.4
 _ZTVN3KIO7FileJobE@Base 4:4.3.4
 _ZTVN3KIO7ListJobE@Base 4:4.3.4
 _ZTVN3KIO7StatJobE@Base 4:4.3.4
 _ZTVN3KIO8ChmodJobE@Base 4:4.3.4
 _ZTVN3KIO8MkdirJobE@Base 4:4.3.4
 _ZTVN3KIO9DeleteJobE@Base 4:4.3.4
 _ZTVN3KIO9NetAccessE@Base 4:4.3.4
 _ZTVN3KIO9SchedulerE@Base 4:4.3.4
 _ZTVN3KIO9SimpleJobE@Base 4:4.3.4
 _ZTVN3KIO9SlaveBaseE@Base 4:4.3.4
 _ZThn12_N15KBookmarkActionD0Ev@Base 4:4.3.4
 _ZThn12_N15KBookmarkActionD1Ev@Base 4:4.3.4
 _ZThn16_N19KBookmarkActionMenuD0Ev@Base 4:4.3.4
 _ZThn16_N19KBookmarkActionMenuD1Ev@Base 4:4.3.4
 _ZThn16_N25KXBELBookmarkImporterImpl10visitEnterERK14KBookmarkGroup@Base 4:4.3.4
 _ZThn16_N25KXBELBookmarkImporterImpl10visitLeaveERK14KBookmarkGroup@Base 4:4.3.4
 _ZThn16_N25KXBELBookmarkImporterImpl5visitERK9KBookmark@Base 4:4.3.4
 _ZThn16_N25KXBELBookmarkImporterImplD0Ev@Base 4:4.7.2
 _ZThn16_N25KXBELBookmarkImporterImplD1Ev@Base 4:4.7.2
 _ZThn20_N12KUrlComboBox19setCompletionObjectEP11KCompletionb@Base 4:4.3.4
 _ZThn20_N12KUrlComboBoxD0Ev@Base 4:4.3.4
 _ZThn20_N12KUrlComboBoxD1Ev@Base 4:4.3.4
 _ZThn8_N10KOCRDialogD0Ev@Base 4:4.3.4
 _ZThn8_N10KOCRDialogD1Ev@Base 4:4.3.4
 _ZThn8_N10KSSLKeyGenD0Ev@Base 4:4.3.4
 _ZThn8_N10KSSLKeyGenD1Ev@Base 4:4.3.4
 _ZThn8_N11KFileDialogD0Ev@Base 4:4.3.4
 _ZThn8_N11KFileDialogD1Ev@Base 4:4.3.4
 _ZThn8_N11KIconButtonD0Ev@Base 4:4.3.4
 _ZThn8_N11KIconButtonD1Ev@Base 4:4.3.4
 _ZThn8_N11KIconCanvasD0Ev@Base 4:4.3.4
 _ZThn8_N11KIconCanvasD1Ev@Base 4:4.3.4
 _ZThn8_N11KIconDialogD0Ev@Base 4:4.3.4
 _ZThn8_N11KIconDialogD1Ev@Base 4:4.3.4
 _ZThn8_N11KScanDialogD0Ev@Base 4:4.3.4
 _ZThn8_N11KScanDialogD1Ev@Base 4:4.3.4
 _ZThn8_N12KUrlComboBoxD0Ev@Base 4:4.3.4
 _ZThn8_N12KUrlComboBoxD1Ev@Base 4:4.3.4
 _ZThn8_N13KUrlRequesterD0Ev@Base 4:4.3.4
 _ZThn8_N13KUrlRequesterD1Ev@Base 4:4.3.4
 _ZThn8_N14KSslInfoDialogD0Ev@Base 4:4.3.4
 _ZThn8_N14KSslInfoDialogD1Ev@Base 4:4.3.4
 _ZThn8_N15KBookmarkDialogD0Ev@Base 4:4.7.2
 _ZThn8_N15KBookmarkDialogD1Ev@Base 4:4.7.2
 _ZThn8_N15KOpenWithDialogD0Ev@Base 4:4.3.4
 _ZThn8_N15KOpenWithDialogD1Ev@Base 4:4.3.4
 _ZThn8_N16KFileMetaPreviewD0Ev@Base 4:4.3.4
 _ZThn8_N16KFileMetaPreviewD1Ev@Base 4:4.3.4
 _ZThn8_N16KMimeTypeChooserD0Ev@Base 4:4.3.4
 _ZThn8_N16KMimeTypeChooserD1Ev@Base 4:4.3.4
 _ZThn8_N17KImageFilePreviewD0Ev@Base 4:4.3.4
 _ZThn8_N17KImageFilePreviewD1Ev@Base 4:4.3.4
 _ZThn8_N17KPropertiesDialogD0Ev@Base 4:4.3.4
 _ZThn8_N17KPropertiesDialogD1Ev@Base 4:4.3.4
 _ZThn8_N18KPreviewWidgetBaseD0Ev@Base 4:4.3.4
 _ZThn8_N18KPreviewWidgetBaseD1Ev@Base 4:4.3.4
 _ZThn8_N18KSslCertificateBoxD0Ev@Base 4:4.3.4
 _ZThn8_N18KSslCertificateBoxD1Ev@Base 4:4.3.4
 _ZThn8_N18KUrlComboRequesterD0Ev@Base 4:4.7.2
 _ZThn8_N18KUrlComboRequesterD1Ev@Base 4:4.7.2
 _ZThn8_N19KEncodingFileDialogD0Ev@Base 4:4.3.4
 _ZThn8_N19KEncodingFileDialogD1Ev@Base 4:4.3.4
 _ZThn8_N19KFileMetaDataWidgetD0Ev@Base 4:4.4.95
 _ZThn8_N19KFileMetaDataWidgetD1Ev@Base 4:4.4.95
 _ZThn8_N19KFileMetaInfoWidgetD0Ev@Base 4:4.3.4
 _ZThn8_N19KFileMetaInfoWidgetD1Ev@Base 4:4.3.4
 _ZThn8_N19KUrlRequesterDialogD0Ev@Base 4:4.3.4
 _ZThn8_N19KUrlRequesterDialogD1Ev@Base 4:4.3.4
 _ZThn8_N20KBookmarkContextMenuD0Ev@Base 4:4.3.4
 _ZThn8_N20KBookmarkContextMenuD1Ev@Base 4:4.3.4
 _ZThn8_N22KMimeTypeChooserDialogD0Ev@Base 4:4.3.4
 _ZThn8_N22KMimeTypeChooserDialogD1Ev@Base 4:4.3.4
 _ZThn8_N23KonqBookmarkContextMenuD0Ev@Base 4:4.3.4
 _ZThn8_N23KonqBookmarkContextMenuD1Ev@Base 4:4.3.4
 _ZThn8_N26KBuildSycocaProgressDialogD0Ev@Base 4:4.3.4
 _ZThn8_N26KBuildSycocaProgressDialogD1Ev@Base 4:4.3.4
 _ZThn8_N26KStatusBarOfflineIndicatorD0Ev@Base 4:4.3.4
 _ZThn8_N26KStatusBarOfflineIndicatorD1Ev@Base 4:4.3.4
 _ZThn8_N32KFileMetaDataConfigurationWidgetD0Ev@Base 4:4.4.95
 _ZThn8_N32KFileMetaDataConfigurationWidgetD1Ev@Base 4:4.4.95
 _ZThn8_N3KIO10SkipDialogD0Ev@Base 4:4.3.4
 _ZThn8_N3KIO10SkipDialogD1Ev@Base 4:4.3.4
 _ZThn8_N3KIO12RenameDialogD0Ev@Base 4:4.3.4
 _ZThn8_N3KIO12RenameDialogD1Ev@Base 4:4.3.4
 _ZThn8_N3KIO14PasswordDialogD0Ev@Base 4:4.3.4
 _ZThn8_N3KIO14PasswordDialogD1Ev@Base 4:4.3.4
 _ZThn8_N3KIO18RenameDialogPluginD0Ev@Base 4:4.7.2
 _ZThn8_N3KIO18RenameDialogPluginD1Ev@Base 4:4.7.2
 _ZThn8_N3KIO19ForwardingSlaveBase19setModificationTimeERK4KUrlRK9QDateTime@Base 4:4.3.4
 _ZThn8_N3KIO19ForwardingSlaveBase3delERK4KUrlb@Base 4:4.3.4
 _ZThn8_N3KIO19ForwardingSlaveBase3getERK4KUrl@Base 4:4.3.4
 _ZThn8_N3KIO19ForwardingSlaveBase3putERK4KUrli6QFlagsINS_7JobFlagEE@Base 4:4.3.4
 _ZThn8_N3KIO19ForwardingSlaveBase4copyERK4KUrlS3_i6QFlagsINS_7JobFlagEE@Base 4:4.3.4
 _ZThn8_N3KIO19ForwardingSlaveBase4statERK4KUrl@Base 4:4.3.4
 _ZThn8_N3KIO19ForwardingSlaveBase5chmodERK4KUrli@Base 4:4.3.4
 _ZThn8_N3KIO19ForwardingSlaveBase5mkdirERK4KUrli@Base 4:4.3.4
 _ZThn8_N3KIO19ForwardingSlaveBase6renameERK4KUrlS3_6QFlagsINS_7JobFlagEE@Base 4:4.3.4
 _ZThn8_N3KIO19ForwardingSlaveBase7listDirERK4KUrl@Base 4:4.3.4
 _ZThn8_N3KIO19ForwardingSlaveBase7symlinkERK7QStringRK4KUrl6QFlagsINS_7JobFlagEE@Base 4:4.3.4
 _ZThn8_N3KIO19ForwardingSlaveBase8mimetypeERK4KUrl@Base 4:4.3.4
 _ZThn8_N3KIO19ForwardingSlaveBaseD0Ev@Base 4:4.3.4
 _ZThn8_N3KIO19ForwardingSlaveBaseD1Ev@Base 4:4.3.4
 _ZeqR15KSSLCertificateS0_@Base 4:4.3.4
 _Zls6QDebugRK9KFileItem@Base 4:4.4.0
 _ZlsR11QDataStreamRK13KFileMetaInfo@Base 4:4.3.4
 _ZlsR11QDataStreamRK15KSSLCertificate@Base 4:4.3.4
 _ZlsR11QDataStreamRK4KACL@Base 4:4.3.4
 _ZlsR11QDataStreamRK9KFileItem@Base 4:4.3.4
 _ZlsR11QDataStreamRKN3KIO8UDSEntryE@Base 4:4.3.4
 _ZrsR11QDataStreamR13KFileMetaInfo@Base 4:4.3.4
 _ZrsR11QDataStreamR15KSSLCertificate@Base 4:4.3.4
 _ZrsR11QDataStreamR4KACL@Base 4:4.3.4
 _ZrsR11QDataStreamR9KFileItem@Base 4:4.3.4
 _ZrsR11QDataStreamRN3KIO8UDSEntryE@Base 4:4.3.4
 kio_resolve_local_urls@Base 4:4.3.4
