libkemoticons.so.4 libkemoticons4 #MINVER#
* Build-Depends-Package: kdelibs5-dev
 _ZN10KEmoticons11qt_metacallEN11QMetaObject4CallEiPPv@Base 4:4.4.95
 _ZN10KEmoticons11qt_metacastEPKc@Base 4:4.4.95
 _ZN10KEmoticons12installThemeERK7QString@Base 4:4.4.95
 _ZN10KEmoticons12setParseModeE6QFlagsIN15KEmoticonsTheme13ParseModeEnumEE@Base 4:4.4.95
 _ZN10KEmoticons16currentThemeNameEv@Base 4:4.4.95
 _ZN10KEmoticons16staticMetaObjectE@Base 4:4.4.95
 _ZN10KEmoticons5themeERK7QString@Base 4:4.4.95
 _ZN10KEmoticons5themeEv@Base 4:4.4.95
 _ZN10KEmoticons8newThemeERK7QStringRK10KSharedPtrI8KServiceE@Base 4:4.4.95
 _ZN10KEmoticons8setThemeERK15KEmoticonsTheme@Base 4:4.4.95
 _ZN10KEmoticons8setThemeERK7QString@Base 4:4.4.95
 _ZN10KEmoticons9parseModeEv@Base 4:4.4.95
 _ZN10KEmoticons9themeListEv@Base 4:4.4.95
 _ZN10KEmoticonsC1Ev@Base 4:4.4.95
 _ZN10KEmoticonsC2Ev@Base 4:4.4.95
 _ZN10KEmoticonsD0Ev@Base 4:4.4.95
 _ZN10KEmoticonsD1Ev@Base 4:4.4.95
 _ZN10KEmoticonsD2Ev@Base 4:4.4.95
 _ZN15KEmoticonsTheme11addEmoticonERK7QStringS2_N18KEmoticonsProvider17AddEmoticonOptionE@Base 4:4.4.95
 _ZN15KEmoticonsTheme12setThemeNameERK7QString@Base 4:4.4.95
 _ZN15KEmoticonsTheme14removeEmoticonERK7QString@Base 4:4.4.95
 _ZN15KEmoticonsTheme19KEmoticonsThemeDataC1Ev@Base 4:4.4.95
 _ZN15KEmoticonsTheme19KEmoticonsThemeDataC2Ev@Base 4:4.4.95
 _ZN15KEmoticonsTheme19KEmoticonsThemeDataD1Ev@Base 4:4.4.95
 _ZN15KEmoticonsTheme19KEmoticonsThemeDataD2Ev@Base 4:4.4.95
 _ZN15KEmoticonsTheme4saveEv@Base 4:4.4.95
 _ZN15KEmoticonsTheme9createNewEv@Base 4:4.4.95
 _ZN15KEmoticonsTheme9loadThemeERK7QString@Base 4:4.4.95
 _ZN15KEmoticonsThemeC1EP18KEmoticonsProvider@Base 4:4.4.95
 _ZN15KEmoticonsThemeC1ERKS_@Base 4:4.4.95
 _ZN15KEmoticonsThemeC1Ev@Base 4:4.4.95
 _ZN15KEmoticonsThemeC2EP18KEmoticonsProvider@Base 4:4.4.95
 _ZN15KEmoticonsThemeC2ERKS_@Base 4:4.4.95
 _ZN15KEmoticonsThemeC2Ev@Base 4:4.4.95
 _ZN15KEmoticonsThemeD1Ev@Base 4:4.4.95
 _ZN15KEmoticonsThemeD2Ev@Base 4:4.4.95
 _ZN15KEmoticonsThemeaSERKS_@Base 4:4.4.95
 _ZN18KEmoticonsProvider11addEmoticonERK7QStringS2_NS_17AddEmoticonOptionE@Base 4:4.4.95
 _ZN18KEmoticonsProvider11qt_metacallEN11QMetaObject4CallEiPPv@Base 4:4.4.95
 _ZN18KEmoticonsProvider11qt_metacastEPKc@Base 4:4.4.95
 _ZN18KEmoticonsProvider12setThemeNameERK7QString@Base 4:4.4.95
 _ZN18KEmoticonsProvider14removeEmoticonERK7QString@Base 4:4.4.95
 _ZN18KEmoticonsProvider15addEmoticonsMapE7QString11QStringList@Base 4:4.4.95
 _ZN18KEmoticonsProvider16addEmoticonIndexERK7QStringRK11QStringList@Base 4:4.4.95
 _ZN18KEmoticonsProvider16staticMetaObjectE@Base 4:4.4.95
 _ZN18KEmoticonsProvider17clearEmoticonsMapEv@Base 4:4.4.95
 _ZN18KEmoticonsProvider18removeEmoticonsMapE7QString@Base 4:4.4.95
 _ZN18KEmoticonsProvider19removeEmoticonIndexERK7QStringRK11QStringList@Base 4:4.4.95
 _ZN18KEmoticonsProvider4saveEv@Base 4:4.4.95
 _ZN18KEmoticonsProvider9createNewEv@Base 4:4.4.95
 _ZN18KEmoticonsProvider9loadThemeERK7QString@Base 4:4.4.95
 _ZN18KEmoticonsProviderC1EP7QObject@Base 4:4.4.95
 _ZN18KEmoticonsProviderC2EP7QObject@Base 4:4.4.95
 _ZN18KEmoticonsProviderD0Ev@Base 4:4.4.95
 _ZN18KEmoticonsProviderD1Ev@Base 4:4.4.95
 _ZN18KEmoticonsProviderD2Ev@Base 4:4.4.95
 _ZNK10KEmoticons10metaObjectEv@Base 4:4.4.95
 _ZNK15KEmoticonsTheme12emoticonsMapEv@Base 4:4.4.95
 _ZNK15KEmoticonsTheme14parseEmoticonsERK7QString6QFlagsINS_13ParseModeEnumEERK11QStringList@Base 4:4.4.95
 _ZNK15KEmoticonsTheme6isNullEv@Base 4:4.4.95
 _ZNK15KEmoticonsTheme8fileNameEv@Base 4:4.4.95
 _ZNK15KEmoticonsTheme8tokenizeERK7QString6QFlagsINS_13ParseModeEnumEE@Base 4:4.4.95
 _ZNK15KEmoticonsTheme9themeNameEv@Base 4:4.4.95
 _ZNK15KEmoticonsTheme9themePathEv@Base 4:4.4.95
 _ZNK18KEmoticonsProvider10metaObjectEv@Base 4:4.4.95
 _ZNK18KEmoticonsProvider12emoticonsMapEv@Base 4:4.4.95
 _ZNK18KEmoticonsProvider14emoticonsIndexEv@Base 4:4.4.95
 _ZNK18KEmoticonsProvider8fileNameEv@Base 4:4.4.95
 _ZNK18KEmoticonsProvider9themeNameEv@Base 4:4.4.95
 _ZNK18KEmoticonsProvider9themePathEv@Base 4:4.4.95
 _ZTI10KEmoticons@Base 4:4.4.95
 _ZTI18KEmoticonsProvider@Base 4:4.4.95
 _ZTS10KEmoticons@Base 4:4.4.95
 _ZTS18KEmoticonsProvider@Base 4:4.4.95
 _ZTV10KEmoticons@Base 4:4.4.95
 _ZTV18KEmoticonsProvider@Base 4:4.4.95
