libkcmutils.so.4 libkcmutils4 #MINVER#
* Build-Depends-Package: kdelibs5-dev
 _ZN12KCModuleInfo7Private7loadAllEv@Base 4:4.4.95
 _ZN12KCModuleInfo7PrivateC1E10KSharedPtrI8KServiceE@Base 4:4.4.95
 _ZN12KCModuleInfo7PrivateC1Ev@Base 4:4.4.95
 _ZN12KCModuleInfo7PrivateC2E10KSharedPtrI8KServiceE@Base 4:4.4.95
 _ZN12KCModuleInfo7PrivateC2Ev@Base 4:4.4.95
 _ZN12KCModuleInfoC1E10KSharedPtrI8KServiceE@Base 4:4.4.95
 _ZN12KCModuleInfoC1ERK7QString@Base 4:4.4.95
 _ZN12KCModuleInfoC1ERKS_@Base 4:4.4.95
 _ZN12KCModuleInfoC1Ev@Base 4:4.4.95
 _ZN12KCModuleInfoC2E10KSharedPtrI8KServiceE@Base 4:4.4.95
 _ZN12KCModuleInfoC2ERK7QString@Base 4:4.4.95
 _ZN12KCModuleInfoC2ERKS_@Base 4:4.4.95
 _ZN12KCModuleInfoC2Ev@Base 4:4.4.95
 _ZN12KCModuleInfoD1Ev@Base 4:4.4.95
 _ZN12KCModuleInfoD2Ev@Base 4:4.4.95
 _ZN12KCModuleInfoaSERKS_@Base 4:4.4.95
 _ZN13KCModuleProxy11childClosedEv@Base 4:4.4.95
 _ZN13KCModuleProxy11qt_metacallEN11QMetaObject4CallEiPPv@Base 4:4.4.95
 _ZN13KCModuleProxy11qt_metacastEPKc@Base 4:4.4.95
 _ZN13KCModuleProxy12deleteClientEv@Base 4:4.4.95
 _ZN13KCModuleProxy16quickHelpChangedEv@Base 4:4.4.95
 _ZN13KCModuleProxy16staticMetaObjectE@Base 4:4.4.95
 _ZN13KCModuleProxy4loadEv@Base 4:4.4.95
 _ZN13KCModuleProxy4saveEv@Base 4:4.4.95
 _ZN13KCModuleProxy7changedEPS_@Base 4:4.4.95
 _ZN13KCModuleProxy7changedEb@Base 4:4.4.95
 _ZN13KCModuleProxy8defaultsEv@Base 4:4.4.95
 _ZN13KCModuleProxy9showEventEP10QShowEvent@Base 4:4.4.95
 _ZN13KCModuleProxyC1ERK10KSharedPtrI8KServiceEP7QWidgetRK11QStringList@Base 4:4.4.95
 _ZN13KCModuleProxyC1ERK12KCModuleInfoP7QWidgetRK11QStringList@Base 4:4.4.95
 _ZN13KCModuleProxyC1ERK7QStringP7QWidgetRK11QStringList@Base 4:4.4.95
 _ZN13KCModuleProxyC2ERK10KSharedPtrI8KServiceEP7QWidgetRK11QStringList@Base 4:4.4.95
 _ZN13KCModuleProxyC2ERK12KCModuleInfoP7QWidgetRK11QStringList@Base 4:4.4.95
 _ZN13KCModuleProxyC2ERK7QStringP7QWidgetRK11QStringList@Base 4:4.4.95
 _ZN13KCModuleProxyD0Ev@Base 4:4.4.95
 _ZN13KCModuleProxyD1Ev@Base 4:4.4.95
 _ZN13KCModuleProxyD2Ev@Base 4:4.4.95
 _ZN13KCMultiDialog10setButtonsE6QFlagsIN7KDialog10ButtonCodeEE@Base 4:4.5.86
 _ZN13KCMultiDialog11qt_metacallEN11QMetaObject4CallEiPPv@Base 4:4.4.95
 _ZN13KCMultiDialog11qt_metacastEPKc@Base 4:4.4.95
 _ZN13KCMultiDialog13slotOkClickedEv@Base 4:4.4.95
 _ZN13KCMultiDialog15configCommittedERK10QByteArray@Base 4:4.4.95
 _ZN13KCMultiDialog15configCommittedEv@Base 4:4.4.95
 _ZN13KCMultiDialog15slotHelpClickedEv@Base 4:4.4.95
 _ZN13KCMultiDialog16slotApplyClickedEv@Base 4:4.4.95
 _ZN13KCMultiDialog16slotUser1ClickedEv@Base 4:4.4.95
 _ZN13KCMultiDialog16staticMetaObjectE@Base 4:4.4.95
 _ZN13KCMultiDialog18slotDefaultClickedEv@Base 4:4.4.95
 _ZN13KCMultiDialog5clearEv@Base 4:4.4.95
 _ZN13KCMultiDialog9addModuleERK12KCModuleInfoP15KPageWidgetItemRK11QStringList@Base 4:4.4.95
 _ZN13KCMultiDialog9addModuleERK7QStringRK11QStringList@Base 4:4.4.95
 _ZN13KCMultiDialogC1EP11KPageWidgetP7QWidget6QFlagsIN2Qt10WindowTypeEE@Base 4:4.4.95
 _ZN13KCMultiDialogC1EP7QWidget@Base 4:4.4.95
 _ZN13KCMultiDialogC1ER20KCMultiDialogPrivateP11KPageWidgetP7QWidget6QFlagsIN2Qt10WindowTypeEE@Base 4:4.4.95
 _ZN13KCMultiDialogC2EP11KPageWidgetP7QWidget6QFlagsIN2Qt10WindowTypeEE@Base 4:4.4.95
 _ZN13KCMultiDialogC2EP7QWidget@Base 4:4.4.95
 _ZN13KCMultiDialogC2ER20KCMultiDialogPrivateP11KPageWidgetP7QWidget6QFlagsIN2Qt10WindowTypeEE@Base 4:4.4.95
 _ZN13KCMultiDialogD0Ev@Base 4:4.4.95
 _ZN13KCMultiDialogD1Ev@Base 4:4.4.95
 _ZN13KCMultiDialogD2Ev@Base 4:4.4.95
 _ZN14KCModuleLoader10loadModuleERK12KCModuleInfoNS_14ErrorReportingEP7QWidgetRK11QStringList@Base 4:4.4.95
 _ZN14KCModuleLoader10loadModuleERK7QStringNS_14ErrorReportingEP7QWidgetRK11QStringList@Base 4:4.4.95
 _ZN14KCModuleLoader11reportErrorENS_14ErrorReportingERK7QStringS3_P7QWidget@Base 4:4.4.95
 _ZN14KCModuleLoader12unloadModuleERK12KCModuleInfo@Base 4:4.4.95
 _ZN14KCModuleLoader19showLastLoaderErrorEP7QWidget@Base 4:4.4.95
 _ZN15KPluginSelector10addPluginsERK14KComponentDataRK7QStringS5_RK10KSharedPtrI13KSharedConfigE@Base 4:4.4.95
 _ZN15KPluginSelector10addPluginsERK5QListI11KPluginInfoENS_16PluginLoadMethodERK7QStringS8_RK10KSharedPtrI13KSharedConfigE@Base 4:4.4.95
 _ZN15KPluginSelector10addPluginsERK7QStringS2_S2_10KSharedPtrI13KSharedConfigE@Base 4:4.4.95
 _ZN15KPluginSelector11qt_metacallEN11QMetaObject4CallEiPPv@Base 4:4.4.95
 _ZN15KPluginSelector11qt_metacastEPKc@Base 4:4.4.95
 _ZN15KPluginSelector15configCommittedERK10QByteArray@Base 4:4.4.95
 _ZN15KPluginSelector16staticMetaObjectE@Base 4:4.4.95
 _ZN15KPluginSelector18updatePluginsStateEv@Base 4:4.4.95
 _ZN15KPluginSelector4loadEv@Base 4:4.4.95
 _ZN15KPluginSelector4saveEv@Base 4:4.4.95
 _ZN15KPluginSelector7Private10ProxyModelC1EPS0_P7QObject@Base 4:4.4.95
 _ZN15KPluginSelector7Private10ProxyModelC2EPS0_P7QObject@Base 4:4.4.95
 _ZN15KPluginSelector7Private10ProxyModelD0Ev@Base 4:4.4.95
 _ZN15KPluginSelector7Private10ProxyModelD1Ev@Base 4:4.4.95
 _ZN15KPluginSelector7Private10ProxyModelD2Ev@Base 4:4.4.95
 _ZN15KPluginSelector7Private11PluginModel10addPluginsERK5QListI11KPluginInfoERK7QStringS9_RK12KConfigGroupNS_16PluginLoadMethodEb@Base 4:4.4.95
 _ZN15KPluginSelector7Private11PluginModel7setDataERK11QModelIndexRK8QVarianti@Base 4:4.4.95
 _ZN15KPluginSelector7Private11PluginModelC1EPS0_P7QObject@Base 4:4.4.95
 _ZN15KPluginSelector7Private11PluginModelC2EPS0_P7QObject@Base 4:4.4.95
 _ZN15KPluginSelector7Private11PluginModelD0Ev@Base 4:4.4.95
 _ZN15KPluginSelector7Private11PluginModelD1Ev@Base 4:4.4.95
 _ZN15KPluginSelector7Private11PluginModelD2Ev@Base 4:4.4.95
 _ZN15KPluginSelector7Private11qt_metacallEN11QMetaObject4CallEiPPv@Base 4:4.4.95
 _ZN15KPluginSelector7Private11qt_metacastEPKc@Base 4:4.4.95
 _ZN15KPluginSelector7Private14PluginDelegate11emitChangedEv@Base 4:4.4.95
 _ZN15KPluginSelector7Private14PluginDelegate11qt_metacallEN11QMetaObject4CallEiPPv@Base 4:4.4.95
 _ZN15KPluginSelector7Private14PluginDelegate11qt_metacastEPKc@Base 4:4.4.95
 _ZN15KPluginSelector7Private14PluginDelegate15configCommittedERK10QByteArray@Base 4:4.4.95
 _ZN15KPluginSelector7Private14PluginDelegate16slotAboutClickedEv@Base 4:4.4.95
 _ZN15KPluginSelector7Private14PluginDelegate16slotStateChangedEb@Base 4:4.4.95
 _ZN15KPluginSelector7Private14PluginDelegate16staticMetaObjectE@Base 4:4.4.95
 _ZN15KPluginSelector7Private14PluginDelegate18slotDefaultClickedEv@Base 4:4.4.95
 _ZN15KPluginSelector7Private14PluginDelegate20slotConfigureClickedEv@Base 4:4.4.95
 _ZN15KPluginSelector7Private14PluginDelegate7changedEb@Base 4:4.4.95
 _ZN15KPluginSelector7Private14PluginDelegateC1EPS0_P7QObject@Base 4:4.4.95
 _ZN15KPluginSelector7Private14PluginDelegateC2EPS0_P7QObject@Base 4:4.4.95
 _ZN15KPluginSelector7Private14PluginDelegateD0Ev@Base 4:4.4.95
 _ZN15KPluginSelector7Private14PluginDelegateD1Ev@Base 4:4.4.95
 _ZN15KPluginSelector7Private14PluginDelegateD2Ev@Base 4:4.4.95
 _ZN15KPluginSelector7Private16staticMetaObjectE@Base 4:4.4.95
 _ZN15KPluginSelector7Private18DependenciesWidget11qt_metacallEN11QMetaObject4CallEiPPv@Base 4:4.4.95
 _ZN15KPluginSelector7Private18DependenciesWidget11qt_metacastEPKc@Base 4:4.4.95
 _ZN15KPluginSelector7Private18DependenciesWidget13addDependencyERK7QStringS4_b@Base 4:4.4.95
 _ZN15KPluginSelector7Private18DependenciesWidget13updateDetailsEv@Base 4:4.4.95
 _ZN15KPluginSelector7Private18DependenciesWidget16staticMetaObjectE@Base 4:4.4.95
 _ZN15KPluginSelector7Private18DependenciesWidget17clearDependenciesEv@Base 4:4.4.95
 _ZN15KPluginSelector7Private18DependenciesWidget21showDependencyDetailsEv@Base 4:4.4.95
 _ZN15KPluginSelector7Private18DependenciesWidget22userOverrideDependencyERK7QString@Base 4:4.4.95
 _ZN15KPluginSelector7Private18DependenciesWidgetC1EP7QWidget@Base 4:4.4.95
 _ZN15KPluginSelector7Private18DependenciesWidgetC2EP7QWidget@Base 4:4.4.95
 _ZN15KPluginSelector7Private18DependenciesWidgetD0Ev@Base 4:4.4.95
 _ZN15KPluginSelector7Private18DependenciesWidgetD1Ev@Base 4:4.4.95
 _ZN15KPluginSelector7Private18DependenciesWidgetD2Ev@Base 4:4.4.95
 _ZN15KPluginSelector7Private18updateDependenciesEP11PluginEntryb@Base 4:4.4.95
 _ZN15KPluginSelector7PrivateC1EPS_@Base 4:4.4.95
 _ZN15KPluginSelector7PrivateC2EPS_@Base 4:4.4.95
 _ZN15KPluginSelector7PrivateD0Ev@Base 4:4.4.95
 _ZN15KPluginSelector7PrivateD1Ev@Base 4:4.4.95
 _ZN15KPluginSelector7PrivateD2Ev@Base 4:4.4.95
 _ZN15KPluginSelector7changedEb@Base 4:4.4.95
 _ZN15KPluginSelector8defaultsEv@Base 4:4.4.95
 _ZN15KPluginSelectorC1EP7QWidget@Base 4:4.4.95
 _ZN15KPluginSelectorC2EP7QWidget@Base 4:4.4.95
 _ZN15KPluginSelectorD0Ev@Base 4:4.4.95
 _ZN15KPluginSelectorD1Ev@Base 4:4.4.95
 _ZN15KPluginSelectorD2Ev@Base 4:4.4.95
 _ZN17KCModuleContainer11qt_metacallEN11QMetaObject4CallEiPPv@Base 4:4.4.95
 _ZN17KCModuleContainer11qt_metacastEPKc@Base 4:4.4.95
 _ZN17KCModuleContainer11tabSwitchedEi@Base 4:4.5.86
 _ZN17KCModuleContainer13moduleChangedEP13KCModuleProxy@Base 4:4.4.95
 _ZN17KCModuleContainer16staticMetaObjectE@Base 4:4.4.95
 _ZN17KCModuleContainer4initEv@Base 4:4.4.95
 _ZN17KCModuleContainer4loadEv@Base 4:4.4.95
 _ZN17KCModuleContainer4saveEv@Base 4:4.4.95
 _ZN17KCModuleContainer8defaultsEv@Base 4:4.4.95
 _ZN17KCModuleContainer9addModuleERK7QString@Base 4:4.4.95
 _ZN17KCModuleContainerC1EP7QWidgetRK11QStringList@Base 4:4.4.95
 _ZN17KCModuleContainerC1EP7QWidgetRK7QString@Base 4:4.4.95
 _ZN17KCModuleContainerC2EP7QWidgetRK11QStringList@Base 4:4.4.95
 _ZN17KCModuleContainerC2EP7QWidgetRK7QString@Base 4:4.4.95
 _ZN17KCModuleContainerD0Ev@Base 4:4.4.95
 _ZN17KCModuleContainerD1Ev@Base 4:4.4.95
 _ZN17KCModuleContainerD2Ev@Base 4:4.4.95
 _ZN18KPageDialogPrivateD0Ev@Base 4:4.7.4
 _ZN18KPageDialogPrivateD1Ev@Base 4:4.7.4
 _ZN18KPageDialogPrivateD2Ev@Base 4:4.7.4
 _ZN9KSettings10Dispatcher14componentNamesEv@Base 4:4.4.95
 _ZN9KSettings10Dispatcher17registerComponentERK14KComponentDataP7QObjectPKc@Base 4:4.4.95
 _ZN9KSettings10Dispatcher17syncConfigurationEv@Base 4:4.4.95
 _ZN9KSettings10Dispatcher20reparseConfigurationERK7QString@Base 4:4.4.95
 _ZN9KSettings10Dispatcher22configForComponentNameERK7QString@Base 4:4.4.95
 _ZN9KSettings10PluginPage11qt_metacallEN11QMetaObject4CallEiPPv@Base 4:4.4.95
 _ZN9KSettings10PluginPage11qt_metacastEPKc@Base 4:4.4.95
 _ZN9KSettings10PluginPage14pluginSelectorEv@Base 4:4.4.95
 _ZN9KSettings10PluginPage16staticMetaObjectE@Base 4:4.4.95
 _ZN9KSettings10PluginPage4loadEv@Base 4:4.4.95
 _ZN9KSettings10PluginPage4saveEv@Base 4:4.4.95
 _ZN9KSettings10PluginPage8defaultsEv@Base 4:4.4.95
 _ZN9KSettings10PluginPageC1ERK14KComponentDataP7QWidgetRK5QListI8QVariantE@Base 4:4.4.95
 _ZN9KSettings10PluginPageC2ERK14KComponentDataP7QWidgetRK5QListI8QVariantE@Base 4:4.4.95
 _ZN9KSettings10PluginPageD0Ev@Base 4:4.4.95
 _ZN9KSettings10PluginPageD1Ev@Base 4:4.4.95
 _ZN9KSettings10PluginPageD2Ev@Base 4:4.4.95
 _ZN9KSettings16ComponentsDialog11qt_metacallEN11QMetaObject4CallEiPPv@Base 4:4.4.95
 _ZN9KSettings16ComponentsDialog11qt_metacastEPKc@Base 4:4.4.95
 _ZN9KSettings16ComponentsDialog13addPluginInfoEP11KPluginInfo@Base 4:4.4.95
 _ZN9KSettings16ComponentsDialog14setPluginInfosERK4QMapI7QStringP11KPluginInfoE@Base 4:4.4.95
 _ZN9KSettings16ComponentsDialog14setPluginInfosERK5QListIP11KPluginInfoE@Base 4:4.4.95
 _ZN9KSettings16ComponentsDialog15savePluginInfosEv@Base 4:4.4.95
 _ZN9KSettings16ComponentsDialog16staticMetaObjectE@Base 4:4.4.95
 _ZN9KSettings16ComponentsDialog4showEv@Base 4:4.4.95
 _ZN9KSettings16ComponentsDialog6slotOkEv@Base 4:4.4.95
 _ZN9KSettings16ComponentsDialog8executedEP15QTreeWidgetItemi@Base 4:4.4.95
 _ZN9KSettings16ComponentsDialog9slotApplyEv@Base 4:4.4.95
 _ZN9KSettings16ComponentsDialogC1EP7QWidgetPKc@Base 4:4.4.95
 _ZN9KSettings16ComponentsDialogC2EP7QWidgetPKc@Base 4:4.4.95
 _ZN9KSettings16ComponentsDialogD0Ev@Base 4:4.4.95
 _ZN9KSettings16ComponentsDialogD1Ev@Base 4:4.4.95
 _ZN9KSettings16ComponentsDialogD2Ev@Base 4:4.4.95
 _ZN9KSettings6Dialog11qt_metacallEN11QMetaObject4CallEiPPv@Base 4:4.4.95
 _ZN9KSettings6Dialog11qt_metacastEPKc@Base 4:4.4.95
 _ZN9KSettings6Dialog14addPluginInfosERK5QListI11KPluginInfoE@Base 4:4.4.95
 _ZN9KSettings6Dialog15setKCMArgumentsERK11QStringList@Base 4:4.4.95
 _ZN9KSettings6Dialog16staticMetaObjectE@Base 4:4.4.95
 _ZN9KSettings6Dialog21setComponentBlacklistERK11QStringList@Base 4:4.4.95
 _ZN9KSettings6Dialog22pluginSelectionChangedEv@Base 4:4.4.95
 _ZN9KSettings6Dialog26setAllowComponentSelectionEb@Base 4:4.4.95
 _ZN9KSettings6Dialog9showEventEP10QShowEvent@Base 4:4.4.95
 _ZN9KSettings6DialogC1EP7QWidget@Base 4:4.4.95
 _ZN9KSettings6DialogC1ERK11QStringListP7QWidget@Base 4:4.4.95
 _ZN9KSettings6DialogC2EP7QWidget@Base 4:4.4.95
 _ZN9KSettings6DialogC2ERK11QStringListP7QWidget@Base 4:4.4.95
 _ZN9KSettings6DialogD0Ev@Base 4:4.4.95
 _ZN9KSettings6DialogD1Ev@Base 4:4.4.95
 _ZN9KSettings6DialogD2Ev@Base 4:4.4.95
 _ZNK12KCModuleInfo10moduleNameEv@Base 4:4.4.95
 _ZNK12KCModuleInfo4iconEv@Base 4:4.4.95
 _ZNK12KCModuleInfo6handleEv@Base 4:4.4.95
 _ZNK12KCModuleInfo6weightEv@Base 4:4.4.95
 _ZNK12KCModuleInfo7commentEv@Base 4:4.4.95
 _ZNK12KCModuleInfo7docPathEv@Base 4:4.4.95
 _ZNK12KCModuleInfo7libraryEv@Base 4:4.4.95
 _ZNK12KCModuleInfo7serviceEv@Base 4:4.4.95
 _ZNK12KCModuleInfo8fileNameEv@Base 4:4.4.95
 _ZNK12KCModuleInfo8keywordsEv@Base 4:4.4.95
 _ZNK12KCModuleInfoeqERKS_@Base 4:4.4.95
 _ZNK12KCModuleInfoneERKS_@Base 4:4.4.95
 _ZNK13KCModuleProxy10metaObjectEv@Base 4:4.4.95
 _ZNK13KCModuleProxy10moduleInfoEv@Base 4:4.4.95
 _ZNK13KCModuleProxy10realModuleEv@Base 4:4.4.95
 _ZNK13KCModuleProxy11dbusServiceEv@Base 4:4.4.95
 _ZNK13KCModuleProxy13componentDataEv@Base 4:4.4.95
 _ZNK13KCModuleProxy15minimumSizeHintEv@Base 4:4.4.95
 _ZNK13KCModuleProxy15rootOnlyMessageEv@Base 4:4.4.95
 _ZNK13KCModuleProxy18useRootOnlyMessageEv@Base 4:4.4.95
 _ZNK13KCModuleProxy7buttonsEv@Base 4:4.4.95
 _ZNK13KCModuleProxy7changedEv@Base 4:4.4.95
 _ZNK13KCModuleProxy8dbusPathEv@Base 4:4.4.95
 _ZNK13KCModuleProxy9aboutDataEv@Base 4:4.4.95
 _ZNK13KCModuleProxy9quickHelpEv@Base 4:4.4.95
 _ZNK13KCMultiDialog10metaObjectEv@Base 4:4.4.95
 _ZNK15KPluginSelector10metaObjectEv@Base 4:4.4.95
 _ZNK15KPluginSelector7Private10ProxyModel15subSortLessThanERK11QModelIndexS4_@Base 4:4.4.95
 _ZNK15KPluginSelector7Private10ProxyModel16filterAcceptsRowEiRK11QModelIndex@Base 4:4.4.95
 _ZNK15KPluginSelector7Private10metaObjectEv@Base 4:4.4.95
 _ZNK15KPluginSelector7Private11PluginModel14pluginServicesERK11QModelIndex@Base 4:4.4.95
 _ZNK15KPluginSelector7Private11PluginModel4dataERK11QModelIndexi@Base 4:4.4.95
 _ZNK15KPluginSelector7Private11PluginModel5indexEiiRK11QModelIndex@Base 4:4.4.95
 _ZNK15KPluginSelector7Private11PluginModel8rowCountERK11QModelIndex@Base 4:4.4.95
 _ZNK15KPluginSelector7Private14PluginDelegate10metaObjectEv@Base 4:4.4.95
 _ZNK15KPluginSelector7Private14PluginDelegate17createItemWidgetsEv@Base 4:4.4.95
 _ZNK15KPluginSelector7Private14PluginDelegate17updateItemWidgetsE5QListIP7QWidgetERK20QStyleOptionViewItemRK21QPersistentModelIndex@Base 4:4.4.95
 _ZNK15KPluginSelector7Private14PluginDelegate5paintEP8QPainterRK20QStyleOptionViewItemRK11QModelIndex@Base 4:4.4.95
 _ZNK15KPluginSelector7Private14PluginDelegate8sizeHintERK20QStyleOptionViewItemRK11QModelIndex@Base 4:4.4.95
 _ZNK15KPluginSelector7Private14PluginDelegate9titleFontERK5QFont@Base 4:4.4.95
 _ZNK15KPluginSelector7Private18DependenciesWidget10metaObjectEv@Base 4:4.4.95
 _ZNK15KPluginSelector7Private20dependantLayoutValueEiii@Base 4:4.4.95
 _ZNK15KPluginSelector9isDefaultEv@Base 4:4.4.95
 _ZNK17KCModuleContainer10metaObjectEv@Base 4:4.4.95
 _ZNK9KSettings10PluginPage10metaObjectEv@Base 4:4.4.95
 _ZNK9KSettings16ComponentsDialog10metaObjectEv@Base 4:4.4.95
 _ZNK9KSettings6Dialog10metaObjectEv@Base 4:4.4.95
 _ZNK9KSettings6Dialog11pluginInfosEv@Base 4:4.4.95
 _ZNK9KSettings6Dialog23allowComponentSelectionEv@Base 4:4.4.95
 _ZTI13KCModuleProxy@Base 4:4.4.95
 _ZTI13KCMultiDialog@Base 4:4.4.95
 _ZTI15KPluginSelector@Base 4:4.4.95
 _ZTI17KCModuleContainer@Base 4:4.4.95
 _ZTI18KPageDialogPrivate@Base 4:4.4.95
 _ZTIN15KPluginSelector7Private10ProxyModelE@Base 4:4.4.95
 _ZTIN15KPluginSelector7Private11PluginModelE@Base 4:4.4.95
 _ZTIN15KPluginSelector7Private14PluginDelegateE@Base 4:4.4.95
 _ZTIN15KPluginSelector7Private18DependenciesWidgetE@Base 4:4.4.95
 _ZTIN15KPluginSelector7PrivateE@Base 4:4.4.95
 _ZTIN9KSettings10PluginPageE@Base 4:4.4.95
 _ZTIN9KSettings16ComponentsDialogE@Base 4:4.4.95
 _ZTIN9KSettings6DialogE@Base 4:4.4.95
 _ZTS13KCModuleProxy@Base 4:4.4.95
 _ZTS13KCMultiDialog@Base 4:4.4.95
 _ZTS15KPluginSelector@Base 4:4.4.95
 _ZTS17KCModuleContainer@Base 4:4.4.95
 _ZTS18KPageDialogPrivate@Base 4:4.4.95
 _ZTSN15KPluginSelector7Private10ProxyModelE@Base 4:4.4.95
 _ZTSN15KPluginSelector7Private11PluginModelE@Base 4:4.4.95
 _ZTSN15KPluginSelector7Private14PluginDelegateE@Base 4:4.4.95
 _ZTSN15KPluginSelector7Private18DependenciesWidgetE@Base 4:4.4.95
 _ZTSN15KPluginSelector7PrivateE@Base 4:4.4.95
 _ZTSN9KSettings10PluginPageE@Base 4:4.4.95
 _ZTSN9KSettings16ComponentsDialogE@Base 4:4.4.95
 _ZTSN9KSettings6DialogE@Base 4:4.4.95
 _ZTV13KCModuleProxy@Base 4:4.4.95
 _ZTV13KCMultiDialog@Base 4:4.4.95
 _ZTV15KPluginSelector@Base 4:4.4.95
 _ZTV17KCModuleContainer@Base 4:4.4.95
 _ZTV18KPageDialogPrivate@Base 4:4.4.95
 _ZTVN15KPluginSelector7Private10ProxyModelE@Base 4:4.4.95
 _ZTVN15KPluginSelector7Private11PluginModelE@Base 4:4.4.95
 _ZTVN15KPluginSelector7Private14PluginDelegateE@Base 4:4.4.95
 _ZTVN15KPluginSelector7Private18DependenciesWidgetE@Base 4:4.4.95
 _ZTVN15KPluginSelector7PrivateE@Base 4:4.4.95
 _ZTVN9KSettings10PluginPageE@Base 4:4.4.95
 _ZTVN9KSettings16ComponentsDialogE@Base 4:4.4.95
 _ZTVN9KSettings6DialogE@Base 4:4.4.95
 _ZThn8_N13KCModuleProxyD0Ev@Base 4:4.4.95
 _ZThn8_N13KCModuleProxyD1Ev@Base 4:4.4.95
 _ZThn8_N13KCMultiDialogD0Ev@Base 4:4.4.95
 _ZThn8_N13KCMultiDialogD1Ev@Base 4:4.4.95
 _ZThn8_N15KPluginSelector7Private18DependenciesWidgetD0Ev@Base 4:4.4.95
 _ZThn8_N15KPluginSelector7Private18DependenciesWidgetD1Ev@Base 4:4.4.95
 _ZThn8_N15KPluginSelectorD0Ev@Base 4:4.4.95
 _ZThn8_N15KPluginSelectorD1Ev@Base 4:4.4.95
 _ZThn8_N17KCModuleContainerD0Ev@Base 4:4.4.95
 _ZThn8_N17KCModuleContainerD1Ev@Base 4:4.4.95
 _ZThn8_N9KSettings10PluginPageD0Ev@Base 4:4.4.95
 _ZThn8_N9KSettings10PluginPageD1Ev@Base 4:4.4.95
 _ZThn8_N9KSettings16ComponentsDialogD0Ev@Base 4:4.4.95
 _ZThn8_N9KSettings16ComponentsDialogD1Ev@Base 4:4.4.95
 _ZThn8_N9KSettings6DialogD0Ev@Base 4:4.4.95
 _ZThn8_N9KSettings6DialogD1Ev@Base 4:4.4.95
