libkdeui.so.5 libkdeui5 #MINVER#
| libkdeui5 #MINVER#, kde-runtime
* Build-Depends-Package: kdelibs5-dev
 _Z10BarIconSetRK7QStringi@Base 4:4.3.4
 _Z11DesktopIconRK7QStringiiRK11QStringList@Base 4:4.3.4
 _Z11MainBarIconRK7QStringiiRK11QStringList@Base 4:4.3.4
 _Z11UserIconSetRK7QString@Base 4:4.3.4
 _Z12SmallIconSetRK7QStringi@Base 4:4.3.4
 _Z14DesktopIconSetRK7QStringi@Base 4:4.3.4
 _Z14MainBarIconSetRK7QStringi@Base 4:4.3.4
 _Z7BarIconRK7QStringiiRK11QStringList@Base 4:4.3.4
 _Z8IconSizeN11KIconLoader5GroupE@Base 4:4.3.4
 _Z8UserIconRK7QStringiRK11QStringList@Base 4:4.3.4
 _Z9SmallIconRK7QStringiiRK11QStringList@Base 4:4.3.4
 _ZGVZN20KConfigDialogManager7Private9debugAreaEvE6s_area@Base 4:4.4.0
 _ZN10KBugReport10closeEventEP11QCloseEvent@Base 4:4.3.4
 _ZN10KBugReport11qt_metacallEN11QMetaObject4CallEiPPv@Base 4:4.3.4
 _ZN10KBugReport11qt_metacastEPKc@Base 4:4.3.4
 _ZN10KBugReport13sendBugReportEv@Base 4:4.3.4
 _ZN10KBugReport14setMessageBodyERK7QString@Base 4:4.3.4
 _ZN10KBugReport16staticMetaObjectE@Base 4:4.3.4
 _ZN10KBugReport6acceptEv@Base 4:4.3.4
 _ZN10KBugReportC1EP7QWidgetbPK10KAboutData@Base 4:4.3.4
 _ZN10KBugReportC2EP7QWidgetbPK10KAboutData@Base 4:4.3.4
 _ZN10KBugReportD0Ev@Base 4:4.3.4
 _ZN10KBugReportD1Ev@Base 4:4.3.4
 _ZN10KBugReportD2Ev@Base 4:4.3.4
 _ZN10KDateTable10initAccelsEv@Base 4:4.3.4
 _ZN10KDateTable10paintEventEP11QPaintEvent@Base 4:4.3.4
 _ZN10KDateTable10wheelEventEP11QWheelEvent@Base 4:4.3.4
 _ZN10KDateTable11dateChangedERK5QDate@Base 4:4.3.4
 _ZN10KDateTable11dateChangedERK5QDateS2_@Base 4:4.3.4
 _ZN10KDateTable11dateFromPosEi@Base 4:4.3.4
 _ZN10KDateTable11posFromDateERK5QDate@Base 4:4.3.4
 _ZN10KDateTable11qt_metacallEN11QMetaObject4CallEiPPv@Base 4:4.3.4
 _ZN10KDateTable11qt_metacastEPKc@Base 4:4.3.4
 _ZN10KDateTable11setCalendarEP15KCalendarSystem@Base 4:4.3.4
 _ZN10KDateTable11setCalendarERK7QString@Base 4:4.3.4
 _ZN10KDateTable11setFontSizeEi@Base 4:4.3.4
 _ZN10KDateTable12focusInEventEP11QFocusEvent@Base 4:4.3.4
 _ZN10KDateTable12tableClickedEv@Base 4:4.3.4
 _ZN10KDateTable13focusOutEventEP11QFocusEvent@Base 4:4.3.4
 _ZN10KDateTable13keyPressEventEP9QKeyEvent@Base 4:4.3.4
 _ZN10KDateTable15mousePressEventEP11QMouseEvent@Base 4:4.3.4
 _ZN10KDateTable16staticMetaObjectE@Base 4:4.3.4
 _ZN10KDateTable17KDateTablePrivate10endOfMonthEv@Base 4:4.3.4
 _ZN10KDateTable17KDateTablePrivate13previousMonthEv@Base 4:4.3.4
 _ZN10KDateTable17KDateTablePrivate15beginningOfWeekEv@Base 4:4.3.4
 _ZN10KDateTable17KDateTablePrivate16beginningOfMonthEv@Base 4:4.3.4
 _ZN10KDateTable17KDateTablePrivate7setDateERK5QDate@Base 4:4.5.86
 _ZN10KDateTable17KDateTablePrivate9endOfWeekEv@Base 4:4.3.4
 _ZN10KDateTable17KDateTablePrivate9nextMonthEv@Base 4:4.3.4
 _ZN10KDateTable17setCalendarSystemEN7KLocale14CalendarSystemE@Base 4:4.5.86
 _ZN10KDateTable19setPopupMenuEnabledEb@Base 4:4.3.4
 _ZN10KDateTable21setCustomDatePaintingERK5QDateRK6QColorNS_14BackgroundModeES5_@Base 4:4.3.4
 _ZN10KDateTable22aboutToShowContextMenuEP5KMenuRK5QDate@Base 4:4.3.4
 _ZN10KDateTable23unsetCustomDatePaintingERK5QDate@Base 4:4.3.4
 _ZN10KDateTable4initERK5QDate@Base 4:4.5.86
 _ZN10KDateTable5eventEP6QEvent@Base 4:4.4.0
 _ZN10KDateTable7setDateERK5QDate@Base 4:4.3.4
 _ZN10KDateTable9paintCellEP8QPainteriiRK12KColorScheme@Base 4:4.4.0
 _ZN10KDateTableC1EP7QWidget@Base 4:4.3.4
 _ZN10KDateTableC1ERK5QDateP7QWidget@Base 4:4.3.4
 _ZN10KDateTableC2EP7QWidget@Base 4:4.3.4
 _ZN10KDateTableC2ERK5QDateP7QWidget@Base 4:4.3.4
 _ZN10KDateTableD0Ev@Base 4:4.3.4
 _ZN10KDateTableD1Ev@Base 4:4.3.4
 _ZN10KDateTableD2Ev@Base 4:4.3.4
 _ZN10KFontUtils13adaptFontSizeER8QPainterRK7QStringRK6QSizeFdd6QFlagsINS_19AdaptFontSizeOptionEE@Base 4:4.7.0
 _ZN10KFontUtils13adaptFontSizeER8QPainterRK7QStringdddd6QFlagsINS_19AdaptFontSizeOptionEE@Base 4:4.7.0
 _ZN10KIconCache11deleteCacheEv@Base 4:4.3.4
 _ZN10KIconCache12setThemeInfoERK5QListIP10KIconThemeE@Base 4:4.3.4
 _ZN10KIconCache14loadCustomDataER11QDataStream@Base 4:4.3.4
 _ZN10KIconCache15writeCustomDataER11QDataStream@Base 4:4.3.4
 _ZN10KIconCache21loadCustomIndexHeaderER11QDataStream@Base 4:4.3.4
 _ZN10KIconCache22writeCustomIndexHeaderER11QDataStream@Base 4:4.3.4
 _ZN10KIconCache4findERK7QStringR7QPixmap@Base 4:4.3.4
 _ZN10KIconCache4findERK7QStringR7QPixmapPS0_@Base 4:4.3.4
 _ZN10KIconCache6insertERK7QStringRK7QPixmap@Base 4:4.3.4
 _ZN10KIconCache6insertERK7QStringRK7QPixmapS2_@Base 4:4.3.4
 _ZN10KIconCacheC1Ev@Base 4:4.3.4
 _ZN10KIconCacheC2Ev@Base 4:4.3.4
 _ZN10KIconCacheD0Ev@Base 4:4.3.4
 _ZN10KIconCacheD1Ev@Base 4:4.3.4
 _ZN10KIconCacheD2Ev@Base 4:4.3.4
 _ZN10KIconTheme11reconfigureEv@Base 4:4.3.4
 _ZN10KIconTheme16defaultThemeNameEv@Base 4:4.3.4
 _ZN10KIconTheme24assignIconsToContextMenuENS_12ContextMenusE5QListIP7QActionE@Base 4:4.3.4
 _ZN10KIconTheme4listEv@Base 4:4.3.4
 _ZN10KIconTheme7currentEv@Base 4:4.3.4
 _ZN10KIconThemeC1ERK7QStringS2_@Base 4:4.3.4
 _ZN10KIconThemeC2ERK7QStringS2_@Base 4:4.3.4
 _ZN10KIconThemeD1Ev@Base 4:4.3.4
 _ZN10KIconThemeD2Ev@Base 4:4.3.4
 _ZN10KKeyServer10xEventToQtEP7_XEventPi@Base 4:4.3.4
 _ZN10KKeyServer11keyQtToModXEiPj@Base 4:4.3.4
 _ZN10KKeyServer11keyQtToSymXEiPi@Base 4:4.3.4
 _ZN10KKeyServer11modXNumLockEv@Base 4:4.3.4
 _ZN10KKeyServer11symXToKeyQtEjPi@Base 4:4.3.4
 _ZN10KKeyServer12keyQtToCodeXEiPi@Base 4:4.3.4
 _ZN10KKeyServer13accelModMaskXEv@Base 4:4.3.4
 _ZN10KKeyServer14initializeModsEv@Base 4:4.3.4
 _ZN10KKeyServer14modXModeSwitchEv@Base 4:4.3.4
 _ZN10KKeyServer14modXScrollLockEv@Base 4:4.3.4
 _ZN10KKeyServer15modToStringUserEj@Base 4:4.3.4
 _ZN10KKeyServer15stringUserToModERK7QString@Base 4:4.3.4
 _ZN10KKeyServer18keyboardHasMetaKeyEv@Base 4:4.3.4
 _ZN10KKeyServer24isShiftAsModifierAllowedEi@Base 4:4.7.1
 _ZN10KKeyServer7modXAltEv@Base 4:4.3.4
 _ZN10KKeyServer8modXCtrlEv@Base 4:4.3.4
 _ZN10KKeyServer8modXLockEv@Base 4:4.3.4
 _ZN10KKeyServer8modXMetaEv@Base 4:4.3.4
 _ZN10KKeyServer8modXToQtEjPi@Base 4:4.3.4
 _ZN10KKeyServer9modXShiftEv@Base 4:4.3.4
 _ZN10KPageModel11qt_metacallEN11QMetaObject4CallEiPPv@Base 4:4.3.4
 _ZN10KPageModel11qt_metacastEPKc@Base 4:4.3.4
 _ZN10KPageModel16staticMetaObjectE@Base 4:4.3.4
 _ZN10KPageModelC1EP7QObject@Base 4:4.3.4
 _ZN10KPageModelC1ER17KPageModelPrivateP7QObject@Base 4:4.3.4
 _ZN10KPageModelC2EP7QObject@Base 4:4.3.4
 _ZN10KPageModelC2ER17KPageModelPrivateP7QObject@Base 4:4.3.4
 _ZN10KPageModelD0Ev@Base 4:4.3.4
 _ZN10KPageModelD1Ev@Base 4:4.3.4
 _ZN10KPageModelD2Ev@Base 4:4.3.4
 _ZN10KPlotPoint11setBarWidthEd@Base 4:4.3.4
 _ZN10KPlotPoint11setPositionERK7QPointF@Base 4:4.3.4
 _ZN10KPlotPoint4setXEd@Base 4:4.3.4
 _ZN10KPlotPoint4setYEd@Base 4:4.3.4
 _ZN10KPlotPoint8setLabelERK7QString@Base 4:4.3.4
 _ZN10KPlotPointC1ERK7QPointFRK7QStringd@Base 4:4.3.4
 _ZN10KPlotPointC1EddRK7QStringd@Base 4:4.3.4
 _ZN10KPlotPointC1Ev@Base 4:4.3.4
 _ZN10KPlotPointC2ERK7QPointFRK7QStringd@Base 4:4.3.4
 _ZN10KPlotPointC2EddRK7QStringd@Base 4:4.3.4
 _ZN10KPlotPointC2Ev@Base 4:4.3.4
 _ZN10KPlotPointD1Ev@Base 4:4.3.4
 _ZN10KPlotPointD2Ev@Base 4:4.3.4
 _ZN10KSeparator11qt_metacallEN11QMetaObject4CallEiPPv@Base 4:4.3.4
 _ZN10KSeparator11qt_metacastEPKc@Base 4:4.3.4
 _ZN10KSeparator14setOrientationEN2Qt11OrientationE@Base 4:4.3.4
 _ZN10KSeparator16staticMetaObjectE@Base 4:4.3.4
 _ZN10KSeparatorC1EN2Qt11OrientationEP7QWidget6QFlagsINS0_10WindowTypeEE@Base 4:4.3.4
 _ZN10KSeparatorC1EP7QWidget6QFlagsIN2Qt10WindowTypeEE@Base 4:4.3.4
 _ZN10KSeparatorC2EN2Qt11OrientationEP7QWidget6QFlagsINS0_10WindowTypeEE@Base 4:4.3.4
 _ZN10KSeparatorC2EP7QWidget6QFlagsIN2Qt10WindowTypeEE@Base 4:4.3.4
 _ZN10KSeparatorD0Ev@Base 4:4.7.2
 _ZN10KSeparatorD1Ev@Base 4:4.7.2
 _ZN10KSeparatorD2Ev@Base 4:4.7.2
 _ZN10KStatusBar10changeItemERK7QStringi@Base 4:4.3.4
 _ZN10KStatusBar10insertItemERK7QStringii@Base 4:4.3.4
 _ZN10KStatusBar10removeItemEi@Base 4:4.3.4
 _ZN10KStatusBar11eventFilterEP7QObjectP6QEvent@Base 4:4.3.4
 _ZN10KStatusBar11qt_metacallEN11QMetaObject4CallEiPPv@Base 4:4.3.4
 _ZN10KStatusBar11qt_metacastEPKc@Base 4:4.3.4
 _ZN10KStatusBar12setItemFixedEii@Base 4:4.3.4
 _ZN10KStatusBar15insertFixedItemERK7QStringi@Base 4:4.3.4
 _ZN10KStatusBar16setItemAlignmentEi6QFlagsIN2Qt13AlignmentFlagEE@Base 4:4.3.4
 _ZN10KStatusBar16staticMetaObjectE@Base 4:4.3.4
 _ZN10KStatusBar19insertPermanentItemERK7QStringii@Base 4:4.3.4
 _ZN10KStatusBar24insertPermanentFixedItemERK7QStringi@Base 4:4.3.4
 _ZN10KStatusBar7pressedEi@Base 4:4.3.4
 _ZN10KStatusBar8releasedEi@Base 4:4.3.4
 _ZN10KStatusBarC1EP7QWidget@Base 4:4.3.4
 _ZN10KStatusBarC2EP7QWidget@Base 4:4.3.4
 _ZN10KStatusBarD0Ev@Base 4:4.3.4
 _ZN10KStatusBarD1Ev@Base 4:4.3.4
 _ZN10KStatusBarD2Ev@Base 4:4.3.4
 _ZN10KTabWidget10removePageEP7QWidget@Base 4:4.3.4
 _ZN10KTabWidget10setTabTextEiRK7QString@Base 4:4.3.4
 _ZN10KTabWidget10tabRemovedEi@Base 4:4.3.4
 _ZN10KTabWidget10wheelDeltaEi@Base 4:4.3.4
 _ZN10KTabWidget10wheelEventEP11QWheelEvent@Base 4:4.3.4
 _ZN10KTabWidget11contextMenuEP7QWidgetRK6QPoint@Base 4:4.3.4
 _ZN10KTabWidget11contextMenuERK6QPoint@Base 4:4.3.4
 _ZN10KTabWidget11contextMenuEiRK6QPoint@Base 4:4.3.4
 _ZN10KTabWidget11qt_metacallEN11QMetaObject4CallEiPPv@Base 4:4.3.4
 _ZN10KTabWidget11qt_metacastEPKc@Base 4:4.3.4
 _ZN10KTabWidget11resizeEventEP12QResizeEvent@Base 4:4.3.4
 _ZN10KTabWidget11tabInsertedEi@Base 4:4.3.4
 _ZN10KTabWidget12closeRequestEP7QWidget@Base 4:4.3.4
 _ZN10KTabWidget12closeRequestEi@Base 4:4.3.4
 _ZN10KTabWidget12initiateDragEP7QWidget@Base 4:4.3.4
 _ZN10KTabWidget12initiateDragEi@Base 4:4.3.4
 _ZN10KTabWidget13dragMoveEventEP14QDragMoveEvent@Base 4:4.3.4
 _ZN10KTabWidget13testCanDecodeEPK14QDragMoveEventRb@Base 4:4.3.4
 _ZN10KTabWidget14currentChangedEi@Base 4:4.3.4
 _ZN10KTabWidget14dragEnterEventEP15QDragEnterEvent@Base 4:4.3.4
 _ZN10KTabWidget15mousePressEventEP11QMouseEvent@Base 4:4.3.4
 _ZN10KTabWidget15setTabBarHiddenEb@Base 4:4.3.4
 _ZN10KTabWidget15setTabTextColorEiRK6QColor@Base 4:4.3.4
 _ZN10KTabWidget16mouseDoubleClickEP7QWidget@Base 4:4.3.4
 _ZN10KTabWidget16mouseDoubleClickEi@Base 4:4.3.4
 _ZN10KTabWidget16mouseDoubleClickEv@Base 4:4.3.4
 _ZN10KTabWidget16mouseMiddleClickEP7QWidget@Base 4:4.3.4
 _ZN10KTabWidget16mouseMiddleClickEi@Base 4:4.3.4
 _ZN10KTabWidget16mouseMiddleClickEv@Base 4:4.3.4
 _ZN10KTabWidget16staticMetaObjectE@Base 4:4.3.4
 _ZN10KTabWidget17mouseReleaseEventEP11QMouseEvent@Base 4:4.3.4
 _ZN10KTabWidget17receivedDropEventEP10QDropEvent@Base 4:4.3.4
 _ZN10KTabWidget17receivedDropEventEP7QWidgetP10QDropEvent@Base 4:4.3.4
 _ZN10KTabWidget17receivedDropEventEiP10QDropEvent@Base 4:4.3.4
 _ZN10KTabWidget19setHoverCloseButtonEb@Base 4:4.3.4
 _ZN10KTabWidget21mouseDoubleClickEventEP11QMouseEvent@Base 4:4.3.4
 _ZN10KTabWidget21setCloseButtonEnabledEb@Base 4:4.3.4
 _ZN10KTabWidget22setAutomaticResizeTabsEb@Base 4:4.3.4
 _ZN10KTabWidget22tabBarWidthForMaxCharsEi@Base 4:4.3.4
 _ZN10KTabWidget23setTabReorderingEnabledEb@Base 4:4.3.4
 _ZN10KTabWidget26setHoverCloseButtonDelayedEb@Base 4:4.3.4
 _ZN10KTabWidget27setTabCloseActivatePreviousEb@Base 4:4.3.4
 _ZN10KTabWidget7Private10resizeTabsEi@Base 4:4.3.4
 _ZN10KTabWidget7Private12slotTabMovedEii@Base 4:4.7.4
 _ZN10KTabWidget7Private9removeTabEi@Base 4:4.3.4
 _ZN10KTabWidget7Private9updateTabEi@Base 4:4.3.4
 _ZN10KTabWidget7moveTabEii@Base 4:4.3.4
 _ZN10KTabWidget8movedTabEii@Base 4:4.3.4
 _ZN10KTabWidget9dropEventEP10QDropEvent@Base 4:4.3.4
 _ZN10KTabWidget9removeTabEi@Base 4:4.3.4
 _ZN10KTabWidgetC1EP7QWidget6QFlagsIN2Qt10WindowTypeEE@Base 4:4.3.4
 _ZN10KTabWidgetC2EP7QWidget6QFlagsIN2Qt10WindowTypeEE@Base 4:4.3.4
 _ZN10KTabWidgetD0Ev@Base 4:4.3.4
 _ZN10KTabWidgetD1Ev@Base 4:4.3.4
 _ZN10KTabWidgetD2Ev@Base 4:4.3.4
 _ZN10KTipDialog11eventFilterEP7QObjectP6QEvent@Base 4:4.3.4
 _ZN10KTipDialog11qt_metacallEN11QMetaObject4CallEiPPv@Base 4:4.3.4
 _ZN10KTipDialog11qt_metacastEPKc@Base 4:4.3.4
 _ZN10KTipDialog12showMultiTipEP7QWidgetRK11QStringListb@Base 4:4.3.4
 _ZN10KTipDialog14setShowOnStartEb@Base 4:4.3.4
 _ZN10KTipDialog16staticMetaObjectE@Base 4:4.3.4
 _ZN10KTipDialog7Private10_k_nextTipEv@Base 4:4.3.4
 _ZN10KTipDialog7Private10_k_prevTipEv@Base 4:4.3.4
 _ZN10KTipDialog7Private14_k_showOnStartEb@Base 4:4.3.4
 _ZN10KTipDialog7Private9mInstanceE@Base 4:4.3.4
 _ZN10KTipDialog7showTipEP7QWidgetRK7QStringb@Base 4:4.3.4
 _ZN10KTipDialog7showTipERK7QStringb@Base 4:4.3.4
 _ZN10KTipDialogC1EP12KTipDatabaseP7QWidget@Base 4:4.3.4
 _ZN10KTipDialogC2EP12KTipDatabaseP7QWidget@Base 4:4.3.4
 _ZN10KTipDialogD0Ev@Base 4:4.3.4
 _ZN10KTipDialogD1Ev@Base 4:4.3.4
 _ZN10KTipDialogD2Ev@Base 4:4.3.4
 _ZN10KUndoStack11qt_metacallEN11QMetaObject4CallEiPPv@Base 4:4.3.4
 _ZN10KUndoStack11qt_metacastEPKc@Base 4:4.3.4
 _ZN10KUndoStack16createRedoActionEP17KActionCollectionRK7QString@Base 4:4.3.4
 _ZN10KUndoStack16createUndoActionEP17KActionCollectionRK7QString@Base 4:4.3.4
 _ZN10KUndoStack16staticMetaObjectE@Base 4:4.3.4
 _ZN10KUndoStackC1EP7QObject@Base 4:4.3.4
 _ZN10KUndoStackC2EP7QObject@Base 4:4.3.4
 _ZN10KUndoStackD0Ev@Base 4:4.7.2
 _ZN10KUndoStackD1Ev@Base 4:4.7.2
 _ZN10KUndoStackD2Ev@Base 4:4.7.2
 _ZN10KXMessages10gotMessageERK7QString@Base 4:4.3.4
 _ZN10KXMessages11qt_metacallEN11QMetaObject4CallEiPPv@Base 4:4.3.4
 _ZN10KXMessages11qt_metacastEPKc@Base 4:4.3.4
 _ZN10KXMessages11sendMessageEmPKcRK7QString@Base 4:4.3.4
 _ZN10KXMessages11sendMessageEmPKcRK7QStringb@Base 4:4.3.4
 _ZN10KXMessages12sendMessageXEP9_XDisplaymPKcRK7QString@Base 4:4.3.4
 _ZN10KXMessages12sendMessageXEP9_XDisplaymPKcRK7QStringb@Base 4:4.3.4
 _ZN10KXMessages16broadcastMessageEPKcRK7QString@Base 4:4.3.4
 _ZN10KXMessages16broadcastMessageEPKcRK7QStringib@Base 4:4.3.4
 _ZN10KXMessages16staticMetaObjectE@Base 4:4.3.4
 _ZN10KXMessages17broadcastMessageXEP9_XDisplayPKcRK7QString@Base 4:4.3.4
 _ZN10KXMessages17broadcastMessageXEP9_XDisplayPKcRK7QStringib@Base 4:4.3.4
 _ZN10KXMessages21send_message_internalEmRK7QStringlP9_XDisplaymmm@Base 4:4.3.4
 _ZN10KXMessages8x11EventEP7_XEvent@Base 4:4.3.4
 _ZN10KXMessagesC1EPKcP7QWidget@Base 4:4.3.4
 _ZN10KXMessagesC1EPKcP7QWidgetb@Base 4:4.3.4
 _ZN10KXMessagesC2EPKcP7QWidget@Base 4:4.3.4
 _ZN10KXMessagesC2EPKcP7QWidgetb@Base 4:4.3.4
 _ZN10KXMessagesD0Ev@Base 4:4.3.4
 _ZN10KXMessagesD1Ev@Base 4:4.3.4
 _ZN10KXMessagesD2Ev@Base 4:4.3.4
 _ZN10NETWinInfo10setDesktopEib@Base 4:4.3.4
 _ZN10NETWinInfo10setOpacityEm@Base 4:4.3.4
 _ZN10NETWinInfo11kdeGeometryER7NETRectS1_@Base 4:4.3.4
 _ZN10NETWinInfo11setIconNameEPKc@Base 4:4.3.4
 _ZN10NETWinInfo11setUserTimeEm@Base 4:4.3.4
 _ZN10NETWinInfo12setStartupIdEPKc@Base 4:4.3.4
 _ZN10NETWinInfo12virtual_hookEiPv@Base 4:4.3.4
 _ZN10NETWinInfo13OnAllDesktopsE@Base 4:4.3.4
 _ZN10NETWinInfo13setWindowTypeEN3NET10WindowTypeE@Base 4:4.3.4
 _ZN10NETWinInfo13updateWMStateEv@Base 4:4.3.4
 _ZN10NETWinInfo14setVisibleNameEPKc@Base 4:4.3.4
 _ZN10NETWinInfo15setFrameExtentsE8NETStrut@Base 4:4.3.4
 _ZN10NETWinInfo15setFrameOverlapE8NETStrut@Base 4:4.4.0
 _ZN10NETWinInfo15setHandledIconsEi@Base 4:4.3.4
 _ZN10NETWinInfo15setIconGeometryE7NETRect@Base 4:4.3.4
 _ZN10NETWinInfo15setIconInternalER9NETRArrayI7NETIconERimS1_i@Base 4:4.3.4
 _ZN10NETWinInfo16setExtendedStrutERK16NETExtendedStrut@Base 4:4.3.4
 _ZN10NETWinInfo17setAllowedActionsEm@Base 4:4.3.4
 _ZN10NETWinInfo18setVisibleIconNameEPKc@Base 4:4.3.4
 _ZN10NETWinInfo22setBlockingCompositingEb@Base 4:4.7.0
 _ZN10NETWinInfo5eventEP7_XEvent@Base 4:4.3.4
 _ZN10NETWinInfo5eventEP7_XEventPmi@Base 4:4.3.4
 _ZN10NETWinInfo6setPidEi@Base 4:4.3.4
 _ZN10NETWinInfo6updateEPKm@Base 4:4.3.4
 _ZN10NETWinInfo7setIconE7NETIconi@Base 4:4.3.4
 _ZN10NETWinInfo7setNameEPKc@Base 4:4.3.4
 _ZN10NETWinInfo8setStateEmm@Base 4:4.3.4
 _ZN10NETWinInfo8setStrutE8NETStrut@Base 4:4.3.4
 _ZN10NETWinInfoC1EP9_XDisplaymmPKmiN3NET4RoleE@Base 4:4.3.4
 _ZN10NETWinInfoC1EP9_XDisplaymmmN3NET4RoleE@Base 4:4.3.4
 _ZN10NETWinInfoC1ERKS_@Base 4:4.3.4
 _ZN10NETWinInfoC2EP9_XDisplaymmPKmiN3NET4RoleE@Base 4:4.3.4
 _ZN10NETWinInfoC2EP9_XDisplaymmmN3NET4RoleE@Base 4:4.3.4
 _ZN10NETWinInfoC2ERKS_@Base 4:4.3.4
 _ZN10NETWinInfoD0Ev@Base 4:4.3.4
 _ZN10NETWinInfoD1Ev@Base 4:4.3.4
 _ZN10NETWinInfoD2Ev@Base 4:4.3.4
 _ZN10NETWinInfoaSERKS_@Base 4:4.3.4
 _ZN11KActionMenu10setDelayedEb@Base 4:4.3.4
 _ZN11KActionMenu11qt_metacallEN11QMetaObject4CallEiPPv@Base 4:4.3.4
 _ZN11KActionMenu11qt_metacastEPKc@Base 4:4.3.4
 _ZN11KActionMenu12addSeparatorEv@Base 4:4.3.4
 _ZN11KActionMenu12createWidgetEP7QWidget@Base 4:4.3.4
 _ZN11KActionMenu12insertActionEP7QActionS1_@Base 4:4.3.4
 _ZN11KActionMenu12removeActionEP7QAction@Base 4:4.3.4
 _ZN11KActionMenu13setStickyMenuEb@Base 4:4.3.4
 _ZN11KActionMenu15insertSeparatorEP7QAction@Base 4:4.3.4
 _ZN11KActionMenu16staticMetaObjectE@Base 4:4.3.4
 _ZN11KActionMenu4menuEv@Base 4:4.3.4
 _ZN11KActionMenu6removeEP7KAction@Base 4:4.3.4
 _ZN11KActionMenu7setMenuEP5KMenu@Base 4:4.3.4
 _ZN11KActionMenu9addActionEP7QAction@Base 4:4.3.4
 _ZN11KActionMenuC1EP7QObject@Base 4:4.3.4
 _ZN11KActionMenuC1ERK5KIconRK7QStringP7QObject@Base 4:4.3.4
 _ZN11KActionMenuC1ERK7QStringP7QObject@Base 4:4.3.4
 _ZN11KActionMenuC2EP7QObject@Base 4:4.3.4
 _ZN11KActionMenuC2ERK5KIconRK7QStringP7QObject@Base 4:4.3.4
 _ZN11KActionMenuC2ERK7QStringP7QObject@Base 4:4.3.4
 _ZN11KActionMenuD0Ev@Base 4:4.3.4
 _ZN11KActionMenuD1Ev@Base 4:4.3.4
 _ZN11KActionMenuD2Ev@Base 4:4.3.4
 _ZN11KCharSelect11qt_metacallEN11QMetaObject4CallEiPPv@Base 4:4.3.4
 _ZN11KCharSelect11qt_metacastEPKc@Base 4:4.3.4
 _ZN11KCharSelect12charSelectedERK5QChar@Base 4:4.3.4
 _ZN11KCharSelect14setCurrentCharERK5QChar@Base 4:4.3.4
 _ZN11KCharSelect14setCurrentFontERK5QFont@Base 4:4.3.4
 _ZN11KCharSelect16staticMetaObjectE@Base 4:4.3.4
 _ZN11KCharSelect18KCharSelectPrivate10_k_forwardEv@Base 4:4.3.4
 _ZN11KCharSelect18KCharSelectPrivate10historyAddERK5QCharbRK7QString@Base 4:4.3.4
 _ZN11KCharSelect18KCharSelectPrivate11createLinksE7QString@Base 4:4.3.4
 _ZN11KCharSelect18KCharSelectPrivate14_k_linkClickedE4QUrl@Base 4:4.3.4
 _ZN11KCharSelect18KCharSelectPrivate15_k_fontSelectedEv@Base 4:4.3.4
 _ZN11KCharSelect18KCharSelectPrivate15showFromHistoryEi@Base 4:4.3.4
 _ZN11KCharSelect18KCharSelectPrivate16_k_blockSelectedEi@Base 4:4.3.4
 _ZN11KCharSelect18KCharSelectPrivate18_k_sectionSelectedEi@Base 4:4.3.4
 _ZN11KCharSelect18KCharSelectPrivate20_k_searchEditChangedEv@Base 4:4.3.4
 _ZN11KCharSelect18KCharSelectPrivate20_k_slotUpdateUnicodeERK5QChar@Base 4:4.3.4
 _ZN11KCharSelect18KCharSelectPrivate20_k_updateCurrentCharERK5QChar@Base 4:4.3.4
 _ZN11KCharSelect18KCharSelectPrivate21_k_activateSearchLineEv@Base 4:4.3.4
 _ZN11KCharSelect18KCharSelectPrivate24updateBackForwardButtonsEv@Base 4:4.3.4
 _ZN11KCharSelect18KCharSelectPrivate7_k_backEv@Base 4:4.3.4
 _ZN11KCharSelect18KCharSelectPrivate9_k_searchEv@Base 4:4.3.4
 _ZN11KCharSelect18currentCharChangedERK5QChar@Base 4:4.3.4
 _ZN11KCharSelect18currentFontChangedERK5QFont@Base 4:4.3.4
 _ZN11KCharSelect21displayedCharsChangedEv@Base 4:4.3.4
 _ZN11KCharSelect4initE6QFlagsINS_7ControlEEP17KActionCollection@Base 4:4.3.4
 _ZN11KCharSelectC1EP7QWidget6QFlagsINS_7ControlEE@Base 4:4.3.4
 _ZN11KCharSelectC1EP7QWidgetP17KActionCollection6QFlagsINS_7ControlEE@Base 4:4.3.4
 _ZN11KCharSelectC2EP7QWidget6QFlagsINS_7ControlEE@Base 4:4.3.4
 _ZN11KCharSelectC2EP7QWidgetP17KActionCollection6QFlagsINS_7ControlEE@Base 4:4.3.4
 _ZN11KCharSelectD0Ev@Base 4:4.3.4
 _ZN11KCharSelectD1Ev@Base 4:4.3.4
 _ZN11KCharSelectD2Ev@Base 4:4.3.4
 _ZN11KColorCells10setShadingEb@Base 4:4.3.4
 _ZN11KColorCells11qt_metacallEN11QMetaObject4CallEiPPv@Base 4:4.3.4
 _ZN11KColorCells11qt_metacastEPKc@Base 4:4.3.4
 _ZN11KColorCells11resizeEventEP12QResizeEvent@Base 4:4.3.4
 _ZN11KColorCells11setSelectedEi@Base 4:4.3.4
 _ZN11KColorCells13colorSelectedEiRK6QColor@Base 4:4.3.4
 _ZN11KColorCells13dragMoveEventEP14QDragMoveEvent@Base 4:4.3.4
 _ZN11KColorCells14dragEnterEventEP15QDragEnterEvent@Base 4:4.3.4
 _ZN11KColorCells14mouseMoveEventEP11QMouseEvent@Base 4:4.3.4
 _ZN11KColorCells14setAcceptDragsEb@Base 4:4.3.4
 _ZN11KColorCells15mousePressEventEP11QMouseEvent@Base 4:4.3.4
 _ZN11KColorCells16staticMetaObjectE@Base 4:4.3.4
 _ZN11KColorCells17mouseReleaseEventEP11QMouseEvent@Base 4:4.3.4
 _ZN11KColorCells18colorDoubleClickedEiRK6QColor@Base 4:4.3.4
 _ZN11KColorCells21mouseDoubleClickEventEP11QMouseEvent@Base 4:4.3.4
 _ZN11KColorCells8setColorEiRK6QColor@Base 4:4.3.4
 _ZN11KColorCells9dropEventEP10QDropEvent@Base 4:4.3.4
 _ZN11KColorCellsC1EP7QWidgetii@Base 4:4.3.4
 _ZN11KColorCellsC2EP7QWidgetii@Base 4:4.3.4
 _ZN11KColorCellsD0Ev@Base 4:4.3.4
 _ZN11KColorCellsD1Ev@Base 4:4.3.4
 _ZN11KColorCellsD2Ev@Base 4:4.3.4
 _ZN11KColorCombo10paintEventEP11QPaintEvent@Base 4:4.3.4
 _ZN11KColorCombo11highlightedERK6QColor@Base 4:4.3.4
 _ZN11KColorCombo11qt_metacallEN11QMetaObject4CallEiPPv@Base 4:4.3.4
 _ZN11KColorCombo11qt_metacastEPKc@Base 4:4.3.4
 _ZN11KColorCombo13showEmptyListEv@Base 4:4.3.4
 _ZN11KColorCombo16staticMetaObjectE@Base 4:4.3.4
 _ZN11KColorCombo8setColorERK6QColor@Base 4:4.3.4
 _ZN11KColorCombo9activatedERK6QColor@Base 4:4.3.4
 _ZN11KColorCombo9setColorsERK5QListI6QColorE@Base 4:4.3.4
 _ZN11KColorComboC1EP7QWidget@Base 4:4.3.4
 _ZN11KColorComboC2EP7QWidget@Base 4:4.3.4
 _ZN11KColorComboD0Ev@Base 4:4.3.4
 _ZN11KColorComboD1Ev@Base 4:4.3.4
 _ZN11KColorComboD2Ev@Base 4:4.3.4
 _ZN11KColorPatch10paintEventEP11QPaintEvent@Base 4:4.3.4
 _ZN11KColorPatch11qt_metacallEN11QMetaObject4CallEiPPv@Base 4:4.3.4
 _ZN11KColorPatch11qt_metacastEPKc@Base 4:4.3.4
 _ZN11KColorPatch12colorChangedERK6QColor@Base 4:4.3.4
 _ZN11KColorPatch14dragEnterEventEP15QDragEnterEvent@Base 4:4.3.4
 _ZN11KColorPatch14mouseMoveEventEP11QMouseEvent@Base 4:4.3.4
 _ZN11KColorPatch16staticMetaObjectE@Base 4:4.3.4
 _ZN11KColorPatch8setColorERK6QColor@Base 4:4.3.4
 _ZN11KColorPatch9dropEventEP10QDropEvent@Base 4:4.3.4
 _ZN11KColorPatchC1EP7QWidget@Base 4:4.3.4
 _ZN11KColorPatchC2EP7QWidget@Base 4:4.3.4
 _ZN11KColorPatchD0Ev@Base 4:4.3.4
 _ZN11KColorPatchD1Ev@Base 4:4.3.4
 _ZN11KColorPatchD2Ev@Base 4:4.3.4
 _ZN11KColorUtils13contrastRatioERK6QColorS2_@Base 4:4.3.4
 _ZN11KColorUtils13overlayColorsERK6QColorS2_N8QPainter15CompositionModeE@Base 4:4.3.4
 _ZN11KColorUtils3mixERK6QColorS2_d@Base 4:4.3.4
 _ZN11KColorUtils4lumaERK6QColor@Base 4:4.3.4
 _ZN11KColorUtils4tintERK6QColorS2_d@Base 4:4.3.4
 _ZN11KColorUtils5shadeERK6QColordd@Base 4:4.3.4
 _ZN11KColorUtils6darkenERK6QColordd@Base 4:4.3.4
 _ZN11KColorUtils7lightenERK6QColordd@Base 4:4.3.4
 _ZN11KCompletion10allMatchesERK7QString@Base 4:4.3.4
 _ZN11KCompletion10allMatchesEv@Base 4:4.3.4
 _ZN11KCompletion10removeItemERK7QString@Base 4:4.3.4
 _ZN11KCompletion11insertItemsERK11QStringList@Base 4:4.3.4
 _ZN11KCompletion11qt_metacallEN11QMetaObject4CallEiPPv@Base 4:4.3.4
 _ZN11KCompletion11qt_metacastEPKc@Base 4:4.3.4
 _ZN11KCompletion13previousMatchEv@Base 4:4.3.4
 _ZN11KCompletion13setIgnoreCaseEb@Base 4:4.3.4
 _ZN11KCompletion14findCompletionERK7QString@Base 4:4.3.4
 _ZN11KCompletion14makeCompletionERK7QString@Base 4:4.3.4
 _ZN11KCompletion15addWeightedItemERK7QString@Base 4:4.3.4
 _ZN11KCompletion15multipleMatchesEv@Base 4:4.3.4
 _ZN11KCompletion16setSoundsEnabledEb@Base 4:4.3.4
 _ZN11KCompletion16staticMetaObjectE@Base 4:4.3.4
 _ZN11KCompletion17setCompletionModeEN15KGlobalSettings10CompletionE@Base 4:4.3.4
 _ZN11KCompletion18allWeightedMatchesERK7QString@Base 4:4.3.4
 _ZN11KCompletion18allWeightedMatchesEv@Base 4:4.3.4
 _ZN11KCompletion5clearEv@Base 4:4.3.4
 _ZN11KCompletion5matchERK7QString@Base 4:4.3.4
 _ZN11KCompletion7addItemERK7QString@Base 4:4.3.4
 _ZN11KCompletion7addItemERK7QStringj@Base 4:4.3.4
 _ZN11KCompletion7matchesERK11QStringList@Base 4:4.3.4
 _ZN11KCompletion8setItemsERK11QStringList@Base 4:4.3.4
 _ZN11KCompletion8setOrderENS_9CompOrderE@Base 4:4.3.4
 _ZN11KCompletion9nextMatchEv@Base 4:4.3.4
 _ZN11KCompletionC1Ev@Base 4:4.3.4
 _ZN11KCompletionC2Ev@Base 4:4.3.4
 _ZN11KCompletionD0Ev@Base 4:4.3.4
 _ZN11KCompletionD1Ev@Base 4:4.3.4
 _ZN11KCompletionD2Ev@Base 4:4.3.4
 _ZN11KDatePicker10setEnabledEb@Base 4:4.3.4
 _ZN11KDatePicker11dateChangedERK5QDate@Base 4:4.3.4
 _ZN11KDatePicker11dateEnteredERK5QDate@Base 4:4.3.4
 _ZN11KDatePicker11eventFilterEP7QObjectP6QEvent@Base 4:4.3.4
 _ZN11KDatePicker11qt_metacallEN11QMetaObject4CallEiPPv@Base 4:4.3.4
 _ZN11KDatePicker11qt_metacastEPKc@Base 4:4.3.4
 _ZN11KDatePicker11resizeEventEP12QResizeEvent@Base 4:4.3.4
 _ZN11KDatePicker11setCalendarEP15KCalendarSystem@Base 4:4.3.4
 _ZN11KDatePicker11setCalendarERK7QString@Base 4:4.3.4
 _ZN11KDatePicker11setFontSizeEi@Base 4:4.3.4
 _ZN11KDatePicker12dateSelectedERK5QDate@Base 4:4.3.4
 _ZN11KDatePicker12tableClickedEv@Base 4:4.3.4
 _ZN11KDatePicker12weekSelectedEi@Base 4:4.3.4
 _ZN11KDatePicker14setCloseButtonEb@Base 4:4.3.4
 _ZN11KDatePicker15dateChangedSlotERK5QDate@Base 4:4.3.4
 _ZN11KDatePicker16lineEnterPressedEv@Base 4:4.3.4
 _ZN11KDatePicker16staticMetaObjectE@Base 4:4.3.4
 _ZN11KDatePicker16tableClickedSlotEv@Base 4:4.3.4
 _ZN11KDatePicker17selectYearClickedEv@Base 4:4.3.4
 _ZN11KDatePicker17setCalendarSystemEN7KLocale14CalendarSystemE@Base 4:4.5.86
 _ZN11KDatePicker18KDatePickerPrivate14fillWeeksComboEv@Base 4:4.3.4
 _ZN11KDatePicker18KDatePickerPrivate20validDateInYearMonthEii@Base 4:4.3.4
 _ZN11KDatePicker18selectMonthClickedEv@Base 4:4.3.4
 _ZN11KDatePicker18todayButtonClickedEv@Base 4:4.3.4
 _ZN11KDatePicker18yearForwardClickedEv@Base 4:4.3.4
 _ZN11KDatePicker19monthForwardClickedEv@Base 4:4.3.4
 _ZN11KDatePicker19uncheckYearSelectorEv@Base 4:4.3.4
 _ZN11KDatePicker19yearBackwardClickedEv@Base 4:4.3.4
 _ZN11KDatePicker20monthBackwardClickedEv@Base 4:4.3.4
 _ZN11KDatePicker4initERK5QDate@Base 4:4.3.4
 _ZN11KDatePicker7setDateERK5QDate@Base 4:4.3.4
 _ZN11KDatePickerC1EP7QWidget@Base 4:4.3.4
 _ZN11KDatePickerC1ERK5QDateP7QWidget@Base 4:4.3.4
 _ZN11KDatePickerC2EP7QWidget@Base 4:4.3.4
 _ZN11KDatePickerC2ERK5QDateP7QWidget@Base 4:4.3.4
 _ZN11KDatePickerD0Ev@Base 4:4.3.4
 _ZN11KDatePickerD1Ev@Base 4:4.3.4
 _ZN11KDatePickerD2Ev@Base 4:4.3.4
 _ZN11KDateWidget11qt_metacallEN11QMetaObject4CallEiPPv@Base 4:4.3.4
 _ZN11KDateWidget11qt_metacastEPKc@Base 4:4.3.4
 _ZN11KDateWidget11setCalendarEP15KCalendarSystem@Base 4:4.3.4
 _ZN11KDateWidget11setCalendarERK7QString@Base 4:4.3.4
 _ZN11KDateWidget15slotDateChangedEv@Base 4:4.3.4
 _ZN11KDateWidget16staticMetaObjectE@Base 4:4.3.4
 _ZN11KDateWidget17setCalendarSystemEN7KLocale14CalendarSystemE@Base 4:4.5.86
 _ZN11KDateWidget4initERK5QDate@Base 4:4.3.4
 _ZN11KDateWidget7changedERK5QDate@Base 4:4.3.4
 _ZN11KDateWidget7setDateERK5QDate@Base 4:4.3.4
 _ZN11KDateWidgetC1EP7QWidget@Base 4:4.3.4
 _ZN11KDateWidgetC1ERK5QDateP7QWidget@Base 4:4.3.4
 _ZN11KDateWidgetC2EP7QWidget@Base 4:4.3.4
 _ZN11KDateWidgetC2ERK5QDateP7QWidget@Base 4:4.3.4
 _ZN11KDateWidgetD0Ev@Base 4:4.3.4
 _ZN11KDateWidgetD1Ev@Base 4:4.3.4
 _ZN11KDateWidgetD2Ev@Base 4:4.3.4
 _ZN11KDualAction11qt_metacallEN11QMetaObject4CallEiPPv@Base 4:4.5.85
 _ZN11KDualAction11qt_metacastEPKc@Base 4:4.5.85
 _ZN11KDualAction13activeChangedEb@Base 4:4.5.85
 _ZN11KDualAction13setActiveIconERK5QIcon@Base 4:4.5.85
 _ZN11KDualAction13setActiveTextERK7QString@Base 4:4.5.85
 _ZN11KDualAction13setAutoToggleEb@Base 4:4.5.85
 _ZN11KDualAction15setInactiveIconERK5QIcon@Base 4:4.5.85
 _ZN11KDualAction15setInactiveTextERK7QString@Base 4:4.5.85
 _ZN11KDualAction16setActiveGuiItemERK8KGuiItem@Base 4:4.5.85
 _ZN11KDualAction16setActiveToolTipERK7QString@Base 4:4.5.85
 _ZN11KDualAction16setIconForStatesERK5QIcon@Base 4:4.5.85
 _ZN11KDualAction16staticMetaObjectE@Base 4:4.5.85
 _ZN11KDualAction18setInactiveGuiItemERK8KGuiItem@Base 4:4.5.85
 _ZN11KDualAction18setInactiveToolTipERK7QString@Base 4:4.5.85
 _ZN11KDualAction19activeChangedByUserEb@Base 4:4.5.85
 _ZN11KDualAction9setActiveEb@Base 4:4.5.85
 _ZN11KDualActionC1EP7QObject@Base 4:4.5.85
 _ZN11KDualActionC1ERK7QStringS2_P7QObject@Base 4:4.5.85
 _ZN11KDualActionC2EP7QObject@Base 4:4.5.85
 _ZN11KDualActionC2ERK7QStringS2_P7QObject@Base 4:4.5.85
 _ZN11KDualActionD0Ev@Base 4:4.5.85
 _ZN11KDualActionD1Ev@Base 4:4.5.85
 _ZN11KDualActionD2Ev@Base 4:4.5.85
 _ZN11KFindDialog10setOptionsEl@Base 4:4.3.4
 _ZN11KFindDialog10setPatternERK7QString@Base 4:4.3.4
 _ZN11KFindDialog11qt_metacallEN11QMetaObject4CallEiPPv@Base 4:4.3.4
 _ZN11KFindDialog11qt_metacastEPKc@Base 4:4.3.4
 _ZN11KFindDialog12setHasCursorEb@Base 4:4.3.4
 _ZN11KFindDialog14optionsChangedEv@Base 4:4.3.4
 _ZN11KFindDialog14setFindHistoryERK11QStringList@Base 4:4.3.4
 _ZN11KFindDialog15setHasSelectionEb@Base 4:4.3.4
 _ZN11KFindDialog16staticMetaObjectE@Base 4:4.3.4
 _ZN11KFindDialog18KFindDialogPrivate15_k_showPatternsEv@Base 4:4.3.4
 _ZN11KFindDialog18KFindDialogPrivate19_k_showPlaceholdersEv@Base 4:4.3.4
 _ZN11KFindDialog18KFindDialogPrivate20_k_textSearchChangedERK7QString@Base 4:4.3.4
 _ZN11KFindDialog18KFindDialogPrivate26_k_slotSelectedTextToggledEb@Base 4:4.3.4
 _ZN11KFindDialog18KFindDialogPrivate30_k_slotPlaceholdersAboutToShowEv@Base 4:4.3.4
 _ZN11KFindDialog18KFindDialogPrivate4initEbRK11QStringListb@Base 4:4.3.4
 _ZN11KFindDialog18KFindDialogPrivate9_k_slotOkEv@Base 4:4.3.4
 _ZN11KFindDialog24setSupportsBackwardsFindEb@Base 4:4.3.4
 _ZN11KFindDialog25setSupportsWholeWordsFindEb@Base 4:4.3.4
 _ZN11KFindDialog28setSupportsCaseSensitiveFindEb@Base 4:4.3.4
 _ZN11KFindDialog32setSupportsRegularExpressionFindEb@Base 4:4.3.4
 _ZN11KFindDialog9showEventEP10QShowEvent@Base 4:4.3.4
 _ZN11KFindDialogC1EP7QWidgetlRK11QStringListbb@Base 4:4.3.4
 _ZN11KFindDialogC2EP7QWidgetlRK11QStringListbb@Base 4:4.3.4
 _ZN11KFindDialogD0Ev@Base 4:4.3.4
 _ZN11KFindDialogD1Ev@Base 4:4.3.4
 _ZN11KFindDialogD2Ev@Base 4:4.3.4
 _ZN11KFontAction11qt_metacallEN11QMetaObject4CallEiPPv@Base 4:4.3.4
 _ZN11KFontAction11qt_metacastEPKc@Base 4:4.3.4
 _ZN11KFontAction12createWidgetEP7QWidget@Base 4:4.3.4
 _ZN11KFontAction16staticMetaObjectE@Base 4:4.3.4
 _ZN11KFontAction7setFontERK7QString@Base 4:4.3.4
 _ZN11KFontActionC1EP7QObject@Base 4:4.3.4
 _ZN11KFontActionC1ERK5KIconRK7QStringP7QObject@Base 4:4.3.4
 _ZN11KFontActionC1ERK7QStringP7QObject@Base 4:4.3.4
 _ZN11KFontActionC1EjP7QObject@Base 4:4.3.4
 _ZN11KFontActionC2EP7QObject@Base 4:4.3.4
 _ZN11KFontActionC2ERK5KIconRK7QStringP7QObject@Base 4:4.3.4
 _ZN11KFontActionC2ERK7QStringP7QObject@Base 4:4.3.4
 _ZN11KFontActionC2EjP7QObject@Base 4:4.3.4
 _ZN11KFontActionD0Ev@Base 4:4.3.4
 _ZN11KFontActionD1Ev@Base 4:4.3.4
 _ZN11KFontActionD2Ev@Base 4:4.3.4
 _ZN11KFontDialog11getFontDiffER5QFontR6QFlagsIN12KFontChooser8FontDiffEERKS2_INS3_11DisplayFlagEEP7QWidgetPN2Qt10CheckStateE@Base 4:4.3.4
 _ZN11KFontDialog11qt_metacallEN11QMetaObject4CallEiPPv@Base 4:4.3.4
 _ZN11KFontDialog11qt_metacastEPKc@Base 4:4.3.4
 _ZN11KFontDialog12fontSelectedERK5QFont@Base 4:4.3.4
 _ZN11KFontDialog14getFontAndTextER5QFontR7QStringRK6QFlagsIN12KFontChooser11DisplayFlagEEP7QWidgetPN2Qt10CheckStateE@Base 4:4.3.4
 _ZN11KFontDialog16staticMetaObjectE@Base 4:4.3.4
 _ZN11KFontDialog17setSizeIsRelativeEN2Qt10CheckStateE@Base 4:4.3.4
 _ZN11KFontDialog7getFontER5QFontRK6QFlagsIN12KFontChooser11DisplayFlagEEP7QWidgetPN2Qt10CheckStateE@Base 4:4.3.4
 _ZN11KFontDialog7setFontERK5QFontb@Base 4:4.3.4
 _ZN11KFontDialogC1EP7QWidgetRK6QFlagsIN12KFontChooser11DisplayFlagEERK11QStringListPN2Qt10CheckStateE@Base 4:4.3.4
 _ZN11KFontDialogC2EP7QWidgetRK6QFlagsIN12KFontChooser11DisplayFlagEERK11QStringListPN2Qt10CheckStateE@Base 4:4.3.4
 _ZN11KFontDialogD0Ev@Base 4:4.3.4
 _ZN11KFontDialogD1Ev@Base 4:4.3.4
 _ZN11KFontDialogD2Ev@Base 4:4.3.4
 _ZN11KIconEffect10deSaturateER6QImagef@Base 4:4.3.4
 _ZN11KIconEffect12toMonochromeER6QImageRK6QColorS4_f@Base 4:4.3.4
 _ZN11KIconEffect15semiTransparentER6QImage@Base 4:4.3.4
 _ZN11KIconEffect15semiTransparentER7QPixmap@Base 4:4.3.4
 _ZN11KIconEffect4initEv@Base 4:4.3.4
 _ZN11KIconEffect6toGrayER6QImagef@Base 4:4.3.4
 _ZN11KIconEffect7overlayER6QImageS1_@Base 4:4.3.4
 _ZN11KIconEffect7toGammaER6QImagef@Base 4:4.3.4
 _ZN11KIconEffect8colorizeER6QImageRK6QColorf@Base 4:4.3.4
 _ZN11KIconEffectC1Ev@Base 4:4.3.4
 _ZN11KIconEffectC2Ev@Base 4:4.3.4
 _ZN11KIconEffectD1Ev@Base 4:4.3.4
 _ZN11KIconEffectD2Ev@Base 4:4.3.4
 _ZN11KIconLoader11loadIconSetERK7QStringNS_5GroupEib@Base 4:4.3.4
 _ZN11KIconLoader11qt_metacallEN11QMetaObject4CallEiPPv@Base 4:4.3.4
 _ZN11KIconLoader11qt_metacastEPKc@Base 4:4.3.4
 _ZN11KIconLoader11reconfigureERK7QStringP13KStandardDirs@Base 4:4.3.4
 _ZN11KIconLoader13newIconLoaderEv@Base 4:4.3.4
 _ZN11KIconLoader16staticMetaObjectE@Base 4:4.3.4
 _ZN11KIconLoader21addExtraDesktopThemesEv@Base 4:4.3.4
 _ZN11KIconLoader25iconLoaderSettingsChangedEv@Base 4:4.3.4
 _ZN11KIconLoader6globalEv@Base 4:4.3.4
 _ZN11KIconLoader7unknownEv@Base 4:4.3.4
 _ZN11KIconLoader9addAppDirERK7QString@Base 4:4.3.4
 _ZN11KIconLoaderC1ERK14KComponentDataP7QObject@Base 4:4.3.4
 _ZN11KIconLoaderC1ERK7QStringP13KStandardDirsP7QObject@Base 4:4.3.4
 _ZN11KIconLoaderC2ERK14KComponentDataP7QObject@Base 4:4.3.4
 _ZN11KIconLoaderC2ERK7QStringP13KStandardDirsP7QObject@Base 4:4.3.4
 _ZN11KIconLoaderD0Ev@Base 4:4.3.4
 _ZN11KIconLoaderD1Ev@Base 4:4.3.4
 _ZN11KIconLoaderD2Ev@Base 4:4.3.4
 _ZN11KImageCache11insertImageERK7QStringRK6QImage@Base 4:4.4.95
 _ZN11KImageCache12insertPixmapERK7QStringRK7QPixmap@Base 4:4.4.95
 _ZN11KImageCache16setPixmapCachingEb@Base 4:4.4.95
 _ZN11KImageCache19setPixmapCacheLimitEi@Base 4:4.5.85
 _ZN11KImageCache5clearEv@Base 4:4.4.95
 _ZN11KImageCache7Private11qt_metacallEN11QMetaObject4CallEiPPv@Base 4:4.4.95
 _ZN11KImageCache7Private11qt_metacastEPKc@Base 4:4.4.95
 _ZN11KImageCache7Private16staticMetaObjectE@Base 4:4.4.95
 _ZN11KImageCache7PrivateD0Ev@Base 4:4.7.2
 _ZN11KImageCache7PrivateD1Ev@Base 4:4.7.2
 _ZN11KImageCache7PrivateD2Ev@Base 4:4.7.2
 _ZN11KImageCacheC1ERK7QStringjj@Base 4:4.4.95
 _ZN11KImageCacheC2ERK7QStringjj@Base 4:4.4.95
 _ZN11KImageCacheD1Ev@Base 4:4.5.2
 _ZN11KImageCacheD2Ev@Base 4:4.5.2
 _ZN11KIntSpinBox11qt_metacallEN11QMetaObject4CallEiPPv@Base 4:4.3.4
 _ZN11KIntSpinBox11qt_metacastEPKc@Base 4:4.3.4
 _ZN11KIntSpinBox12setEditFocusEb@Base 4:4.3.4
 _ZN11KIntSpinBox16staticMetaObjectE@Base 4:4.3.4
 _ZN11KIntSpinBox7setBaseEi@Base 4:4.3.4
 _ZN11KIntSpinBox9setSuffixERK16KLocalizedString@Base 4:4.3.4
 _ZN11KIntSpinBoxC1EP7QWidget@Base 4:4.3.4
 _ZN11KIntSpinBoxC1EiiiiP7QWidgeti@Base 4:4.3.4
 _ZN11KIntSpinBoxC2EP7QWidget@Base 4:4.3.4
 _ZN11KIntSpinBoxC2EiiiiP7QWidgeti@Base 4:4.3.4
 _ZN11KIntSpinBoxD0Ev@Base 4:4.3.4
 _ZN11KIntSpinBoxD1Ev@Base 4:4.3.4
 _ZN11KIntSpinBoxD2Ev@Base 4:4.3.4
 _ZN11KListWidget10leaveEventEP6QEvent@Base 4:4.3.4
 _ZN11KListWidget11qt_metacallEN11QMetaObject4CallEiPPv@Base 4:4.3.4
 _ZN11KListWidget11qt_metacastEPKc@Base 4:4.3.4
 _ZN11KListWidget13doubleClickedEP15QListWidgetItemRK6QPoint@Base 4:4.3.4
 _ZN11KListWidget13focusOutEventEP11QFocusEvent@Base 4:4.3.4
 _ZN11KListWidget13keyPressEventEP9QKeyEvent@Base 4:4.3.4
 _ZN11KListWidget15mousePressEventEP11QMouseEvent@Base 4:4.3.4
 _ZN11KListWidget16staticMetaObjectE@Base 4:4.3.4
 _ZN11KListWidget18KListWidgetPrivate11emitExecuteEP15QListWidgetItemRK6QPoint@Base 4:4.3.4
 _ZN11KListWidget18KListWidgetPrivate17_k_slotAutoSelectEv@Base 4:4.3.4
 _ZN11KListWidget18KListWidgetPrivate17_k_slotOnViewportEv@Base 4:4.3.4
 _ZN11KListWidget18KListWidgetPrivate18_k_slotItemEnteredEP15QListWidgetItem@Base 4:4.3.4
 _ZN11KListWidget18KListWidgetPrivate22_k_slotSettingsChangedEi@Base 4:4.3.4
 _ZN11KListWidget21mouseDoubleClickEventEP11QMouseEvent@Base 4:4.3.4
 _ZN11KListWidget8executedEP15QListWidgetItem@Base 4:4.3.4
 _ZN11KListWidget8executedEP15QListWidgetItemRK6QPoint@Base 4:4.3.4
 _ZN11KListWidgetC1EP7QWidget@Base 4:4.3.4
 _ZN11KListWidgetC2EP7QWidget@Base 4:4.3.4
 _ZN11KListWidgetD0Ev@Base 4:4.3.4
 _ZN11KListWidgetD1Ev@Base 4:4.3.4
 _ZN11KListWidgetD2Ev@Base 4:4.3.4
 _ZN11KMainWindow10closeEventEP11QCloseEvent@Base 4:4.3.4
 _ZN11KMainWindow10hasMenuBarEv@Base 4:4.3.4
 _ZN11KMainWindow10memberListEv@Base 4:4.3.4
 _ZN11KMainWindow10queryCloseEv@Base 4:4.3.4
 _ZN11KMainWindow10setCaptionERK7QString@Base 4:4.3.4
 _ZN11KMainWindow10setCaptionERK7QStringb@Base 4:4.3.4
 _ZN11KMainWindow11qt_metacallEN11QMetaObject4CallEiPPv@Base 4:4.3.4
 _ZN11KMainWindow11qt_metacastEPKc@Base 4:4.3.4
 _ZN11KMainWindow13canBeRestoredEi@Base 4:4.3.4
 _ZN11KMainWindow13parseGeometryEb@Base 4:4.3.4
 _ZN11KMainWindow14customHelpMenuEb@Base 4:4.3.4
 _ZN11KMainWindow15setPlainCaptionERK7QString@Base 4:4.3.4
 _ZN11KMainWindow16appHelpActivatedEv@Base 4:4.3.4
 _ZN11KMainWindow16setSettingsDirtyEv@Base 4:4.3.4
 _ZN11KMainWindow16staticMetaObjectE@Base 4:4.3.4
 _ZN11KMainWindow17restoreWindowSizeERK12KConfigGroup@Base 4:4.3.4
 _ZN11KMainWindow19classNameOfToplevelEi@Base 4:4.3.4
 _ZN11KMainWindow19setAutoSaveSettingsERK12KConfigGroupb@Base 4:4.3.4
 _ZN11KMainWindow19setAutoSaveSettingsERK7QStringb@Base 4:4.3.4
 _ZN11KMainWindow20readGlobalPropertiesEP7KConfig@Base 4:4.3.4
 _ZN11KMainWindow20saveAutoSaveSettingsEv@Base 4:4.3.4
 _ZN11KMainWindow20saveGlobalPropertiesEP7KConfig@Base 4:4.3.4
 _ZN11KMainWindow20showAboutApplicationEv@Base 4:4.3.4
 _ZN11KMainWindow21ignoreInitialGeometryEv@Base 4:4.3.4
 _ZN11KMainWindow21resetAutoSaveSettingsEv@Base 4:4.3.4
 _ZN11KMainWindow22readPropertiesInternalEP7KConfigi@Base 4:4.3.4
 _ZN11KMainWindow22saveMainWindowSettingsERK12KConfigGroup@Base 4:4.3.4
 _ZN11KMainWindow22savePropertiesInternalEP7KConfigi@Base 4:4.3.4
 _ZN11KMainWindow23applyMainWindowSettingsERK12KConfigGroupb@Base 4:4.3.4
 _ZN11KMainWindow5eventEP6QEvent@Base 4:4.3.4
 _ZN11KMainWindow7menuBarEv@Base 4:4.3.4
 _ZN11KMainWindow7restoreEib@Base 4:4.3.4
 _ZN11KMainWindow7toolBarERK7QString@Base 4:4.3.4
 _ZN11KMainWindow8helpMenuERK7QStringb@Base 4:4.3.4
 _ZN11KMainWindow9queryExitEv@Base 4:4.3.4
 _ZN11KMainWindow9statusBarEv@Base 4:4.3.4
 _ZN11KMainWindowC1EP7QWidget6QFlagsIN2Qt10WindowTypeEE@Base 4:4.3.4
 _ZN11KMainWindowC1ER18KMainWindowPrivateP7QWidget6QFlagsIN2Qt10WindowTypeEE@Base 4:4.3.4
 _ZN11KMainWindowC2EP7QWidget6QFlagsIN2Qt10WindowTypeEE@Base 4:4.3.4
 _ZN11KMainWindowC2ER18KMainWindowPrivateP7QWidget6QFlagsIN2Qt10WindowTypeEE@Base 4:4.3.4
 _ZN11KMainWindowD0Ev@Base 4:4.3.4
 _ZN11KMainWindowD1Ev@Base 4:4.3.4
 _ZN11KMainWindowD2Ev@Base 4:4.3.4
 _ZN11KMessageBox10messageBoxEP7QWidgetNS_10DialogTypeERK7QStringS5_RK8KGuiItemS8_S8_S5_6QFlagsINS_6OptionEE@Base 4:4.3.4
 _ZN11KMessageBox11informationEP7QWidgetRK7QStringS4_S4_6QFlagsINS_6OptionEE@Base 4:4.3.4
 _ZN11KMessageBox12errorListWIdEmRK7QStringRK11QStringListS2_6QFlagsINS_6OptionEE@Base 4:4.3.4
 _ZN11KMessageBox12warningYesNoEP7QWidgetRK7QStringS4_RK8KGuiItemS7_S4_6QFlagsINS_6OptionEE@Base 4:4.3.4
 _ZN11KMessageBox13detailedErrorEP7QWidgetRK7QStringS4_S4_6QFlagsINS_6OptionEE@Base 4:4.3.4
 _ZN11KMessageBox13detailedSorryEP7QWidgetRK7QStringS4_S4_6QFlagsINS_6OptionEE@Base 4:4.3.4
 _ZN11KMessageBox13enableMessageERK7QString@Base 4:4.3.4
 _ZN11KMessageBox13messageBoxWIdEmNS_10DialogTypeERK7QStringS3_RK8KGuiItemS6_S6_S3_6QFlagsINS_6OptionEE@Base 4:4.3.4
 _ZN11KMessageBox13questionYesNoEP7QWidgetRK7QStringS4_RK8KGuiItemS7_S4_6QFlagsINS_6OptionEE@Base 4:4.3.4
 _ZN11KMessageBox14informationWIdEmRK7QStringS2_S2_6QFlagsINS_6OptionEE@Base 4:4.3.4
 _ZN11KMessageBox15informationListEP7QWidgetRK7QStringRK11QStringListS4_S4_6QFlagsINS_6OptionEE@Base 4:4.3.4
 _ZN11KMessageBox15warningYesNoWIdEmRK7QStringS2_RK8KGuiItemS5_S2_6QFlagsINS_6OptionEE@Base 4:4.3.4
 _ZN11KMessageBox16detailedErrorWIdEmRK7QStringS2_S2_6QFlagsINS_6OptionEE@Base 4:4.3.4
 _ZN11KMessageBox16detailedSorryWIdEmRK7QStringS2_S2_6QFlagsINS_6OptionEE@Base 4:4.3.4
 _ZN11KMessageBox16questionYesNoWIdEmRK7QStringS2_RK8KGuiItemS5_S2_6QFlagsINS_6OptionEE@Base 4:4.3.4
 _ZN11KMessageBox16queuedMessageBoxEP7QWidgetNS_10DialogTypeERK7QStringS5_6QFlagsINS_6OptionEE@Base 4:4.3.4
 _ZN11KMessageBox16queuedMessageBoxEP7QWidgetNS_10DialogTypeERK7QStringS5_@Base 4:4.3.4
 _ZN11KMessageBox16warningYesNoListEP7QWidgetRK7QStringRK11QStringListS4_RK8KGuiItemSA_S4_6QFlagsINS_6OptionEE@Base 4:4.3.4
 _ZN11KMessageBox17createKMessageBoxEP7KDialogN11QMessageBox4IconERK7QStringRK11QStringListS6_Pb6QFlagsINS_6OptionEES6_@Base 4:4.3.4
 _ZN11KMessageBox17createKMessageBoxEP7KDialogRK5QIconRK7QStringRK11QStringListS7_Pb6QFlagsINS_6OptionEES7_N11QMessageBox4IconE@Base 4:4.3.4
 _ZN11KMessageBox17enableAllMessagesEv@Base 4:4.3.4
 _ZN11KMessageBox17questionYesNoListEP7QWidgetRK7QStringRK11QStringListS4_RK8KGuiItemSA_S4_6QFlagsINS_6OptionEE@Base 4:4.3.4
 _ZN11KMessageBox18informationListWIdEmRK7QStringRK11QStringListS2_S2_6QFlagsINS_6OptionEE@Base 4:4.3.4
 _ZN11KMessageBox18shouldBeShownYesNoERK7QStringRNS_10ButtonCodeE@Base 4:4.3.4
 _ZN11KMessageBox18warningYesNoCancelEP7QWidgetRK7QStringS4_RK8KGuiItemS7_S7_S4_6QFlagsINS_6OptionEE@Base 4:4.3.4
 _ZN11KMessageBox19questionYesNoCancelEP7QWidgetRK7QStringS4_RK8KGuiItemS7_S7_S4_6QFlagsINS_6OptionEE@Base 4:4.3.4
 _ZN11KMessageBox19queuedDetailedErrorEP7QWidgetRK7QStringS4_S4_@Base 4:4.3.4
 _ZN11KMessageBox19queuedMessageBoxWIdEmNS_10DialogTypeERK7QStringS3_6QFlagsINS_6OptionEE@Base 4:4.3.4
 _ZN11KMessageBox19queuedMessageBoxWIdEmNS_10DialogTypeERK7QStringS3_@Base 4:4.3.4
 _ZN11KMessageBox19warningYesNoListWIdEmRK7QStringRK11QStringListS2_RK8KGuiItemS8_S2_6QFlagsINS_6OptionEE@Base 4:4.3.4
 _ZN11KMessageBox20questionYesNoListWIdEmRK7QStringRK11QStringListS2_RK8KGuiItemS8_S2_6QFlagsINS_6OptionEE@Base 4:4.3.4
 _ZN11KMessageBox21shouldBeShownContinueERK7QString@Base 4:4.3.4
 _ZN11KMessageBox21warningContinueCancelEP7QWidgetRK7QStringS4_RK8KGuiItemS7_S4_6QFlagsINS_6OptionEE@Base 4:4.3.4
 _ZN11KMessageBox21warningYesNoCancelWIdEmRK7QStringS2_RK8KGuiItemS5_S5_S2_6QFlagsINS_6OptionEE@Base 4:4.3.4
 _ZN11KMessageBox22questionYesNoCancelWIdEmRK7QStringS2_RK8KGuiItemS5_S5_S2_6QFlagsINS_6OptionEE@Base 4:4.3.4
 _ZN11KMessageBox22queuedDetailedErrorWIdEmRK7QStringS2_S2_@Base 4:4.3.4
 _ZN11KMessageBox22saveDontShowAgainYesNoERK7QStringNS_10ButtonCodeE@Base 4:4.3.4
 _ZN11KMessageBox22warningYesNoCancelListEP7QWidgetRK7QStringRK11QStringListS4_RK8KGuiItemSA_SA_S4_6QFlagsINS_6OptionEE@Base 4:4.3.4
 _ZN11KMessageBox24warningContinueCancelWIdEmRK7QStringS2_RK8KGuiItemS5_S2_6QFlagsINS_6OptionEE@Base 4:4.3.4
 _ZN11KMessageBox25saveDontShowAgainContinueERK7QString@Base 4:4.3.4
 _ZN11KMessageBox25setDontShowAskAgainConfigEP7KConfig@Base 4:4.3.4
 _ZN11KMessageBox25warningContinueCancelListEP7QWidgetRK7QStringRK11QStringListS4_RK8KGuiItemSA_S4_6QFlagsINS_6OptionEE@Base 4:4.3.4
 _ZN11KMessageBox25warningYesNoCancelListWIdEmRK7QStringRK11QStringListS2_RK8KGuiItemS8_S8_S2_6QFlagsINS_6OptionEE@Base 4:4.3.4
 _ZN11KMessageBox28warningContinueCancelListWIdEmRK7QStringRK11QStringListS2_RK8KGuiItemS8_S2_6QFlagsINS_6OptionEE@Base 4:4.3.4
 _ZN11KMessageBox5aboutEP7QWidgetRK7QStringS4_6QFlagsINS_6OptionEE@Base 4:4.3.4
 _ZN11KMessageBox5errorEP7QWidgetRK7QStringS4_6QFlagsINS_6OptionEE@Base 4:4.3.4
 _ZN11KMessageBox5sorryEP7QWidgetRK7QStringS4_6QFlagsINS_6OptionEE@Base 4:4.3.4
 _ZN11KMessageBox8errorWIdEmRK7QStringS2_6QFlagsINS_6OptionEE@Base 4:4.3.4
 _ZN11KMessageBox8sorryWIdEmRK7QStringS2_6QFlagsINS_6OptionEE@Base 4:4.3.4
 _ZN11KMessageBox9errorListEP7QWidgetRK7QStringRK11QStringListS4_6QFlagsINS_6OptionEE@Base 4:4.3.4
 _ZN11KPageDialog10addSubPageEP15KPageWidgetItemP7QWidgetRK7QString@Base 4:4.3.4
 _ZN11KPageDialog10addSubPageEP15KPageWidgetItemS1_@Base 4:4.3.4
 _ZN11KPageDialog10insertPageEP15KPageWidgetItemP7QWidgetRK7QString@Base 4:4.3.4
 _ZN11KPageDialog10insertPageEP15KPageWidgetItemS1_@Base 4:4.3.4
 _ZN11KPageDialog10pageWidgetEv@Base 4:4.3.4
 _ZN11KPageDialog10removePageEP15KPageWidgetItem@Base 4:4.3.4
 _ZN11KPageDialog11pageRemovedEP15KPageWidgetItem@Base 4:4.3.4
 _ZN11KPageDialog11qt_metacallEN11QMetaObject4CallEiPPv@Base 4:4.3.4
 _ZN11KPageDialog11qt_metacastEPKc@Base 4:4.3.4
 _ZN11KPageDialog11setFaceTypeENS_8FaceTypeE@Base 4:4.3.4
 _ZN11KPageDialog13setPageWidgetEP11KPageWidget@Base 4:4.4.95
 _ZN11KPageDialog14setCurrentPageEP15KPageWidgetItem@Base 4:4.3.4
 _ZN11KPageDialog16staticMetaObjectE@Base 4:4.3.4
 _ZN11KPageDialog18currentPageChangedEP15KPageWidgetItemS1_@Base 4:4.3.4
 _ZN11KPageDialog7addPageEP15KPageWidgetItem@Base 4:4.3.4
 _ZN11KPageDialog7addPageEP7QWidgetRK7QString@Base 4:4.3.4
 _ZN11KPageDialogC1EP11KPageWidgetP7QWidget6QFlagsIN2Qt10WindowTypeEE@Base 4:4.3.4
 _ZN11KPageDialogC1EP7QWidget6QFlagsIN2Qt10WindowTypeEE@Base 4:4.3.4
 _ZN11KPageDialogC1ER18KPageDialogPrivateP11KPageWidgetP7QWidget6QFlagsIN2Qt10WindowTypeEE@Base 4:4.3.4
 _ZN11KPageDialogC2EP11KPageWidgetP7QWidget6QFlagsIN2Qt10WindowTypeEE@Base 4:4.3.4
 _ZN11KPageDialogC2EP7QWidget6QFlagsIN2Qt10WindowTypeEE@Base 4:4.3.4
 _ZN11KPageDialogC2ER18KPageDialogPrivateP11KPageWidgetP7QWidget6QFlagsIN2Qt10WindowTypeEE@Base 4:4.3.4
 _ZN11KPageDialogD0Ev@Base 4:4.3.4
 _ZN11KPageDialogD1Ev@Base 4:4.3.4
 _ZN11KPageDialogD2Ev@Base 4:4.3.4
 _ZN11KPageWidget10addSubPageEP15KPageWidgetItemP7QWidgetRK7QString@Base 4:4.3.4
 _ZN11KPageWidget10addSubPageEP15KPageWidgetItemS1_@Base 4:4.3.4
 _ZN11KPageWidget10insertPageEP15KPageWidgetItemP7QWidgetRK7QString@Base 4:4.3.4
 _ZN11KPageWidget10insertPageEP15KPageWidgetItemS1_@Base 4:4.3.4
 _ZN11KPageWidget10removePageEP15KPageWidgetItem@Base 4:4.3.4
 _ZN11KPageWidget11pageRemovedEP15KPageWidgetItem@Base 4:4.3.4
 _ZN11KPageWidget11pageToggledEP15KPageWidgetItemb@Base 4:4.3.4
 _ZN11KPageWidget11qt_metacallEN11QMetaObject4CallEiPPv@Base 4:4.3.4
 _ZN11KPageWidget11qt_metacastEPKc@Base 4:4.3.4
 _ZN11KPageWidget14setCurrentPageEP15KPageWidgetItem@Base 4:4.3.4
 _ZN11KPageWidget16staticMetaObjectE@Base 4:4.3.4
 _ZN11KPageWidget18currentPageChangedEP15KPageWidgetItemS1_@Base 4:4.3.4
 _ZN11KPageWidget7addPageEP15KPageWidgetItem@Base 4:4.3.4
 _ZN11KPageWidget7addPageEP7QWidgetRK7QString@Base 4:4.3.4
 _ZN11KPageWidgetC1EP7QWidget@Base 4:4.3.4
 _ZN11KPageWidgetC1ER18KPageWidgetPrivateP7QWidget@Base 4:4.3.4
 _ZN11KPageWidgetC2EP7QWidget@Base 4:4.3.4
 _ZN11KPageWidgetC2ER18KPageWidgetPrivateP7QWidget@Base 4:4.3.4
 _ZN11KPageWidgetD0Ev@Base 4:4.3.4
 _ZN11KPageWidgetD1Ev@Base 4:4.3.4
 _ZN11KPageWidgetD2Ev@Base 4:4.3.4
 _ZN11KPlotObject10setLinePenERK4QPen@Base 4:4.3.4
 _ZN11KPlotObject11clearPointsEv@Base 4:4.3.4
 _ZN11KPlotObject11removePointEi@Base 4:4.3.4
 _ZN11KPlotObject11setBarBrushERK6QBrush@Base 4:4.3.4
 _ZN11KPlotObject11setLabelPenERK4QPen@Base 4:4.3.4
 _ZN11KPlotObject11setShowBarsEb@Base 4:4.3.4
 _ZN11KPlotObject12setShowLinesEb@Base 4:4.3.4
 _ZN11KPlotObject13setPointStyleENS_10PointStyleE@Base 4:4.3.4
 _ZN11KPlotObject13setShowPointsEb@Base 4:4.3.4
 _ZN11KPlotObject4drawEP8QPainterP11KPlotWidget@Base 4:4.3.4
 _ZN11KPlotObject6setPenERK4QPen@Base 4:4.3.4
 _ZN11KPlotObject7setSizeEd@Base 4:4.3.4
 _ZN11KPlotObject8addPointEP10KPlotPoint@Base 4:4.3.4
 _ZN11KPlotObject8addPointERK7QPointFRK7QStringd@Base 4:4.3.4
 _ZN11KPlotObject8addPointEddRK7QStringd@Base 4:4.3.4
 _ZN11KPlotObject8setBrushERK6QBrush@Base 4:4.3.4
 _ZN11KPlotObject9setBarPenERK4QPen@Base 4:4.3.4
 _ZN11KPlotObjectC1ERK6QColorNS_8PlotTypeEdNS_10PointStyleE@Base 4:4.3.4
 _ZN11KPlotObjectC2ERK6QColorNS_8PlotTypeEdNS_10PointStyleE@Base 4:4.3.4
 _ZN11KPlotObjectD1Ev@Base 4:4.3.4
 _ZN11KPlotObjectD2Ev@Base 4:4.3.4
 _ZN11KPlotWidget10paintEventEP11QPaintEvent@Base 4:4.3.4
 _ZN11KPlotWidget10placeLabelEP8QPainterP10KPlotPoint@Base 4:4.3.4
 _ZN11KPlotWidget10setPixRectEv@Base 4:4.3.4
 _ZN11KPlotWidget11qt_metacallEN11QMetaObject4CallEiPPv@Base 4:4.3.4
 _ZN11KPlotWidget11qt_metacastEPKc@Base 4:4.3.4
 _ZN11KPlotWidget11resizeEventEP12QResizeEvent@Base 4:4.3.4
 _ZN11KPlotWidget11setShowGridEb@Base 4:4.3.4
 _ZN11KPlotWidget12setGridColorERK6QColor@Base 4:4.3.4
 _ZN11KPlotWidget13addPlotObjectEP11KPlotObject@Base 4:4.3.4
 _ZN11KPlotWidget13maskAlongLineERK7QPointFS2_f@Base 4:4.3.4
 _ZN11KPlotWidget13resetPlotMaskEv@Base 4:4.3.4
 _ZN11KPlotWidget13setTopPaddingEi@Base 4:4.3.4
 _ZN11KPlotWidget14addPlotObjectsERK5QListIP11KPlotObjectE@Base 4:4.3.4
 _ZN11KPlotWidget14setLeftPaddingEi@Base 4:4.3.4
 _ZN11KPlotWidget15setAntialiasingEb@Base 4:4.3.4
 _ZN11KPlotWidget15setRightPaddingEi@Base 4:4.3.4
 _ZN11KPlotWidget16setBottomPaddingEi@Base 4:4.3.4
 _ZN11KPlotWidget16staticMetaObjectE@Base 4:4.3.4
 _ZN11KPlotWidget17replacePlotObjectEiP11KPlotObject@Base 4:4.3.4
 _ZN11KPlotWidget18setBackgroundColorERK6QColor@Base 4:4.3.4
 _ZN11KPlotWidget18setDefaultPaddingsEv@Base 4:4.3.4
 _ZN11KPlotWidget18setForegroundColorERK6QColor@Base 4:4.3.4
 _ZN11KPlotWidget18setSecondaryLimitsEdddd@Base 4:4.3.4
 _ZN11KPlotWidget20clearSecondaryLimitsEv@Base 4:4.3.4
 _ZN11KPlotWidget20removeAllPlotObjectsEv@Base 4:4.3.4
 _ZN11KPlotWidget21setObjectToolTipShownEb@Base 4:4.3.4
 _ZN11KPlotWidget4axisENS_4AxisE@Base 4:4.3.4
 _ZN11KPlotWidget5eventEP6QEvent@Base 4:4.3.4
 _ZN11KPlotWidget7Private18calcDataRectLimitsEdddd@Base 4:4.3.4
 _ZN11KPlotWidget8drawAxesEP8QPainter@Base 4:4.3.4
 _ZN11KPlotWidget8maskRectERK6QRectFf@Base 4:4.3.4
 _ZN11KPlotWidget9resetPlotEv@Base 4:4.3.4
 _ZN11KPlotWidget9setLimitsEdddd@Base 4:4.3.4
 _ZN11KPlotWidgetC1EP7QWidget@Base 4:4.3.4
 _ZN11KPlotWidgetC2EP7QWidget@Base 4:4.3.4
 _ZN11KPlotWidgetD0Ev@Base 4:4.3.4
 _ZN11KPlotWidgetD1Ev@Base 4:4.3.4
 _ZN11KPlotWidgetD2Ev@Base 4:4.3.4
 _ZN11KPopupFrame11qt_metacallEN11QMetaObject4CallEiPPv@Base 4:4.3.4
 _ZN11KPopupFrame11qt_metacastEPKc@Base 4:4.3.4
 _ZN11KPopupFrame11resizeEventEP12QResizeEvent@Base 4:4.3.4
 _ZN11KPopupFrame13keyPressEventEP9QKeyEvent@Base 4:4.3.4
 _ZN11KPopupFrame13leaveModalityEv@Base 4:4.3.4
 _ZN11KPopupFrame13setMainWidgetEP7QWidget@Base 4:4.3.4
 _ZN11KPopupFrame16staticMetaObjectE@Base 4:4.3.4
 _ZN11KPopupFrame18KPopupFramePrivateC1EPS_@Base 4:4.3.4
 _ZN11KPopupFrame18KPopupFramePrivateC2EPS_@Base 4:4.3.4
 _ZN11KPopupFrame18KPopupFramePrivateD1Ev@Base 4:4.3.4
 _ZN11KPopupFrame18KPopupFramePrivateD2Ev@Base 4:4.3.4
 _ZN11KPopupFrame4execERK6QPoint@Base 4:4.3.4
 _ZN11KPopupFrame4execEii@Base 4:4.3.4
 _ZN11KPopupFrame5closeEi@Base 4:4.3.4
 _ZN11KPopupFrame5popupERK6QPoint@Base 4:4.3.4
 _ZN11KPopupFrameC1EP7QWidget@Base 4:4.3.4
 _ZN11KPopupFrameC2EP7QWidget@Base 4:4.3.4
 _ZN11KPopupFrameD0Ev@Base 4:4.3.4
 _ZN11KPopupFrameD1Ev@Base 4:4.3.4
 _ZN11KPopupFrameD2Ev@Base 4:4.3.4
 _ZN11KPushButton10authorizedEPN5KAuth6ActionE@Base 4:4.4.0
 _ZN11KPushButton10dragObjectEv@Base 4:4.3.4
 _ZN11KPushButton10paintEventEP11QPaintEvent@Base 4:4.4.0
 _ZN11KPushButton10setGuiItemEN16KStandardGuiItem12StandardItemE@Base 4:4.3.4
 _ZN11KPushButton10setGuiItemERK8KGuiItem@Base 4:4.3.4
 _ZN11KPushButton11delayedMenuEv@Base 4:4.3.4
 _ZN11KPushButton11qt_metacallEN11QMetaObject4CallEiPPv@Base 4:4.3.4
 _ZN11KPushButton11qt_metacastEPKc@Base 4:4.3.4
 _ZN11KPushButton13setAuthActionEPN5KAuth6ActionE@Base 4:4.4.0
 _ZN11KPushButton13setAuthActionERK7QString@Base 4:4.4.0
 _ZN11KPushButton14mouseMoveEventEP11QMouseEvent@Base 4:4.3.4
 _ZN11KPushButton14setDelayedMenuEP5QMenu@Base 4:4.3.4
 _ZN11KPushButton14setDragEnabledEb@Base 4:4.3.4
 _ZN11KPushButton15mousePressEventEP11QMouseEvent@Base 4:4.3.4
 _ZN11KPushButton16staticMetaObjectE@Base 4:4.3.4
 _ZN11KPushButton18KPushButtonPrivate12readSettingsEv@Base 4:4.3.4
 _ZN11KPushButton18KPushButtonPrivate17authStatusChangedEi@Base 4:4.4.0
 _ZN11KPushButton18KPushButtonPrivate19slotClickedInternalEv@Base 4:4.3.4
 _ZN11KPushButton18KPushButtonPrivate19slotPressedInternalEv@Base 4:4.3.4
 _ZN11KPushButton18KPushButtonPrivate19slotSettingsChangedEi@Base 4:4.3.4
 _ZN11KPushButton18KPushButtonPrivate22slotDelayedMenuTimeoutEv@Base 4:4.3.4
 _ZN11KPushButton4initERK8KGuiItem@Base 4:4.3.4
 _ZN11KPushButton7setIconERK5KIcon@Base 4:4.3.4
 _ZN11KPushButton7setIconERK5QIcon@Base 4:4.3.4
 _ZN11KPushButton7setTextERK7QString@Base 4:4.3.4
 _ZN11KPushButton9startDragEv@Base 4:4.3.4
 _ZN11KPushButtonC1EP7QWidget@Base 4:4.3.4
 _ZN11KPushButtonC1ERK5KIconRK7QStringP7QWidget@Base 4:4.3.4
 _ZN11KPushButtonC1ERK7QStringP7QWidget@Base 4:4.3.4
 _ZN11KPushButtonC1ERK8KGuiItemP7QWidget@Base 4:4.3.4
 _ZN11KPushButtonC2EP7QWidget@Base 4:4.3.4
 _ZN11KPushButtonC2ERK5KIconRK7QStringP7QWidget@Base 4:4.3.4
 _ZN11KPushButtonC2ERK7QStringP7QWidget@Base 4:4.3.4
 _ZN11KPushButtonC2ERK8KGuiItemP7QWidget@Base 4:4.3.4
 _ZN11KPushButtonD0Ev@Base 4:4.3.4
 _ZN11KPushButtonD1Ev@Base 4:4.3.4
 _ZN11KPushButtonD2Ev@Base 4:4.3.4
 _ZN11KWindowInfoC1ERKS_@Base 4:4.3.4
 _ZN11KWindowInfoC1Emmm@Base 4:4.3.4
 _ZN11KWindowInfoC1Ev@Base 4:4.3.4
 _ZN11KWindowInfoC2ERKS_@Base 4:4.3.4
 _ZN11KWindowInfoC2Emmm@Base 4:4.3.4
 _ZN11KWindowInfoC2Ev@Base 4:4.3.4
 _ZN11KWindowInfoD1Ev@Base 4:4.3.4
 _ZN11KWindowInfoD2Ev@Base 4:4.3.4
 _ZN11KWindowInfoaSERKS_@Base 4:4.3.4
 _ZN11KXYSelector10drawMarkerEP8QPainterii@Base 4:4.3.4
 _ZN11KXYSelector10paintEventEP11QPaintEvent@Base 4:4.3.4
 _ZN11KXYSelector10wheelEventEP11QWheelEvent@Base 4:4.3.4
 _ZN11KXYSelector11qt_metacallEN11QMetaObject4CallEiPPv@Base 4:4.3.4
 _ZN11KXYSelector11qt_metacastEPKc@Base 4:4.3.4
 _ZN11KXYSelector11setPositionEii@Base 4:4.3.4
 _ZN11KXYSelector12drawContentsEP8QPainter@Base 4:4.3.4
 _ZN11KXYSelector12valueChangedEii@Base 4:4.3.4
 _ZN11KXYSelector14mouseMoveEventEP11QMouseEvent@Base 4:4.3.4
 _ZN11KXYSelector14setMarkerColorERK6QColor@Base 4:4.3.4
 _ZN11KXYSelector15mousePressEventEP11QMouseEvent@Base 4:4.3.4
 _ZN11KXYSelector16staticMetaObjectE@Base 4:4.3.4
 _ZN11KXYSelector7Private9setValuesEii@Base 4:4.3.4
 _ZN11KXYSelector8setRangeEiiii@Base 4:4.3.4
 _ZN11KXYSelector9setValuesEii@Base 4:4.3.4
 _ZN11KXYSelector9setXValueEi@Base 4:4.3.4
 _ZN11KXYSelector9setYValueEi@Base 4:4.3.4
 _ZN11KXYSelectorC1EP7QWidget@Base 4:4.3.4
 _ZN11KXYSelectorC2EP7QWidget@Base 4:4.3.4
 _ZN11KXYSelectorD0Ev@Base 4:4.3.4
 _ZN11KXYSelectorD1Ev@Base 4:4.3.4
 _ZN11KXYSelectorD2Ev@Base 4:4.3.4
 _ZN11NETRootInfo11setWorkAreaEiRK7NETRect@Base 4:4.3.4
 _ZN11NETRootInfo12setSupportedEN3NET10WindowTypeEb@Base 4:4.4.0
 _ZN11NETRootInfo12setSupportedEN3NET5StateEb@Base 4:4.4.0
 _ZN11NETRootInfo12setSupportedEN3NET6ActionEb@Base 4:4.4.0
 _ZN11NETRootInfo12setSupportedEN3NET8PropertyEb@Base 4:4.4.0
 _ZN11NETRootInfo12setSupportedEN3NET9Property2Eb@Base 4:4.4.0
 _ZN11NETRootInfo12setSupportedEv@Base 4:4.3.4
 _ZN11NETRootInfo12takeActivityEmml@Base 4:4.3.4
 _ZN11NETRootInfo12virtual_hookEiPv@Base 4:4.3.4
 _ZN11NETRootInfo13setClientListEPKmj@Base 4:4.3.4
 _ZN11NETRootInfo14restackRequestEmN3NET13RequestSourceEmim@Base 4:4.3.4
 _ZN11NETRootInfo14setDesktopNameEiPKc@Base 4:4.3.4
 _ZN11NETRootInfo15setActiveWindowEm@Base 4:4.3.4
 _ZN11NETRootInfo15setActiveWindowEmN3NET13RequestSourceEmm@Base 4:4.3.4
 _ZN11NETRootInfo15setVirtualRootsEPKmj@Base 4:4.3.4
 _ZN11NETRootInfo16setDesktopLayoutEN3NET11OrientationEiiNS0_19DesktopLayoutCornerE@Base 4:4.3.4
 _ZN11NETRootInfo17moveResizeRequestEmiiN3NET9DirectionE@Base 4:4.3.4
 _ZN11NETRootInfo17setCurrentDesktopEib@Base 4:4.3.4
 _ZN11NETRootInfo17setShowingDesktopEb@Base 4:4.3.4
 _ZN11NETRootInfo18closeWindowRequestEm@Base 4:4.3.4
 _ZN11NETRootInfo18setDesktopGeometryEiRK7NETSize@Base 4:4.3.4
 _ZN11NETRootInfo18setDesktopViewportEiRK8NETPoint@Base 4:4.3.4
 _ZN11NETRootInfo19setNumberOfDesktopsEi@Base 4:4.3.4
 _ZN11NETRootInfo20setDefaultPropertiesEv@Base 4:4.3.4
 _ZN11NETRootInfo21setClientListStackingEPKmj@Base 4:4.3.4
 _ZN11NETRootInfo23moveResizeWindowRequestEmiiiii@Base 4:4.3.4
 _ZN11NETRootInfo25updateSupportedPropertiesEm@Base 4:4.3.4
 _ZN11NETRootInfo5eventEP7_XEvent@Base 4:4.3.4
 _ZN11NETRootInfo5eventEP7_XEventPmi@Base 4:4.3.4
 _ZN11NETRootInfo6updateEPKm@Base 4:4.3.4
 _ZN11NETRootInfo8activateEv@Base 4:4.3.4
 _ZN11NETRootInfo8sendPingEmm@Base 4:4.3.4
 _ZN11NETRootInfoC1EP9_XDisplayPKmiib@Base 4:4.3.4
 _ZN11NETRootInfoC1EP9_XDisplaymPKcPKmiib@Base 4:4.3.4
 _ZN11NETRootInfoC1EP9_XDisplaymib@Base 4:4.3.4
 _ZN11NETRootInfoC1ERKS_@Base 4:4.3.4
 _ZN11NETRootInfoC2EP9_XDisplayPKmiib@Base 4:4.3.4
 _ZN11NETRootInfoC2EP9_XDisplaymPKcPKmiib@Base 4:4.3.4
 _ZN11NETRootInfoC2EP9_XDisplaymib@Base 4:4.3.4
 _ZN11NETRootInfoC2ERKS_@Base 4:4.3.4
 _ZN11NETRootInfoD0Ev@Base 4:4.3.4
 _ZN11NETRootInfoD1Ev@Base 4:4.3.4
 _ZN11NETRootInfoD2Ev@Base 4:4.3.4
 _ZN11NETRootInfoaSERKS_@Base 4:4.3.4
 _ZN11NETWinInfo221setFullscreenMonitorsE21NETFullscreenMonitors@Base 4:4.3.4
 _ZN11NETWinInfo2C1EP9_XDisplaymmPKmiN3NET4RoleE@Base 4:4.3.4
 _ZN11NETWinInfo2C1EP9_XDisplaymmmN3NET4RoleE@Base 4:4.3.4
 _ZN11NETWinInfo2C2EP9_XDisplaymmPKmiN3NET4RoleE@Base 4:4.3.4
 _ZN11NETWinInfo2C2EP9_XDisplaymmmN3NET4RoleE@Base 4:4.3.4
 _ZN11NETWinInfo2D0Ev@Base 4:4.7.2
 _ZN11NETWinInfo2D1Ev@Base 4:4.7.2
 _ZN11NETWinInfo2D2Ev@Base 4:4.7.2
 _ZN12KApplication10commitDataER15QSessionManager@Base 4:4.3.4
 _ZN12KApplication11qt_metacallEN11QMetaObject4CallEiPPv@Base 4:4.3.4
 _ZN12KApplication11qt_metacastEPKc@Base 4:4.3.4
 _ZN12KApplication11xErrhandlerEP9_XDisplayPv@Base 4:4.3.4
 _ZN12KApplication12kApplicationEv@Base 4:4.3.4
 _ZN12KApplication12saveYourselfEv@Base 4:4.3.4
 _ZN12KApplication12setStartupIdERK10QByteArray@Base 4:4.3.4
 _ZN12KApplication12setTopWidgetEP7QWidget@Base 4:4.3.4
 _ZN12KApplication12tempSaveNameERK7QString@Base 4:4.3.4
 _ZN12KApplication13sessionConfigEv@Base 4:4.3.4
 _ZN12KApplication13xioErrhandlerEP9_XDisplay@Base 4:4.3.4
 _ZN12KApplication14clearStartupIdEv@Base 4:4.3.4
 _ZN12KApplication14x11EventFilterEP7_XEvent@Base 4:4.3.4
 _ZN12KApplication15loadedByKdeinitE@Base 4:4.3.4
 _ZN12KApplication16checkRecoverFileERK7QStringRb@Base 4:4.3.4
 _ZN12KApplication16staticMetaObjectE@Base 4:4.3.4
 _ZN12KApplication17iceIOErrorHandlerEP8_IceConn@Base 4:4.3.4
 _ZN12KApplication19updateUserTimestampEi@Base 4:4.3.4
 _ZN12KApplication20removeX11EventFilterEPK7QWidget@Base 4:4.3.4
 _ZN12KApplication20reparseConfigurationEv@Base 4:4.3.4
 _ZN12KApplication21installX11EventFilterEP7QWidget@Base 4:4.3.4
 _ZN12KApplication23enableSessionManagementEv@Base 4:4.3.4
 _ZN12KApplication23setSynchronizeClipboardEb@Base 4:4.3.4
 _ZN12KApplication24disableSessionManagementEv@Base 4:4.3.4
 _ZN12KApplication25updateRemoteUserTimestampERK7QStringi@Base 4:4.3.4
 _ZN12KApplication4KAppE@Base 4:4.3.4
 _ZN12KApplication4quitEv@Base 4:4.3.4
 _ZN12KApplication6notifyEP7QObjectP6QEvent@Base 4:4.3.4
 _ZN12KApplication9saveStateER15QSessionManager@Base 4:4.3.4
 _ZN12KApplicationC1EP9_XDisplayRiPPcRK10QByteArrayb@Base 4:4.3.4 1
 _ZN12KApplicationC1EP9_XDisplaymm@Base 4:4.3.4 1
 _ZN12KApplicationC1EP9_XDisplaymmRK14KComponentData@Base 4:4.3.4 1
 _ZN12KApplicationC1Eb@Base 4:4.3.4 1
 _ZN12KApplicationC1EbRK14KComponentData@Base 4:4.3.4 1
 _ZN12KApplicationC2EP9_XDisplayRiPPcRK10QByteArrayb@Base 4:4.3.4 1
 _ZN12KApplicationC2EP9_XDisplaymm@Base 4:4.3.4 1
 _ZN12KApplicationC2EP9_XDisplaymmRK14KComponentData@Base 4:4.3.4 1
 _ZN12KApplicationC2Eb@Base 4:4.3.4 1
 _ZN12KApplicationC2EbRK14KComponentData@Base 4:4.3.4 1
 _ZN12KApplicationD0Ev@Base 4:4.3.4 1
 _ZN12KApplicationD1Ev@Base 4:4.3.4 1
 _ZN12KApplicationD2Ev@Base 4:4.3.4 1
 _ZN12KArrowButton10paintEventEP11QPaintEvent@Base 4:4.3.4
 _ZN12KArrowButton11qt_metacallEN11QMetaObject4CallEiPPv@Base 4:4.3.4
 _ZN12KArrowButton11qt_metacastEPKc@Base 4:4.3.4
 _ZN12KArrowButton12setArrowTypeEN2Qt9ArrowTypeE@Base 4:4.3.4
 _ZN12KArrowButton16staticMetaObjectE@Base 4:4.3.4
 _ZN12KArrowButtonC1EP7QWidgetN2Qt9ArrowTypeE@Base 4:4.3.4
 _ZN12KArrowButtonC2EP7QWidgetN2Qt9ArrowTypeE@Base 4:4.3.4
 _ZN12KArrowButtonD0Ev@Base 4:4.3.4
 _ZN12KArrowButtonD1Ev@Base 4:4.3.4
 _ZN12KArrowButtonD2Ev@Base 4:4.3.4
 _ZN12KButtonGroup10childEventEP11QChildEvent@Base 4:4.3.4
 _ZN12KButtonGroup11qt_metacallEN11QMetaObject4CallEiPPv@Base 4:4.3.4
 _ZN12KButtonGroup11qt_metacastEPKc@Base 4:4.3.4
 _ZN12KButtonGroup11setSelectedEi@Base 4:4.3.4
 _ZN12KButtonGroup16staticMetaObjectE@Base 4:4.3.4
 _ZN12KButtonGroup7Private11slotClickedEi@Base 4:4.3.4
 _ZN12KButtonGroup7changedEi@Base 4:4.3.4
 _ZN12KButtonGroup7clickedEi@Base 4:4.3.4
 _ZN12KButtonGroup7pressedEi@Base 4:4.3.4
 _ZN12KButtonGroup8releasedEi@Base 4:4.3.4
 _ZN12KButtonGroupC1EP7QWidget@Base 4:4.3.4
 _ZN12KButtonGroupC2EP7QWidget@Base 4:4.3.4
 _ZN12KButtonGroupD0Ev@Base 4:4.3.4
 _ZN12KButtonGroupD1Ev@Base 4:4.3.4
 _ZN12KButtonGroupD2Ev@Base 4:4.3.4
 _ZN12KCapacityBar10paintEventEP11QPaintEvent@Base 4:4.3.4
 _ZN12KCapacityBar11changeEventEP6QEvent@Base 4:4.3.4
 _ZN12KCapacityBar11qt_metacallEN11QMetaObject4CallEiPPv@Base 4:4.4.0
 _ZN12KCapacityBar11qt_metacastEPKc@Base 4:4.4.0
 _ZN12KCapacityBar12setBarHeightEi@Base 4:4.3.4
 _ZN12KCapacityBar13setContinuousEb@Base 4:4.3.4
 _ZN12KCapacityBar15setDrawTextModeENS_12DrawTextModeE@Base 4:4.4.0
 _ZN12KCapacityBar16staticMetaObjectE@Base 4:4.4.0
 _ZN12KCapacityBar17setFillFullBlocksEb@Base 4:4.3.4
 _ZN12KCapacityBar26setHorizontalTextAlignmentE6QFlagsIN2Qt13AlignmentFlagEE@Base 4:4.3.4
 _ZN12KCapacityBar7setTextERK7QString@Base 4:4.3.4
 _ZN12KCapacityBar8setValueEi@Base 4:4.3.4
 _ZN12KCapacityBarC1ENS_12DrawTextModeEP7QWidget@Base 4:4.3.4
 _ZN12KCapacityBarC2ENS_12DrawTextModeEP7QWidget@Base 4:4.3.4
 _ZN12KCapacityBarD0Ev@Base 4:4.3.4
 _ZN12KCapacityBarD1Ev@Base 4:4.3.4
 _ZN12KCapacityBarD2Ev@Base 4:4.3.4
 _ZN12KCodecAction11qt_metacallEN11QMetaObject4CallEiPPv@Base 4:4.3.4
 _ZN12KCodecAction11qt_metacastEPKc@Base 4:4.3.4
 _ZN12KCodecAction15actionTriggeredEP7QAction@Base 4:4.3.4
 _ZN12KCodecAction15setCurrentCodecEP10QTextCodec@Base 4:4.3.4
 _ZN12KCodecAction15setCurrentCodecERK7QString@Base 4:4.3.4
 _ZN12KCodecAction15setCurrentCodecEi@Base 4:4.3.4
 _ZN12KCodecAction16staticMetaObjectE@Base 4:4.3.4
 _ZN12KCodecAction20defaultItemTriggeredEv@Base 4:4.3.4
 _ZN12KCodecAction26setCurrentAutoDetectScriptEN17KEncodingDetector16AutoDetectScriptE@Base 4:4.3.4
 _ZN12KCodecAction7Private21_k_subActionTriggeredEP7QAction@Base 4:4.3.4
 _ZN12KCodecAction7Private4initEb@Base 4:4.3.4
 _ZN12KCodecAction9triggeredEN17KEncodingDetector16AutoDetectScriptE@Base 4:4.3.4
 _ZN12KCodecAction9triggeredEP10QTextCodec@Base 4:4.3.4
 _ZN12KCodecActionC1EP7QObjectb@Base 4:4.3.4
 _ZN12KCodecActionC1ERK5KIconRK7QStringP7QObjectb@Base 4:4.3.4
 _ZN12KCodecActionC1ERK7QStringP7QObjectb@Base 4:4.3.4
 _ZN12KCodecActionC2EP7QObjectb@Base 4:4.3.4
 _ZN12KCodecActionC2ERK5KIconRK7QStringP7QObjectb@Base 4:4.3.4
 _ZN12KCodecActionC2ERK7QStringP7QObjectb@Base 4:4.3.4
 _ZN12KCodecActionD0Ev@Base 4:4.3.4
 _ZN12KCodecActionD1Ev@Base 4:4.3.4
 _ZN12KCodecActionD2Ev@Base 4:4.3.4
 _ZN12KColorButton10paintEventEP11QPaintEvent@Base 4:4.3.4
 _ZN12KColorButton11qt_metacallEN11QMetaObject4CallEiPPv@Base 4:4.3.4
 _ZN12KColorButton11qt_metacastEPKc@Base 4:4.3.4
 _ZN12KColorButton13keyPressEventEP9QKeyEvent@Base 4:4.3.4
 _ZN12KColorButton14dragEnterEventEP15QDragEnterEvent@Base 4:4.3.4
 _ZN12KColorButton14mouseMoveEventEP11QMouseEvent@Base 4:4.3.4
 _ZN12KColorButton15mousePressEventEP11QMouseEvent@Base 4:4.3.4
 _ZN12KColorButton15setDefaultColorERK6QColor@Base 4:4.3.4
 _ZN12KColorButton16staticMetaObjectE@Base 4:4.3.4
 _ZN12KColorButton19KColorButtonPrivate14_k_chooseColorEv@Base 4:4.3.4
 _ZN12KColorButton19KColorButtonPrivate14_k_colorChosenEv@Base 4:4.7.4
 _ZN12KColorButton19KColorButtonPrivateC1EPS_@Base 4:4.4.95
 _ZN12KColorButton19KColorButtonPrivateC2EPS_@Base 4:4.4.95
 _ZN12KColorButton22setAlphaChannelEnabledEb@Base 4:4.4.95
 _ZN12KColorButton7changedERK6QColor@Base 4:4.3.4
 _ZN12KColorButton8setColorERK6QColor@Base 4:4.3.4
 _ZN12KColorButton9dropEventEP10QDropEvent@Base 4:4.3.4
 _ZN12KColorButtonC1EP7QWidget@Base 4:4.3.4
 _ZN12KColorButtonC1ERK6QColorP7QWidget@Base 4:4.3.4
 _ZN12KColorButtonC1ERK6QColorS2_P7QWidget@Base 4:4.3.4
 _ZN12KColorButtonC2EP7QWidget@Base 4:4.3.4
 _ZN12KColorButtonC2ERK6QColorP7QWidget@Base 4:4.3.4
 _ZN12KColorButtonC2ERK6QColorS2_P7QWidget@Base 4:4.3.4
 _ZN12KColorButtonD0Ev@Base 4:4.3.4
 _ZN12KColorButtonD1Ev@Base 4:4.3.4
 _ZN12KColorButtonD2Ev@Base 4:4.3.4
 _ZN12KColorDialog11eventFilterEP7QObjectP6QEvent@Base 4:4.3.4
 _ZN12KColorDialog11qt_metacallEN11QMetaObject4CallEiPPv@Base 4:4.3.4
 _ZN12KColorDialog11qt_metacastEPKc@Base 4:4.3.4
 _ZN12KColorDialog12readSettingsEv@Base 4:4.3.4
 _ZN12KColorDialog13colorSelectedERK6QColor@Base 4:4.3.4
 _ZN12KColorDialog13keyPressEventEP9QKeyEvent@Base 4:4.3.4
 _ZN12KColorDialog14mouseMoveEventEP11QMouseEvent@Base 4:4.3.4
 _ZN12KColorDialog15setDefaultColorERK6QColor@Base 4:4.3.4
 _ZN12KColorDialog16staticMetaObjectE@Base 4:4.3.4
 _ZN12KColorDialog17mouseReleaseEventEP11QMouseEvent@Base 4:4.3.4
 _ZN12KColorDialog19KColorDialogPrivate10setHsvEditERK6QColor@Base 4:4.3.4
 _ZN12KColorDialog19KColorDialogPrivate10setRgbEditERK6QColor@Base 4:4.3.4
 _ZN12KColorDialog19KColorDialogPrivate11chooserModeEv@Base 4:4.3.4
 _ZN12KColorDialog19KColorDialogPrivate11setHtmlEditERK6QColor@Base 4:4.3.4
 _ZN12KColorDialog19KColorDialogPrivate12slotAChangedEi@Base 4:4.4.95
 _ZN12KColorDialog19KColorDialogPrivate12slotVChangedEi@Base 4:4.3.4
 _ZN12KColorDialog19KColorDialogPrivate13slotHSChangedEii@Base 4:4.3.4
 _ZN12KColorDialog19KColorDialogPrivate14setChooserModeE17KColorChooserMode@Base 4:4.3.4
 _ZN12KColorDialog19KColorDialogPrivate14slotHSVChangedEv@Base 4:4.3.4
 _ZN12KColorDialog19KColorDialogPrivate14slotRGBChangedEv@Base 4:4.3.4
 _ZN12KColorDialog19KColorDialogPrivate15slotColorPickerEv@Base 4:4.3.4
 _ZN12KColorDialog19KColorDialogPrivate15slotHtmlChangedEv@Base 4:4.3.4
 _ZN12KColorDialog19KColorDialogPrivate15slotModeChangedEi@Base 4:4.4.95
 _ZN12KColorDialog19KColorDialogPrivate16slotAlphaChangedEv@Base 4:4.4.95
 _ZN12KColorDialog19KColorDialogPrivate17slotColorSelectedERK6QColor@Base 4:4.3.4
 _ZN12KColorDialog19KColorDialogPrivate17slotColorSelectedERK6QColorRK7QString@Base 4:4.3.4
 _ZN12KColorDialog19KColorDialogPrivate17slotWriteSettingsEv@Base 4:4.3.4
 _ZN12KColorDialog19KColorDialogPrivate21slotAddToCustomColorsEv@Base 4:4.3.4
 _ZN12KColorDialog19KColorDialogPrivate22slotColorDoubleClickedERK6QColorRK7QString@Base 4:4.3.4
 _ZN12KColorDialog19KColorDialogPrivate23slotDefaultColorClickedEv@Base 4:4.3.4
 _ZN12KColorDialog19KColorDialogPrivate9_setColorERK6QColorRK7QString@Base 4:4.3.4
 _ZN12KColorDialog19KColorDialogPrivate9showColorERK6QColorRK7QString@Base 4:4.3.4
 _ZN12KColorDialog22setAlphaChannelEnabledEb@Base 4:4.4.95
 _ZN12KColorDialog8getColorER6QColorP7QWidget@Base 4:4.3.4
 _ZN12KColorDialog8getColorER6QColorRKS0_P7QWidget@Base 4:4.3.4
 _ZN12KColorDialog8setColorERK6QColor@Base 4:4.3.4
 _ZN12KColorDialog9grabColorERK6QPoint@Base 4:4.3.4
 _ZN12KColorDialogC1EP7QWidgetb@Base 4:4.3.4
 _ZN12KColorDialogC2EP7QWidgetb@Base 4:4.3.4
 _ZN12KColorDialogD0Ev@Base 4:4.3.4
 _ZN12KColorDialogD1Ev@Base 4:4.3.4
 _ZN12KColorDialogD2Ev@Base 4:4.3.4
 _ZN12KColorScheme16adjustBackgroundER8QPaletteNS_14BackgroundRoleENS0_9ColorRoleENS_8ColorSetE10KSharedPtrI13KSharedConfigE@Base 4:4.3.4
 _ZN12KColorScheme16adjustForegroundER8QPaletteNS_14ForegroundRoleENS0_9ColorRoleENS_8ColorSetE10KSharedPtrI13KSharedConfigE@Base 4:4.3.4
 _ZN12KColorScheme5shadeERK6QColorNS_9ShadeRoleE@Base 4:4.3.4
 _ZN12KColorScheme5shadeERK6QColorNS_9ShadeRoleEdd@Base 4:4.3.4
 _ZN12KColorSchemeC1EN8QPalette10ColorGroupENS_8ColorSetE10KSharedPtrI13KSharedConfigE@Base 4:4.3.4
 _ZN12KColorSchemeC1ERKS_@Base 4:4.3.4
 _ZN12KColorSchemeC2EN8QPalette10ColorGroupENS_8ColorSetE10KSharedPtrI13KSharedConfigE@Base 4:4.3.4
 _ZN12KColorSchemeC2ERKS_@Base 4:4.3.4
 _ZN12KColorSchemeD0Ev@Base 4:4.3.4
 _ZN12KColorSchemeD1Ev@Base 4:4.3.4
 _ZN12KColorSchemeD2Ev@Base 4:4.3.4
 _ZN12KColorSchemeaSERKS_@Base 4:4.3.4
 _ZN12KEditListBox10insertItemERK7QStringi@Base 4:4.3.4
 _ZN12KEditListBox10moveItemUpEv@Base 4:4.3.4
 _ZN12KEditListBox10removeItemEv@Base 4:4.3.4
 _ZN12KEditListBox10setButtonsE6QFlagsINS_6ButtonEE@Base 4:4.3.4
 _ZN12KEditListBox11eventFilterEP7QObjectP6QEvent@Base 4:4.3.4
 _ZN12KEditListBox11qt_metacallEN11QMetaObject4CallEiPPv@Base 4:4.3.4
 _ZN12KEditListBox11qt_metacastEPKc@Base 4:4.3.4
 _ZN12KEditListBox12CustomEditor11setLineEditEP9KLineEdit@Base 4:4.3.4
 _ZN12KEditListBox12CustomEditor23setRepresentationWidgetEP7QWidget@Base 4:4.3.4
 _ZN12KEditListBox12CustomEditorC1EP7QWidgetP9KLineEdit@Base 4:4.3.4
 _ZN12KEditListBox12CustomEditorC1EP9KComboBox@Base 4:4.3.4
 _ZN12KEditListBox12CustomEditorC1Ev@Base 4:4.3.4
 _ZN12KEditListBox12CustomEditorC2EP7QWidgetP9KLineEdit@Base 4:4.3.4
 _ZN12KEditListBox12CustomEditorC2EP9KComboBox@Base 4:4.3.4
 _ZN12KEditListBox12CustomEditorC2Ev@Base 4:4.3.4
 _ZN12KEditListBox12CustomEditorD0Ev@Base 4:4.3.4
 _ZN12KEditListBox12CustomEditorD1Ev@Base 4:4.3.4
 _ZN12KEditListBox12CustomEditorD2Ev@Base 4:4.3.4
 _ZN12KEditListBox12moveItemDownEv@Base 4:4.3.4
 _ZN12KEditListBox14typedSomethingERK7QString@Base 4:4.3.4
 _ZN12KEditListBox15checkAtEnteringEv@Base 4:4.3.4
 _ZN12KEditListBox15setCustomEditorERKNS_12CustomEditorE@Base 4:4.3.4
 _ZN12KEditListBox16insertStringListERK11QStringListi@Base 4:4.3.4
 _ZN12KEditListBox16staticMetaObjectE@Base 4:4.3.4
 _ZN12KEditListBox17enableMoveButtonsERK11QModelIndexS2_@Base 4:4.3.4
 _ZN12KEditListBox18setCheckAtEnteringEb@Base 4:4.3.4
 _ZN12KEditListBox20slotSelectionChangedERK14QItemSelectionS2_@Base 4:4.3.4
 _ZN12KEditListBox5addedERK7QString@Base 4:4.3.4
 _ZN12KEditListBox5clearEv@Base 4:4.3.4
 _ZN12KEditListBox7addItemEv@Base 4:4.3.4
 _ZN12KEditListBox7changedEv@Base 4:4.3.4
 _ZN12KEditListBox7removedERK7QString@Base 4:4.3.4
 _ZN12KEditListBox8setItemsERK11QStringList@Base 4:4.3.4
 _ZN12KEditListBoxC1EP7QWidget@Base 4:4.3.4
 _ZN12KEditListBoxC1EP7QWidgetPKcb6QFlagsINS_6ButtonEE@Base 4:4.3.4
 _ZN12KEditListBoxC1ERK7QStringP7QWidget@Base 4:4.3.4
 _ZN12KEditListBoxC1ERK7QStringP7QWidgetPKcb6QFlagsINS_6ButtonEE@Base 4:4.3.4
 _ZN12KEditListBoxC1ERK7QStringRKNS_12CustomEditorEP7QWidgetPKcb6QFlagsINS_6ButtonEE@Base 4:4.3.4
 _ZN12KEditListBoxC2EP7QWidget@Base 4:4.3.4
 _ZN12KEditListBoxC2EP7QWidgetPKcb6QFlagsINS_6ButtonEE@Base 4:4.3.4
 _ZN12KEditListBoxC2ERK7QStringP7QWidget@Base 4:4.3.4
 _ZN12KEditListBoxC2ERK7QStringP7QWidgetPKcb6QFlagsINS_6ButtonEE@Base 4:4.3.4
 _ZN12KEditListBoxC2ERK7QStringRKNS_12CustomEditorEP7QWidgetPKcb6QFlagsINS_6ButtonEE@Base 4:4.3.4
 _ZN12KEditListBoxD0Ev@Base 4:4.3.4
 _ZN12KEditListBoxD1Ev@Base 4:4.3.4
 _ZN12KEditListBoxD2Ev@Base 4:4.3.4
 _ZN12KEditToolBar11qt_metacallEN11QMetaObject4CallEiPPv@Base 4:4.3.4
 _ZN12KEditToolBar11qt_metacastEPKc@Base 4:4.3.4
 _ZN12KEditToolBar15setResourceFileERK7QStringb@Base 4:4.3.4
 _ZN12KEditToolBar16newToolBarConfigEv@Base 4:4.3.4
 _ZN12KEditToolBar16newToolbarConfigEv@Base 4:4.3.4
 _ZN12KEditToolBar16staticMetaObjectE@Base 4:4.3.4
 _ZN12KEditToolBar17setDefaultToolBarERK7QString@Base 4:4.3.4
 _ZN12KEditToolBar23setGlobalDefaultToolBarEPKc@Base 4:4.3.4
 _ZN12KEditToolBar9hideEventEP10QHideEvent@Base 4:4.3.4
 _ZN12KEditToolBar9showEventEP10QShowEvent@Base 4:4.3.4
 _ZN12KEditToolBarC1EP14KXMLGUIFactoryP7QWidget@Base 4:4.3.4
 _ZN12KEditToolBarC1EP17KActionCollectionP7QWidget@Base 4:4.3.4
 _ZN12KEditToolBarC2EP14KXMLGUIFactoryP7QWidget@Base 4:4.3.4
 _ZN12KEditToolBarC2EP17KActionCollectionP7QWidget@Base 4:4.3.4
 _ZN12KEditToolBarD0Ev@Base 4:4.3.4
 _ZN12KEditToolBarD1Ev@Base 4:4.3.4
 _ZN12KEditToolBarD2Ev@Base 4:4.3.4
 _ZN12KFontChooser11getFontListER11QStringListj@Base 4:4.3.4
 _ZN12KFontChooser11qt_metacallEN11QMetaObject4CallEiPPv@Base 4:4.3.4
 _ZN12KFontChooser11qt_metacastEPKc@Base 4:4.3.4
 _ZN12KFontChooser12enableColumnEib@Base 4:4.3.4
 _ZN12KFontChooser12fontSelectedERK5QFont@Base 4:4.3.4
 _ZN12KFontChooser13setSampleTextERK7QString@Base 4:4.3.4
 _ZN12KFontChooser16staticMetaObjectE@Base 4:4.3.4
 _ZN12KFontChooser17setSizeIsRelativeEN2Qt10CheckStateE@Base 4:4.3.4
 _ZN12KFontChooser18setBackgroundColorERK6QColor@Base 4:4.3.4
 _ZN12KFontChooser19setSampleBoxVisibleEb@Base 4:4.3.4
 _ZN12KFontChooser7Private12fillSizeListERK5QListIdE@Base 4:4.4.3
 _ZN12KFontChooser7Private12setupDisplayEv@Base 4:4.3.4
 _ZN12KFontChooser7Private14nearestSizeRowEdb@Base 4:4.4.3
 _ZN12KFontChooser7Private15_k_showXLFDAreaEb@Base 4:4.3.4
 _ZN12KFontChooser7Private16_k_displaySampleERK5QFont@Base 4:4.3.4
 _ZN12KFontChooser7Private16setupSizeListBoxERK7QStringS3_@Base 4:4.3.4
 _ZN12KFontChooser7Private17fillFamilyListBoxEb@Base 4:4.3.4
 _ZN12KFontChooser7Private17setFamilyBoxItemsERK11QStringList@Base 4:4.3.4
 _ZN12KFontChooser7Private18_k_size_value_slotEd@Base 4:4.4.0
 _ZN12KFontChooser7Private19_k_size_chosen_slotERK7QString@Base 4:4.3.4
 _ZN12KFontChooser7Private19_k_toggled_checkboxEv@Base 4:4.3.4
 _ZN12KFontChooser7Private20_k_style_chosen_slotERK7QString@Base 4:4.3.4
 _ZN12KFontChooser7Private21_k_family_chosen_slotERK7QString@Base 4:4.3.4
 _ZN12KFontChooser7setFontERK5QFontb@Base 4:4.3.4
 _ZN12KFontChooser8setColorERK6QColor@Base 4:4.3.4
 _ZN12KFontChooserC1EP7QWidgetRK6QFlagsINS_11DisplayFlagEERK11QStringListiPN2Qt10CheckStateE@Base 4:4.3.4
 _ZN12KFontChooserC2EP7QWidgetRK6QFlagsINS_11DisplayFlagEERK11QStringListiPN2Qt10CheckStateE@Base 4:4.3.4
 _ZN12KFontChooserD0Ev@Base 4:4.3.4
 _ZN12KFontChooserD1Ev@Base 4:4.3.4
 _ZN12KFontChooserD2Ev@Base 4:4.3.4
 _ZN12KGlobalAccel10setEnabledEb@Base 4:4.3.4
 _ZN12KGlobalAccel11qt_metacallEN11QMetaObject4CallEiPPv@Base 4:4.3.4
 _ZN12KGlobalAccel11qt_metacastEPKc@Base 4:4.3.4
 _ZN12KGlobalAccel12getComponentERK7QString@Base 4:4.4.95
 _ZN12KGlobalAccel14cleanComponentERK7QString@Base 4:4.3.4
 _ZN12KGlobalAccel16staticMetaObjectE@Base 4:4.3.4
 _ZN12KGlobalAccel17allMainComponentsEv@Base 4:4.3.4
 _ZN12KGlobalAccel17isComponentActiveERK7QString@Base 4:4.3.4
 _ZN12KGlobalAccel22allActionsForComponentERK11QStringList@Base 4:4.3.4
 _ZN12KGlobalAccel23getGlobalShortcutsByKeyERK12QKeySequence@Base 4:4.3.4
 _ZN12KGlobalAccel23stealShortcutSystemwideERK12QKeySequence@Base 4:4.3.4
 _ZN12KGlobalAccel24findActionNameSystemwideERK12QKeySequence@Base 4:4.3.4
 _ZN12KGlobalAccel25isGlobalShortcutAvailableERK12QKeySequenceRK7QString@Base 4:4.3.4
 _ZN12KGlobalAccel25overrideMainComponentDataERK14KComponentData@Base 4:4.3.4
 _ZN12KGlobalAccel29activateGlobalShortcutContextERK7QStringS2_RK14KComponentData@Base 4:4.3.4
 _ZN12KGlobalAccel29promptStealShortcutSystemwideEP7QWidgetRK11QStringListRK12QKeySequence@Base 4:4.3.4
 _ZN12KGlobalAccel29promptStealShortcutSystemwideEP7QWidgetRK5QListI19KGlobalShortcutInfoERK12QKeySequence@Base 4:4.3.4
 _ZN12KGlobalAccel4selfEv@Base 4:4.3.4
 _ZN12KGlobalAccelC1Ev@Base 4:4.3.4
 _ZN12KGlobalAccelC2Ev@Base 4:4.3.4
 _ZN12KGlobalAccelD0Ev@Base 4:4.3.4
 _ZN12KGlobalAccelD1Ev@Base 4:4.3.4
 _ZN12KGlobalAccelD2Ev@Base 4:4.3.4
 _ZN12KInputDialog10getIntegerERK7QStringS2_iiiiPbP7QWidget@Base 4:4.3.4
 _ZN12KInputDialog10getIntegerERK7QStringS2_iiiiiPbP7QWidget@Base 4:4.3.4
 _ZN12KInputDialog11getItemListERK7QStringS2_RK11QStringListS5_bPbP7QWidget@Base 4:4.3.4
 _ZN12KInputDialog16getMultiLineTextERK7QStringS2_S2_PbP7QWidget@Base 4:4.3.4
 _ZN12KInputDialog7getItemERK7QStringS2_RK11QStringListibPbP7QWidget@Base 4:4.3.4
 _ZN12KInputDialog7getTextERK7QStringS2_S2_PbP7QWidgetP10QValidatorS2_S2_RK11QStringList@Base 4:4.3.4
 _ZN12KInputDialog9getDoubleERK7QStringS2_ddddiPbP7QWidget@Base 4:4.3.4
 _ZN12KInputDialog9getDoubleERK7QStringS2_dddiPbP7QWidget@Base 4:4.3.4
 _ZN12KIntNumInput10setMaximumEi@Base 4:4.3.4
 _ZN12KIntNumInput10setMinimumEi@Base 4:4.3.4
 _ZN12KIntNumInput11qt_metacallEN11QMetaObject4CallEiPPv@Base 4:4.3.4
 _ZN12KIntNumInput11qt_metacastEPKc@Base 4:4.3.4
 _ZN12KIntNumInput11resizeEventEP12QResizeEvent@Base 4:4.3.4
 _ZN12KIntNumInput12setEditFocusEb@Base 4:4.3.4
 _ZN12KIntNumInput12valueChangedEi@Base 4:4.3.4
 _ZN12KIntNumInput13setSingleStepEi@Base 4:4.3.4
 _ZN12KIntNumInput16setRelativeValueEd@Base 4:4.3.4
 _ZN12KIntNumInput16setSliderEnabledEb@Base 4:4.3.4
 _ZN12KIntNumInput16spinValueChangedEi@Base 4:4.3.4
 _ZN12KIntNumInput16staticMetaObjectE@Base 4:4.3.4
 _ZN12KIntNumInput17setReferencePointEi@Base 4:4.3.4
 _ZN12KIntNumInput19setSpecialValueTextERK7QString@Base 4:4.3.4
 _ZN12KIntNumInput20relativeValueChangedEd@Base 4:4.3.4
 _ZN12KIntNumInput28slotEmitRelativeValueChangedEi@Base 4:4.3.4
 _ZN12KIntNumInput4initEii@Base 4:4.3.4
 _ZN12KIntNumInput8doLayoutEv@Base 4:4.3.4
 _ZN12KIntNumInput8setLabelERK7QString6QFlagsIN2Qt13AlignmentFlagEE@Base 4:4.3.4
 _ZN12KIntNumInput8setRangeEiii@Base 4:4.3.4
 _ZN12KIntNumInput8setRangeEiiib@Base 4:4.3.4
 _ZN12KIntNumInput8setValueEi@Base 4:4.3.4
 _ZN12KIntNumInput9setPrefixERK7QString@Base 4:4.3.4
 _ZN12KIntNumInput9setSuffixERK16KLocalizedString@Base 4:4.3.4
 _ZN12KIntNumInput9setSuffixERK7QString@Base 4:4.3.4
 _ZN12KIntNumInputC1EP7QWidget@Base 4:4.3.4
 _ZN12KIntNumInputC1EP9KNumInputiP7QWidgeti@Base 4:4.3.4
 _ZN12KIntNumInputC1EiP7QWidgeti@Base 4:4.3.4
 _ZN12KIntNumInputC2EP7QWidget@Base 4:4.3.4
 _ZN12KIntNumInputC2EP9KNumInputiP7QWidgeti@Base 4:4.3.4
 _ZN12KIntNumInputC2EiP7QWidgeti@Base 4:4.3.4
 _ZN12KIntNumInputD0Ev@Base 4:4.3.4
 _ZN12KIntNumInputD1Ev@Base 4:4.3.4
 _ZN12KIntNumInputD2Ev@Base 4:4.3.4
 _ZN12KMultiTabBar10fontChangeERK5QFont@Base 4:4.3.4
 _ZN12KMultiTabBar11qt_metacallEN11QMetaObject4CallEiPPv@Base 4:4.3.4
 _ZN12KMultiTabBar11qt_metacastEPKc@Base 4:4.3.4
 _ZN12KMultiTabBar11setPositionENS_20KMultiTabBarPositionE@Base 4:4.3.4
 _ZN12KMultiTabBar12appendButtonERK7QPixmapiP5QMenuRK7QString@Base 4:4.3.4
 _ZN12KMultiTabBar12removeButtonEi@Base 4:4.3.4
 _ZN12KMultiTabBar15updateSeparatorEv@Base 4:4.3.4
 _ZN12KMultiTabBar16staticMetaObjectE@Base 4:4.3.4
 _ZN12KMultiTabBar6setTabEib@Base 4:4.3.4
 _ZN12KMultiTabBar8setStyleENS_17KMultiTabBarStyleE@Base 4:4.3.4
 _ZN12KMultiTabBar9appendTabERK7QPixmapiRK7QString@Base 4:4.3.4
 _ZN12KMultiTabBar9removeTabEi@Base 4:4.3.4
 _ZN12KMultiTabBarC1ENS_20KMultiTabBarPositionEP7QWidget@Base 4:4.3.4
 _ZN12KMultiTabBarC2ENS_20KMultiTabBarPositionEP7QWidget@Base 4:4.3.4
 _ZN12KMultiTabBarD0Ev@Base 4:4.3.4
 _ZN12KMultiTabBarD1Ev@Base 4:4.3.4
 _ZN12KMultiTabBarD2Ev@Base 4:4.3.4
 _ZN12KPixmapCache11deleteCacheERK7QString@Base 4:4.3.4
 _ZN12KPixmapCache11loadFromSvgERK7QStringRK5QSize@Base 4:4.3.4
 _ZN12KPixmapCache12loadFromFileERK7QString@Base 4:4.3.4
 _ZN12KPixmapCache12setTimestampEj@Base 4:4.3.4
 _ZN12KPixmapCache13removeEntriesEi@Base 4:4.3.4
 _ZN12KPixmapCache13setCacheLimitEi@Base 4:4.3.4
 _ZN12KPixmapCache14loadCustomDataER11QDataStream@Base 4:4.3.4
 _ZN12KPixmapCache15writeCustomDataER11QDataStream@Base 4:4.3.4
 _ZN12KPixmapCache18recreateCacheFilesEv@Base 4:4.3.4
 _ZN12KPixmapCache18setUseQPixmapCacheEb@Base 4:4.3.4
 _ZN12KPixmapCache21loadCustomIndexHeaderER11QDataStream@Base 4:4.3.4
 _ZN12KPixmapCache22setRemoveEntryStrategyENS_14RemoveStrategyE@Base 4:4.3.4
 _ZN12KPixmapCache22writeCustomIndexHeaderER11QDataStream@Base 4:4.3.4
 _ZN12KPixmapCache4findERK7QStringR7QPixmap@Base 4:4.3.4
 _ZN12KPixmapCache6insertERK7QStringRK7QPixmap@Base 4:4.3.4
 _ZN12KPixmapCache7Private10dataDeviceEv@Base 4:4.3.4
 _ZN12KPixmapCache7Private10findOffsetERK7QString@Base 4:4.3.4
 _ZN12KPixmapCache7Private10unmmapFileEPNS0_8MmapInfoE@Base 4:4.3.4
 _ZN12KPixmapCache7Private10writeIndexERK7QStringi@Base 4:4.3.4
 _ZN12KPixmapCache7Private11indexDeviceEv@Base 4:4.3.4
 _ZN12KPixmapCache7Private11unmmapFilesEv@Base 4:4.3.4
 _ZN12KPixmapCache7Private13checkLockFileEv@Base 4:4.3.4
 _ZN12KPixmapCache7Private13removeEntriesEi@Base 4:4.3.4
 _ZN12KPixmapCache7Private14loadDataHeaderEv@Base 4:4.3.4
 _ZN12KPixmapCache7Private15binarySearchKeyER11QDataStreamRK7QStringi@Base 4:4.3.4
 _ZN12KPixmapCache7Private15loadIndexHeaderEv@Base 4:4.3.4
 _ZN12KPixmapCache7Private15writeIndexEntryER11QDataStreamRK7QStringi@Base 4:4.3.4
 _ZN12KPixmapCache7Private16checkFileVersionERK7QString@Base 4:4.3.4
 _ZN12KPixmapCache7Private19invalidateMmapFilesEv@Base 4:4.3.4
 _ZN12KPixmapCache7Private4initEv@Base 4:4.3.4
 _ZN12KPixmapCache7Private7mCachesE@Base 4:4.3.4
 _ZN12KPixmapCache7Private8indexKeyERK7QString@Base 4:4.3.4
 _ZN12KPixmapCache7Private8loadDataEiR7QPixmap@Base 4:4.3.4
 _ZN12KPixmapCache7Private8mmapFileERK7QStringPNS0_8MmapInfoEi@Base 4:4.3.4
 _ZN12KPixmapCache7Private9kpcNumberE@Base 4:4.4.0
 _ZN12KPixmapCache7Private9mmapFilesEv@Base 4:4.3.4
 _ZN12KPixmapCache7Private9writeDataERK7QStringRK7QPixmap@Base 4:4.3.4
 _ZN12KPixmapCache7PrivateC1EPS_@Base 4:4.3.4
 _ZN12KPixmapCache7PrivateC2EPS_@Base 4:4.3.4
 _ZN12KPixmapCache7PrivateD1Ev@Base 4:4.3.4
 _ZN12KPixmapCache7PrivateD2Ev@Base 4:4.3.4
 _ZN12KPixmapCache7discardEv@Base 4:4.3.4
 _ZN12KPixmapCache8setValidEb@Base 4:4.3.4
 _ZN12KPixmapCacheC1ERK7QString@Base 4:4.3.4
 _ZN12KPixmapCacheC2ERK7QString@Base 4:4.3.4
 _ZN12KPixmapCacheD0Ev@Base 4:4.3.4
 _ZN12KPixmapCacheD1Ev@Base 4:4.3.4
 _ZN12KPixmapCacheD2Ev@Base 4:4.3.4
 _ZN12KStartupInfo10appStartedERK10QByteArray@Base 4:4.3.4
 _ZN12KStartupInfo10appStartedEv@Base 4:4.3.4
 _ZN12KStartupInfo10sendChangeERK14KStartupInfoIdRK16KStartupInfoData@Base 4:4.3.4
 _ZN12KStartupInfo10sendFinishERK14KStartupInfoId@Base 4:4.3.4
 _ZN12KStartupInfo10sendFinishERK14KStartupInfoIdRK16KStartupInfoData@Base 4:4.3.4
 _ZN12KStartupInfo10setTimeoutEj@Base 4:4.3.4
 _ZN12KStartupInfo11customEventEP6QEvent@Base 4:4.3.4
 _ZN12KStartupInfo11qt_metacallEN11QMetaObject4CallEiPPv@Base 4:4.3.4
 _ZN12KStartupInfo11qt_metacastEPKc@Base 4:4.3.4
 _ZN12KStartupInfo11sendChangeXEP9_XDisplayRK14KStartupInfoIdRK16KStartupInfoData@Base 4:4.3.4
 _ZN12KStartupInfo11sendFinishXEP9_XDisplayRK14KStartupInfoId@Base 4:4.3.4
 _ZN12KStartupInfo11sendFinishXEP9_XDisplayRK14KStartupInfoIdRK16KStartupInfoData@Base 4:4.3.4
 _ZN12KStartupInfo11sendStartupERK14KStartupInfoIdRK16KStartupInfoData@Base 4:4.3.4
 _ZN12KStartupInfo12checkStartupEm@Base 4:4.3.4
 _ZN12KStartupInfo12checkStartupEmR14KStartupInfoId@Base 4:4.3.4
 _ZN12KStartupInfo12checkStartupEmR14KStartupInfoIdR16KStartupInfoData@Base 4:4.3.4
 _ZN12KStartupInfo12checkStartupEmR16KStartupInfoData@Base 4:4.3.4
 _ZN12KStartupInfo12sendStartupXEP9_XDisplayRK14KStartupInfoIdRK16KStartupInfoData@Base 4:4.3.4
 _ZN12KStartupInfo13gotNewStartupERK14KStartupInfoIdRK16KStartupInfoData@Base 4:4.3.4
 _ZN12KStartupInfo14silenceStartupEb@Base 4:4.3.4
 _ZN12KStartupInfo15resetStartupEnvEv@Base 4:4.3.4
 _ZN12KStartupInfo15setNewStartupIdEP7QWidgetRK10QByteArray@Base 4:4.3.4
 _ZN12KStartupInfo15windowStartupIdEm@Base 4:4.3.4
 _ZN12KStartupInfo16gotRemoveStartupERK14KStartupInfoIdRK16KStartupInfoData@Base 4:4.3.4
 _ZN12KStartupInfo16gotStartupChangeERK14KStartupInfoIdRK16KStartupInfoData@Base 4:4.3.4
 _ZN12KStartupInfo16staticMetaObjectE@Base 4:4.3.4
 _ZN12KStartupInfo18createNewStartupIdEv@Base 4:4.3.4
 _ZN12KStartupInfo18setWindowStartupIdEmRK10QByteArray@Base 4:4.3.4
 _ZN12KStartupInfo19currentStartupIdEnvEv@Base 4:4.3.4
 _ZN12KStartupInfo27handleAutoAppStartedSendingEv@Base 4:4.3.4
 _ZN12KStartupInfo28disableAutoAppStartedSendingEb@Base 4:4.3.4
 _ZN12KStartupInfo7Private11find_wclassERK10QByteArrayS3_P14KStartupInfoIdP16KStartupInfoData@Base 4:4.3.4
 _ZN12KStartupInfo7Private11got_messageERK7QString@Base 4:4.3.4
 _ZN12KStartupInfo7Private12window_addedEm@Base 4:4.3.4
 _ZN12KStartupInfo7Private16got_startup_infoERK7QStringb@Base 4:4.3.4
 _ZN12KStartupInfo7Private16startups_cleanupEv@Base 4:4.3.4
 _ZN12KStartupInfo7Private17slot_window_addedEm@Base 4:4.3.4
 _ZN12KStartupInfo7Private19get_window_hostnameEm@Base 4:4.3.4
 _ZN12KStartupInfo7Private19remove_startup_pidsERK14KStartupInfoIdRK16KStartupInfoData@Base 4:4.3.4
 _ZN12KStartupInfo7Private19remove_startup_pidsERK16KStartupInfoData@Base 4:4.3.4
 _ZN12KStartupInfo7Private22check_startup_internalEmP14KStartupInfoIdP16KStartupInfoData@Base 4:4.3.4
 _ZN12KStartupInfo7Private22clean_all_noncompliantEv@Base 4:4.3.4
 _ZN12KStartupInfo7Private23got_remove_startup_infoERK7QString@Base 4:4.3.4
 _ZN12KStartupInfo7Private23startups_cleanup_no_ageEv@Base 4:4.3.4
 _ZN12KStartupInfo7Private25new_startup_info_internalERK14KStartupInfoIdRNS_4DataEb@Base 4:4.3.4
 _ZN12KStartupInfo7Private25startups_cleanup_internalEb@Base 4:4.3.4
 _ZN12KStartupInfo7Private28remove_startup_info_internalERK14KStartupInfoId@Base 4:4.3.4
 _ZN12KStartupInfo7Private29check_required_startup_fieldsERK7QStringRK16KStartupInfoDatai@Base 4:4.3.4
 _ZN12KStartupInfo7Private7find_idERK10QByteArrayP14KStartupInfoIdP16KStartupInfoData@Base 4:4.3.4
 _ZN12KStartupInfo7Private8find_pidEiRK10QByteArrayP14KStartupInfoIdP16KStartupInfoData@Base 4:4.3.4
 _ZN12KStartupInfoC1EbP7QObject@Base 4:4.3.4
 _ZN12KStartupInfoC1EiP7QObject@Base 4:4.3.4
 _ZN12KStartupInfoC2EbP7QObject@Base 4:4.3.4
 _ZN12KStartupInfoC2EiP7QObject@Base 4:4.3.4
 _ZN12KStartupInfoD0Ev@Base 4:4.3.4
 _ZN12KStartupInfoD1Ev@Base 4:4.3.4
 _ZN12KStartupInfoD2Ev@Base 4:4.3.4
 _ZN12KSvgRenderer11qt_metacallEN11QMetaObject4CallEiPPv@Base 4:4.3.4
 _ZN12KSvgRenderer11qt_metacastEPKc@Base 4:4.3.4
 _ZN12KSvgRenderer16staticMetaObjectE@Base 4:4.3.4
 _ZN12KSvgRenderer4loadERK10QByteArray@Base 4:4.3.4
 _ZN12KSvgRenderer4loadERK7QString@Base 4:4.3.4
 _ZN12KSvgRendererC1EP7QObject@Base 4:4.3.4
 _ZN12KSvgRendererC1ERK10QByteArrayP7QObject@Base 4:4.3.4
 _ZN12KSvgRendererC1ERK7QStringP7QObject@Base 4:4.3.4
 _ZN12KSvgRendererC2EP7QObject@Base 4:4.3.4
 _ZN12KSvgRendererC2ERK10QByteArrayP7QObject@Base 4:4.3.4
 _ZN12KSvgRendererC2ERK7QStringP7QObject@Base 4:4.3.4
 _ZN12KSvgRendererD0Ev@Base 4:4.7.2
 _ZN12KSvgRendererD1Ev@Base 4:4.7.2
 _ZN12KSvgRendererD2Ev@Base 4:4.7.2
 _ZN12KTextBrowser10wheelEventEP11QWheelEvent@Base 4:4.3.4
 _ZN12KTextBrowser11qt_metacallEN11QMetaObject4CallEiPPv@Base 4:4.3.4
 _ZN12KTextBrowser11qt_metacastEPKc@Base 4:4.3.4
 _ZN12KTextBrowser13keyPressEventEP9QKeyEvent@Base 4:4.3.4
 _ZN12KTextBrowser14setNotifyClickEb@Base 4:4.3.4
 _ZN12KTextBrowser16contextMenuEventEP17QContextMenuEvent@Base 4:4.3.4
 _ZN12KTextBrowser16staticMetaObjectE@Base 4:4.3.4
 _ZN12KTextBrowser8urlClickERK7QString@Base 4:4.3.4
 _ZN12KTextBrowser9mailClickERK7QStringS2_@Base 4:4.3.4
 _ZN12KTextBrowser9setSourceERK4QUrl@Base 4:4.3.4
 _ZN12KTextBrowserC1EP7QWidgetb@Base 4:4.3.4
 _ZN12KTextBrowserC2EP7QWidgetb@Base 4:4.3.4
 _ZN12KTextBrowserD0Ev@Base 4:4.3.4
 _ZN12KTextBrowserD1Ev@Base 4:4.3.4
 _ZN12KTextBrowserD2Ev@Base 4:4.3.4
 _ZN12KTipDatabase7Private7addTipsERK7QString@Base 4:4.3.4
 _ZN12KTipDatabase7Private8loadTipsERK7QString@Base 4:4.3.4
 _ZN12KTipDatabase7nextTipEv@Base 4:4.3.4
 _ZN12KTipDatabase7prevTipEv@Base 4:4.3.4
 _ZN12KTipDatabaseC1ERK11QStringList@Base 4:4.3.4
 _ZN12KTipDatabaseC1ERK7QString@Base 4:4.3.4
 _ZN12KTipDatabaseC2ERK11QStringList@Base 4:4.3.4
 _ZN12KTipDatabaseC2ERK7QString@Base 4:4.3.4
 _ZN12KTipDatabaseD1Ev@Base 4:4.3.4
 _ZN12KTipDatabaseD2Ev@Base 4:4.3.4
 _ZN12KTitleWidget10setCommentERK7QStringNS_11MessageTypeE@Base 4:4.3.4
 _ZN12KTitleWidget11changeEventEP6QEvent@Base 4:4.3.4
 _ZN12KTitleWidget11eventFilterEP7QObjectP6QEvent@Base 4:4.3.4
 _ZN12KTitleWidget11qt_metacallEN11QMetaObject4CallEiPPv@Base 4:4.3.4
 _ZN12KTitleWidget11qt_metacastEPKc@Base 4:4.3.4
 _ZN12KTitleWidget16staticMetaObjectE@Base 4:4.3.4
 _ZN12KTitleWidget18setAutoHideTimeoutEi@Base 4:4.3.4
 _ZN12KTitleWidget7Private18iconTypeToIconNameENS_11MessageTypeE@Base 4:4.3.4
 _ZN12KTitleWidget7setTextERK7QString6QFlagsIN2Qt13AlignmentFlagEE@Base 4:4.3.4
 _ZN12KTitleWidget7setTextERK7QStringNS_11MessageTypeE@Base 4:4.3.4
 _ZN12KTitleWidget8setBuddyEP7QWidget@Base 4:4.3.4
 _ZN12KTitleWidget9setPixmapENS_11MessageTypeENS_14ImageAlignmentE@Base 4:4.3.4
 _ZN12KTitleWidget9setPixmapERK5QIconNS_14ImageAlignmentE@Base 4:4.3.4
 _ZN12KTitleWidget9setPixmapERK7QPixmapNS_14ImageAlignmentE@Base 4:4.3.4
 _ZN12KTitleWidget9setPixmapERK7QStringNS_14ImageAlignmentE@Base 4:4.3.4
 _ZN12KTitleWidget9setWidgetEP7QWidget@Base 4:4.3.4
 _ZN12KTitleWidget9showEventEP10QShowEvent@Base 4:4.3.4
 _ZN12KTitleWidgetC1EP7QWidget@Base 4:4.3.4
 _ZN12KTitleWidgetC2EP7QWidget@Base 4:4.3.4
 _ZN12KTitleWidgetD0Ev@Base 4:4.3.4
 _ZN12KTitleWidgetD1Ev@Base 4:4.3.4
 _ZN12KTitleWidgetD2Ev@Base 4:4.3.4
 _ZN13KCompTreeNode5allocE@Base 4:4.3.4
 _ZN13KCompTreeNode6insertERK5QCharb@Base 4:4.3.4
 _ZN13KCompTreeNode6removeERK7QString@Base 4:4.3.4
 _ZN13KCompTreeNodeD1Ev@Base 4:4.3.4
 _ZN13KCompTreeNodeD2Ev@Base 4:4.3.4
 _ZN13KConfigDialog10hasChangedEv@Base 4:4.3.4
 _ZN13KConfigDialog10showDialogERK7QString@Base 4:4.3.4
 _ZN13KConfigDialog11qt_metacallEN11QMetaObject4CallEiPPv@Base 4:4.3.4
 _ZN13KConfigDialog11qt_metacastEPKc@Base 4:4.3.4
 _ZN13KConfigDialog13onPageRemovedEP15KPageWidgetItem@Base 4:4.3.4
 _ZN13KConfigDialog13updateButtonsEv@Base 4:4.3.4
 _ZN13KConfigDialog13updateWidgetsEv@Base 4:4.3.4
 _ZN13KConfigDialog14updateSettingsEv@Base 4:4.3.4
 _ZN13KConfigDialog14widgetModifiedEv@Base 4:4.3.4
 _ZN13KConfigDialog15settingsChangedERK7QString@Base 4:4.3.4
 _ZN13KConfigDialog16staticMetaObjectE@Base 4:4.3.4
 _ZN13KConfigDialog19settingsChangedSlotEv@Base 4:4.3.4
 _ZN13KConfigDialog20KConfigDialogPrivate11openDialogsE@Base 4:4.3.4
 _ZN13KConfigDialog20KConfigDialogPrivate15addPageInternalEP7QWidgetRK7QStringS5_S5_@Base 4:4.3.4
 _ZN13KConfigDialog20KConfigDialogPrivate16_k_updateButtonsEv@Base 4:4.3.4
 _ZN13KConfigDialog20KConfigDialogPrivate22_k_settingsChangedSlotEv@Base 4:4.3.4
 _ZN13KConfigDialog20KConfigDialogPrivate23setupManagerConnectionsEP20KConfigDialogManager@Base 4:4.3.4
 _ZN13KConfigDialog20updateWidgetsDefaultEv@Base 4:4.3.4
 _ZN13KConfigDialog6existsERK7QString@Base 4:4.3.4
 _ZN13KConfigDialog7addPageEP7QWidgetP15KConfigSkeletonRK7QStringS6_S6_@Base 4:4.3.4
 _ZN13KConfigDialog7addPageEP7QWidgetRK7QStringS4_S4_b@Base 4:4.3.4
 _ZN13KConfigDialog9isDefaultEv@Base 4:4.3.4
 _ZN13KConfigDialog9showEventEP10QShowEvent@Base 4:4.3.4
 _ZN13KConfigDialogC1EP7QWidgetRK7QStringP15KConfigSkeleton@Base 4:4.3.4
 _ZN13KConfigDialogC1EP7QWidgetRK7QStringP19KCoreConfigSkeleton@Base 4:4.8.1
 _ZN13KConfigDialogC2EP7QWidgetRK7QStringP15KConfigSkeleton@Base 4:4.3.4
 _ZN13KConfigDialogC2EP7QWidgetRK7QStringP19KCoreConfigSkeleton@Base 4:4.8.1
 _ZN13KConfigDialogD0Ev@Base 4:4.3.4
 _ZN13KConfigDialogD1Ev@Base 4:4.3.4
 _ZN13KConfigDialogD2Ev@Base 4:4.3.4
 _ZN13KDateComboBox10assignDateERK5QDate@Base 4:4.7.0
 _ZN13KDateComboBox10dateEditedERK5QDate@Base 4:4.7.0
 _ZN13KDateComboBox10setDateMapE4QMapI5QDate7QStringE@Base 4:4.7.0
 _ZN13KDateComboBox10setOptionsE6QFlagsINS_6OptionEE@Base 4:4.7.0
 _ZN13KDateComboBox10wheelEventEP11QWheelEvent@Base 4:4.7.0
 _ZN13KDateComboBox11dateChangedERK5QDate@Base 4:4.7.0
 _ZN13KDateComboBox11dateEnteredERK5QDate@Base 4:4.7.0
 _ZN13KDateComboBox11eventFilterEP7QObjectP6QEvent@Base 4:4.7.0
 _ZN13KDateComboBox11qt_metacallEN11QMetaObject4CallEiPPv@Base 4:4.7.0
 _ZN13KDateComboBox11qt_metacastEPKc@Base 4:4.7.0
 _ZN13KDateComboBox11resizeEventEP12QResizeEvent@Base 4:4.7.0
 _ZN13KDateComboBox11setCalendarEP15KCalendarSystem@Base 4:4.7.0
 _ZN13KDateComboBox12focusInEventEP11QFocusEvent@Base 4:4.7.0
 _ZN13KDateComboBox12setDateRangeERK5QDateS2_RK7QStringS5_@Base 4:4.7.0
 _ZN13KDateComboBox13focusOutEventEP11QFocusEvent@Base 4:4.7.0
 _ZN13KDateComboBox13keyPressEventEP9QKeyEvent@Base 4:4.7.0
 _ZN13KDateComboBox14resetDateRangeEv@Base 4:4.7.0
 _ZN13KDateComboBox14setMaximumDateERK5QDateRK7QString@Base 4:4.7.0
 _ZN13KDateComboBox14setMinimumDateERK5QDateRK7QString@Base 4:4.7.0
 _ZN13KDateComboBox15mousePressEventEP11QMouseEvent@Base 4:4.7.0
 _ZN13KDateComboBox16resetMaximumDateEv@Base 4:4.7.0
 _ZN13KDateComboBox16resetMinimumDateEv@Base 4:4.7.0
 _ZN13KDateComboBox16setDisplayFormatEN7KLocale10DateFormatE@Base 4:4.7.0
 _ZN13KDateComboBox16staticMetaObjectE@Base 4:4.7.0
 _ZN13KDateComboBox17setCalendarSystemEN7KLocale14CalendarSystemE@Base 4:4.7.0
 _ZN13KDateComboBox20assignCalendarSystemEN7KLocale14CalendarSystemE@Base 4:4.7.0
 _ZN13KDateComboBox7setDateERK5QDate@Base 4:4.7.0
 _ZN13KDateComboBox9hidePopupEv@Base 4:4.7.0
 _ZN13KDateComboBox9showPopupEv@Base 4:4.7.0
 _ZN13KDateComboBoxC1EP7QWidget@Base 4:4.7.0
 _ZN13KDateComboBoxC2EP7QWidget@Base 4:4.7.0
 _ZN13KDateComboBoxD0Ev@Base 4:4.7.0
 _ZN13KDateComboBoxD1Ev@Base 4:4.7.0
 _ZN13KDateComboBoxD2Ev@Base 4:4.7.0
 _ZN13KDateTimeEdit10assignDateERK5QDate@Base 4:4.7.0
 _ZN13KDateTimeEdit10assignTimeERK5QTime@Base 4:4.7.0
 _ZN13KDateTimeEdit10dateEditedERK5QDate@Base 4:4.7.0
 _ZN13KDateTimeEdit10setDateMapE4QMapI5QDate7QStringE@Base 4:4.7.0
 _ZN13KDateTimeEdit10setOptionsE6QFlagsINS_6OptionEE@Base 4:4.7.0
 _ZN13KDateTimeEdit10timeEditedERK5QTime@Base 4:4.7.0
 _ZN13KDateTimeEdit11dateChangedERK5QDate@Base 4:4.7.0
 _ZN13KDateTimeEdit11dateEnteredERK5QDate@Base 4:4.7.0
 _ZN13KDateTimeEdit11eventFilterEP7QObjectP6QEvent@Base 4:4.7.0
 _ZN13KDateTimeEdit11qt_metacallEN11QMetaObject4CallEiPPv@Base 4:4.7.0
 _ZN13KDateTimeEdit11qt_metacastEPKc@Base 4:4.7.0
 _ZN13KDateTimeEdit11resizeEventEP12QResizeEvent@Base 4:4.7.0
 _ZN13KDateTimeEdit11setCalendarEP15KCalendarSystem@Base 4:4.7.0
 _ZN13KDateTimeEdit11setDateTimeERK9KDateTime@Base 4:4.7.0
 _ZN13KDateTimeEdit11setTimeListE5QListI5QTimeERK7QStringS5_@Base 4:4.7.0
 _ZN13KDateTimeEdit11setTimeSpecERKN9KDateTime4SpecE@Base 4:4.7.0
 _ZN13KDateTimeEdit11timeChangedERK5QTime@Base 4:4.7.0
 _ZN13KDateTimeEdit11timeEnteredERK5QTime@Base 4:4.7.0
 _ZN13KDateTimeEdit12focusInEventEP11QFocusEvent@Base 4:4.7.0
 _ZN13KDateTimeEdit12setTimeZonesERK4QMapI7QString9KTimeZoneE@Base 4:4.7.0
 _ZN13KDateTimeEdit13focusOutEventEP11QFocusEvent@Base 4:4.7.0
 _ZN13KDateTimeEdit14assignDateTimeERK9KDateTime@Base 4:4.7.0
 _ZN13KDateTimeEdit14assignTimeSpecERKN9KDateTime4SpecE@Base 4:4.7.0
 _ZN13KDateTimeEdit14dateTimeEditedERK9KDateTime@Base 4:4.7.0
 _ZN13KDateTimeEdit15calendarChangedEN7KLocale14CalendarSystemE@Base 4:4.7.0
 _ZN13KDateTimeEdit15calendarEnteredEN7KLocale14CalendarSystemE@Base 4:4.7.0
 _ZN13KDateTimeEdit15dateTimeChangedERK9KDateTime@Base 4:4.7.0
 _ZN13KDateTimeEdit15dateTimeEnteredERK9KDateTime@Base 4:4.7.0
 _ZN13KDateTimeEdit15timeSpecChangedERKN9KDateTime4SpecE@Base 4:4.7.0
 _ZN13KDateTimeEdit15timeSpecEnteredERKN9KDateTime4SpecE@Base 4:4.7.0
 _ZN13KDateTimeEdit16setDateTimeRangeERK9KDateTimeS2_RK7QStringS5_@Base 4:4.7.0
 _ZN13KDateTimeEdit16staticMetaObjectE@Base 4:4.7.0
 _ZN13KDateTimeEdit17setCalendarSystemEN7KLocale14CalendarSystemE@Base 4:4.7.0
 _ZN13KDateTimeEdit18resetDateTimeRangeEv@Base 4:4.7.0
 _ZN13KDateTimeEdit18setMaximumDateTimeERK9KDateTimeRK7QString@Base 4:4.7.0
 _ZN13KDateTimeEdit18setMinimumDateTimeERK9KDateTimeRK7QString@Base 4:4.7.0
 _ZN13KDateTimeEdit19setTimeListIntervalEi@Base 4:4.7.0
 _ZN13KDateTimeEdit20assignCalendarSystemEN7KLocale14CalendarSystemE@Base 4:4.7.0
 _ZN13KDateTimeEdit20resetMaximumDateTimeEv@Base 4:4.7.0
 _ZN13KDateTimeEdit20resetMinimumDateTimeEv@Base 4:4.7.0
 _ZN13KDateTimeEdit20setDateDisplayFormatEN7KLocale10DateFormatE@Base 4:4.7.0
 _ZN13KDateTimeEdit20setTimeDisplayFormatE6QFlagsIN7KLocale16TimeFormatOptionEE@Base 4:4.7.0
 _ZN13KDateTimeEdit22setCalendarSystemsListE5QListIN7KLocale14CalendarSystemEE@Base 4:4.7.0
 _ZN13KDateTimeEdit7setDateERK5QDate@Base 4:4.7.0
 _ZN13KDateTimeEdit7setTimeERK5QTime@Base 4:4.7.0
 _ZN13KDateTimeEditC1EP7QWidget@Base 4:4.7.0
 _ZN13KDateTimeEditC2EP7QWidget@Base 4:4.7.0
 _ZN13KDateTimeEditD0Ev@Base 4:4.7.0
 _ZN13KDateTimeEditD1Ev@Base 4:4.7.0
 _ZN13KDateTimeEditD2Ev@Base 4:4.7.0
 _ZN13KFontComboBox11qt_metacallEN11QMetaObject4CallEiPPv@Base 4:4.3.4
 _ZN13KFontComboBox11qt_metacastEPKc@Base 4:4.3.4
 _ZN13KFontComboBox12setOnlyFixedEb@Base 4:4.3.4
 _ZN13KFontComboBox14setCurrentFontERK5QFont@Base 4:4.3.4
 _ZN13KFontComboBox16staticMetaObjectE@Base 4:4.3.4
 _ZN13KFontComboBox18currentFontChangedERK5QFont@Base 4:4.3.4
 _ZN13KFontComboBox5eventEP6QEvent@Base 4:4.3.4
 _ZN13KFontComboBoxC1EP7QWidget@Base 4:4.3.4
 _ZN13KFontComboBoxC2EP7QWidget@Base 4:4.3.4
 _ZN13KFontComboBoxD0Ev@Base 4:4.3.4
 _ZN13KFontComboBoxD1Ev@Base 4:4.3.4
 _ZN13KFontComboBoxD2Ev@Base 4:4.3.4
 _ZN13KIntValidator7setBaseEi@Base 4:4.3.4
 _ZN13KIntValidator8setRangeEii@Base 4:4.3.4
 _ZN13KIntValidatorC1EP7QWidgeti@Base 4:4.3.4
 _ZN13KIntValidatorC1EiiP7QWidgeti@Base 4:4.3.4
 _ZN13KIntValidatorC2EP7QWidgeti@Base 4:4.3.4
 _ZN13KIntValidatorC2EiiP7QWidgeti@Base 4:4.3.4
 _ZN13KIntValidatorD0Ev@Base 4:4.3.4
 _ZN13KIntValidatorD1Ev@Base 4:4.3.4
 _ZN13KIntValidatorD2Ev@Base 4:4.3.4
 _ZN13KNotification10addContextERK5QPairI7QStringS1_E@Base 4:4.3.4
 _ZN13KNotification10addContextERK7QStringS2_@Base 4:4.3.4
 _ZN13KNotification10setActionsERK11QStringList@Base 4:4.3.4
 _ZN13KNotification11eventFilterEP7QObjectP6QEvent@Base 4:4.3.4
 _ZN13KNotification11qt_metacallEN11QMetaObject4CallEiPPv@Base 4:4.3.4
 _ZN13KNotification11qt_metacastEPKc@Base 4:4.3.4
 _ZN13KNotification11raiseWidgetEv@Base 4:4.3.4
 _ZN13KNotification11setContextsERK5QListI5QPairI7QStringS2_EE@Base 4:4.3.4
 _ZN13KNotification14slotReceivedIdEi@Base 4:4.3.4
 _ZN13KNotification16action1ActivatedEv@Base 4:4.3.4
 _ZN13KNotification16action2ActivatedEv@Base 4:4.3.4
 _ZN13KNotification16action3ActivatedEv@Base 4:4.3.4
 _ZN13KNotification16setComponentDataERK14KComponentData@Base 4:4.3.4
 _ZN13KNotification16staticMetaObjectE@Base 4:4.3.4
 _ZN13KNotification19slotReceivedIdErrorERK10QDBusError@Base 4:4.3.4
 _ZN13KNotification3refEv@Base 4:4.3.4
 _ZN13KNotification4beepERK7QStringP7QWidget@Base 4:4.3.4
 _ZN13KNotification5closeEv@Base 4:4.3.4
 _ZN13KNotification5derefEv@Base 4:4.3.4
 _ZN13KNotification5eventENS_13StandardEventERK7QStringRK7QPixmapP7QWidgetRK6QFlagsINS_16NotificationFlagEE@Base 4:4.3.4
 _ZN13KNotification5eventENS_13StandardEventERK7QStringS3_RK7QPixmapP7QWidgetRK6QFlagsINS_16NotificationFlagEE@Base 4:4.4.0
 _ZN13KNotification5eventERK7QStringS2_RK7QPixmapP7QWidgetRK6QFlagsINS_16NotificationFlagEERK14KComponentData@Base 4:4.3.4
 _ZN13KNotification5eventERK7QStringS2_S2_RK7QPixmapP7QWidgetRK6QFlagsINS_16NotificationFlagEERK14KComponentData@Base 4:4.4.0
 _ZN13KNotification6closedEv@Base 4:4.3.4
 _ZN13KNotification6updateEv@Base 4:4.3.4
 _ZN13KNotification7Private11raiseWidgetEP7QWidget@Base 4:4.3.4
 _ZN13KNotification7ignoredEv@Base 4:4.3.4
 _ZN13KNotification7setTextERK7QString@Base 4:4.3.4
 _ZN13KNotification8activateEj@Base 4:4.3.4
 _ZN13KNotification8setFlagsERK6QFlagsINS_16NotificationFlagEE@Base 4:4.3.4
 _ZN13KNotification8setTitleERK7QString@Base 4:4.3.4
 _ZN13KNotification9activatedEj@Base 4:4.3.4
 _ZN13KNotification9activatedEv@Base 4:4.3.4
 _ZN13KNotification9sendEventEv@Base 4:4.3.4
 _ZN13KNotification9setPixmapERK7QPixmap@Base 4:4.3.4
 _ZN13KNotification9setWidgetEP7QWidget@Base 4:4.3.4
 _ZN13KNotificationC1ERK7QStringP7QWidgetRK6QFlagsINS_16NotificationFlagEE@Base 4:4.3.4
 _ZN13KNotificationC1ERK7QStringRK6QFlagsINS_16NotificationFlagEEP7QObject@Base 4:4.4.0
 _ZN13KNotificationC2ERK7QStringP7QWidgetRK6QFlagsINS_16NotificationFlagEE@Base 4:4.3.4
 _ZN13KNotificationC2ERK7QStringRK6QFlagsINS_16NotificationFlagEEP7QObject@Base 4:4.4.0
 _ZN13KNotificationD0Ev@Base 4:4.3.4
 _ZN13KNotificationD1Ev@Base 4:4.3.4
 _ZN13KNotificationD2Ev@Base 4:4.3.4
 _ZN13KPassivePopup10paintEventEP11QPaintEvent@Base 4:4.3.4
 _ZN13KPassivePopup10setTimeoutEi@Base 4:4.3.4
 _ZN13KPassivePopup10setVisibleEb@Base 4:4.3.4
 _ZN13KPassivePopup10updateMaskEv@Base 4:4.3.4
 _ZN13KPassivePopup11qt_metacallEN11QMetaObject4CallEiPPv@Base 4:4.3.4
 _ZN13KPassivePopup11qt_metacastEPKc@Base 4:4.3.4
 _ZN13KPassivePopup12positionSelfEv@Base 4:4.3.4
 _ZN13KPassivePopup12standardViewERK7QStringS2_RK7QPixmapP7QWidget@Base 4:4.3.4
 _ZN13KPassivePopup13setAutoDeleteEb@Base 4:4.3.4
 _ZN13KPassivePopup13setPopupStyleEi@Base 4:4.3.4
 _ZN13KPassivePopup16staticMetaObjectE@Base 4:4.3.4
 _ZN13KPassivePopup17mouseReleaseEventEP11QMouseEvent@Base 4:4.3.4
 _ZN13KPassivePopup20calculateNearbyPointERK5QRect@Base 4:4.3.4
 _ZN13KPassivePopup4initEm@Base 4:4.3.4
 _ZN13KPassivePopup4showERK6QPoint@Base 4:4.3.4
 _ZN13KPassivePopup4showEv@Base 4:4.3.4
 _ZN13KPassivePopup7clickedERK6QPoint@Base 4:4.3.4
 _ZN13KPassivePopup7clickedEv@Base 4:4.3.4
 _ZN13KPassivePopup7messageERK7QStringP15QSystemTrayIcon@Base 4:4.3.4
 _ZN13KPassivePopup7messageERK7QStringP7QWidget@Base 4:4.3.4
 _ZN13KPassivePopup7messageERK7QStringS2_P15QSystemTrayIcon@Base 4:4.3.4
 _ZN13KPassivePopup7messageERK7QStringS2_P7QWidget@Base 4:4.3.4
 _ZN13KPassivePopup7messageERK7QStringS2_RK7QPixmapP15QSystemTrayIconi@Base 4:4.3.4
 _ZN13KPassivePopup7messageERK7QStringS2_RK7QPixmapP7QWidgeti@Base 4:4.3.4
 _ZN13KPassivePopup7messageERK7QStringS2_RK7QPixmapmi@Base 4:4.3.4
 _ZN13KPassivePopup7messageEiRK7QStringP15QSystemTrayIcon@Base 4:4.3.4
 _ZN13KPassivePopup7messageEiRK7QStringP7QWidget@Base 4:4.3.4
 _ZN13KPassivePopup7messageEiRK7QStringS2_P15QSystemTrayIcon@Base 4:4.3.4
 _ZN13KPassivePopup7messageEiRK7QStringS2_P7QWidget@Base 4:4.3.4
 _ZN13KPassivePopup7messageEiRK7QStringS2_RK7QPixmapP15QSystemTrayIconi@Base 4:4.3.4
 _ZN13KPassivePopup7messageEiRK7QStringS2_RK7QPixmapP7QWidgeti@Base 4:4.3.4
 _ZN13KPassivePopup7messageEiRK7QStringS2_RK7QPixmapmi@Base 4:4.3.4
 _ZN13KPassivePopup7setViewEP7QWidget@Base 4:4.3.4
 _ZN13KPassivePopup7setViewERK7QStringS2_@Base 4:4.3.4
 _ZN13KPassivePopup7setViewERK7QStringS2_RK7QPixmap@Base 4:4.3.4
 _ZN13KPassivePopup8moveNearERK5QRect@Base 4:4.3.4
 _ZN13KPassivePopup9hideEventEP10QHideEvent@Base 4:4.3.4
 _ZN13KPassivePopup9setAnchorERK6QPoint@Base 4:4.3.4
 _ZN13KPassivePopupC1EP7QWidget6QFlagsIN2Qt10WindowTypeEE@Base 4:4.3.4
 _ZN13KPassivePopupC1Em@Base 4:4.3.4
 _ZN13KPassivePopupC2EP7QWidget6QFlagsIN2Qt10WindowTypeEE@Base 4:4.3.4
 _ZN13KPassivePopupC2Em@Base 4:4.3.4
 _ZN13KPassivePopupD0Ev@Base 4:4.3.4
 _ZN13KPassivePopupD1Ev@Base 4:4.3.4
 _ZN13KPassivePopupD2Ev@Base 4:4.3.4
 _ZN13KRatingWidget10leaveEventEP6QEvent@Base 4:4.5.85
 _ZN13KRatingWidget10paintEventEP11QPaintEvent@Base 4:4.5.85
 _ZN13KRatingWidget10setSpacingEi@Base 4:4.5.85
 _ZN13KRatingWidget11qt_metacallEN11QMetaObject4CallEiPPv@Base 4:4.5.85
 _ZN13KRatingWidget11qt_metacastEPKc@Base 4:4.5.85
 _ZN13KRatingWidget11resizeEventEP12QResizeEvent@Base 4:4.5.85
 _ZN13KRatingWidget12setAlignmentE6QFlagsIN2Qt13AlignmentFlagEE@Base 4:4.5.85
 _ZN13KRatingWidget12setMaxRatingEi@Base 4:4.5.85
 _ZN13KRatingWidget12setMaxRatingEj@Base 4:4.5.85
 _ZN13KRatingWidget13ratingChangedEi@Base 4:4.5.85
 _ZN13KRatingWidget13ratingChangedEj@Base 4:4.5.85
 _ZN13KRatingWidget13setPixmapSizeEi@Base 4:4.5.85
 _ZN13KRatingWidget14mouseMoveEventEP11QMouseEvent@Base 4:4.5.85
 _ZN13KRatingWidget15mousePressEventEP11QMouseEvent@Base 4:4.5.85
 _ZN13KRatingWidget15setCustomPixmapERK7QPixmap@Base 4:4.5.85
 _ZN13KRatingWidget16staticMetaObjectE@Base 4:4.5.85
 _ZN13KRatingWidget18setLayoutDirectionEN2Qt15LayoutDirectionE@Base 4:4.5.85
 _ZN13KRatingWidget19setHalfStepsEnabledEb@Base 4:4.5.85
 _ZN13KRatingWidget21setOnlyPaintFullStepsEb@Base 4:4.5.85
 _ZN13KRatingWidget7setIconERK5QIcon@Base 4:4.5.85
 _ZN13KRatingWidget9setPixmapERK7QPixmap@Base 4:4.5.85
 _ZN13KRatingWidget9setRatingEi@Base 4:4.5.85
 _ZN13KRatingWidget9setRatingEj@Base 4:4.5.85
 _ZN13KRatingWidgetC1EP7QWidget@Base 4:4.5.85
 _ZN13KRatingWidgetC2EP7QWidget@Base 4:4.5.85
 _ZN13KRatingWidgetD0Ev@Base 4:4.5.85
 _ZN13KRatingWidgetD1Ev@Base 4:4.5.85
 _ZN13KRatingWidgetD2Ev@Base 4:4.5.85
 _ZN13KRichTextEdit10alignRightEv@Base 4:4.3.4
 _ZN13KRichTextEdit10updateLinkERK7QStringS2_@Base 4:4.3.4
 _ZN13KRichTextEdit11alignCenterEv@Base 4:4.3.4
 _ZN13KRichTextEdit11qt_metacallEN11QMetaObject4CallEiPPv@Base 4:4.3.4
 _ZN13KRichTextEdit11qt_metacastEPKc@Base 4:4.3.4
 _ZN13KRichTextEdit11setFontSizeEi@Base 4:4.3.4
 _ZN13KRichTextEdit11setTextBoldEb@Base 4:4.3.4
 _ZN13KRichTextEdit12alignJustifyEv@Base 4:4.3.4
 _ZN13KRichTextEdit12setListStyleEi@Base 4:4.3.4
 _ZN13KRichTextEdit13keyPressEventEP9QKeyEvent@Base 4:4.3.4
 _ZN13KRichTextEdit13setFontFamilyERK7QString@Base 4:4.3.4
 _ZN13KRichTextEdit13setTextItalicEb@Base 4:4.3.4
 _ZN13KRichTextEdit13setTextOrHtmlERK7QString@Base 4:4.3.4
 _ZN13KRichTextEdit14indentListLessEv@Base 4:4.3.4
 _ZN13KRichTextEdit14indentListMoreEv@Base 4:4.3.4
 _ZN13KRichTextEdit15makeLeftToRightEv@Base 4:4.5.85
 _ZN13KRichTextEdit15makeRightToLeftEv@Base 4:4.5.85
 _ZN13KRichTextEdit15textModeChangedENS_4ModeE@Base 4:4.3.4
 _ZN13KRichTextEdit16setTextStrikeOutEb@Base 4:4.3.4
 _ZN13KRichTextEdit16setTextSubScriptEb@Base 4:4.3.4
 _ZN13KRichTextEdit16setTextUnderlineEb@Base 4:4.3.4
 _ZN13KRichTextEdit16staticMetaObjectE@Base 4:4.3.4
 _ZN13KRichTextEdit17selectionFinishedEv@Base 4:4.3.4
 _ZN13KRichTextEdit17switchToPlainTextEv@Base 4:4.3.4
 _ZN13KRichTextEdit18enableRichTextModeEv@Base 4:4.3.4
 _ZN13KRichTextEdit18setTextSuperScriptEb@Base 4:4.3.4
 _ZN13KRichTextEdit20insertHorizontalRuleEv@Base 4:4.3.4
 _ZN13KRichTextEdit22setTextBackgroundColorERK6QColor@Base 4:4.3.4
 _ZN13KRichTextEdit22setTextForegroundColorERK6QColor@Base 4:4.3.4
 _ZN13KRichTextEdit7setFontERK5QFont@Base 4:4.3.4
 _ZN13KRichTextEdit9alignLeftEv@Base 4:4.3.4
 _ZN13KRichTextEditC1EP7QWidget@Base 4:4.3.4
 _ZN13KRichTextEditC1ERK7QStringP7QWidget@Base 4:4.3.4
 _ZN13KRichTextEditC2EP7QWidget@Base 4:4.3.4
 _ZN13KRichTextEditC2ERK7QStringP7QWidget@Base 4:4.3.4
 _ZN13KRichTextEditD0Ev@Base 4:4.3.4
 _ZN13KRichTextEditD1Ev@Base 4:4.3.4
 _ZN13KRichTextEditD2Ev@Base 4:4.3.4
 _ZN13KSelectAction10changeItemEiRK7QString@Base 4:4.3.4
 _ZN13KSelectAction11eventFilterEP7QObjectP6QEvent@Base 4:4.3.4
 _ZN13KSelectAction11qt_metacallEN11QMetaObject4CallEiPPv@Base 4:4.3.4
 _ZN13KSelectAction11qt_metacastEPKc@Base 4:4.3.4
 _ZN13KSelectAction11setEditableEb@Base 4:4.3.4
 _ZN13KSelectAction11slotToggledEb@Base 4:4.3.4
 _ZN13KSelectAction12createWidgetEP7QWidget@Base 4:4.3.4
 _ZN13KSelectAction12deleteWidgetEP7QWidget@Base 4:4.3.4
 _ZN13KSelectAction12removeActionEP7QAction@Base 4:4.3.4
 _ZN13KSelectAction13setComboWidthEi@Base 4:4.3.4
 _ZN13KSelectAction14setCurrentItemEi@Base 4:4.3.4
 _ZN13KSelectAction14setToolBarModeENS_11ToolBarModeE@Base 4:4.3.4
 _ZN13KSelectAction15actionTriggeredEP7QAction@Base 4:4.3.4
 _ZN13KSelectAction16removeAllActionsEv@Base 4:4.3.4
 _ZN13KSelectAction16setCurrentActionEP7QAction@Base 4:4.3.4
 _ZN13KSelectAction16setCurrentActionERK7QStringN2Qt15CaseSensitivityE@Base 4:4.3.4
 _ZN13KSelectAction16staticMetaObjectE@Base 4:4.3.4
 _ZN13KSelectAction20setMaxComboViewCountEi@Base 4:4.3.4
 _ZN13KSelectAction20setMenuAccelsEnabledEb@Base 4:4.3.4
 _ZN13KSelectAction22setToolButtonPopupModeEN11QToolButton19ToolButtonPopupModeE@Base 4:4.3.4
 _ZN13KSelectAction5clearEv@Base 4:4.3.4
 _ZN13KSelectAction5eventEP6QEvent@Base 4:4.5.2
 _ZN13KSelectAction8setItemsERK11QStringList@Base 4:4.3.4
 _ZN13KSelectAction9addActionEP7QAction@Base 4:4.3.4
 _ZN13KSelectAction9addActionERK5KIconRK7QString@Base 4:4.3.4
 _ZN13KSelectAction9addActionERK7QString@Base 4:4.3.4
 _ZN13KSelectAction9triggeredEP7QAction@Base 4:4.3.4
 _ZN13KSelectAction9triggeredERK7QString@Base 4:4.3.4
 _ZN13KSelectAction9triggeredEi@Base 4:4.3.4
 _ZN13KSelectActionC1EP7QObject@Base 4:4.3.4
 _ZN13KSelectActionC1ER20KSelectActionPrivateP7QObject@Base 4:4.3.4
 _ZN13KSelectActionC1ERK5KIconRK7QStringP7QObject@Base 4:4.3.4
 _ZN13KSelectActionC1ERK7QStringP7QObject@Base 4:4.3.4
 _ZN13KSelectActionC2EP7QObject@Base 4:4.3.4
 _ZN13KSelectActionC2ER20KSelectActionPrivateP7QObject@Base 4:4.3.4
 _ZN13KSelectActionC2ERK5KIconRK7QStringP7QObject@Base 4:4.3.4
 _ZN13KSelectActionC2ERK7QStringP7QObject@Base 4:4.3.4
 _ZN13KSelectActionD0Ev@Base 4:4.3.4
 _ZN13KSelectActionD1Ev@Base 4:4.3.4
 _ZN13KSelectActionD2Ev@Base 4:4.3.4
 _ZN13KShapeGesture12setShapeNameERK7QString@Base 4:4.3.4
 _ZN13KShapeGesture8setShapeERK8QPolygon@Base 4:4.3.4
 _ZN13KShapeGestureC1ERK7QString@Base 4:4.3.4
 _ZN13KShapeGestureC1ERK8QPolygon@Base 4:4.3.4
 _ZN13KShapeGestureC1ERKS_@Base 4:4.3.4
 _ZN13KShapeGestureC1Ev@Base 4:4.3.4
 _ZN13KShapeGestureC2ERK7QString@Base 4:4.3.4
 _ZN13KShapeGestureC2ERK8QPolygon@Base 4:4.3.4
 _ZN13KShapeGestureC2ERKS_@Base 4:4.3.4
 _ZN13KShapeGestureC2Ev@Base 4:4.3.4
 _ZN13KShapeGestureD1Ev@Base 4:4.3.4
 _ZN13KShapeGestureD2Ev@Base 4:4.3.4
 _ZN13KShapeGestureaSERKS_@Base 4:4.3.4
 _ZN13KSplashScreen11qt_metacallEN11QMetaObject4CallEiPPv@Base 4:4.3.4
 _ZN13KSplashScreen11qt_metacastEPKc@Base 4:4.3.4
 _ZN13KSplashScreen16staticMetaObjectE@Base 4:4.3.4
 _ZN13KSplashScreenC1ERK7QPixmap6QFlagsIN2Qt10WindowTypeEE@Base 4:4.3.4
 _ZN13KSplashScreenC2ERK7QPixmap6QFlagsIN2Qt10WindowTypeEE@Base 4:4.3.4
 _ZN13KSplashScreenD0Ev@Base 4:4.3.4
 _ZN13KSplashScreenD1Ev@Base 4:4.3.4
 _ZN13KSplashScreenD2Ev@Base 4:4.3.4
 _ZN13KTimeComboBox10assignTimeERK5QTime@Base 4:4.7.0
 _ZN13KTimeComboBox10setOptionsE6QFlagsINS_6OptionEE@Base 4:4.7.0
 _ZN13KTimeComboBox10timeEditedERK5QTime@Base 4:4.7.0
 _ZN13KTimeComboBox10wheelEventEP11QWheelEvent@Base 4:4.7.0
 _ZN13KTimeComboBox11eventFilterEP7QObjectP6QEvent@Base 4:4.7.0
 _ZN13KTimeComboBox11qt_metacallEN11QMetaObject4CallEiPPv@Base 4:4.7.0
 _ZN13KTimeComboBox11qt_metacastEPKc@Base 4:4.7.0
 _ZN13KTimeComboBox11resizeEventEP12QResizeEvent@Base 4:4.7.0
 _ZN13KTimeComboBox11setTimeListE5QListI5QTimeERK7QStringS5_@Base 4:4.7.0
 _ZN13KTimeComboBox11timeChangedERK5QTime@Base 4:4.7.0
 _ZN13KTimeComboBox11timeEnteredERK5QTime@Base 4:4.7.0
 _ZN13KTimeComboBox12focusInEventEP11QFocusEvent@Base 4:4.7.0
 _ZN13KTimeComboBox12setTimeRangeERK5QTimeS2_RK7QStringS5_@Base 4:4.7.0
 _ZN13KTimeComboBox13focusOutEventEP11QFocusEvent@Base 4:4.7.0
 _ZN13KTimeComboBox13keyPressEventEP9QKeyEvent@Base 4:4.7.0
 _ZN13KTimeComboBox14resetTimeRangeEv@Base 4:4.7.0
 _ZN13KTimeComboBox14setMaximumTimeERK5QTimeRK7QString@Base 4:4.7.0
 _ZN13KTimeComboBox14setMinimumTimeERK5QTimeRK7QString@Base 4:4.7.0
 _ZN13KTimeComboBox15mousePressEventEP11QMouseEvent@Base 4:4.7.0
 _ZN13KTimeComboBox16resetMaximumTimeEv@Base 4:4.7.0
 _ZN13KTimeComboBox16resetMinimumTimeEv@Base 4:4.7.0
 _ZN13KTimeComboBox16setDisplayFormatE6QFlagsIN7KLocale16TimeFormatOptionEE@Base 4:4.7.0
 _ZN13KTimeComboBox16staticMetaObjectE@Base 4:4.7.0
 _ZN13KTimeComboBox19setTimeListIntervalEi@Base 4:4.7.0
 _ZN13KTimeComboBox7setTimeERK5QTime@Base 4:4.7.0
 _ZN13KTimeComboBox9hidePopupEv@Base 4:4.7.0
 _ZN13KTimeComboBox9showPopupEv@Base 4:4.7.0
 _ZN13KTimeComboBoxC1EP7QWidget@Base 4:4.7.0
 _ZN13KTimeComboBoxC2EP7QWidget@Base 4:4.7.0
 _ZN13KTimeComboBoxD0Ev@Base 4:4.7.0
 _ZN13KTimeComboBoxD1Ev@Base 4:4.7.0
 _ZN13KTimeComboBoxD2Ev@Base 4:4.7.0
 _ZN13KToggleAction11qt_metacallEN11QMetaObject4CallEiPPv@Base 4:4.3.4
 _ZN13KToggleAction11qt_metacastEPKc@Base 4:4.3.4
 _ZN13KToggleAction11slotToggledEb@Base 4:4.3.4
 _ZN13KToggleAction15setCheckedStateERK8KGuiItem@Base 4:4.3.4
 _ZN13KToggleAction16staticMetaObjectE@Base 4:4.3.4
 _ZN13KToggleActionC1EP7QObject@Base 4:4.3.4
 _ZN13KToggleActionC1ERK5KIconRK7QStringP7QObject@Base 4:4.3.4
 _ZN13KToggleActionC1ERK7QStringP7QObject@Base 4:4.3.4
 _ZN13KToggleActionC2EP7QObject@Base 4:4.3.4
 _ZN13KToggleActionC2ERK5KIconRK7QStringP7QObject@Base 4:4.3.4
 _ZN13KToggleActionC2ERK7QStringP7QObject@Base 4:4.3.4
 _ZN13KToggleActionD0Ev@Base 4:4.3.4
 _ZN13KToggleActionD1Ev@Base 4:4.3.4
 _ZN13KToggleActionD2Ev@Base 4:4.3.4
 _ZN13KWindowSystem10clearStateEmm@Base 4:4.3.4
 _ZN13KWindowSystem10windowInfoEmmm@Base 4:4.3.4
 _ZN13KWindowSystem11desktopNameEi@Base 4:4.3.4
 _ZN13KWindowSystem11doNotManageERK7QString@Base 4:4.3.4
 _ZN13KWindowSystem11groupLeaderEm@Base 4:4.3.4
 _ZN13KWindowSystem11lowerWindowEm@Base 4:4.3.4
 _ZN13KWindowSystem11mapViewportEv@Base 4:4.3.4
 _ZN13KWindowSystem11qt_metacallEN11QMetaObject4CallEiPPv@Base 4:4.3.4
 _ZN13KWindowSystem11qt_metacastEPKc@Base 4:4.3.4
 _ZN13KWindowSystem11raiseWindowEm@Base 4:4.3.4
 _ZN13KWindowSystem11setUserTimeEml@Base 4:4.3.4
 _ZN13KWindowSystem11windowAddedEm@Base 4:4.3.4
 _ZN13KWindowSystem12activeWindowEv@Base 4:4.3.4
 _ZN13KWindowSystem12setOnDesktopEmi@Base 4:4.3.4
 _ZN13KWindowSystem12strutChangedEv@Base 4:4.3.4
 _ZN13KWindowSystem12transientForEm@Base 4:4.3.4
 _ZN13KWindowSystem13connectNotifyEPKc@Base 4:4.3.4
 _ZN13KWindowSystem13setMainWindowEP7QWidgetm@Base 4:4.3.4
 _ZN13KWindowSystem13stackingOrderEv@Base 4:4.3.4
 _ZN13KWindowSystem13windowChangedEm@Base 4:4.3.4
 _ZN13KWindowSystem13windowChangedEmPKm@Base 4:4.3.4
 _ZN13KWindowSystem13windowChangedEmj@Base 4:4.3.4
 _ZN13KWindowSystem13windowRemovedEm@Base 4:4.3.4
 _ZN13KWindowSystem14activateWindowEml@Base 4:4.3.4
 _ZN13KWindowSystem14currentDesktopEv@Base 4:4.3.4
 _ZN13KWindowSystem14minimizeWindowEmb@Base 4:4.3.4
 _ZN13KWindowSystem14setDesktopNameEiRK7QString@Base 4:4.3.4
 _ZN13KWindowSystem14showingDesktopEv@Base 4:4.3.4
 _ZN13KWindowSystem15demandAttentionEmb@Base 4:4.3.4
 _ZN13KWindowSystem15workAreaChangedEv@Base 4:4.3.4
 _ZN13KWindowSystem16numberOfDesktopsEv@Base 4:4.3.4
 _ZN13KWindowSystem16readNamePropertyEmm@Base 4:4.3.4
 _ZN13KWindowSystem16setExtendedStrutEmiiiiiiiiiiii@Base 4:4.3.4
 _ZN13KWindowSystem16setOnAllDesktopsEmb@Base 4:4.3.4
 _ZN13KWindowSystem16staticMetaObjectE@Base 4:4.3.4
 _ZN13KWindowSystem16unminimizeWindowEmb@Base 4:4.3.4
 _ZN13KWindowSystem17compositingActiveEv@Base 4:4.3.4
 _ZN13KWindowSystem17desktopToViewportEib@Base 4:4.3.4
 _ZN13KWindowSystem17forceActiveWindowEml@Base 4:4.3.4
 _ZN13KWindowSystem17setCurrentDesktopEi@Base 4:4.3.4
 _ZN13KWindowSystem17viewportToDesktopERK6QPoint@Base 4:4.3.4
 _ZN13KWindowSystem18compositingChangedEb@Base 4:4.7.1
 _ZN13KWindowSystem19activeWindowChangedEm@Base 4:4.3.4
 _ZN13KWindowSystem19desktopNamesChangedEv@Base 4:4.3.4
 _ZN13KWindowSystem20stackingOrderChangedEv@Base 4:4.3.4
 _ZN13KWindowSystem21currentDesktopChangedEi@Base 4:4.3.4
 _ZN13KWindowSystem21showingDesktopChangedEb@Base 4:4.3.4
 _ZN13KWindowSystem22setBlockingCompositingEmb@Base 4:4.7.0
 _ZN13KWindowSystem23allowedActionsSupportedEv@Base 4:4.3.4
 _ZN13KWindowSystem23numberOfDesktopsChangedEi@Base 4:4.3.4
 _ZN13KWindowSystem23viewportWindowToDesktopERK5QRect@Base 4:4.3.4
 _ZN13KWindowSystem26icccmCompliantMappingStateEv@Base 4:4.3.4
 _ZN13KWindowSystem33constrainViewportRelativePositionERK6QPoint@Base 4:4.3.4
 _ZN13KWindowSystem36allowExternalProcessWindowActivationEi@Base 4:4.3.4
 _ZN13KWindowSystem4iconEmiib@Base 4:4.3.4
 _ZN13KWindowSystem4iconEmiibi@Base 4:4.3.4
 _ZN13KWindowSystem4initEi@Base 4:4.3.4
 _ZN13KWindowSystem4selfEv@Base 4:4.3.4
 _ZN13KWindowSystem6hasWIdEm@Base 4:4.3.4
 _ZN13KWindowSystem7setTypeEmN3NET10WindowTypeE@Base 4:4.3.4
 _ZN13KWindowSystem7windowsEv@Base 4:4.3.4
 _ZN13KWindowSystem8s_d_funcEv@Base 4:4.3.4
 _ZN13KWindowSystem8setIconsEmRK7QPixmapS2_@Base 4:4.3.4
 _ZN13KWindowSystem8setStateEmm@Base 4:4.3.4
 _ZN13KWindowSystem8setStrutEmiiii@Base 4:4.3.4
 _ZN13KWindowSystem8workAreaERK5QListImEi@Base 4:4.3.4
 _ZN13KWindowSystem8workAreaEi@Base 4:4.3.4
 _ZN13KWindowSystemD0Ev@Base 4:4.7.2
 _ZN13KWindowSystemD1Ev@Base 4:4.7.2
 _ZN13KWindowSystemD2Ev@Base 4:4.7.2
 _ZN13KXMLGUIClient10endXMLPlugEv@Base 4:4.3.4
 _ZN13KXMLGUIClient10setFactoryEP14KXMLGUIFactory@Base 4:4.3.4
 _ZN13KXMLGUIClient10setXMLFileERK7QStringbb@Base 4:4.3.4
 _ZN13KXMLGUIClient12beginXMLPlugEP7QWidget@Base 4:4.3.4
 _ZN13KXMLGUIClient12childClientsEv@Base 4:4.3.4
 _ZN13KXMLGUIClient12stateChangedERK7QStringNS_18ReverseStateChangeE@Base 4:4.3.4
 _ZN13KXMLGUIClient12virtual_hookEiPv@Base 4:4.3.4
 _ZN13KXMLGUIClient14plugActionListERK7QStringRK5QListIP7QActionE@Base 4:4.3.4
 _ZN13KXMLGUIClient14replaceXMLFileERK7QStringS2_b@Base 4:4.4.0
 _ZN13KXMLGUIClient14setDOMDocumentERK12QDomDocumentb@Base 4:4.3.4
 _ZN13KXMLGUIClient15setLocalXMLFileERK7QString@Base 4:4.3.4
 _ZN13KXMLGUIClient16prepareXMLUnplugEP7QWidget@Base 4:4.3.4
 _ZN13KXMLGUIClient16setClientBuilderEP14KXMLGUIBuilder@Base 4:4.3.4
 _ZN13KXMLGUIClient16setComponentDataERK14KComponentData@Base 4:4.3.4
 _ZN13KXMLGUIClient16unplugActionListERK7QString@Base 4:4.3.4
 _ZN13KXMLGUIClient17insertChildClientEPS_@Base 4:4.3.4
 _ZN13KXMLGUIClient17removeChildClientEPS_@Base 4:4.3.4
 _ZN13KXMLGUIClient20loadStandardsXmlFileEv@Base 4:4.5.85
 _ZN13KXMLGUIClient21addStateActionEnabledERK7QStringS2_@Base 4:4.3.4
 _ZN13KXMLGUIClient21findMostRecentXMLFileERK11QStringListR7QString@Base 4:4.3.4
 _ZN13KXMLGUIClient22addStateActionDisabledERK7QStringS2_@Base 4:4.3.4
 _ZN13KXMLGUIClient22setXMLGUIBuildDocumentERK12QDomDocument@Base 4:4.3.4
 _ZN13KXMLGUIClient26getActionsToChangeForStateERK7QString@Base 4:4.3.4
 _ZN13KXMLGUIClient6setXMLERK7QStringb@Base 4:4.3.4
 _ZN13KXMLGUIClient9reloadXMLEv@Base 4:4.3.4
 _ZN13KXMLGUIClientC1EPS_@Base 4:4.3.4
 _ZN13KXMLGUIClientC1Ev@Base 4:4.3.4
 _ZN13KXMLGUIClientC2EPS_@Base 4:4.3.4
 _ZN13KXMLGUIClientC2Ev@Base 4:4.3.4
 _ZN13KXMLGUIClientD0Ev@Base 4:4.3.4
 _ZN13KXMLGUIClientD1Ev@Base 4:4.3.4
 _ZN13KXMLGUIClientD2Ev@Base 4:4.3.4
 _ZN13KXmlGuiWindow10guiFactoryEv@Base 4:4.3.4
 _ZN13KXmlGuiWindow11finalizeGUIEP13KXMLGUIClient@Base 4:4.3.4
 _ZN13KXmlGuiWindow11finalizeGUIEb@Base 4:4.3.4
 _ZN13KXmlGuiWindow11qt_metacallEN11QMetaObject4CallEiPPv@Base 4:4.3.4
 _ZN13KXmlGuiWindow11qt_metacastEPKc@Base 4:4.3.4
 _ZN13KXmlGuiWindow16slotStateChangedERK7QString@Base 4:4.3.4
 _ZN13KXmlGuiWindow16slotStateChangedERK7QStringb@Base 4:4.3.4
 _ZN13KXmlGuiWindow16staticMetaObjectE@Base 4:4.3.4
 _ZN13KXmlGuiWindow17configureToolbarsEv@Base 4:4.3.4
 _ZN13KXmlGuiWindow17toolBarMenuActionEv@Base 4:4.3.4
 _ZN13KXmlGuiWindow18setHelpMenuEnabledEb@Base 4:4.3.4
 _ZN13KXmlGuiWindow20saveNewToolbarConfigEv@Base 4:4.3.4
 _ZN13KXmlGuiWindow23applyMainWindowSettingsERK12KConfigGroupb@Base 4:4.3.4
 _ZN13KXmlGuiWindow23setupToolbarMenuActionsEv@Base 4:4.3.4
 _ZN13KXmlGuiWindow29createStandardStatusBarActionEv@Base 4:4.3.4
 _ZN13KXmlGuiWindow29setStandardToolBarMenuEnabledEb@Base 4:4.3.4
 _ZN13KXmlGuiWindow5eventEP6QEvent@Base 4:4.3.4
 _ZN13KXmlGuiWindow8setupGUIE6QFlagsINS_20StandardWindowOptionEERK7QString@Base 4:4.3.4
 _ZN13KXmlGuiWindow8setupGUIERK5QSize6QFlagsINS_20StandardWindowOptionEERK7QString@Base 4:4.3.4
 _ZN13KXmlGuiWindow9createGUIERK7QString@Base 4:4.3.4
 _ZN13KXmlGuiWindowC1EP7QWidget6QFlagsIN2Qt10WindowTypeEE@Base 4:4.3.4
 _ZN13KXmlGuiWindowC2EP7QWidget6QFlagsIN2Qt10WindowTypeEE@Base 4:4.3.4
 _ZN13KXmlGuiWindowD0Ev@Base 4:4.3.4
 _ZN13KXmlGuiWindowD1Ev@Base 4:4.3.4
 _ZN13KXmlGuiWindowD2Ev@Base 4:4.3.4
 _ZN14KColorMimeData10createDragERK6QColorP7QWidget@Base 4:4.3.4
 _ZN14KColorMimeData12fromMimeDataEPK9QMimeData@Base 4:4.3.4
 _ZN14KColorMimeData16populateMimeDataEP9QMimeDataRK6QColor@Base 4:4.3.4
 _ZN14KColorMimeData9canDecodeEPK9QMimeData@Base 4:4.3.4
 _ZN14KCompletionBox10setVisibleEb@Base 4:4.3.4
 _ZN14KCompletionBox11eventFilterEP7QObjectP6QEvent@Base 4:4.3.4
 _ZN14KCompletionBox11insertItemsERK11QStringListi@Base 4:4.3.4
 _ZN14KCompletionBox11qt_metacallEN11QMetaObject4CallEiPPv@Base 4:4.3.4
 _ZN14KCompletionBox11qt_metacastEPKc@Base 4:4.3.4
 _ZN14KCompletionBox13slotActivatedEP15QListWidgetItem@Base 4:4.3.4
 _ZN14KCompletionBox13userCancelledERK7QString@Base 4:4.3.4
 _ZN14KCompletionBox14setTabHandlingEb@Base 4:4.3.4
 _ZN14KCompletionBox15sizeAndPositionEv@Base 4:4.3.4
 _ZN14KCompletionBox15slotItemClickedEP15QListWidgetItem@Base 4:4.3.4
 _ZN14KCompletionBox16setCancelledTextERK7QString@Base 4:4.3.4
 _ZN14KCompletionBox16staticMetaObjectE@Base 4:4.3.4
 _ZN14KCompletionBox19setActivateOnSelectEb@Base 4:4.3.4
 _ZN14KCompletionBox2upEv@Base 4:4.3.4
 _ZN14KCompletionBox3endEv@Base 4:4.3.4
 _ZN14KCompletionBox4downEv@Base 4:4.3.4
 _ZN14KCompletionBox4homeEv@Base 4:4.3.4
 _ZN14KCompletionBox5popupEv@Base 4:4.3.4
 _ZN14KCompletionBox6pageUpEv@Base 4:4.3.4
 _ZN14KCompletionBox8canceledEv@Base 4:4.3.4
 _ZN14KCompletionBox8pageDownEv@Base 4:4.3.4
 _ZN14KCompletionBox8setItemsERK11QStringList@Base 4:4.3.4
 _ZN14KCompletionBox9activatedERK7QString@Base 4:4.3.4
 _ZN14KCompletionBoxC1EP7QWidget@Base 4:4.3.4
 _ZN14KCompletionBoxC2EP7QWidget@Base 4:4.3.4
 _ZN14KCompletionBoxD0Ev@Base 4:4.3.4
 _ZN14KCompletionBoxD1Ev@Base 4:4.3.4
 _ZN14KCompletionBoxD2Ev@Base 4:4.3.4
 _ZN14KDateValidatorC1EP7QWidget@Base 4:4.3.4
 _ZN14KDateValidatorC2EP7QWidget@Base 4:4.3.4
 _ZN14KDateValidatorD0Ev@Base 4:4.7.2
 _ZN14KDateValidatorD1Ev@Base 4:4.7.2
 _ZN14KDateValidatorD2Ev@Base 4:4.7.2
 _ZN14KFontRequester11qt_metacallEN11QMetaObject4CallEiPPv@Base 4:4.3.4
 _ZN14KFontRequester11qt_metacastEPKc@Base 4:4.3.4
 _ZN14KFontRequester12fontSelectedERK5QFont@Base 4:4.3.4
 _ZN14KFontRequester13setSampleTextERK7QString@Base 4:4.3.4
 _ZN14KFontRequester16staticMetaObjectE@Base 4:4.3.4
 _ZN14KFontRequester21KFontRequesterPrivate10setToolTipEv@Base 4:4.3.4
 _ZN14KFontRequester21KFontRequesterPrivate16_k_buttonClickedEv@Base 4:4.3.4
 _ZN14KFontRequester21KFontRequesterPrivate17displaySampleTextEv@Base 4:4.3.4
 _ZN14KFontRequester7setFontERK5QFontb@Base 4:4.3.4
 _ZN14KFontRequester8setTitleERK7QString@Base 4:4.3.4
 _ZN14KFontRequesterC1EP7QWidgetb@Base 4:4.3.4
 _ZN14KFontRequesterC2EP7QWidgetb@Base 4:4.3.4
 _ZN14KFontRequesterD0Ev@Base 4:4.3.4
 _ZN14KFontRequesterD1Ev@Base 4:4.3.4
 _ZN14KFontRequesterD2Ev@Base 4:4.3.4
 _ZN14KMessageWidget10paintEventEP11QPaintEvent@Base 4:4.7.0
 _ZN14KMessageWidget11qt_metacallEN11QMetaObject4CallEiPPv@Base 4:4.7.0
 _ZN14KMessageWidget11qt_metacastEPKc@Base 4:4.7.0
 _ZN14KMessageWidget11resizeEventEP12QResizeEvent@Base 4:4.7.0
 _ZN14KMessageWidget11setWordWrapEb@Base 4:4.7.0
 _ZN14KMessageWidget12animatedHideEv@Base 4:4.7.0
 _ZN14KMessageWidget12animatedShowEv@Base 4:4.7.0
 _ZN14KMessageWidget12removeActionEP7QAction@Base 4:4.7.0
 _ZN14KMessageWidget14setMessageTypeENS_11MessageTypeE@Base 4:4.7.0
 _ZN14KMessageWidget16staticMetaObjectE@Base 4:4.7.0
 _ZN14KMessageWidget21setCloseButtonVisibleEb@Base 4:4.7.0
 _ZN14KMessageWidget5eventEP6QEvent@Base 4:4.7.0
 _ZN14KMessageWidget7setTextERK7QString@Base 4:4.7.0
 _ZN14KMessageWidget9addActionEP7QAction@Base 4:4.7.0
 _ZN14KMessageWidget9showEventEP10QShowEvent@Base 4:4.7.0
 _ZN14KMessageWidgetC1EP7QWidget@Base 4:4.7.0
 _ZN14KMessageWidgetC1ERK7QStringP7QWidget@Base 4:4.7.0
 _ZN14KMessageWidgetC2EP7QWidget@Base 4:4.7.0
 _ZN14KMessageWidgetC2ERK7QStringP7QWidget@Base 4:4.7.0
 _ZN14KMessageWidgetD0Ev@Base 4:4.7.0
 _ZN14KMessageWidgetD1Ev@Base 4:4.7.0
 _ZN14KMessageWidgetD2Ev@Base 4:4.7.0
 _ZN14KRatingPainter10setEnabledEb@Base 4:4.5.85
 _ZN14KRatingPainter10setSpacingEi@Base 4:4.5.85
 _ZN14KRatingPainter11paintRatingEP8QPainterRK5QRect6QFlagsIN2Qt13AlignmentFlagEEii@Base 4:4.5.85
 _ZN14KRatingPainter12setAlignmentE6QFlagsIN2Qt13AlignmentFlagEE@Base 4:4.5.85
 _ZN14KRatingPainter12setMaxRatingEi@Base 4:4.5.85
 _ZN14KRatingPainter15setCustomPixmapERK7QPixmap@Base 4:4.5.85
 _ZN14KRatingPainter18setLayoutDirectionEN2Qt15LayoutDirectionE@Base 4:4.5.85
 _ZN14KRatingPainter19setHalfStepsEnabledEb@Base 4:4.5.85
 _ZN14KRatingPainter21getRatingFromPositionERK5QRect6QFlagsIN2Qt13AlignmentFlagEENS4_15LayoutDirectionERK6QPoint@Base 4:4.5.85
 _ZN14KRatingPainter7Private9getPixmapEi@Base 4:4.5.85
 _ZN14KRatingPainter7setIconERK5QIcon@Base 4:4.5.85
 _ZN14KRatingPainterC1Ev@Base 4:4.5.85
 _ZN14KRatingPainterC2Ev@Base 4:4.5.85
 _ZN14KRatingPainterD1Ev@Base 4:4.5.85
 _ZN14KRatingPainterD2Ev@Base 4:4.5.85
 _ZN14KReplaceDialog10setOptionsEl@Base 4:4.3.4
 _ZN14KReplaceDialog11qt_metacallEN11QMetaObject4CallEiPPv@Base 4:4.3.4
 _ZN14KReplaceDialog11qt_metacastEPKc@Base 4:4.3.4
 _ZN14KReplaceDialog16staticMetaObjectE@Base 4:4.3.4
 _ZN14KReplaceDialog21setReplacementHistoryERK11QStringList@Base 4:4.3.4
 _ZN14KReplaceDialog9showEventEP10QShowEvent@Base 4:4.3.4
 _ZN14KReplaceDialogC1EP7QWidgetlRK11QStringListS4_b@Base 4:4.3.4
 _ZN14KReplaceDialogC2EP7QWidgetlRK11QStringListS4_b@Base 4:4.3.4
 _ZN14KReplaceDialogD0Ev@Base 4:4.3.4
 _ZN14KReplaceDialogD1Ev@Base 4:4.3.4
 _ZN14KReplaceDialogD2Ev@Base 4:4.3.4
 _ZN14KRockerGesture10setButtonsEN2Qt11MouseButtonES1_@Base 4:4.3.4
 _ZN14KRockerGesture15mouseButtonNameEN2Qt11MouseButtonE@Base 4:4.3.4
 _ZN14KRockerGestureC1EN2Qt11MouseButtonES1_@Base 4:4.3.4
 _ZN14KRockerGestureC1ERK7QString@Base 4:4.3.4
 _ZN14KRockerGestureC1ERKS_@Base 4:4.3.4
 _ZN14KRockerGestureC1Ev@Base 4:4.3.4
 _ZN14KRockerGestureC2EN2Qt11MouseButtonES1_@Base 4:4.3.4
 _ZN14KRockerGestureC2ERK7QString@Base 4:4.3.4
 _ZN14KRockerGestureC2ERKS_@Base 4:4.3.4
 _ZN14KRockerGestureC2Ev@Base 4:4.3.4
 _ZN14KRockerGestureD1Ev@Base 4:4.3.4
 _ZN14KRockerGestureD2Ev@Base 4:4.3.4
 _ZN14KRockerGestureaSERKS_@Base 4:4.3.4
 _ZN14KStartupInfoId6initIdERK10QByteArray@Base 4:4.3.4
 _ZN14KStartupInfoIdC1ERK7QString@Base 4:4.3.4
 _ZN14KStartupInfoIdC1ERKS_@Base 4:4.3.4
 _ZN14KStartupInfoIdC1Ev@Base 4:4.3.4
 _ZN14KStartupInfoIdC2ERK7QString@Base 4:4.3.4
 _ZN14KStartupInfoIdC2ERKS_@Base 4:4.3.4
 _ZN14KStartupInfoIdC2Ev@Base 4:4.3.4
 _ZN14KStartupInfoIdD1Ev@Base 4:4.3.4
 _ZN14KStartupInfoIdD2Ev@Base 4:4.3.4
 _ZN14KStartupInfoIdaSERKS_@Base 4:4.3.4
 _ZN14KStatefulBrushC1EN12KColorScheme8ColorSetENS0_14BackgroundRoleE10KSharedPtrI13KSharedConfigE@Base 4:4.3.4
 _ZN14KStatefulBrushC1EN12KColorScheme8ColorSetENS0_14DecorationRoleE10KSharedPtrI13KSharedConfigE@Base 4:4.3.4
 _ZN14KStatefulBrushC1EN12KColorScheme8ColorSetENS0_14ForegroundRoleE10KSharedPtrI13KSharedConfigE@Base 4:4.3.4
 _ZN14KStatefulBrushC1ERK6QBrush10KSharedPtrI13KSharedConfigE@Base 4:4.3.4
 _ZN14KStatefulBrushC1ERK6QBrushS2_10KSharedPtrI13KSharedConfigE@Base 4:4.3.4
 _ZN14KStatefulBrushC1ERKS_@Base 4:4.3.4
 _ZN14KStatefulBrushC1Ev@Base 4:4.3.4
 _ZN14KStatefulBrushC2EN12KColorScheme8ColorSetENS0_14BackgroundRoleE10KSharedPtrI13KSharedConfigE@Base 4:4.3.4
 _ZN14KStatefulBrushC2EN12KColorScheme8ColorSetENS0_14DecorationRoleE10KSharedPtrI13KSharedConfigE@Base 4:4.3.4
 _ZN14KStatefulBrushC2EN12KColorScheme8ColorSetENS0_14ForegroundRoleE10KSharedPtrI13KSharedConfigE@Base 4:4.3.4
 _ZN14KStatefulBrushC2ERK6QBrush10KSharedPtrI13KSharedConfigE@Base 4:4.3.4
 _ZN14KStatefulBrushC2ERK6QBrushS2_10KSharedPtrI13KSharedConfigE@Base 4:4.3.4
 _ZN14KStatefulBrushC2ERKS_@Base 4:4.3.4
 _ZN14KStatefulBrushC2Ev@Base 4:4.3.4
 _ZN14KStatefulBrushD1Ev@Base 4:4.3.4
 _ZN14KStatefulBrushD2Ev@Base 4:4.3.4
 _ZN14KStatefulBrushaSERKS_@Base 4:4.3.4
 _ZN14KXErrorHandler10addHandlerEv@Base 4:4.3.4
 _ZN14KXErrorHandler12errorMessageERK11XErrorEventP9_XDisplay@Base 4:4.3.4
 _ZN14KXErrorHandler15handler_wrapperEP9_XDisplayP11XErrorEvent@Base 4:4.3.4
 _ZN14KXErrorHandler3posE@Base 4:4.3.4
 _ZN14KXErrorHandler4sizeE@Base 4:4.3.4
 _ZN14KXErrorHandler6handleEP9_XDisplayP11XErrorEvent@Base 4:4.3.4
 _ZN14KXErrorHandler8handlersE@Base 4:4.3.4
 _ZN14KXErrorHandlerC1EP9_XDisplay@Base 4:4.3.4
 _ZN14KXErrorHandlerC1EPFbiimEP9_XDisplay@Base 4:4.3.4
 _ZN14KXErrorHandlerC1EPFiP9_XDisplayP11XErrorEventES1_@Base 4:4.3.4
 _ZN14KXErrorHandlerC2EP9_XDisplay@Base 4:4.3.4
 _ZN14KXErrorHandlerC2EPFbiimEP9_XDisplay@Base 4:4.3.4
 _ZN14KXErrorHandlerC2EPFiP9_XDisplayP11XErrorEventES1_@Base 4:4.3.4
 _ZN14KXErrorHandlerD1Ev@Base 4:4.3.4
 _ZN14KXErrorHandlerD2Ev@Base 4:4.3.4
 _ZN14KXMLGUIBuilder11finalizeGUIEP13KXMLGUIClient@Base 4:4.3.4
 _ZN14KXMLGUIBuilder12virtual_hookEiPv@Base 4:4.3.4
 _ZN14KXMLGUIBuilder15createContainerEP7QWidgetiRK11QDomElementRP7QAction@Base 4:4.3.4
 _ZN14KXMLGUIBuilder15removeContainerEP7QWidgetS1_R11QDomElementP7QAction@Base 4:4.3.4
 _ZN14KXMLGUIBuilder16setBuilderClientEP13KXMLGUIClient@Base 4:4.3.4
 _ZN14KXMLGUIBuilder19createCustomElementEP7QWidgetiRK11QDomElement@Base 4:4.3.4
 _ZN14KXMLGUIBuilder19removeCustomElementEP7QWidgetP7QAction@Base 4:4.3.4
 _ZN14KXMLGUIBuilder23setBuilderComponentDataERK14KComponentData@Base 4:4.3.4
 _ZN14KXMLGUIBuilder6widgetEv@Base 4:4.3.4
 _ZN14KXMLGUIBuilderC1EP7QWidget@Base 4:4.3.4
 _ZN14KXMLGUIBuilderC2EP7QWidget@Base 4:4.3.4
 _ZN14KXMLGUIBuilderD0Ev@Base 4:4.3.4
 _ZN14KXMLGUIBuilderD1Ev@Base 4:4.3.4
 _ZN14KXMLGUIBuilderD2Ev@Base 4:4.3.4
 _ZN14KXMLGUIFactory10containersERK7QString@Base 4:4.3.4
 _ZN14KXMLGUIFactory11clientAddedEP13KXMLGUIClient@Base 4:4.3.4
 _ZN14KXMLGUIFactory11qt_metacallEN11QMetaObject4CallEiPPv@Base 4:4.3.4
 _ZN14KXMLGUIFactory11qt_metacastEPKc@Base 4:4.3.4
 _ZN14KXMLGUIFactory12forgetClientEP13KXMLGUIClient@Base 4:4.5.85
 _ZN14KXMLGUIFactory12removeClientEP13KXMLGUIClient@Base 4:4.3.4
 _ZN14KXMLGUIFactory13clientRemovedEP13KXMLGUIClient@Base 4:4.3.4
 _ZN14KXMLGUIFactory13makingChangesEb@Base 4:4.3.4
 _ZN14KXMLGUIFactory14plugActionListEP13KXMLGUIClientRK7QStringRK5QListIP7QActionE@Base 4:4.3.4
 _ZN14KXMLGUIFactory14readConfigFileERK7QStringRK14KComponentData@Base 4:4.3.4
 _ZN14KXMLGUIFactory14resetContainerERK7QStringb@Base 4:4.3.4
 _ZN14KXMLGUIFactory14saveConfigFileERK12QDomDocumentRK7QStringRK14KComponentData@Base 4:4.3.4
 _ZN14KXMLGUIFactory16findActionByNameER11QDomElementRK7QStringb@Base 4:4.3.4
 _ZN14KXMLGUIFactory16staticMetaObjectE@Base 4:4.3.4
 _ZN14KXMLGUIFactory16unplugActionListEP13KXMLGUIClientRK7QString@Base 4:4.3.4
 _ZN14KXMLGUIFactory18configureShortcutsEbb@Base 4:4.3.4
 _ZN14KXMLGUIFactory20changeShortcutSchemeERK7QString@Base 4:4.3.4
 _ZN14KXMLGUIFactory23actionPropertiesElementER12QDomDocument@Base 4:4.3.4
 _ZN14KXMLGUIFactory23refreshActionPropertiesEv@Base 4:4.3.4
 _ZN14KXMLGUIFactory5resetEv@Base 4:4.3.4
 _ZN14KXMLGUIFactory9addClientEP13KXMLGUIClient@Base 4:4.3.4
 _ZN14KXMLGUIFactory9containerERK7QStringP13KXMLGUIClientb@Base 4:4.3.4
 _ZN14KXMLGUIFactoryC1EP14KXMLGUIBuilderP7QObject@Base 4:4.3.4
 _ZN14KXMLGUIFactoryC2EP14KXMLGUIBuilderP7QObject@Base 4:4.3.4
 _ZN14KXMLGUIFactoryD0Ev@Base 4:4.3.4
 _ZN14KXMLGUIFactoryD1Ev@Base 4:4.3.4
 _ZN14KXMLGUIFactoryD2Ev@Base 4:4.3.4
 _ZN15KActionCategory11qt_metacallEN11QMetaObject4CallEiPPv@Base 4:4.3.4
 _ZN15KActionCategory11qt_metacastEPKc@Base 4:4.3.4
 _ZN15KActionCategory12unlistActionEP7QAction@Base 4:4.3.4
 _ZN15KActionCategory16staticMetaObjectE@Base 4:4.3.4
 _ZN15KActionCategory7setTextERK7QString@Base 4:4.3.4
 _ZN15KActionCategory9addActionEN15KStandardAction14StandardActionEPK7QObjectPKc@Base 4:4.3.4
 _ZN15KActionCategory9addActionEN15KStandardAction14StandardActionERK7QStringPK7QObjectPKc@Base 4:4.3.4
 _ZN15KActionCategory9addActionEP7QAction@Base 4:4.3.4
 _ZN15KActionCategory9addActionERK7QStringP7KAction@Base 4:4.3.4
 _ZN15KActionCategory9addActionERK7QStringP7QAction@Base 4:4.3.4
 _ZN15KActionCategory9addActionERK7QStringPK7QObjectPKc@Base 4:4.3.4
 _ZN15KActionCategoryC1ERK7QStringP17KActionCollection@Base 4:4.3.4
 _ZN15KActionCategoryC2ERK7QStringP17KActionCollection@Base 4:4.3.4
 _ZN15KActionCategoryD0Ev@Base 4:4.3.4
 _ZN15KActionCategoryD1Ev@Base 4:4.3.4
 _ZN15KActionCategoryD2Ev@Base 4:4.3.4
 _ZN15KActionSelector11eventFilterEP7QObjectP6QEvent@Base 4:4.3.4
 _ZN15KActionSelector11qt_metacallEN11QMetaObject4CallEiPPv@Base 4:4.3.4
 _ZN15KActionSelector11qt_metacastEPKc@Base 4:4.3.4
 _ZN15KActionSelector13keyPressEventEP9QKeyEvent@Base 4:4.3.4
 _ZN15KActionSelector13setButtonIconERK7QStringNS_10MoveButtonE@Base 4:4.3.4
 _ZN15KActionSelector16setButtonIconSetERK5QIconNS_10MoveButtonE@Base 4:4.3.4
 _ZN15KActionSelector16setButtonTooltipERK7QStringNS_10MoveButtonE@Base 4:4.3.4
 _ZN15KActionSelector16setSelectedLabelERK7QString@Base 4:4.3.4
 _ZN15KActionSelector16staticMetaObjectE@Base 4:4.3.4
 _ZN15KActionSelector17setAvailableLabelERK7QString@Base 4:4.3.4
 _ZN15KActionSelector17setButtonsEnabledEv@Base 4:4.3.4
 _ZN15KActionSelector18setButtonWhatsThisERK7QStringNS_10MoveButtonE@Base 4:4.3.4
 _ZN15KActionSelector18setKeyboardEnabledEb@Base 4:4.3.4
 _ZN15KActionSelector20setMoveOnDoubleClickEb@Base 4:4.3.4
 _ZN15KActionSelector20setShowUpDownButtonsEb@Base 4:4.3.4
 _ZN15KActionSelector26setSelectedInsertionPolicyENS_15InsertionPolicyE@Base 4:4.3.4
 _ZN15KActionSelector27setAvailableInsertionPolicyENS_15InsertionPolicyE@Base 4:4.3.4
 _ZN15KActionSelector5addedEP15QListWidgetItem@Base 4:4.3.4
 _ZN15KActionSelector6polishEv@Base 4:4.3.4
 _ZN15KActionSelector7movedUpEP15QListWidgetItem@Base 4:4.3.4
 _ZN15KActionSelector7removedEP15QListWidgetItem@Base 4:4.3.4
 _ZN15KActionSelector9movedDownEP15QListWidgetItem@Base 4:4.3.4
 _ZN15KActionSelectorC1EP7QWidget@Base 4:4.3.4
 _ZN15KActionSelectorC2EP7QWidget@Base 4:4.3.4
 _ZN15KActionSelectorD0Ev@Base 4:4.3.4
 _ZN15KActionSelectorD1Ev@Base 4:4.3.4
 _ZN15KActionSelectorD2Ev@Base 4:4.3.4
 _ZN15KAnimatedButton11qt_metacallEN11QMetaObject4CallEiPPv@Base 4:4.3.4
 _ZN15KAnimatedButton11qt_metacastEPKc@Base 4:4.3.4
 _ZN15KAnimatedButton11updateIconsEv@Base 4:4.3.4
 _ZN15KAnimatedButton15slotTimerUpdateEv@Base 4:4.3.4
 _ZN15KAnimatedButton16staticMetaObjectE@Base 4:4.3.4
 _ZN15KAnimatedButton4stopEv@Base 4:4.3.4
 _ZN15KAnimatedButton5startEv@Base 4:4.3.4
 _ZN15KAnimatedButton7clickedEv@Base 4:4.3.4
 _ZN15KAnimatedButton8setIconsERK7QString@Base 4:4.3.4
 _ZN15KAnimatedButtonC1EP7QWidget@Base 4:4.3.4
 _ZN15KAnimatedButtonC2EP7QWidget@Base 4:4.3.4
 _ZN15KAnimatedButtonD0Ev@Base 4:4.3.4
 _ZN15KAnimatedButtonD1Ev@Base 4:4.3.4
 _ZN15KAnimatedButtonD2Ev@Base 4:4.3.4
 _ZN15KCategoryDrawer13setLeftMarginEi@Base 4:4.4.0
 _ZN15KCategoryDrawer14setRightMarginEi@Base 4:4.4.0
 _ZN15KCategoryDrawerC1Ev@Base 4:4.3.4
 _ZN15KCategoryDrawerC2Ev@Base 4:4.3.4
 _ZN15KCategoryDrawerD0Ev@Base 4:4.3.4
 _ZN15KCategoryDrawerD1Ev@Base 4:4.3.4
 _ZN15KCategoryDrawerD2Ev@Base 4:4.3.4
 _ZN15KCategoryDraweraSERKS_@Base 4:4.4.0
 _ZN15KCompletionBase11setDelegateEPS_@Base 4:4.3.4
 _ZN15KCompletionBase12virtual_hookEiPv@Base 4:4.3.4
 _ZN15KCompletionBase13setKeyBindingENS_14KeyBindingTypeERK9KShortcut@Base 4:4.3.4
 _ZN15KCompletionBase16completionObjectEb@Base 4:4.3.4
 _ZN15KCompletionBase16setEnableSignalsEb@Base 4:4.3.4
 _ZN15KCompletionBase16setHandleSignalsEb@Base 4:4.3.4
 _ZN15KCompletionBase17setCompletionModeEN15KGlobalSettings10CompletionE@Base 4:4.3.4
 _ZN15KCompletionBase19setCompletionObjectEP11KCompletionb@Base 4:4.3.4
 _ZN15KCompletionBase20useGlobalKeyBindingsEv@Base 4:4.3.4
 _ZN15KCompletionBase29setAutoDeleteCompletionObjectEb@Base 4:4.3.4
 _ZN15KCompletionBase5setupEbbb@Base 4:4.3.4
 _ZN15KCompletionBaseC1Ev@Base 4:4.3.4
 _ZN15KCompletionBaseC2Ev@Base 4:4.3.4
 _ZN15KCompletionBaseD0Ev@Base 4:4.3.4
 _ZN15KCompletionBaseD1Ev@Base 4:4.3.4
 _ZN15KCompletionBaseD2Ev@Base 4:4.3.4
 _ZN15KConfigSkeleton11addItemFontERK7QStringR5QFontRKS3_S2_@Base 4:4.3.4
 _ZN15KConfigSkeleton11qt_metacallEN11QMetaObject4CallEiPPv@Base 4:4.3.4
 _ZN15KConfigSkeleton11qt_metacastEPKc@Base 4:4.3.4
 _ZN15KConfigSkeleton12addItemColorERK7QStringR6QColorRKS3_S2_@Base 4:4.3.4
 _ZN15KConfigSkeleton16staticMetaObjectE@Base 4:4.3.4
 _ZN15KConfigSkeleton8ItemFont10readConfigEP7KConfig@Base 4:4.3.4
 _ZN15KConfigSkeleton8ItemFont11setPropertyERK8QVariant@Base 4:4.3.4
 _ZN15KConfigSkeleton8ItemFontC1ERK7QStringS3_R5QFontRKS4_@Base 4:4.3.4
 _ZN15KConfigSkeleton8ItemFontC2ERK7QStringS3_R5QFontRKS4_@Base 4:4.3.4
 _ZN15KConfigSkeleton8ItemFontD0Ev@Base 4:4.7.2
 _ZN15KConfigSkeleton8ItemFontD1Ev@Base 4:4.7.2
 _ZN15KConfigSkeleton8ItemFontD2Ev@Base 4:4.7.2
 _ZN15KConfigSkeleton9ItemColor10readConfigEP7KConfig@Base 4:4.3.4
 _ZN15KConfigSkeleton9ItemColor11setPropertyERK8QVariant@Base 4:4.3.4
 _ZN15KConfigSkeleton9ItemColorC1ERK7QStringS3_R6QColorRKS4_@Base 4:4.3.4
 _ZN15KConfigSkeleton9ItemColorC2ERK7QStringS3_R6QColorRKS4_@Base 4:4.3.4
 _ZN15KConfigSkeleton9ItemColorD0Ev@Base 4:4.7.2
 _ZN15KConfigSkeleton9ItemColorD1Ev@Base 4:4.7.2
 _ZN15KConfigSkeleton9ItemColorD2Ev@Base 4:4.7.2
 _ZN15KConfigSkeletonC1E10KSharedPtrI13KSharedConfigEP7QObject@Base 4:4.3.4
 _ZN15KConfigSkeletonC1ERK7QStringP7QObject@Base 4:4.3.4
 _ZN15KConfigSkeletonC2E10KSharedPtrI13KSharedConfigEP7QObject@Base 4:4.3.4
 _ZN15KConfigSkeletonC2ERK7QStringP7QObject@Base 4:4.3.4
 _ZN15KConfigSkeletonD0Ev@Base 4:4.7.2
 _ZN15KConfigSkeletonD1Ev@Base 4:4.7.2
 _ZN15KConfigSkeletonD2Ev@Base 4:4.7.2
 _ZN15KDateTimeWidget11qt_metacallEN11QMetaObject4CallEiPPv@Base 4:4.3.4
 _ZN15KDateTimeWidget11qt_metacastEPKc@Base 4:4.3.4
 _ZN15KDateTimeWidget11setDateTimeERK9QDateTime@Base 4:4.3.4
 _ZN15KDateTimeWidget12valueChangedERK9QDateTime@Base 4:4.3.4
 _ZN15KDateTimeWidget16slotValueChangedEv@Base 4:4.3.4
 _ZN15KDateTimeWidget16staticMetaObjectE@Base 4:4.3.4
 _ZN15KDateTimeWidget4initEv@Base 4:4.3.4
 _ZN15KDateTimeWidgetC1EP7QWidget@Base 4:4.3.4
 _ZN15KDateTimeWidgetC1ERK9QDateTimeP7QWidget@Base 4:4.3.4
 _ZN15KDateTimeWidgetC2EP7QWidget@Base 4:4.3.4
 _ZN15KDateTimeWidgetC2ERK9QDateTimeP7QWidget@Base 4:4.3.4
 _ZN15KDateTimeWidgetD0Ev@Base 4:4.3.4
 _ZN15KDateTimeWidgetD1Ev@Base 4:4.3.4
 _ZN15KDateTimeWidgetD2Ev@Base 4:4.3.4
 _ZN15KDoubleNumInput10setMaximumEd@Base 4:4.3.4
 _ZN15KDoubleNumInput10setMinimumEd@Base 4:4.3.4
 _ZN15KDoubleNumInput11qt_metacallEN11QMetaObject4CallEiPPv@Base 4:4.3.4
 _ZN15KDoubleNumInput11qt_metacastEPKc@Base 4:4.3.4
 _ZN15KDoubleNumInput11resizeEventEP12QResizeEvent@Base 4:4.3.4
 _ZN15KDoubleNumInput11setDecimalsEi@Base 4:4.3.4
 _ZN15KDoubleNumInput11sliderMovedEi@Base 4:4.3.4
 _ZN15KDoubleNumInput12valueChangedEd@Base 4:4.3.4
 _ZN15KDoubleNumInput13setSingleStepEd@Base 4:4.3.4
 _ZN15KDoubleNumInput14spinBoxChangedEd@Base 4:4.3.4
 _ZN15KDoubleNumInput16setExponentRatioEd@Base 4:4.3.4
 _ZN15KDoubleNumInput16setRelativeValueEd@Base 4:4.3.4
 _ZN15KDoubleNumInput16setSliderEnabledEb@Base 4:4.3.4
 _ZN15KDoubleNumInput16staticMetaObjectE@Base 4:4.3.4
 _ZN15KDoubleNumInput17setReferencePointEd@Base 4:4.3.4
 _ZN15KDoubleNumInput19setSpecialValueTextERK7QString@Base 4:4.3.4
 _ZN15KDoubleNumInput19updateLegacyMembersEv@Base 4:4.3.4
 _ZN15KDoubleNumInput20relativeValueChangedEd@Base 4:4.3.4
 _ZN15KDoubleNumInput28slotEmitRelativeValueChangedEd@Base 4:4.3.4
 _ZN15KDoubleNumInput4initEddddi@Base 4:4.3.4
 _ZN15KDoubleNumInput8doLayoutEv@Base 4:4.3.4
 _ZN15KDoubleNumInput8setLabelERK7QString6QFlagsIN2Qt13AlignmentFlagEE@Base 4:4.3.4
 _ZN15KDoubleNumInput8setRangeEdddb@Base 4:4.3.4
 _ZN15KDoubleNumInput8setValueEd@Base 4:4.3.4
 _ZN15KDoubleNumInput9setPrefixERK7QString@Base 4:4.3.4
 _ZN15KDoubleNumInput9setSuffixERK7QString@Base 4:4.3.4
 _ZN15KDoubleNumInputC1EP7QWidget@Base 4:4.3.4
 _ZN15KDoubleNumInputC1EP9KNumInputdddP7QWidgetdi@Base 4:4.3.4
 _ZN15KDoubleNumInputC1EdddP7QWidgetdi@Base 4:4.3.4
 _ZN15KDoubleNumInputC2EP7QWidget@Base 4:4.3.4
 _ZN15KDoubleNumInputC2EP9KNumInputdddP7QWidgetdi@Base 4:4.3.4
 _ZN15KDoubleNumInputC2EdddP7QWidgetdi@Base 4:4.3.4
 _ZN15KDoubleNumInputD0Ev@Base 4:4.3.4
 _ZN15KDoubleNumInputD1Ev@Base 4:4.3.4
 _ZN15KDoubleNumInputD2Ev@Base 4:4.3.4
 _ZN15KEditListWidget10insertItemERK7QStringi@Base 4:4.5.85
 _ZN15KEditListWidget10moveItemUpEv@Base 4:4.5.85
 _ZN15KEditListWidget10removeItemEv@Base 4:4.5.85
 _ZN15KEditListWidget10setButtonsE6QFlagsINS_6ButtonEE@Base 4:4.5.85
 _ZN15KEditListWidget11eventFilterEP7QObjectP6QEvent@Base 4:4.5.85
 _ZN15KEditListWidget11qt_metacallEN11QMetaObject4CallEiPPv@Base 4:4.5.85
 _ZN15KEditListWidget11qt_metacastEPKc@Base 4:4.5.85
 _ZN15KEditListWidget12CustomEditor11setLineEditEP9KLineEdit@Base 4:4.5.85
 _ZN15KEditListWidget12CustomEditor23setRepresentationWidgetEP7QWidget@Base 4:4.5.85
 _ZN15KEditListWidget12CustomEditorC1EP7QWidgetP9KLineEdit@Base 4:4.5.85
 _ZN15KEditListWidget12CustomEditorC1EP9KComboBox@Base 4:4.5.85
 _ZN15KEditListWidget12CustomEditorC1Ev@Base 4:4.5.85
 _ZN15KEditListWidget12CustomEditorC2EP7QWidgetP9KLineEdit@Base 4:4.5.85
 _ZN15KEditListWidget12CustomEditorC2EP9KComboBox@Base 4:4.5.85
 _ZN15KEditListWidget12CustomEditorC2Ev@Base 4:4.5.85
 _ZN15KEditListWidget12CustomEditorD0Ev@Base 4:4.5.85
 _ZN15KEditListWidget12CustomEditorD1Ev@Base 4:4.5.85
 _ZN15KEditListWidget12CustomEditorD2Ev@Base 4:4.5.85
 _ZN15KEditListWidget12moveItemDownEv@Base 4:4.5.85
 _ZN15KEditListWidget14typedSomethingERK7QString@Base 4:4.5.85
 _ZN15KEditListWidget15checkAtEnteringEv@Base 4:4.5.85
 _ZN15KEditListWidget15setCustomEditorERKNS_12CustomEditorE@Base 4:4.5.85
 _ZN15KEditListWidget16insertStringListERK11QStringListi@Base 4:4.5.85
 _ZN15KEditListWidget16staticMetaObjectE@Base 4:4.5.85
 _ZN15KEditListWidget17enableMoveButtonsERK11QModelIndexS2_@Base 4:4.5.85
 _ZN15KEditListWidget18setCheckAtEnteringEb@Base 4:4.5.85
 _ZN15KEditListWidget20slotSelectionChangedERK14QItemSelectionS2_@Base 4:4.5.85
 _ZN15KEditListWidget5addedERK7QString@Base 4:4.5.85
 _ZN15KEditListWidget5clearEv@Base 4:4.5.85
 _ZN15KEditListWidget7addItemEv@Base 4:4.5.85
 _ZN15KEditListWidget7changedEv@Base 4:4.5.85
 _ZN15KEditListWidget7removedERK7QString@Base 4:4.5.85
 _ZN15KEditListWidget8setItemsERK11QStringList@Base 4:4.5.85
 _ZN15KEditListWidgetC1EP7QWidget@Base 4:4.5.85
 _ZN15KEditListWidgetC1ERKNS_12CustomEditorEP7QWidgetb6QFlagsINS_6ButtonEE@Base 4:4.5.85
 _ZN15KEditListWidgetC2EP7QWidget@Base 4:4.5.85
 _ZN15KEditListWidgetC2ERKNS_12CustomEditorEP7QWidgetb6QFlagsINS_6ButtonEE@Base 4:4.5.85
 _ZN15KEditListWidgetD0Ev@Base 4:4.5.85
 _ZN15KEditListWidgetD1Ev@Base 4:4.5.85
 _ZN15KEditListWidgetD2Ev@Base 4:4.5.85
 _ZN15KFloatValidator25setAcceptLocalizedNumbersEb@Base 4:4.3.4
 _ZN15KFloatValidator8setRangeEdd@Base 4:4.3.4
 _ZN15KFloatValidatorC1EP7QWidget@Base 4:4.3.4
 _ZN15KFloatValidatorC1EddP7QWidget@Base 4:4.3.4
 _ZN15KFloatValidatorC1EddbP7QWidget@Base 4:4.3.4
 _ZN15KFloatValidatorC2EP7QWidget@Base 4:4.3.4
 _ZN15KFloatValidatorC2EddP7QWidget@Base 4:4.3.4
 _ZN15KFloatValidatorC2EddbP7QWidget@Base 4:4.3.4
 _ZN15KFloatValidatorD0Ev@Base 4:4.3.4
 _ZN15KFloatValidatorD1Ev@Base 4:4.3.4
 _ZN15KFloatValidatorD2Ev@Base 4:4.3.4
 _ZN15KFontSizeAction11qt_metacallEN11QMetaObject4CallEiPPv@Base 4:4.3.4
 _ZN15KFontSizeAction11qt_metacastEPKc@Base 4:4.3.4
 _ZN15KFontSizeAction11setFontSizeEi@Base 4:4.3.4
 _ZN15KFontSizeAction15actionTriggeredEP7QAction@Base 4:4.3.4
 _ZN15KFontSizeAction15fontSizeChangedEi@Base 4:4.3.4
 _ZN15KFontSizeAction16staticMetaObjectE@Base 4:4.3.4
 _ZN15KFontSizeAction7Private4initEv@Base 4:4.3.4
 _ZN15KFontSizeActionC1EP7QObject@Base 4:4.3.4
 _ZN15KFontSizeActionC1ERK5KIconRK7QStringP7QObject@Base 4:4.3.4
 _ZN15KFontSizeActionC1ERK7QStringP7QObject@Base 4:4.3.4
 _ZN15KFontSizeActionC2EP7QObject@Base 4:4.3.4
 _ZN15KFontSizeActionC2ERK5KIconRK7QStringP7QObject@Base 4:4.3.4
 _ZN15KFontSizeActionC2ERK7QStringP7QObject@Base 4:4.3.4
 _ZN15KFontSizeActionD0Ev@Base 4:4.3.4
 _ZN15KFontSizeActionD1Ev@Base 4:4.3.4
 _ZN15KFontSizeActionD2Ev@Base 4:4.3.4
 _ZN15KGlobalSettings10emitChangeENS_10ChangeTypeEi@Base 4:4.3.4
 _ZN15KGlobalSettings10videosPathEv@Base 4:4.3.4
 _ZN15KGlobalSettings11desktopPathEv@Base 4:4.3.4
 _ZN15KGlobalSettings11generalFontEv@Base 4:4.3.4
 _ZN15KGlobalSettings11iconChangedEi@Base 4:4.3.4
 _ZN15KGlobalSettings11isMultiHeadEv@Base 4:4.3.4
 _ZN15KGlobalSettings11qt_metacallEN11QMetaObject4CallEiPPv@Base 4:4.3.4
 _ZN15KGlobalSettings11qt_metacastEPKc@Base 4:4.3.4
 _ZN15KGlobalSettings11singleClickEv@Base 4:4.3.4
 _ZN15KGlobalSettings11taskbarFontEv@Base 4:4.3.4
 _ZN15KGlobalSettings11toolBarFontEv@Base 4:4.3.4
 _ZN15KGlobalSettings12buttonLayoutEv@Base 4:4.3.4
 _ZN15KGlobalSettings12documentPathEv@Base 4:4.3.4
 _ZN15KGlobalSettings12downloadPathEv@Base 4:4.3.4
 _ZN15KGlobalSettings12opaqueResizeEv@Base 4:4.3.4
 _ZN15KGlobalSettings12picturesPathEv@Base 4:4.3.4
 _ZN15KGlobalSettings12smoothScrollEv@Base 4:4.3.4
 _ZN15KGlobalSettings13autostartPathEv@Base 4:4.3.4
 _ZN15KGlobalSettings13cursorChangedEv@Base 4:4.3.4
 _ZN15KGlobalSettings13dndEventDelayEv@Base 4:4.3.4
 _ZN15KGlobalSettings13mouseSettingsEv@Base 4:4.3.4
 _ZN15KGlobalSettings14blockShortcutsEi@Base 4:4.3.4
 _ZN15KGlobalSettings14completionModeEv@Base 4:4.3.4
 _ZN15KGlobalSettings14contextMenuKeyEv@Base 4:4.3.4
 _ZN15KGlobalSettings14naturalSortingEv@Base 4:4.4.0
 _ZN15KGlobalSettings15activeTextColorEv@Base 4:4.3.4
 _ZN15KGlobalSettings15autoSelectDelayEv@Base 4:4.3.4
 _ZN15KGlobalSettings15desktopGeometryEPK7QWidget@Base 4:4.3.4
 _ZN15KGlobalSettings15desktopGeometryERK6QPoint@Base 4:4.3.4
 _ZN15KGlobalSettings15settingsChangedEi@Base 4:4.3.4
 _ZN15KGlobalSettings15shadeSortColumnEv@Base 4:4.3.4
 _ZN15KGlobalSettings15showFilePreviewERK4KUrl@Base 4:4.3.4
 _ZN15KGlobalSettings15wheelMouseZoomsEv@Base 4:4.3.4
 _ZN15KGlobalSettings15windowTitleFontEv@Base 4:4.3.4
 _ZN15KGlobalSettings16activeTitleColorEv@Base 4:4.3.4
 _ZN15KGlobalSettings16staticMetaObjectE@Base 4:4.3.4
 _ZN15KGlobalSettings17appearanceChangedEv@Base 4:4.3.4
 _ZN15KGlobalSettings17inactiveTextColorEv@Base 4:4.3.4
 _ZN15KGlobalSettings18inactiveTitleColorEv@Base 4:4.3.4
 _ZN15KGlobalSettings19graphicEffectsLevelEv@Base 4:4.3.4
 _ZN15KGlobalSettings19insertTearOffHandleEv@Base 4:4.3.4
 _ZN15KGlobalSettings19kdisplayFontChangedEv@Base 4:4.3.4
 _ZN15KGlobalSettings20changeCursorOverIconEv@Base 4:4.3.4
 _ZN15KGlobalSettings20kdisplayStyleChangedEv@Base 4:4.3.4
 _ZN15KGlobalSettings20smallestReadableFontEv@Base 4:4.3.4
 _ZN15KGlobalSettings21naturalSortingChangedEv@Base 4:4.4.0
 _ZN15KGlobalSettings22kdisplayPaletteChangedEv@Base 4:4.3.4
 _ZN15KGlobalSettings22showIconsOnPushButtonsEv@Base 4:4.3.4
 _ZN15KGlobalSettings23showContextMenusOnPressEv@Base 4:4.3.4
 _ZN15KGlobalSettings24createApplicationPaletteERK10KSharedPtrI13KSharedConfigE@Base 4:4.3.4
 _ZN15KGlobalSettings24toolbarAppearanceChangedEi@Base 4:4.3.4
 _ZN15KGlobalSettings26graphicEffectsLevelDefaultEv@Base 4:4.3.4
 _ZN15KGlobalSettings27createNewApplicationPaletteERK10KSharedPtrI13KSharedConfigE@Base 4:4.6.3
 _ZN15KGlobalSettings27splashScreenDesktopGeometryEv@Base 4:4.3.4
 _ZN15KGlobalSettings28allowDefaultBackgroundImagesEv@Base 4:4.3.4
 _ZN15KGlobalSettings4selfEv@Base 4:4.3.4
 _ZN15KGlobalSettings7Private13applyGUIStyleEv@Base 4:4.3.4
 _ZN15KGlobalSettings7Private15kdisplaySetFontEv@Base 4:4.3.4
 _ZN15KGlobalSettings7Private16applyCursorThemeEv@Base 4:4.3.4
 _ZN15KGlobalSettings7Private16kdisplaySetStyleEv@Base 4:4.3.4
 _ZN15KGlobalSettings7Private18kdisplaySetPaletteEv@Base 4:4.3.4
 _ZN15KGlobalSettings7Private19_k_slotNotifyChangeEii@Base 4:4.3.4
 _ZN15KGlobalSettings7Private19propagateQtSettingsEv@Base 4:4.3.4
 _ZN15KGlobalSettings7Private19reloadStyleSettingsEv@Base 4:4.8.1
 _ZN15KGlobalSettings7Private24createApplicationPaletteERK10KSharedPtrI13KSharedConfigE@Base 4:4.5.85
 _ZN15KGlobalSettings7Private27createNewApplicationPaletteERK10KSharedPtrI13KSharedConfigE@Base 4:4.6.3
 _ZN15KGlobalSettings8activateE6QFlagsINS_14ActivateOptionEE@Base 4:4.5.85
 _ZN15KGlobalSettings8activateEv@Base 4:4.3.4
 _ZN15KGlobalSettings8contrastEv@Base 4:4.3.4
 _ZN15KGlobalSettings8menuFontEv@Base 4:4.3.4
 _ZN15KGlobalSettings9contrastFERK10KSharedPtrI13KSharedConfigE@Base 4:4.3.4
 _ZN15KGlobalSettings9fixedFontEv@Base 4:4.3.4
 _ZN15KGlobalSettings9largeFontERK7QString@Base 4:4.3.4
 _ZN15KGlobalSettings9musicPathEv@Base 4:4.3.4
 _ZN15KGlobalSettingsC1Ev@Base 4:4.3.4
 _ZN15KGlobalSettingsC2Ev@Base 4:4.3.4
 _ZN15KGlobalSettingsD0Ev@Base 4:4.3.4
 _ZN15KGlobalSettingsD1Ev@Base 4:4.3.4
 _ZN15KGlobalSettingsD2Ev@Base 4:4.3.4
 _ZN15KLanguageButton11highlightedERK7QString@Base 4:4.3.4
 _ZN15KLanguageButton11qt_metacallEN11QMetaObject4CallEiPPv@Base 4:4.3.4
 _ZN15KLanguageButton11qt_metacastEPKc@Base 4:4.3.4
 _ZN15KLanguageButton11slotHoveredEP7QAction@Base 4:4.3.4
 _ZN15KLanguageButton13slotTriggeredEP7QAction@Base 4:4.3.4
 _ZN15KLanguageButton14insertLanguageERK7QStringS2_i@Base 4:4.3.4
 _ZN15KLanguageButton14setCurrentItemERK7QString@Base 4:4.3.4
 _ZN15KLanguageButton15insertSeparatorEi@Base 4:4.3.4
 _ZN15KLanguageButton16loadAllLanguagesEv@Base 4:4.3.4
 _ZN15KLanguageButton16staticMetaObjectE@Base 4:4.3.4
 _ZN15KLanguageButton17showLanguageCodesEb@Base 4:4.3.4
 _ZN15KLanguageButton5clearEv@Base 4:4.3.4
 _ZN15KLanguageButton7setTextERK7QString@Base 4:4.3.4
 _ZN15KLanguageButton9activatedERK7QString@Base 4:4.3.4
 _ZN15KLanguageButton9setLocaleEPK7KLocale@Base 4:4.3.4
 _ZN15KLanguageButtonC1EP7QWidget@Base 4:4.3.4
 _ZN15KLanguageButtonC1ERK7QStringP7QWidget@Base 4:4.3.4
 _ZN15KLanguageButtonC2EP7QWidget@Base 4:4.3.4
 _ZN15KLanguageButtonC2ERK7QStringP7QWidget@Base 4:4.3.4
 _ZN15KLanguageButtonD0Ev@Base 4:4.3.4
 _ZN15KLanguageButtonD1Ev@Base 4:4.3.4
 _ZN15KLanguageButtonD2Ev@Base 4:4.3.4
 _ZN15KMultiTabBarTab10paintEventEP11QPaintEvent@Base 4:4.3.4
 _ZN15KMultiTabBarTab11qt_metacallEN11QMetaObject4CallEiPPv@Base 4:4.3.4
 _ZN15KMultiTabBarTab11qt_metacastEPKc@Base 4:4.3.4
 _ZN15KMultiTabBarTab11setPositionEN12KMultiTabBar20KMultiTabBarPositionE@Base 4:4.3.4
 _ZN15KMultiTabBarTab16staticMetaObjectE@Base 4:4.3.4
 _ZN15KMultiTabBarTab7setIconERK7QPixmap@Base 4:4.3.4
 _ZN15KMultiTabBarTab7setIconERK7QString@Base 4:4.3.4
 _ZN15KMultiTabBarTab8setStateEb@Base 4:4.3.4
 _ZN15KMultiTabBarTab8setStyleEN12KMultiTabBar17KMultiTabBarStyleE@Base 4:4.3.4
 _ZN15KMultiTabBarTabC1ERK7QPixmapRK7QStringiP7QWidgetN12KMultiTabBar20KMultiTabBarPositionENS8_17KMultiTabBarStyleE@Base 4:4.3.4
 _ZN15KMultiTabBarTabC2ERK7QPixmapRK7QStringiP7QWidgetN12KMultiTabBar20KMultiTabBarPositionENS8_17KMultiTabBarStyleE@Base 4:4.3.4
 _ZN15KMultiTabBarTabD0Ev@Base 4:4.3.4
 _ZN15KMultiTabBarTabD1Ev@Base 4:4.3.4
 _ZN15KMultiTabBarTabD2Ev@Base 4:4.3.4
 _ZN15KPageWidgetItem10setCheckedEb@Base 4:4.3.4
 _ZN15KPageWidgetItem10setEnabledEb@Base 4:4.3.4
 _ZN15KPageWidgetItem11qt_metacallEN11QMetaObject4CallEiPPv@Base 4:4.3.4
 _ZN15KPageWidgetItem11qt_metacastEPKc@Base 4:4.3.4
 _ZN15KPageWidgetItem12setCheckableEb@Base 4:4.3.4
 _ZN15KPageWidgetItem16staticMetaObjectE@Base 4:4.3.4
 _ZN15KPageWidgetItem7changedEv@Base 4:4.3.4
 _ZN15KPageWidgetItem7setIconERK5KIcon@Base 4:4.3.4
 _ZN15KPageWidgetItem7setNameERK7QString@Base 4:4.3.4
 _ZN15KPageWidgetItem7toggledEb@Base 4:4.3.4
 _ZN15KPageWidgetItem9setHeaderERK7QString@Base 4:4.3.4
 _ZN15KPageWidgetItemC1EP7QWidget@Base 4:4.3.4
 _ZN15KPageWidgetItemC1EP7QWidgetRK7QString@Base 4:4.3.4
 _ZN15KPageWidgetItemC2EP7QWidget@Base 4:4.3.4
 _ZN15KPageWidgetItemC2EP7QWidgetRK7QString@Base 4:4.3.4
 _ZN15KPageWidgetItemD0Ev@Base 4:4.3.4
 _ZN15KPageWidgetItemD1Ev@Base 4:4.3.4
 _ZN15KPageWidgetItemD2Ev@Base 4:4.3.4
 _ZN15KPasswordDialog11gotPasswordERK7QStringb@Base 4:4.3.4
 _ZN15KPasswordDialog11qt_metacallEN11QMetaObject4CallEiPPv@Base 4:4.3.4
 _ZN15KPasswordDialog11qt_metacastEPKc@Base 4:4.3.4
 _ZN15KPasswordDialog11setPasswordERK7QString@Base 4:4.3.4
 _ZN15KPasswordDialog11setUsernameERK7QString@Base 4:4.3.4
 _ZN15KPasswordDialog13checkPasswordEv@Base 4:4.3.4
 _ZN15KPasswordDialog14addCommentLineERK7QStringS2_@Base 4:4.3.4
 _ZN15KPasswordDialog14setKnownLoginsERK4QMapI7QStringS1_E@Base 4:4.3.4
 _ZN15KPasswordDialog15setKeepPasswordEb@Base 4:4.3.4
 _ZN15KPasswordDialog16setAnonymousModeEb@Base 4:4.3.4
 _ZN15KPasswordDialog16showErrorMessageERK7QStringNS_9ErrorTypeE@Base 4:4.3.4
 _ZN15KPasswordDialog16staticMetaObjectE@Base 4:4.3.4
 _ZN15KPasswordDialog19setUsernameReadOnlyEb@Base 4:4.3.4
 _ZN15KPasswordDialog22KPasswordDialogPrivate12updateFieldsEv@Base 4:4.3.4
 _ZN15KPasswordDialog22KPasswordDialogPrivate14actuallyAcceptEv@Base 4:4.3.4
 _ZN15KPasswordDialog22KPasswordDialogPrivate4initEv@Base 4:4.3.4
 _ZN15KPasswordDialog22KPasswordDialogPrivate9activatedERK7QString@Base 4:4.3.4
 _ZN15KPasswordDialog22gotUsernameAndPasswordERK7QStringS2_b@Base 4:4.3.4
 _ZN15KPasswordDialog6acceptEv@Base 4:4.3.4
 _ZN15KPasswordDialog9setDomainERK7QString@Base 4:4.3.4
 _ZN15KPasswordDialog9setPixmapERK7QPixmap@Base 4:4.3.4
 _ZN15KPasswordDialog9setPromptERK7QString@Base 4:4.3.4
 _ZN15KPasswordDialogC1EP7QWidgetRK6QFlagsINS_19KPasswordDialogFlagEES2_IN7KDialog10ButtonCodeEE@Base 4:4.3.4
 _ZN15KPasswordDialogC2EP7QWidgetRK6QFlagsINS_19KPasswordDialogFlagEES2_IN7KDialog10ButtonCodeEE@Base 4:4.3.4
 _ZN15KPasswordDialogD0Ev@Base 4:4.3.4
 _ZN15KPasswordDialogD1Ev@Base 4:4.3.4
 _ZN15KPasswordDialogD2Ev@Base 4:4.3.4
 _ZN15KPixmapProvider12virtual_hookEiPv@Base 4:4.3.4
 _ZN15KPixmapProviderD0Ev@Base 4:4.3.4
 _ZN15KPixmapProviderD1Ev@Base 4:4.3.4
 _ZN15KPixmapProviderD2Ev@Base 4:4.3.4
 _ZN15KPixmapSequence7Private12loadSequenceERK7QPixmapRK5QSize@Base 4:4.4.0
 _ZN15KPixmapSequenceC1ERK7QPixmapRK5QSize@Base 4:4.4.0
 _ZN15KPixmapSequenceC1ERK7QStringi@Base 4:4.4.0
 _ZN15KPixmapSequenceC1ERKS_@Base 4:4.4.0
 _ZN15KPixmapSequenceC1Ev@Base 4:4.4.0
 _ZN15KPixmapSequenceC2ERK7QPixmapRK5QSize@Base 4:4.4.0
 _ZN15KPixmapSequenceC2ERK7QStringi@Base 4:4.4.0
 _ZN15KPixmapSequenceC2ERKS_@Base 4:4.4.0
 _ZN15KPixmapSequenceC2Ev@Base 4:4.4.0
 _ZN15KPixmapSequenceD1Ev@Base 4:4.4.0
 _ZN15KPixmapSequenceD2Ev@Base 4:4.4.0
 _ZN15KPixmapSequenceaSERKS_@Base 4:4.4.0
 _ZN15KProgressDialog11progressBarEv@Base 4:4.3.4
 _ZN15KProgressDialog11qt_metacallEN11QMetaObject4CallEiPPv@Base 4:4.3.4
 _ZN15KProgressDialog11qt_metacastEPKc@Base 4:4.3.4
 _ZN15KProgressDialog12ignoreCancelEv@Base 4:4.3.4
 _ZN15KProgressDialog12setAutoCloseEb@Base 4:4.3.4
 _ZN15KProgressDialog12setAutoResetEb@Base 4:4.3.4
 _ZN15KProgressDialog12setLabelTextERK7QString@Base 4:4.3.4
 _ZN15KProgressDialog13setButtonTextERK7QString@Base 4:4.3.4
 _ZN15KProgressDialog14setAllowCancelEb@Base 4:4.3.4
 _ZN15KProgressDialog16showCancelButtonEb@Base 4:4.3.4
 _ZN15KProgressDialog16staticMetaObjectE@Base 4:4.3.4
 _ZN15KProgressDialog18setMinimumDurationEi@Base 4:4.3.4
 _ZN15KProgressDialog22KProgressDialogPrivate12slotAutoShowEv@Base 4:4.3.4
 _ZN15KProgressDialog22KProgressDialogPrivate15slotAutoActionsEi@Base 4:4.3.4
 _ZN15KProgressDialog6rejectEv@Base 4:4.3.4
 _ZN15KProgressDialog9showEventEP10QShowEvent@Base 4:4.3.4
 _ZN15KProgressDialogC1EP7QWidgetRK7QStringS4_6QFlagsIN2Qt10WindowTypeEE@Base 4:4.3.4
 _ZN15KProgressDialogC2EP7QWidgetRK7QStringS4_6QFlagsIN2Qt10WindowTypeEE@Base 4:4.3.4
 _ZN15KProgressDialogD0Ev@Base 4:4.3.4
 _ZN15KProgressDialogD1Ev@Base 4:4.3.4
 _ZN15KProgressDialogD2Ev@Base 4:4.3.4
 _ZN15KRestrictedLine11invalidCharEi@Base 4:4.3.4
 _ZN15KRestrictedLine11qt_metacallEN11QMetaObject4CallEiPPv@Base 4:4.3.4
 _ZN15KRestrictedLine11qt_metacastEPKc@Base 4:4.3.4
 _ZN15KRestrictedLine13keyPressEventEP9QKeyEvent@Base 4:4.3.4
 _ZN15KRestrictedLine13setValidCharsERK7QString@Base 4:4.3.4
 _ZN15KRestrictedLine16inputMethodEventEP17QInputMethodEvent@Base 4:4.4.0
 _ZN15KRestrictedLine16staticMetaObjectE@Base 4:4.3.4
 _ZN15KRestrictedLineC1EP7QWidget@Base 4:4.3.4
 _ZN15KRestrictedLineC2EP7QWidget@Base 4:4.3.4
 _ZN15KRestrictedLineD0Ev@Base 4:4.3.4
 _ZN15KRestrictedLineD1Ev@Base 4:4.3.4
 _ZN15KRestrictedLineD2Ev@Base 4:4.3.4
 _ZN15KRichTextWidget11qt_metacallEN11QMetaObject4CallEiPPv@Base 4:4.3.4
 _ZN15KRichTextWidget11qt_metacastEPKc@Base 4:4.3.4
 _ZN15KRichTextWidget13createActionsEP17KActionCollection@Base 4:4.3.4
 _ZN15KRichTextWidget16staticMetaObjectE@Base 4:4.3.4
 _ZN15KRichTextWidget17mouseReleaseEventEP11QMouseEvent@Base 4:4.3.4
 _ZN15KRichTextWidget17setActionsEnabledEb@Base 4:4.3.4
 _ZN15KRichTextWidget18setRichTextSupportERK6QFlagsINS_21RichTextSupportValuesEE@Base 4:4.3.4
 _ZN15KRichTextWidget18updateActionStatesEv@Base 4:4.3.4
 _ZN15KRichTextWidget7Private13_k_manageLinkEv@Base 4:4.3.4
 _ZN15KRichTextWidget7Private15_k_setListStyleEi@Base 4:4.3.4
 _ZN15KRichTextWidget7Private16_k_formatPainterEb@Base 4:4.3.4
 _ZN15KRichTextWidget7Private20_k_updateMiscActionsEv@Base 4:4.3.4
 _ZN15KRichTextWidget7Private25_k_setTextBackgroundColorEv@Base 4:4.3.4
 _ZN15KRichTextWidget7Private25_k_setTextForegroundColorEv@Base 4:4.3.4
 _ZN15KRichTextWidget7Private26_k_updateCharFormatActionsERK15QTextCharFormat@Base 4:4.3.4
 _ZN15KRichTextWidget7Private4initEv@Base 4:4.3.4
 _ZN15KRichTextWidgetC1EP7QWidget@Base 4:4.3.4
 _ZN15KRichTextWidgetC1ERK7QStringP7QWidget@Base 4:4.3.4
 _ZN15KRichTextWidgetC2EP7QWidget@Base 4:4.3.4
 _ZN15KRichTextWidgetC2ERK7QStringP7QWidget@Base 4:4.3.4
 _ZN15KRichTextWidgetD0Ev@Base 4:4.3.4
 _ZN15KRichTextWidgetD1Ev@Base 4:4.3.4
 _ZN15KRichTextWidgetD2Ev@Base 4:4.3.4
 _ZN15KSelectionOwner11filterEventEP7_XEvent@Base 4:4.3.4
 _ZN15KSelectionOwner11qt_metacallEN11QMetaObject4CallEiPPv@Base 4:4.3.4
 _ZN15KSelectionOwner11qt_metacastEPKc@Base 4:4.3.4
 _ZN15KSelectionOwner12genericReplyEmmm@Base 4:4.3.4
 _ZN15KSelectionOwner12replyTargetsEmm@Base 4:4.3.4
 _ZN15KSelectionOwner13handleMessageEP7_XEvent@Base 4:4.3.4
 _ZN15KSelectionOwner13lostOwnershipEv@Base 4:4.3.4
 _ZN15KSelectionOwner16handle_selectionEmmm@Base 4:4.3.4
 _ZN15KSelectionOwner16staticMetaObjectE@Base 4:4.3.4
 _ZN15KSelectionOwner24filter_selection_requestER22XSelectionRequestEvent@Base 4:4.3.4
 _ZN15KSelectionOwner5claimEbb@Base 4:4.3.4
 _ZN15KSelectionOwner7Private10xa_targetsE@Base 4:4.3.4
 _ZN15KSelectionOwner7Private11xa_multipleE@Base 4:4.3.4
 _ZN15KSelectionOwner7Private12manager_atomE@Base 4:4.3.4
 _ZN15KSelectionOwner7Private12xa_timestampE@Base 4:4.3.4
 _ZN15KSelectionOwner7PrivateD0Ev@Base 4:4.7.2
 _ZN15KSelectionOwner7PrivateD1Ev@Base 4:4.7.2
 _ZN15KSelectionOwner7PrivateD2Ev@Base 4:4.7.2
 _ZN15KSelectionOwner7releaseEv@Base 4:4.3.4
 _ZN15KSelectionOwner7setDataEll@Base 4:4.3.4
 _ZN15KSelectionOwner8getAtomsEv@Base 4:4.3.4
 _ZN15KSelectionOwnerC1EPKciP7QObject@Base 4:4.3.4
 _ZN15KSelectionOwnerC1EmiP7QObject@Base 4:4.3.4
 _ZN15KSelectionOwnerC2EPKciP7QObject@Base 4:4.3.4
 _ZN15KSelectionOwnerC2EmiP7QObject@Base 4:4.3.4
 _ZN15KSelectionOwnerD0Ev@Base 4:4.3.4
 _ZN15KSelectionOwnerD1Ev@Base 4:4.3.4
 _ZN15KSelectionOwnerD2Ev@Base 4:4.3.4
 _ZN15KSessionManager10commitDataER15QSessionManager@Base 4:4.3.4
 _ZN15KSessionManager12virtual_hookEiPv@Base 4:4.3.4
 _ZN15KSessionManager14sessionClientsEv@Base 4:4.3.4
 _ZN15KSessionManager9saveStateER15QSessionManager@Base 4:4.3.4
 _ZN15KSessionManagerC1Ev@Base 4:4.3.4
 _ZN15KSessionManagerC2Ev@Base 4:4.3.4
 _ZN15KSessionManagerD0Ev@Base 4:4.3.4
 _ZN15KSessionManagerD1Ev@Base 4:4.3.4
 _ZN15KSessionManagerD2Ev@Base 4:4.3.4
 _ZN15KShortcutWidget11qt_metacallEN11QMetaObject4CallEiPPv@Base 4:4.3.4
 _ZN15KShortcutWidget11qt_metacastEPKc@Base 4:4.3.4
 _ZN15KShortcutWidget11setShortcutERK9KShortcut@Base 4:4.3.4
 _ZN15KShortcutWidget13clearShortcutEv@Base 4:4.3.4
 _ZN15KShortcutWidget15shortcutChangedERK9KShortcut@Base 4:4.3.4
 _ZN15KShortcutWidget16staticMetaObjectE@Base 4:4.3.4
 _ZN15KShortcutWidget18applyStealShortcutEv@Base 4:4.3.4
 _ZN15KShortcutWidget18setCheckActionListERK5QListIP7QActionE@Base 4:4.3.4
 _ZN15KShortcutWidget20setClearButtonsShownEb@Base 4:4.3.4
 _ZN15KShortcutWidget21isModifierlessAllowedEv@Base 4:4.3.4
 _ZN15KShortcutWidget22setModifierlessAllowedEb@Base 4:4.3.4
 _ZN15KShortcutWidget25setCheckActionCollectionsERK5QListIP17KActionCollectionE@Base 4:4.3.4
 _ZN15KShortcutWidgetC1EP7QWidget@Base 4:4.3.4
 _ZN15KShortcutWidgetC2EP7QWidget@Base 4:4.3.4
 _ZN15KShortcutWidgetD0Ev@Base 4:4.3.4
 _ZN15KShortcutWidgetD1Ev@Base 4:4.3.4
 _ZN15KShortcutWidgetD2Ev@Base 4:4.3.4
 _ZN15KStandardAction10actualSizeEPK7QObjectPKcPS0_@Base 4:4.3.4
 _ZN15KStandardAction10fitToWidthEPK7QObjectPKcPS0_@Base 4:4.3.4
 _ZN15KStandardAction10fullScreenEPK7QObjectPKcP7QWidgetPS0_@Base 4:4.3.4
 _ZN15KStandardAction10openRecentEPK7QObjectPKcPS0_@Base 4:4.3.4
 _ZN15KStandardAction11addBookmarkEPK7QObjectPKcPS0_@Base 4:4.3.4
 _ZN15KStandardAction11fitToHeightEPK7QObjectPKcPS0_@Base 4:4.3.4
 _ZN15KStandardAction11keyBindingsEPK7QObjectPKcPS0_@Base 4:4.3.4
 _ZN15KStandardAction11preferencesEPK7QObjectPKcPS0_@Base 4:4.3.4
 _ZN15KStandardAction11saveOptionsEPK7QObjectPKcPS0_@Base 4:4.3.4
 _ZN15KStandardAction11showMenubarEPK7QObjectPKcPS0_@Base 4:4.3.4
 _ZN15KStandardAction12documentBackEPK7QObjectPKcPS0_@Base 4:4.3.4
 _ZN15KStandardAction12helpContentsEPK7QObjectPKcPS0_@Base 4:4.3.4
 _ZN15KStandardAction12printPreviewEPK7QObjectPKcPS0_@Base 4:4.3.4
 _ZN15KStandardAction13editBookmarksEPK7QObjectPKcPS0_@Base 4:4.3.4
 _ZN15KStandardAction13showStatusbarEPK7QObjectPKcPS0_@Base 4:4.3.4
 _ZN15KStandardAction15documentForwardEPK7QObjectPKcPS0_@Base 4:4.3.4
 _ZN15KStandardAction17configureToolbarsEPK7QObjectPKcPS0_@Base 4:4.3.4
 _ZN15KStandardAction19shortcutForActionIdENS_14StandardActionE@Base 4:4.3.4
 _ZN15KStandardAction22configureNotificationsEPK7QObjectPKcPS0_@Base 4:4.3.4
 _ZN15KStandardAction2upEPK7QObjectPKcPS0_@Base 4:4.3.4
 _ZN15KStandardAction3cutEP7QObject@Base 4:4.3.4
 _ZN15KStandardAction3cutEPK7QObjectPKcPS0_@Base 4:4.3.4
 _ZN15KStandardAction4backEPK7QObjectPKcPS0_@Base 4:4.3.4
 _ZN15KStandardAction4copyEP7QObject@Base 4:4.3.4
 _ZN15KStandardAction4copyEPK7QObjectPKcPS0_@Base 4:4.3.4
 _ZN15KStandardAction4findEPK7QObjectPKcPS0_@Base 4:4.3.4
 _ZN15KStandardAction4goToEPK7QObjectPKcPS0_@Base 4:4.3.4
 _ZN15KStandardAction4helpEPK7QObjectPKcPS0_@Base 4:4.3.4
 _ZN15KStandardAction4homeEPK7QObjectPKcPS0_@Base 4:4.3.4
 _ZN15KStandardAction4mailEPK7QObjectPKcPS0_@Base 4:4.3.4
 _ZN15KStandardAction4nameENS_14StandardActionE@Base 4:4.3.4
 _ZN15KStandardAction4nextEPK7QObjectPKcPS0_@Base 4:4.3.4
 _ZN15KStandardAction4openEPK7QObjectPKcPS0_@Base 4:4.3.4
 _ZN15KStandardAction4quitEPK7QObjectPKcPS0_@Base 4:4.3.4
 _ZN15KStandardAction4redoEPK7QObjectPKcPS0_@Base 4:4.3.4
 _ZN15KStandardAction4saveEPK7QObjectPKcPS0_@Base 4:4.3.4
 _ZN15KStandardAction4undoEPK7QObjectPKcPS0_@Base 4:4.3.4
 _ZN15KStandardAction4zoomEPK7QObjectPKcPS0_@Base 4:4.3.4
 _ZN15KStandardAction5clearEP7QObject@Base 4:4.3.4
 _ZN15KStandardAction5clearEPK7QObjectPKcPS0_@Base 4:4.3.4
 _ZN15KStandardAction5closeEPK7QObjectPKcPS0_@Base 4:4.3.4
 _ZN15KStandardAction5pasteEP7QObject@Base 4:4.3.4
 _ZN15KStandardAction5pasteEPK7QObjectPKcPS0_@Base 4:4.3.4
 _ZN15KStandardAction5printEPK7QObjectPKcPS0_@Base 4:4.3.4
 _ZN15KStandardAction5priorEPK7QObjectPKcPS0_@Base 4:4.3.4
 _ZN15KStandardAction6createENS_14StandardActionEPK7QObjectPKcPS1_@Base 4:4.3.4
 _ZN15KStandardAction6revertEPK7QObjectPKcPS0_@Base 4:4.3.4
 _ZN15KStandardAction6saveAsEPK7QObjectPKcPS0_@Base 4:4.3.4
 _ZN15KStandardAction6zoomInEPK7QObjectPKcPS0_@Base 4:4.3.4
 _ZN15KStandardAction7forwardEPK7QObjectPKcPS0_@Base 4:4.3.4
 _ZN15KStandardAction7openNewEPK7QObjectPKcPS0_@Base 4:4.3.4
 _ZN15KStandardAction7replaceEPK7QObjectPKcPS0_@Base 4:4.3.4
 _ZN15KStandardAction7zoomOutEPK7QObjectPKcPS0_@Base 4:4.3.4
 _ZN15KStandardAction8aboutAppEPK7QObjectPKcPS0_@Base 4:4.3.4
 _ZN15KStandardAction8aboutKDEEPK7QObjectPKcPS0_@Base 4:4.3.4
 _ZN15KStandardAction8deselectEPK7QObjectPKcPS0_@Base 4:4.3.4
 _ZN15KStandardAction8findNextEPK7QObjectPKcPS0_@Base 4:4.3.4
 _ZN15KStandardAction8findPrevEPK7QObjectPKcPS0_@Base 4:4.3.4
 _ZN15KStandardAction8gotoLineEPK7QObjectPKcPS0_@Base 4:4.3.4
 _ZN15KStandardAction8gotoPageEPK7QObjectPKcPS0_@Base 4:4.3.4
 _ZN15KStandardAction8lastPageEPK7QObjectPKcPS0_@Base 4:4.3.4
 _ZN15KStandardAction8spellingEPK7QObjectPKcPS0_@Base 4:4.3.4
 _ZN15KStandardAction8stdNamesEv@Base 4:4.3.4
 _ZN15KStandardAction8tipOfDayEPK7QObjectPKcPS0_@Base 4:4.3.4
 _ZN15KStandardAction9actionIdsEv@Base 4:4.3.4
 _ZN15KStandardAction9firstPageEPK7QObjectPKcPS0_@Base 4:4.3.4
 _ZN15KStandardAction9fitToPageEPK7QObjectPKcPS0_@Base 4:4.3.4
 _ZN15KStandardAction9pasteTextEPK7QObjectPKcPS0_@Base 4:4.3.4
 _ZN15KStandardAction9redisplayEPK7QObjectPKcPS0_@Base 4:4.3.4
 _ZN15KStandardAction9reportBugEPK7QObjectPKcPS0_@Base 4:4.3.4
 _ZN15KStandardAction9selectAllEP7QObject@Base 4:4.3.4
 _ZN15KStandardAction9selectAllEPK7QObjectPKcPS0_@Base 4:4.3.4
 _ZN15KStandardAction9whatsThisEPK7QObjectPKcPS0_@Base 4:4.3.4
 _ZN15KSystemTrayIcon11qt_metacallEN11QMetaObject4CallEiPPv@Base 4:4.3.4
 _ZN15KSystemTrayIcon11qt_metacastEPKc@Base 4:4.3.4
 _ZN15KSystemTrayIcon12quitSelectedEv@Base 4:4.3.4
 _ZN15KSystemTrayIcon12toggleActiveEv@Base 4:4.3.4
 _ZN15KSystemTrayIcon14activateOrHideEN15QSystemTrayIcon16ActivationReasonE@Base 4:4.3.4
 _ZN15KSystemTrayIcon15minimizeRestoreEb@Base 4:4.3.4
 _ZN15KSystemTrayIcon16actionCollectionEv@Base 4:4.3.4
 _ZN15KSystemTrayIcon16staticMetaObjectE@Base 4:4.3.4
 _ZN15KSystemTrayIcon19setContextMenuTitleEP7QAction@Base 4:4.3.4
 _ZN15KSystemTrayIcon21minimizeRestoreActionEv@Base 4:4.3.4
 _ZN15KSystemTrayIcon22contextMenuAboutToShowEv@Base 4:4.3.4
 _ZN15KSystemTrayIcon4initEP7QWidget@Base 4:4.3.4
 _ZN15KSystemTrayIcon8loadIconERK7QStringRK14KComponentData@Base 4:4.3.4
 _ZN15KSystemTrayIcon8setMovieEP6QMovie@Base 4:4.3.4
 _ZN15KSystemTrayIcon9maybeQuitEv@Base 4:4.3.4
 _ZN15KSystemTrayIconC1EP6QMovieP7QWidget@Base 4:4.3.4
 _ZN15KSystemTrayIconC1EP7QWidget@Base 4:4.3.4
 _ZN15KSystemTrayIconC1ERK5QIconP7QWidget@Base 4:4.3.4
 _ZN15KSystemTrayIconC1ERK7QStringP7QWidget@Base 4:4.3.4
 _ZN15KSystemTrayIconC2EP6QMovieP7QWidget@Base 4:4.3.4
 _ZN15KSystemTrayIconC2EP7QWidget@Base 4:4.3.4
 _ZN15KSystemTrayIconC2ERK5QIconP7QWidget@Base 4:4.3.4
 _ZN15KSystemTrayIconC2ERK7QStringP7QWidget@Base 4:4.3.4
 _ZN15KSystemTrayIconD0Ev@Base 4:4.3.4
 _ZN15KSystemTrayIconD1Ev@Base 4:4.3.4
 _ZN15KSystemTrayIconD2Ev@Base 4:4.3.4
 _ZN15KTimeZoneWidget11displayNameERK9KTimeZone@Base 4:4.3.4
 _ZN15KTimeZoneWidget11qt_metacallEN11QMetaObject4CallEiPPv@Base 4:4.3.4
 _ZN15KTimeZoneWidget11qt_metacastEPKc@Base 4:4.3.4
 _ZN15KTimeZoneWidget11setSelectedERK7QStringb@Base 4:4.3.4
 _ZN15KTimeZoneWidget14clearSelectionEv@Base 4:4.4.0
 _ZN15KTimeZoneWidget16setSelectionModeEN17QAbstractItemView13SelectionModeE@Base 4:4.4.0
 _ZN15KTimeZoneWidget16staticMetaObjectE@Base 4:4.3.4
 _ZN15KTimeZoneWidget17setItemsCheckableEb@Base 4:4.4.0
 _ZN15KTimeZoneWidgetC1EP7QWidgetP10KTimeZones@Base 4:4.3.4
 _ZN15KTimeZoneWidgetC2EP7QWidgetP10KTimeZones@Base 4:4.3.4
 _ZN15KTimeZoneWidgetD0Ev@Base 4:4.3.4
 _ZN15KTimeZoneWidgetD1Ev@Base 4:4.3.4
 _ZN15KTimeZoneWidgetD2Ev@Base 4:4.3.4
 _ZN15KViewStateSaver11qt_metacallEN11QMetaObject4CallEiPPv@Base 4:4.4.95
 _ZN15KViewStateSaver11qt_metacastEPKc@Base 4:4.4.95
 _ZN15KViewStateSaver12restoreStateERK12KConfigGroup@Base 4:4.4.95
 _ZN15KViewStateSaver15restoreExpandedERK11QStringList@Base 4:4.4.95
 _ZN15KViewStateSaver16restoreSelectionERK11QStringList@Base 4:4.4.95
 _ZN15KViewStateSaver16staticMetaObjectE@Base 4:4.4.95
 _ZN15KViewStateSaver17setSelectionModelEP19QItemSelectionModel@Base 4:4.4.95
 _ZN15KViewStateSaver18restoreCurrentItemERK7QString@Base 4:4.4.95
 _ZN15KViewStateSaver18restoreScrollStateEii@Base 4:4.4.95
 _ZN15KViewStateSaver7setViewEP17QAbstractItemView@Base 4:4.4.95
 _ZN15KViewStateSaver9saveStateER12KConfigGroup@Base 4:4.4.95
 _ZN15KViewStateSaverC1EP7QObject@Base 4:4.4.95
 _ZN15KViewStateSaverC2EP7QObject@Base 4:4.4.95
 _ZN15KViewStateSaverD0Ev@Base 4:4.4.95
 _ZN15KViewStateSaverD1Ev@Base 4:4.4.95
 _ZN15KViewStateSaverD2Ev@Base 4:4.4.95
 _ZN15KdeUiProxyStyle11qt_metacallEN11QMetaObject4CallEiPPv@Base 4:4.3.4
 _ZN15KdeUiProxyStyle11qt_metacastEPKc@Base 4:4.3.4
 _ZN15KdeUiProxyStyle16staticMetaObjectE@Base 4:4.3.4
 _ZN15KdeUiProxyStyle6polishEP12QApplication@Base 4:4.3.4
 _ZN15KdeUiProxyStyle6polishEP7QWidget@Base 4:4.3.4
 _ZN15KdeUiProxyStyle6polishER8QPalette@Base 4:4.3.4
 _ZN15KdeUiProxyStyle8unpolishEP12QApplication@Base 4:4.3.4
 _ZN15KdeUiProxyStyle8unpolishEP7QWidget@Base 4:4.3.4
 _ZN15KdeUiProxyStyleC1EP7QWidget@Base 4:4.3.4
 _ZN15KdeUiProxyStyleC2EP7QWidget@Base 4:4.3.4
 _ZN15KdeUiProxyStyleD0Ev@Base 4:4.3.4
 _ZN15KdeUiProxyStyleD1Ev@Base 4:4.3.4
 _ZN15KdeUiProxyStyleD2Ev@Base 4:4.3.4
 _ZN16KAssistantDialog11qt_metacallEN11QMetaObject4CallEiPPv@Base 4:4.3.4
 _ZN16KAssistantDialog11qt_metacastEPKc@Base 4:4.3.4
 _ZN16KAssistantDialog14setAppropriateEP15KPageWidgetItemb@Base 4:4.3.4
 _ZN16KAssistantDialog16staticMetaObjectE@Base 4:4.3.4
 _ZN16KAssistantDialog4backEv@Base 4:4.3.4
 _ZN16KAssistantDialog4nextEv@Base 4:4.3.4
 _ZN16KAssistantDialog7Private20_k_slotUpdateButtonsEv@Base 4:4.4.95
 _ZN16KAssistantDialog7Private4initEv@Base 4:4.3.4
 _ZN16KAssistantDialog8setValidEP15KPageWidgetItemb@Base 4:4.3.4
 _ZN16KAssistantDialog9showEventEP10QShowEvent@Base 4:4.3.4
 _ZN16KAssistantDialogC1EP11KPageWidgetP7QWidget6QFlagsIN2Qt10WindowTypeEE@Base 4:4.3.4
 _ZN16KAssistantDialogC1EP7QWidget6QFlagsIN2Qt10WindowTypeEE@Base 4:4.3.4
 _ZN16KAssistantDialogC2EP11KPageWidgetP7QWidget6QFlagsIN2Qt10WindowTypeEE@Base 4:4.3.4
 _ZN16KAssistantDialogC2EP7QWidget6QFlagsIN2Qt10WindowTypeEE@Base 4:4.3.4
 _ZN16KAssistantDialogD0Ev@Base 4:4.3.4
 _ZN16KAssistantDialogD1Ev@Base 4:4.3.4
 _ZN16KAssistantDialogD2Ev@Base 4:4.3.4
 _ZN16KCategorizedView10leaveEventEP6QEvent@Base 4:4.3.4
 _ZN16KCategorizedView10moveCursorEN17QAbstractItemView12CursorActionE6QFlagsIN2Qt16KeyboardModifierEE@Base 4:4.3.4
 _ZN16KCategorizedView10paintEventEP11QPaintEvent@Base 4:4.3.4
 _ZN16KCategorizedView11dataChangedERK11QModelIndexS2_@Base 4:4.3.4
 _ZN16KCategorizedView11qt_metacallEN11QMetaObject4CallEiPPv@Base 4:4.3.4
 _ZN16KCategorizedView11qt_metacastEPKc@Base 4:4.3.4
 _ZN16KCategorizedView11resizeEventEP12QResizeEvent@Base 4:4.3.4
 _ZN16KCategorizedView11rowsRemovedERK11QModelIndexii@Base 4:4.3.4
 _ZN16KCategorizedView11setGridSizeERK5QSize@Base 4:4.3.4
 _ZN16KCategorizedView12rowsInsertedERK11QModelIndexii@Base 4:4.3.4
 _ZN16KCategorizedView12setSelectionERK5QRect6QFlagsIN19QItemSelectionModel13SelectionFlagEE@Base 4:4.3.4
 _ZN16KCategorizedView13dragMoveEventEP14QDragMoveEvent@Base 4:4.3.4
 _ZN16KCategorizedView14currentChangedERK11QModelIndexS2_@Base 4:4.3.4
 _ZN16KCategorizedView14dragEnterEventEP15QDragEnterEvent@Base 4:4.4.0
 _ZN16KCategorizedView14dragLeaveEventEP15QDragLeaveEvent@Base 4:4.3.4
 _ZN16KCategorizedView14mouseMoveEventEP11QMouseEvent@Base 4:4.3.4
 _ZN16KCategorizedView14setGridSizeOwnERK5QSize@Base 4:4.4.0
 _ZN16KCategorizedView15mousePressEventEP11QMouseEvent@Base 4:4.3.4
 _ZN16KCategorizedView16staticMetaObjectE@Base 4:4.3.4
 _ZN16KCategorizedView16updateGeometriesEv@Base 4:4.3.4
 _ZN16KCategorizedView17mouseReleaseEventEP11QMouseEvent@Base 4:4.3.4
 _ZN16KCategorizedView17setCategoryDrawerEP15KCategoryDrawer@Base 4:4.3.4
 _ZN16KCategorizedView17slotLayoutChangedEv@Base 4:4.3.4
 _ZN16KCategorizedView18setCategorySpacingEi@Base 4:4.4.0
 _ZN16KCategorizedView20rowsAboutToBeRemovedERK11QModelIndexii@Base 4:4.4.0
 _ZN16KCategorizedView20setCollapsibleBlocksEb@Base 4:4.4.0
 _ZN16KCategorizedView23rowsInsertedArtifficialERK11QModelIndexii@Base 4:4.3.4
 _ZN16KCategorizedView25setAlternatingBlockColorsEb@Base 4:4.4.0
 _ZN16KCategorizedView5blockERK11QModelIndex@Base 4:4.4.95
 _ZN16KCategorizedView5blockERK7QString@Base 4:4.4.95
 _ZN16KCategorizedView5resetEv@Base 4:4.3.4
 _ZN16KCategorizedView7Private11blockHeightERK7QString@Base 4:4.4.0
 _ZN16KCategorizedView7Private12rowsInsertedERK11QModelIndexii@Base 4:4.4.0
 _ZN16KCategorizedView7Private13blockPositionERK7QString@Base 4:4.4.0
 _ZN16KCategorizedView7Private21regenerateAllElementsEv@Base 4:4.4.0
 _ZN16KCategorizedView7Private30_k_slotCollapseOrExpandClickedE11QModelIndex@Base 4:4.4.0
 _ZN16KCategorizedView7Private9blockRectERK11QModelIndex@Base 4:4.4.95
 _ZN16KCategorizedView7PrivateC1EPS_@Base 4:4.3.4
 _ZN16KCategorizedView7PrivateC2EPS_@Base 4:4.3.4
 _ZN16KCategorizedView7PrivateD1Ev@Base 4:4.3.4
 _ZN16KCategorizedView7PrivateD2Ev@Base 4:4.3.4
 _ZN16KCategorizedView8setModelEP18QAbstractItemModel@Base 4:4.3.4
 _ZN16KCategorizedView9dropEventEP10QDropEvent@Base 4:4.3.4
 _ZN16KCategorizedView9startDragE6QFlagsIN2Qt10DropActionEE@Base 4:4.3.4
 _ZN16KCategorizedViewC1EP7QWidget@Base 4:4.3.4
 _ZN16KCategorizedViewC2EP7QWidget@Base 4:4.3.4
 _ZN16KCategorizedViewD0Ev@Base 4:4.3.4
 _ZN16KCategorizedViewD1Ev@Base 4:4.3.4
 _ZN16KCategorizedViewD2Ev@Base 4:4.3.4
 _ZN16KColorCollection11changeColorERK6QColorS2_RK7QString@Base 4:4.3.4
 _ZN16KColorCollection11changeColorEiRK6QColorRK7QString@Base 4:4.3.4
 _ZN16KColorCollection11setEditableENS_8EditableE@Base 4:4.3.4
 _ZN16KColorCollection14setDescriptionERK7QString@Base 4:4.3.4
 _ZN16KColorCollection20installedCollectionsEv@Base 4:4.3.4
 _ZN16KColorCollection4saveEv@Base 4:4.3.4
 _ZN16KColorCollection7setNameERK7QString@Base 4:4.3.4
 _ZN16KColorCollection8addColorERK6QColorRK7QString@Base 4:4.3.4
 _ZN16KColorCollectionC1ERK7QString@Base 4:4.3.4
 _ZN16KColorCollectionC1ERKS_@Base 4:4.3.4
 _ZN16KColorCollectionC2ERK7QString@Base 4:4.3.4
 _ZN16KColorCollectionC2ERKS_@Base 4:4.3.4
 _ZN16KColorCollectionD1Ev@Base 4:4.3.4
 _ZN16KColorCollectionD2Ev@Base 4:4.3.4
 _ZN16KColorCollectionaSERKS_@Base 4:4.3.4
 _ZN16KDialogButtonBox11qt_metacallEN11QMetaObject4CallEiPPv@Base 4:4.3.4
 _ZN16KDialogButtonBox11qt_metacastEPKc@Base 4:4.3.4
 _ZN16KDialogButtonBox16staticMetaObjectE@Base 4:4.3.4
 _ZN16KDialogButtonBox9addButtonERK7QStringN16QDialogButtonBox10ButtonRoleEP7QObjectPKc@Base 4:4.3.4
 _ZN16KDialogButtonBox9addButtonERK8KGuiItemN16QDialogButtonBox10ButtonRoleEP7QObjectPKc@Base 4:4.3.4
 _ZN16KDialogButtonBoxC1EP7QWidgetN2Qt11OrientationE@Base 4:4.3.4
 _ZN16KDialogButtonBoxC2EP7QWidgetN2Qt11OrientationE@Base 4:4.3.4
 _ZN16KDialogButtonBoxD0Ev@Base 4:4.3.4
 _ZN16KDialogButtonBoxD1Ev@Base 4:4.3.4
 _ZN16KDialogButtonBoxD2Ev@Base 4:4.3.4
 _ZN16KDoubleValidator11qt_metacallEN11QMetaObject4CallEiPPv@Base 4:4.3.4
 _ZN16KDoubleValidator11qt_metacastEPKc@Base 4:4.3.4
 _ZN16KDoubleValidator16staticMetaObjectE@Base 4:4.3.4
 _ZN16KDoubleValidator25setAcceptLocalizedNumbersEb@Base 4:4.3.4
 _ZN16KDoubleValidatorC1EP7QObject@Base 4:4.3.4
 _ZN16KDoubleValidatorC1EddiP7QObject@Base 4:4.3.4
 _ZN16KDoubleValidatorC2EP7QObject@Base 4:4.3.4
 _ZN16KDoubleValidatorC2EddiP7QObject@Base 4:4.3.4
 _ZN16KDoubleValidatorD0Ev@Base 4:4.3.4
 _ZN16KDoubleValidatorD1Ev@Base 4:4.3.4
 _ZN16KDoubleValidatorD2Ev@Base 4:4.3.4
 _ZN16KHistoryComboBox10rotateDownEv@Base 4:4.3.4
 _ZN16KHistoryComboBox10wheelEventEP11QWheelEvent@Base 4:4.3.4
 _ZN16KHistoryComboBox11insertItemsERK11QStringList@Base 4:4.3.4
 _ZN16KHistoryComboBox11qt_metacallEN11QMetaObject4CallEiPPv@Base 4:4.3.4
 _ZN16KHistoryComboBox11qt_metacastEPKc@Base 4:4.3.4
 _ZN16KHistoryComboBox12addToHistoryERK7QString@Base 4:4.3.4
 _ZN16KHistoryComboBox12clearHistoryEv@Base 4:4.3.4
 _ZN16KHistoryComboBox13keyPressEventEP9QKeyEvent@Base 4:4.3.4
 _ZN16KHistoryComboBox15setHistoryItemsERK11QStringList@Base 4:4.3.4
 _ZN16KHistoryComboBox15setHistoryItemsERK11QStringListb@Base 4:4.3.4
 _ZN16KHistoryComboBox16staticMetaObjectE@Base 4:4.3.4
 _ZN16KHistoryComboBox17removeFromHistoryERK7QString@Base 4:4.3.4
 _ZN16KHistoryComboBox17setPixmapProviderEP15KPixmapProvider@Base 4:4.3.4
 _ZN16KHistoryComboBox19addContextMenuItemsEP5QMenu@Base 4:4.3.4
 _ZN16KHistoryComboBox21slotSimulateActivatedERK7QString@Base 4:4.3.4
 _ZN16KHistoryComboBox4initEb@Base 4:4.3.4
 _ZN16KHistoryComboBox5resetEv@Base 4:4.3.4
 _ZN16KHistoryComboBox7clearedEv@Base 4:4.3.4
 _ZN16KHistoryComboBox8rotateUpEv@Base 4:4.3.4
 _ZN16KHistoryComboBox9slotClearEv@Base 4:4.3.4
 _ZN16KHistoryComboBox9slotResetEv@Base 4:4.3.4
 _ZN16KHistoryComboBoxC1EP7QWidget@Base 4:4.3.4
 _ZN16KHistoryComboBoxC1EbP7QWidget@Base 4:4.3.4
 _ZN16KHistoryComboBoxC2EP7QWidget@Base 4:4.3.4
 _ZN16KHistoryComboBoxC2EbP7QWidget@Base 4:4.3.4
 _ZN16KHistoryComboBoxD0Ev@Base 4:4.3.4
 _ZN16KHistoryComboBoxD1Ev@Base 4:4.3.4
 _ZN16KHistoryComboBoxD2Ev@Base 4:4.3.4
 _ZN16KModifierKeyInfo10keyLatchedEN2Qt3KeyEb@Base 4:4.3.4
 _ZN16KModifierKeyInfo10keyPressedEN2Qt3KeyEb@Base 4:4.3.4
 _ZN16KModifierKeyInfo10keyRemovedEN2Qt3KeyE@Base 4:4.3.4
 _ZN16KModifierKeyInfo11qt_metacallEN11QMetaObject4CallEiPPv@Base 4:4.3.4
 _ZN16KModifierKeyInfo11qt_metacastEPKc@Base 4:4.3.4
 _ZN16KModifierKeyInfo12setKeyLockedEN2Qt3KeyEb@Base 4:4.3.4
 _ZN16KModifierKeyInfo13buttonPressedEN2Qt11MouseButtonEb@Base 4:4.3.4
 _ZN16KModifierKeyInfo13setKeyLatchedEN2Qt3KeyEb@Base 4:4.3.4
 _ZN16KModifierKeyInfo16staticMetaObjectE@Base 4:4.3.4
 _ZN16KModifierKeyInfo8keyAddedEN2Qt3KeyE@Base 4:4.3.4
 _ZN16KModifierKeyInfo9keyLockedEN2Qt3KeyEb@Base 4:4.3.4
 _ZN16KModifierKeyInfoC1EP7QObject@Base 4:4.3.4
 _ZN16KModifierKeyInfoC2EP7QObject@Base 4:4.3.4
 _ZN16KModifierKeyInfoD0Ev@Base 4:4.3.4
 _ZN16KModifierKeyInfoD1Ev@Base 4:4.3.4
 _ZN16KModifierKeyInfoD2Ev@Base 4:4.3.4
 _ZN16KPageWidgetModel10addSubPageEP15KPageWidgetItemP7QWidgetRK7QString@Base 4:4.3.4
 _ZN16KPageWidgetModel10addSubPageEP15KPageWidgetItemS1_@Base 4:4.3.4
 _ZN16KPageWidgetModel10insertPageEP15KPageWidgetItemP7QWidgetRK7QString@Base 4:4.3.4
 _ZN16KPageWidgetModel10insertPageEP15KPageWidgetItemS1_@Base 4:4.3.4
 _ZN16KPageWidgetModel10removePageEP15KPageWidgetItem@Base 4:4.3.4
 _ZN16KPageWidgetModel11qt_metacallEN11QMetaObject4CallEiPPv@Base 4:4.3.4
 _ZN16KPageWidgetModel11qt_metacastEPKc@Base 4:4.3.4
 _ZN16KPageWidgetModel16staticMetaObjectE@Base 4:4.3.4
 _ZN16KPageWidgetModel7addPageEP15KPageWidgetItem@Base 4:4.3.4
 _ZN16KPageWidgetModel7addPageEP7QWidgetRK7QString@Base 4:4.3.4
 _ZN16KPageWidgetModel7setDataERK11QModelIndexRK8QVarianti@Base 4:4.3.4
 _ZN16KPageWidgetModel7toggledEP15KPageWidgetItemb@Base 4:4.3.4
 _ZN16KPageWidgetModelC1EP7QObject@Base 4:4.3.4
 _ZN16KPageWidgetModelC2EP7QObject@Base 4:4.3.4
 _ZN16KPageWidgetModelD0Ev@Base 4:4.3.4
 _ZN16KPageWidgetModelD1Ev@Base 4:4.3.4
 _ZN16KPageWidgetModelD2Ev@Base 4:4.3.4
 _ZN16KPasteTextAction11qt_metacallEN11QMetaObject4CallEiPPv@Base 4:4.3.4
 _ZN16KPasteTextAction11qt_metacastEPKc@Base 4:4.3.4
 _ZN16KPasteTextAction12setMixedModeEb@Base 4:4.3.4
 _ZN16KPasteTextAction16staticMetaObjectE@Base 4:4.3.4
 _ZN16KPasteTextActionC1EP7QObject@Base 4:4.3.4
 _ZN16KPasteTextActionC1ERK5KIconRK7QStringP7QObject@Base 4:4.3.4
 _ZN16KPasteTextActionC1ERK7QStringP7QObject@Base 4:4.3.4
 _ZN16KPasteTextActionC2EP7QObject@Base 4:4.3.4
 _ZN16KPasteTextActionC2ERK5KIconRK7QStringP7QObject@Base 4:4.3.4
 _ZN16KPasteTextActionC2ERK7QStringP7QObject@Base 4:4.3.4
 _ZN16KPasteTextActionD0Ev@Base 4:4.3.4
 _ZN16KPasteTextActionD1Ev@Base 4:4.3.4
 _ZN16KPasteTextActionD2Ev@Base 4:4.3.4
 _ZN16KShortcutsDialog11qt_metacallEN11QMetaObject4CallEiPPv@Base 4:4.3.4
 _ZN16KShortcutsDialog11qt_metacastEPKc@Base 4:4.3.4
 _ZN16KShortcutsDialog13addCollectionEP17KActionCollectionRK7QString@Base 4:4.3.4
 _ZN16KShortcutsDialog16staticMetaObjectE@Base 4:4.3.4
 _ZN16KShortcutsDialog5savedEv@Base 4:4.3.4
 _ZN16KShortcutsDialog9configureEP17KActionCollectionN16KShortcutsEditor15LetterShortcutsEP7QWidgetb@Base 4:4.3.4
 _ZN16KShortcutsDialog9configureEb@Base 4:4.3.4
 _ZN16KShortcutsDialogC1E6QFlagsIN16KShortcutsEditor10ActionTypeEENS1_15LetterShortcutsEP7QWidget@Base 4:4.3.4
 _ZN16KShortcutsDialogC2E6QFlagsIN16KShortcutsEditor10ActionTypeEENS1_15LetterShortcutsEP7QWidget@Base 4:4.3.4
 _ZN16KShortcutsDialogD0Ev@Base 4:4.3.4
 _ZN16KShortcutsDialogD1Ev@Base 4:4.3.4
 _ZN16KShortcutsDialogD2Ev@Base 4:4.3.4
 _ZN16KShortcutsEditor10allDefaultEv@Base 4:4.3.4
 _ZN16KShortcutsEditor11qt_metacallEN11QMetaObject4CallEiPPv@Base 4:4.3.4
 _ZN16KShortcutsEditor11qt_metacastEPKc@Base 4:4.3.4
 _ZN16KShortcutsEditor11undoChangesEv@Base 4:4.3.4
 _ZN16KShortcutsEditor13addCollectionEP17KActionCollectionRK7QString@Base 4:4.3.4
 _ZN16KShortcutsEditor13resizeColumnsEv@Base 4:4.3.4
 _ZN16KShortcutsEditor16clearCollectionsEv@Base 4:4.3.4
 _ZN16KShortcutsEditor16staticMetaObjectE@Base 4:4.3.4
 _ZN16KShortcutsEditor18clearConfigurationEv@Base 4:4.3.4
 _ZN16KShortcutsEditor19importConfigurationEP11KConfigBase@Base 4:4.3.4
 _ZN16KShortcutsEditor19importConfigurationEP7KConfig@Base 4:4.3.4
 _ZN16KShortcutsEditor4saveEv@Base 4:4.3.4
 _ZN16KShortcutsEditor6commitEv@Base 4:4.3.4
 _ZN16KShortcutsEditor9keyChangeEv@Base 4:4.3.4
 _ZN16KShortcutsEditorC1EP17KActionCollectionP7QWidget6QFlagsINS_10ActionTypeEENS_15LetterShortcutsE@Base 4:4.3.4
 _ZN16KShortcutsEditorC1EP7QWidget6QFlagsINS_10ActionTypeEENS_15LetterShortcutsE@Base 4:4.3.4
 _ZN16KShortcutsEditorC2EP17KActionCollectionP7QWidget6QFlagsINS_10ActionTypeEENS_15LetterShortcutsE@Base 4:4.3.4
 _ZN16KShortcutsEditorC2EP7QWidget6QFlagsINS_10ActionTypeEENS_15LetterShortcutsE@Base 4:4.3.4
 _ZN16KShortcutsEditorD0Ev@Base 4:4.3.4
 _ZN16KShortcutsEditorD1Ev@Base 4:4.3.4
 _ZN16KShortcutsEditorD2Ev@Base 4:4.3.4
 _ZN16KStandardGuiItem10propertiesEv@Base 4:4.3.4
 _ZN16KStandardGuiItem11closeWindowEv@Base 4:4.3.4
 _ZN16KStandardGuiItem12standardItemENS_12StandardItemE@Base 4:4.3.4
 _ZN16KStandardGuiItem13closeDocumentEv@Base 4:4.3.4
 _ZN16KStandardGuiItem14backAndForwardEv@Base 4:4.3.4
 _ZN16KStandardGuiItem2noEv@Base 4:4.3.4
 _ZN16KStandardGuiItem2okEv@Base 4:4.3.4
 _ZN16KStandardGuiItem3addEv@Base 4:4.3.4
 _ZN16KStandardGuiItem3delEv@Base 4:4.3.4
 _ZN16KStandardGuiItem3yesEv@Base 4:4.3.4
 _ZN16KStandardGuiItem4backENS_8BidiModeE@Base 4:4.3.4
 _ZN16KStandardGuiItem4contEv@Base 4:4.3.4
 _ZN16KStandardGuiItem4findEv@Base 4:4.3.4
 _ZN16KStandardGuiItem4helpEv@Base 4:4.3.4
 _ZN16KStandardGuiItem4openEv@Base 4:4.3.4
 _ZN16KStandardGuiItem4quitEv@Base 4:4.3.4
 _ZN16KStandardGuiItem4saveEv@Base 4:4.3.4
 _ZN16KStandardGuiItem4stopEv@Base 4:4.3.4
 _ZN16KStandardGuiItem4testEv@Base 4:4.3.4
 _ZN16KStandardGuiItem5applyEv@Base 4:4.3.4
 _ZN16KStandardGuiItem5clearEv@Base 4:4.3.4
 _ZN16KStandardGuiItem5closeEv@Base 4:4.3.4
 _ZN16KStandardGuiItem5printEv@Base 4:4.3.4
 _ZN16KStandardGuiItem5resetEv@Base 4:4.3.4
 _ZN16KStandardGuiItem6cancelEv@Base 4:4.3.4
 _ZN16KStandardGuiItem6insertEv@Base 4:4.3.4
 _ZN16KStandardGuiItem6removeEv@Base 4:4.3.4
 _ZN16KStandardGuiItem6saveAsEv@Base 4:4.3.4
 _ZN16KStandardGuiItem7discardEv@Base 4:4.3.4
 _ZN16KStandardGuiItem7forwardENS_8BidiModeE@Base 4:4.3.4
 _ZN16KStandardGuiItem7guiItemENS_12StandardItemE@Base 4:4.3.4
 _ZN16KStandardGuiItem8defaultsEv@Base 4:4.3.4
 _ZN16KStandardGuiItem8dontSaveEv@Base 4:4.3.4
 _ZN16KStandardGuiItem9adminModeEv@Base 4:4.3.4
 _ZN16KStandardGuiItem9configureEv@Base 4:4.3.4
 _ZN16KStandardGuiItem9overwriteEv@Base 4:4.3.4
 _ZN16KStartupInfoData10setDesktopEi@Base 4:4.3.4
 _ZN16KStartupInfoData10setWMClassERK10QByteArray@Base 4:4.3.4
 _ZN16KStartupInfoData11setHostnameERK10QByteArray@Base 4:4.3.4
 _ZN16KStartupInfoData11setXineramaEi@Base 4:4.3.4
 _ZN16KStartupInfoData12setTimestampEm@Base 4:4.3.4
 _ZN16KStartupInfoData13setLaunchedByEm@Base 4:4.3.4
 _ZN16KStartupInfoData14setDescriptionERK7QString@Base 4:4.3.4
 _ZN16KStartupInfoData16setApplicationIdERK7QString@Base 4:4.4.95
 _ZN16KStartupInfoData6addPidEi@Base 4:4.3.4
 _ZN16KStartupInfoData6setBinERK7QString@Base 4:4.3.4
 _ZN16KStartupInfoData6updateERKS_@Base 4:4.3.4
 _ZN16KStartupInfoData7Private10remove_pidEi@Base 4:4.3.4
 _ZN16KStartupInfoData7setIconERK7QString@Base 4:4.3.4
 _ZN16KStartupInfoData7setNameERK7QString@Base 4:4.3.4
 _ZN16KStartupInfoData9setScreenEi@Base 4:4.3.4
 _ZN16KStartupInfoData9setSilentENS_8TriStateE@Base 4:4.3.4
 _ZN16KStartupInfoDataC1ERK7QString@Base 4:4.3.4
 _ZN16KStartupInfoDataC1ERKS_@Base 4:4.3.4
 _ZN16KStartupInfoDataC1Ev@Base 4:4.3.4
 _ZN16KStartupInfoDataC2ERK7QString@Base 4:4.3.4
 _ZN16KStartupInfoDataC2ERKS_@Base 4:4.3.4
 _ZN16KStartupInfoDataC2Ev@Base 4:4.3.4
 _ZN16KStartupInfoDataD1Ev@Base 4:4.3.4
 _ZN16KStartupInfoDataD2Ev@Base 4:4.3.4
 _ZN16KStartupInfoDataaSERKS_@Base 4:4.3.4
 _ZN17KActionCollection10takeActionEP7QAction@Base 4:4.3.4
 _ZN17KActionCollection11qt_metacallEN11QMetaObject4CallEiPPv@Base 4:4.3.4
 _ZN17KActionCollection11qt_metacastEPKc@Base 4:4.3.4
 _ZN17KActionCollection12readSettingsEP12KConfigGroup@Base 4:4.3.4
 _ZN17KActionCollection12removeActionEP7QAction@Base 4:4.3.4
 _ZN17KActionCollection13actionHoveredEP7QAction@Base 4:4.3.4
 _ZN17KActionCollection13connectNotifyEPKc@Base 4:4.3.4
 _ZN17KActionCollection14allCollectionsEv@Base 4:4.3.4
 _ZN17KActionCollection14setConfigGroupERK7QString@Base 4:4.3.4
 _ZN17KActionCollection15actionTriggeredEP7QAction@Base 4:4.3.4
 _ZN17KActionCollection15setConfigGlobalEb@Base 4:4.3.4
 _ZN17KActionCollection16setComponentDataERK14KComponentData@Base 4:4.3.4
 _ZN17KActionCollection16staticMetaObjectE@Base 4:4.3.4
 _ZN17KActionCollection17actionHighlightedEP7QAction@Base 4:4.3.4
 _ZN17KActionCollection17slotActionHoveredEv@Base 4:4.3.4
 _ZN17KActionCollection19addAssociatedWidgetEP7QWidget@Base 4:4.3.4
 _ZN17KActionCollection19slotActionTriggeredEv@Base 4:4.3.4
 _ZN17KActionCollection21importGlobalShortcutsEP12KConfigGroup@Base 4:4.3.4
 _ZN17KActionCollection21slotActionHighlightedEv@Base 4:4.3.4
 _ZN17KActionCollection22clearAssociatedWidgetsEv@Base 4:4.3.4
 _ZN17KActionCollection22removeAssociatedWidgetEP7QWidget@Base 4:4.3.4
 _ZN17KActionCollection5clearEv@Base 4:4.3.4
 _ZN17KActionCollection7removedEP7QAction@Base 4:4.3.4
 _ZN17KActionCollection8insertedEP7QAction@Base 4:4.3.4
 _ZN17KActionCollection9addActionEN15KStandardAction14StandardActionEPK7QObjectPKc@Base 4:4.3.4
 _ZN17KActionCollection9addActionEN15KStandardAction14StandardActionERK7QStringPK7QObjectPKc@Base 4:4.3.4
 _ZN17KActionCollection9addActionERK7QStringP7KAction@Base 4:4.3.4
 _ZN17KActionCollection9addActionERK7QStringP7QAction@Base 4:4.3.4
 _ZN17KActionCollection9addActionERK7QStringPK7QObjectPKc@Base 4:4.3.4
 _ZN17KActionCollectionC1EP7QObjectRK14KComponentData@Base 4:4.3.4
 _ZN17KActionCollectionC1EPK13KXMLGUIClient@Base 4:4.3.4
 _ZN17KActionCollectionC2EP7QObjectRK14KComponentData@Base 4:4.3.4
 _ZN17KActionCollectionC2EPK13KXMLGUIClient@Base 4:4.3.4
 _ZN17KActionCollectionD0Ev@Base 4:4.3.4
 _ZN17KActionCollectionD1Ev@Base 4:4.3.4
 _ZN17KActionCollectionD2Ev@Base 4:4.3.4
 _ZN17KCategoryDrawerV211qt_metacallEN11QMetaObject4CallEiPPv@Base 4:4.4.0
 _ZN17KCategoryDrawerV211qt_metacastEPKc@Base 4:4.4.0
 _ZN17KCategoryDrawerV215actionRequestedEiRK11QModelIndex@Base 4:4.4.95
 _ZN17KCategoryDrawerV216mouseButtonMovedERK11QModelIndexP11QMouseEvent@Base 4:4.4.0
 _ZN17KCategoryDrawerV216staticMetaObjectE@Base 4:4.4.0
 _ZN17KCategoryDrawerV218mouseButtonPressedERK11QModelIndexP11QMouseEvent@Base 4:4.4.0
 _ZN17KCategoryDrawerV219mouseButtonReleasedERK11QModelIndexP11QMouseEvent@Base 4:4.4.0
 _ZN17KCategoryDrawerV223collapseOrExpandClickedERK11QModelIndex@Base 4:4.4.0
 _ZN17KCategoryDrawerV224mouseButtonDoubleClickedERK11QModelIndexP11QMouseEvent@Base 4:4.4.0
 _ZN17KCategoryDrawerV2C1EP7QObject@Base 4:4.4.0
 _ZN17KCategoryDrawerV2C2EP7QObject@Base 4:4.4.0
 _ZN17KCategoryDrawerV2D0Ev@Base 4:4.4.0
 _ZN17KCategoryDrawerV2D1Ev@Base 4:4.4.0
 _ZN17KCategoryDrawerV2D2Ev@Base 4:4.4.0
 _ZN17KCategoryDrawerV310mouseMovedERK11QModelIndexRK5QRectP11QMouseEvent@Base 4:4.4.95
 _ZN17KCategoryDrawerV318mouseButtonPressedERK11QModelIndexRK5QRectP11QMouseEvent@Base 4:4.4.95
 _ZN17KCategoryDrawerV319mouseButtonReleasedERK11QModelIndexRK5QRectP11QMouseEvent@Base 4:4.4.95
 _ZN17KCategoryDrawerV324mouseButtonDoubleClickedERK11QModelIndexRK5QRectP11QMouseEvent@Base 4:4.4.95
 _ZN17KCategoryDrawerV39mouseLeftERK11QModelIndexRK5QRect@Base 4:4.4.95
 _ZN17KCategoryDrawerV3C1EP16KCategorizedView@Base 4:4.4.95
 _ZN17KCategoryDrawerV3C2EP16KCategorizedView@Base 4:4.4.95
 _ZN17KCategoryDrawerV3D0Ev@Base 4:4.4.95
 _ZN17KCategoryDrawerV3D1Ev@Base 4:4.4.95
 _ZN17KCategoryDrawerV3D2Ev@Base 4:4.4.95
 _ZN17KCompTreeNodeList6appendEP13KCompTreeNode@Base 4:4.3.4
 _ZN17KCompTreeNodeList6insertEP13KCompTreeNodeS1_@Base 4:4.3.4
 _ZN17KCompTreeNodeList6removeEP13KCompTreeNode@Base 4:4.3.4
 _ZN17KCompTreeNodeList7prependEP13KCompTreeNode@Base 4:4.3.4
 _ZN17KFadeWidgetEffect10paintEventEP11QPaintEvent@Base 4:4.3.4
 _ZN17KFadeWidgetEffect11qt_metacallEN11QMetaObject4CallEiPPv@Base 4:4.3.4
 _ZN17KFadeWidgetEffect11qt_metacastEPKc@Base 4:4.3.4
 _ZN17KFadeWidgetEffect16staticMetaObjectE@Base 4:4.3.4
 _ZN17KFadeWidgetEffect5startEi@Base 4:4.3.4
 _ZN17KFadeWidgetEffectC1EP7QWidget@Base 4:4.3.4
 _ZN17KFadeWidgetEffectC2EP7QWidget@Base 4:4.3.4
 _ZN17KFadeWidgetEffectD0Ev@Base 4:4.3.4
 _ZN17KFadeWidgetEffectD1Ev@Base 4:4.3.4
 _ZN17KFadeWidgetEffectD2Ev@Base 4:4.3.4
 _ZN17KGradientSelector11qt_metacallEN11QMetaObject4CallEiPPv@Base 4:4.3.4
 _ZN17KGradientSelector11qt_metacastEPKc@Base 4:4.3.4
 _ZN17KGradientSelector12drawContentsEP8QPainter@Base 4:4.3.4
 _ZN17KGradientSelector12setFirstTextERK7QString@Base 4:4.3.4
 _ZN17KGradientSelector13setFirstColorERK6QColor@Base 4:4.3.4
 _ZN17KGradientSelector13setSecondTextERK7QString@Base 4:4.3.4
 _ZN17KGradientSelector14setSecondColorERK6QColor@Base 4:4.3.4
 _ZN17KGradientSelector16staticMetaObjectE@Base 4:4.3.4
 _ZN17KGradientSelector7setTextERK7QStringS2_@Base 4:4.3.4
 _ZN17KGradientSelector8setStopsERK7QVectorI5QPairId6QColorEE@Base 4:4.4.95
 _ZN17KGradientSelector9setColorsERK6QColorS2_@Base 4:4.3.4
 _ZN17KGradientSelectorC1EN2Qt11OrientationEP7QWidget@Base 4:4.3.4
 _ZN17KGradientSelectorC1EP7QWidget@Base 4:4.3.4
 _ZN17KGradientSelectorC2EN2Qt11OrientationEP7QWidget@Base 4:4.3.4
 _ZN17KGradientSelectorC2EP7QWidget@Base 4:4.3.4
 _ZN17KGradientSelectorD0Ev@Base 4:4.3.4
 _ZN17KGradientSelectorD1Ev@Base 4:4.3.4
 _ZN17KGradientSelectorD2Ev@Base 4:4.3.4
 _ZN17KSelectionWatcher11filterEventEP7_XEvent@Base 4:4.3.4
 _ZN17KSelectionWatcher11qt_metacallEN11QMetaObject4CallEiPPv@Base 4:4.3.4
 _ZN17KSelectionWatcher11qt_metacastEPKc@Base 4:4.3.4
 _ZN17KSelectionWatcher16staticMetaObjectE@Base 4:4.3.4
 _ZN17KSelectionWatcher4initEv@Base 4:4.3.4
 _ZN17KSelectionWatcher5ownerEv@Base 4:4.3.4
 _ZN17KSelectionWatcher7Private12manager_atomE@Base 4:4.3.4
 _ZN17KSelectionWatcher7PrivateD0Ev@Base 4:4.7.2
 _ZN17KSelectionWatcher7PrivateD1Ev@Base 4:4.7.2
 _ZN17KSelectionWatcher7PrivateD2Ev@Base 4:4.7.2
 _ZN17KSelectionWatcher8newOwnerEm@Base 4:4.3.4
 _ZN17KSelectionWatcher9lostOwnerEv@Base 4:4.3.4
 _ZN17KSelectionWatcherC1EPKciP7QObject@Base 4:4.3.4
 _ZN17KSelectionWatcherC1EmiP7QObject@Base 4:4.3.4
 _ZN17KSelectionWatcherC2EPKciP7QObject@Base 4:4.3.4
 _ZN17KSelectionWatcherC2EmiP7QObject@Base 4:4.3.4
 _ZN17KSelectionWatcherD0Ev@Base 4:4.3.4
 _ZN17KSelectionWatcherD1Ev@Base 4:4.3.4
 _ZN17KSelectionWatcherD2Ev@Base 4:4.3.4
 _ZN17KStandardShortcut10completionEv@Base 4:4.3.4
 _ZN17KStandardShortcut10fullScreenEv@Base 4:4.3.4
 _ZN17KStandardShortcut10rotateDownEv@Base 4:4.3.4
 _ZN17KStandardShortcut11addBookmarkEv@Base 4:4.3.4
 _ZN17KStandardShortcut11forwardWordEv@Base 4:4.3.4
 _ZN17KStandardShortcut11showMenubarEv@Base 4:4.3.4
 _ZN17KStandardShortcut12backwardWordEv@Base 4:4.3.4
 _ZN17KStandardShortcut12saveShortcutENS_16StandardShortcutERK9KShortcut@Base 4:4.3.4
 _ZN17KStandardShortcut14deleteWordBackEv@Base 4:4.3.4
 _ZN17KStandardShortcut14nextCompletionEv@Base 4:4.3.4
 _ZN17KStandardShortcut14pasteSelectionEv@Base 4:4.3.4
 _ZN17KStandardShortcut14prevCompletionEv@Base 4:4.3.4
 _ZN17KStandardShortcut15beginningOfLineEv@Base 4:4.3.4
 _ZN17KStandardShortcut17deleteWordForwardEv@Base 4:4.3.4
 _ZN17KStandardShortcut19substringCompletionEv@Base 4:4.3.4
 _ZN17KStandardShortcut24hardcodedDefaultShortcutENS_16StandardShortcutE@Base 4:4.3.4
 _ZN17KStandardShortcut2upEv@Base 4:4.3.4
 _ZN17KStandardShortcut3cutEv@Base 4:4.3.4
 _ZN17KStandardShortcut3endEv@Base 4:4.3.4
 _ZN17KStandardShortcut4backEv@Base 4:4.3.4
 _ZN17KStandardShortcut4copyEv@Base 4:4.3.4
 _ZN17KStandardShortcut4findEPKc@Base 4:4.3.4
 _ZN17KStandardShortcut4findERK12QKeySequence@Base 4:4.3.4
 _ZN17KStandardShortcut4findEv@Base 4:4.3.4
 _ZN17KStandardShortcut4helpEv@Base 4:4.3.4
 _ZN17KStandardShortcut4homeEv@Base 4:4.3.4
 _ZN17KStandardShortcut4nameENS_16StandardShortcutE@Base 4:4.3.4
 _ZN17KStandardShortcut4nextEv@Base 4:4.3.4
 _ZN17KStandardShortcut4openEv@Base 4:4.3.4
 _ZN17KStandardShortcut4quitEv@Base 4:4.3.4
 _ZN17KStandardShortcut4redoEv@Base 4:4.3.4
 _ZN17KStandardShortcut4saveEv@Base 4:4.3.4
 _ZN17KStandardShortcut4undoEv@Base 4:4.3.4
 _ZN17KStandardShortcut5beginEv@Base 4:4.3.4
 _ZN17KStandardShortcut5closeEv@Base 4:4.3.4
 _ZN17KStandardShortcut5labelENS_16StandardShortcutE@Base 4:4.3.4
 _ZN17KStandardShortcut5pasteEv@Base 4:4.3.4
 _ZN17KStandardShortcut5printEv@Base 4:4.3.4
 _ZN17KStandardShortcut5priorEv@Base 4:4.3.4
 _ZN17KStandardShortcut6reloadEv@Base 4:4.3.4
 _ZN17KStandardShortcut6zoomInEv@Base 4:4.3.4
 _ZN17KStandardShortcut7forwardEv@Base 4:4.3.4
 _ZN17KStandardShortcut7openNewEv@Base 4:4.3.4
 _ZN17KStandardShortcut7replaceEv@Base 4:4.3.4
 _ZN17KStandardShortcut7tabNextEv@Base 4:4.3.4
 _ZN17KStandardShortcut7tabPrevEv@Base 4:4.3.4
 _ZN17KStandardShortcut7zoomOutEv@Base 4:4.3.4
 _ZN17KStandardShortcut8findNextEv@Base 4:4.3.4
 _ZN17KStandardShortcut8findPrevEv@Base 4:4.3.4
 _ZN17KStandardShortcut8gotoLineEv@Base 4:4.3.4
 _ZN17KStandardShortcut8rotateUpEv@Base 4:4.3.4
 _ZN17KStandardShortcut8shortcutENS_16StandardShortcutE@Base 4:4.3.4
 _ZN17KStandardShortcut9endOfLineEv@Base 4:4.3.4
 _ZN17KStandardShortcut9selectAllEv@Base 4:4.3.4
 _ZN17KStandardShortcut9whatsThisENS_16StandardShortcutE@Base 4:4.3.4
 _ZN17KStandardShortcut9whatsThisEv@Base 4:4.3.4
 _ZN17KWidgetJobTracker11descriptionEP4KJobRK7QStringRK5QPairIS2_S2_ES8_@Base 4:4.3.4
 _ZN17KWidgetJobTracker11infoMessageEP4KJobRK7QStringS4_@Base 4:4.3.4
 _ZN17KWidgetJobTracker11qt_metacallEN11QMetaObject4CallEiPPv@Base 4:4.3.4
 _ZN17KWidgetJobTracker11qt_metacastEPKc@Base 4:4.3.4
 _ZN17KWidgetJobTracker11registerJobEP4KJob@Base 4:4.3.4
 _ZN17KWidgetJobTracker11totalAmountEP4KJobNS0_4UnitEy@Base 4:4.3.4
 _ZN17KWidgetJobTracker13unregisterJobEP4KJob@Base 4:4.3.4
 _ZN17KWidgetJobTracker15processedAmountEP4KJobNS0_4UnitEy@Base 4:4.3.4
 _ZN17KWidgetJobTracker16staticMetaObjectE@Base 4:4.3.4
 _ZN17KWidgetJobTracker5speedEP4KJobm@Base 4:4.3.4
 _ZN17KWidgetJobTracker6widgetEP4KJob@Base 4:4.3.4
 _ZN17KWidgetJobTracker7Private13setAutoDeleteEP4KJobb@Base 4:4.3.4
 _ZN17KWidgetJobTracker7Private14ProgressWidget10closeEventEP11QCloseEvent@Base 4:4.3.4
 _ZN17KWidgetJobTracker7Private14ProgressWidget10showTotalsEv@Base 4:4.3.4
 _ZN17KWidgetJobTracker7Private14ProgressWidget11_k_openFileEv@Base 4:4.3.4
 _ZN17KWidgetJobTracker7Private14ProgressWidget11descriptionERK7QStringRK5QPairIS2_S2_ES8_@Base 4:4.3.4
 _ZN17KWidgetJobTracker7Private14ProgressWidget11eventFilterEP7QObjectP6QEvent@Base 4:4.3.4
 _ZN17KWidgetJobTracker7Private14ProgressWidget11infoMessageERK7QStringS4_@Base 4:4.3.4
 _ZN17KWidgetJobTracker7Private14ProgressWidget11qt_metacallEN11QMetaObject4CallEiPPv@Base 4:4.3.4
 _ZN17KWidgetJobTracker7Private14ProgressWidget11qt_metacastEPKc@Base 4:4.3.4
 _ZN17KWidgetJobTracker7Private14ProgressWidget11totalAmountEN4KJob4UnitEy@Base 4:4.3.4
 _ZN17KWidgetJobTracker7Private14ProgressWidget14setDestVisibleEb@Base 4:4.3.4
 _ZN17KWidgetJobTracker7Private14ProgressWidget15_k_arrowToggledEv@Base 4:4.3.4
 _ZN17KWidgetJobTracker7Private14ProgressWidget15_k_openLocationEv@Base 4:4.3.4
 _ZN17KWidgetJobTracker7Private14ProgressWidget15processedAmountEN4KJob4UnitEy@Base 4:4.3.4
 _ZN17KWidgetJobTracker7Private14ProgressWidget16checkDestinationERK4KUrl@Base 4:4.3.4
 _ZN17KWidgetJobTracker7Private14ProgressWidget16staticMetaObjectE@Base 4:4.3.4
 _ZN17KWidgetJobTracker7Private14ProgressWidget18_k_keepOpenToggledEb@Base 4:4.3.4
 _ZN17KWidgetJobTracker7Private14ProgressWidget21_k_pauseResumeClickedEv@Base 4:4.3.4
 _ZN17KWidgetJobTracker7Private14ProgressWidget3refEv@Base 4:4.3.4
 _ZN17KWidgetJobTracker7Private14ProgressWidget4initEv@Base 4:4.3.4
 _ZN17KWidgetJobTracker7Private14ProgressWidget5derefEv@Base 4:4.3.4
 _ZN17KWidgetJobTracker7Private14ProgressWidget5speedEm@Base 4:4.3.4
 _ZN17KWidgetJobTracker7Private14ProgressWidget7_k_stopEv@Base 4:4.3.4
 _ZN17KWidgetJobTracker7Private14ProgressWidget7percentEm@Base 4:4.3.4
 _ZN17KWidgetJobTracker7Private14ProgressWidget7resumedEv@Base 4:4.3.4
 _ZN17KWidgetJobTracker7Private14ProgressWidget8closeNowEv@Base 4:4.3.4
 _ZN17KWidgetJobTracker7Private14ProgressWidget9slotCleanEv@Base 4:4.3.4
 _ZN17KWidgetJobTracker7Private14ProgressWidget9suspendedEv@Base 4:4.3.4
 _ZN17KWidgetJobTracker7Private14setStopOnCloseEP4KJobb@Base 4:4.3.4
 _ZN17KWidgetJobTracker7Private21_k_showProgressWidgetEv@Base 4:4.3.4
 _ZN17KWidgetJobTracker7percentEP4KJobm@Base 4:4.3.4
 _ZN17KWidgetJobTracker7resumedEP4KJob@Base 4:4.3.4
 _ZN17KWidgetJobTracker9slotCleanEP4KJob@Base 4:4.3.4
 _ZN17KWidgetJobTracker9suspendedEP4KJob@Base 4:4.3.4
 _ZN17KWidgetJobTrackerC1EP7QWidget@Base 4:4.3.4
 _ZN17KWidgetJobTrackerC2EP7QWidget@Base 4:4.3.4
 _ZN17KWidgetJobTrackerD0Ev@Base 4:4.3.4
 _ZN17KWidgetJobTrackerD1Ev@Base 4:4.3.4
 _ZN17KWidgetJobTrackerD2Ev@Base 4:4.3.4
 _ZN18KCompletionMatches16removeDuplicatesEv@Base 4:4.3.4
 _ZN18KCompletionMatchesC1ERK25KCompletionMatchesWrapper@Base 4:4.3.4
 _ZN18KCompletionMatchesC1ERKS_@Base 4:4.3.4
 _ZN18KCompletionMatchesC1Eb@Base 4:4.3.4
 _ZN18KCompletionMatchesC2ERK25KCompletionMatchesWrapper@Base 4:4.3.4
 _ZN18KCompletionMatchesC2ERKS_@Base 4:4.3.4
 _ZN18KCompletionMatchesC2Eb@Base 4:4.3.4
 _ZN18KCompletionMatchesD1Ev@Base 4:4.3.4
 _ZN18KCompletionMatchesD2Ev@Base 4:4.3.4
 _ZN18KCompletionMatchesaSERKS_@Base 4:4.3.4
 _ZN18KKeySequenceWidget11qt_metacallEN11QMetaObject4CallEiPPv@Base 4:4.3.4
 _ZN18KKeySequenceWidget11qt_metacastEPKc@Base 4:4.3.4
 _ZN18KKeySequenceWidget13stealShortcutERK12QKeySequenceP7KAction@Base 4:4.3.4
 _ZN18KKeySequenceWidget14setKeySequenceERK12QKeySequenceNS_10ValidationE@Base 4:4.3.4
 _ZN18KKeySequenceWidget16clearKeySequenceEv@Base 4:4.3.4
 _ZN18KKeySequenceWidget16setComponentNameERK7QString@Base 4:4.3.4
 _ZN18KKeySequenceWidget16staticMetaObjectE@Base 4:4.3.4
 _ZN18KKeySequenceWidget18applyStealShortcutEv@Base 4:4.3.4
 _ZN18KKeySequenceWidget18captureKeySequenceEv@Base 4:4.3.4
 _ZN18KKeySequenceWidget18keySequenceChangedERK12QKeySequence@Base 4:4.3.4
 _ZN18KKeySequenceWidget18setCheckActionListERK5QListIP7QActionE@Base 4:4.3.4
 _ZN18KKeySequenceWidget19setClearButtonShownEb@Base 4:4.3.4
 _ZN18KKeySequenceWidget21isModifierlessAllowedEv@Base 4:4.3.4
 _ZN18KKeySequenceWidget22setModifierlessAllowedEb@Base 4:4.3.4
 _ZN18KKeySequenceWidget25setCheckActionCollectionsERK5QListIP17KActionCollectionE@Base 4:4.3.4
 _ZN18KKeySequenceWidget27setCheckForConflictsAgainstE6QFlagsINS_12ShortcutTypeEE@Base 4:4.3.4
 _ZN18KKeySequenceWidget27setMultiKeyShortcutsAllowedEb@Base 4:4.3.4
 _ZN18KKeySequenceWidgetC1EP7QWidget@Base 4:4.3.4
 _ZN18KKeySequenceWidgetC2EP7QWidget@Base 4:4.3.4
 _ZN18KKeySequenceWidgetD0Ev@Base 4:4.3.4
 _ZN18KKeySequenceWidgetD1Ev@Base 4:4.3.4
 _ZN18KKeySequenceWidgetD2Ev@Base 4:4.3.4
 _ZN18KMimeTypeValidator11qt_metacallEN11QMetaObject4CallEiPPv@Base 4:4.3.4
 _ZN18KMimeTypeValidator11qt_metacastEPKc@Base 4:4.3.4
 _ZN18KMimeTypeValidator16staticMetaObjectE@Base 4:4.3.4
 _ZN18KMimeTypeValidatorC1EP7QObject@Base 4:4.3.4
 _ZN18KMimeTypeValidatorC2EP7QObject@Base 4:4.3.4
 _ZN18KMimeTypeValidatorD0Ev@Base 4:4.3.4
 _ZN18KMimeTypeValidatorD1Ev@Base 4:4.3.4
 _ZN18KMimeTypeValidatorD2Ev@Base 4:4.3.4
 _ZN18KMultiTabBarButton10paintEventEP11QPaintEvent@Base 4:4.4.95
 _ZN18KMultiTabBarButton11qt_metacallEN11QMetaObject4CallEiPPv@Base 4:4.3.4
 _ZN18KMultiTabBarButton11qt_metacastEPKc@Base 4:4.3.4
 _ZN18KMultiTabBarButton11slotClickedEv@Base 4:4.3.4
 _ZN18KMultiTabBarButton16staticMetaObjectE@Base 4:4.3.4
 _ZN18KMultiTabBarButton7clickedEi@Base 4:4.3.4
 _ZN18KMultiTabBarButton7setTextERK7QString@Base 4:4.3.4
 _ZN18KMultiTabBarButton9hideEventEP10QHideEvent@Base 4:4.3.4
 _ZN18KMultiTabBarButton9showEventEP10QShowEvent@Base 4:4.3.4
 _ZN18KMultiTabBarButtonC1ERK7QPixmapRK7QStringiP7QWidget@Base 4:4.3.4
 _ZN18KMultiTabBarButtonC2ERK7QPixmapRK7QStringiP7QWidget@Base 4:4.3.4
 _ZN18KMultiTabBarButtonD0Ev@Base 4:4.3.4
 _ZN18KMultiTabBarButtonD1Ev@Base 4:4.3.4
 _ZN18KMultiTabBarButtonD2Ev@Base 4:4.3.4
 _ZN18KNewPasswordDialog11newPasswordERK7QString@Base 4:4.3.4
 _ZN18KNewPasswordDialog11qt_metacallEN11QMetaObject4CallEiPPv@Base 4:4.3.4
 _ZN18KNewPasswordDialog11qt_metacastEPKc@Base 4:4.3.4
 _ZN18KNewPasswordDialog13checkPasswordERK7QString@Base 4:4.3.4
 _ZN18KNewPasswordDialog16staticMetaObjectE@Base 4:4.3.4
 _ZN18KNewPasswordDialog19checkAndGetPasswordEP7QString@Base 4:4.3.4
 _ZN18KNewPasswordDialog22setAllowEmptyPasswordsEb@Base 4:4.3.4
 _ZN18KNewPasswordDialog24setMaximumPasswordLengthEi@Base 4:4.3.4
 _ZN18KNewPasswordDialog24setMinimumPasswordLengthEi@Base 4:4.3.4
 _ZN18KNewPasswordDialog25KNewPasswordDialogPrivate14_k_textChangedEv@Base 4:4.3.4
 _ZN18KNewPasswordDialog25KNewPasswordDialogPrivate23effectivePasswordLengthERK7QString@Base 4:4.3.4
 _ZN18KNewPasswordDialog25KNewPasswordDialogPrivate4initEv@Base 4:4.3.4
 _ZN18KNewPasswordDialog27setReasonablePasswordLengthEi@Base 4:4.3.4
 _ZN18KNewPasswordDialog31setPasswordStrengthWarningLevelEi@Base 4:4.3.4
 _ZN18KNewPasswordDialog6acceptEv@Base 4:4.3.4
 _ZN18KNewPasswordDialog9setPixmapERK7QPixmap@Base 4:4.3.4
 _ZN18KNewPasswordDialog9setPromptERK7QString@Base 4:4.3.4
 _ZN18KNewPasswordDialogC1EP7QWidget@Base 4:4.3.4
 _ZN18KNewPasswordDialogC2EP7QWidget@Base 4:4.3.4
 _ZN18KNewPasswordDialogD0Ev@Base 4:4.3.4
 _ZN18KNewPasswordDialogD1Ev@Base 4:4.3.4
 _ZN18KNewPasswordDialogD2Ev@Base 4:4.3.4
 _ZN18KPageDialogPrivateD0Ev@Base 4:4.7.2
 _ZN18KPageDialogPrivateD1Ev@Base 4:4.7.2
 _ZN18KPageDialogPrivateD2Ev@Base 4:4.7.2
 _ZN18KRecentFilesAction11loadEntriesERK12KConfigGroup@Base 4:4.3.4
 _ZN18KRecentFilesAction11qt_metacallEN11QMetaObject4CallEiPPv@Base 4:4.3.4
 _ZN18KRecentFilesAction11qt_metacastEPKc@Base 4:4.3.4
 _ZN18KRecentFilesAction11saveEntriesERK12KConfigGroup@Base 4:4.3.4
 _ZN18KRecentFilesAction11setMaxItemsEi@Base 4:4.3.4
 _ZN18KRecentFilesAction11urlSelectedERK4KUrl@Base 4:4.3.4
 _ZN18KRecentFilesAction12clearEntriesEv@Base 4:4.3.4
 _ZN18KRecentFilesAction12removeActionEP7QAction@Base 4:4.3.4
 _ZN18KRecentFilesAction16staticMetaObjectE@Base 4:4.3.4
 _ZN18KRecentFilesAction17recentListClearedEv@Base 4:4.3.4
 _ZN18KRecentFilesAction5clearEv@Base 4:4.3.4
 _ZN18KRecentFilesAction6addUrlERK4KUrlRK7QString@Base 4:4.3.4
 _ZN18KRecentFilesAction9addActionEP7QActionRK4KUrlRK7QString@Base 4:4.3.4
 _ZN18KRecentFilesAction9removeUrlERK4KUrl@Base 4:4.3.4
 _ZN18KRecentFilesActionC1EP7QObject@Base 4:4.3.4
 _ZN18KRecentFilesActionC1ERK5KIconRK7QStringP7QObject@Base 4:4.3.4
 _ZN18KRecentFilesActionC1ERK7QStringP7QObject@Base 4:4.3.4
 _ZN18KRecentFilesActionC2EP7QObject@Base 4:4.3.4
 _ZN18KRecentFilesActionC2ERK5KIconRK7QStringP7QObject@Base 4:4.3.4
 _ZN18KRecentFilesActionC2ERK7QStringP7QObject@Base 4:4.3.4
 _ZN18KRecentFilesActionD0Ev@Base 4:4.3.4
 _ZN18KRecentFilesActionD1Ev@Base 4:4.3.4
 _ZN18KRecentFilesActionD2Ev@Base 4:4.3.4
 _ZN18KSqueezedTextLabel11qt_metacallEN11QMetaObject4CallEiPPv@Base 4:4.3.4
 _ZN18KSqueezedTextLabel11qt_metacastEPKc@Base 4:4.3.4
 _ZN18KSqueezedTextLabel11resizeEventEP12QResizeEvent@Base 4:4.3.4
 _ZN18KSqueezedTextLabel12setAlignmentE6QFlagsIN2Qt13AlignmentFlagEE@Base 4:4.3.4
 _ZN18KSqueezedTextLabel16contextMenuEventEP17QContextMenuEvent@Base 4:4.3.4
 _ZN18KSqueezedTextLabel16setTextElideModeEN2Qt13TextElideModeE@Base 4:4.3.4
 _ZN18KSqueezedTextLabel16staticMetaObjectE@Base 4:4.3.4
 _ZN18KSqueezedTextLabel17mouseReleaseEventEP11QMouseEvent@Base 4:4.5.85
 _ZN18KSqueezedTextLabel18squeezeTextToLabelEv@Base 4:4.3.4
 _ZN18KSqueezedTextLabel5clearEv@Base 4:4.3.4
 _ZN18KSqueezedTextLabel7setTextERK7QString@Base 4:4.3.4
 _ZN18KSqueezedTextLabelC1EP7QWidget@Base 4:4.3.4
 _ZN18KSqueezedTextLabelC1ERK7QStringP7QWidget@Base 4:4.3.4
 _ZN18KSqueezedTextLabelC2EP7QWidget@Base 4:4.3.4
 _ZN18KSqueezedTextLabelC2ERK7QStringP7QWidget@Base 4:4.3.4
 _ZN18KSqueezedTextLabelD0Ev@Base 4:4.3.4
 _ZN18KSqueezedTextLabelD1Ev@Base 4:4.3.4
 _ZN18KSqueezedTextLabelD2Ev@Base 4:4.3.4
 _ZN18KSystemEventFilter17removeEventFilterEPK7QWidget@Base 4:4.5.85
 _ZN18KSystemEventFilter18installEventFilterEP7QWidget@Base 4:4.5.85
 _ZN18KUniqueApplication11newInstanceEv@Base 4:4.3.4
 _ZN18KUniqueApplication11qt_metacallEN11QMetaObject4CallEiPPv@Base 4:4.3.4
 _ZN18KUniqueApplication11qt_metacastEPKc@Base 4:4.3.4
 _ZN18KUniqueApplication16restoringSessionEv@Base 4:4.3.4
 _ZN18KUniqueApplication16staticMetaObjectE@Base 4:4.3.4
 _ZN18KUniqueApplication17addCmdLineOptionsEv@Base 4:4.3.4
 _ZN18KUniqueApplication20setHandleAutoStartedEv@Base 4:4.3.4
 _ZN18KUniqueApplication5startE6QFlagsINS_9StartFlagEE@Base 4:4.3.4
 _ZN18KUniqueApplication5startEv@Base 4:4.3.4
 _ZN18KUniqueApplication7Private19s_handleAutoStartedE@Base 4:4.3.4
 _ZN18KUniqueApplication7Private19s_multipleInstancesE@Base 4:4.3.4
 _ZN18KUniqueApplication7Private20_k_newInstanceNoForkEv@Base 4:4.3.4
 _ZN18KUniqueApplication7Private8initHackEb@Base 4:4.3.4
 _ZN18KUniqueApplication7Private8s_noforkE@Base 4:4.3.4
 _ZN18KUniqueApplicationC1EP9_XDisplaymmb@Base 4:4.3.4 1
 _ZN18KUniqueApplicationC1Ebb@Base 4:4.3.4 1
 _ZN18KUniqueApplicationC2EP9_XDisplaymmb@Base 4:4.3.4 1
 _ZN18KUniqueApplicationC2Ebb@Base 4:4.3.4 1
 _ZN18KUniqueApplicationD0Ev@Base 4:4.3.4 1
 _ZN18KUniqueApplicationD1Ev@Base 4:4.3.4 1
 _ZN18KUniqueApplicationD2Ev@Base 4:4.3.4 1
 _ZN19KAcceleratorManager10setNoAccelEP7QWidget@Base 4:4.3.4
 _ZN19KAcceleratorManager11last_manageER7QStringS1_S1_@Base 4:4.3.4
 _ZN19KAcceleratorManager6manageEP7QWidgetb@Base 4:4.3.4
 _ZN19KColorValueSelector11drawPaletteEP7QPixmap@Base 4:4.3.4
 _ZN19KColorValueSelector11qt_metacallEN11QMetaObject4CallEiPPv@Base 4:4.3.4
 _ZN19KColorValueSelector11qt_metacastEPKc@Base 4:4.3.4
 _ZN19KColorValueSelector11resizeEventEP12QResizeEvent@Base 4:4.3.4
 _ZN19KColorValueSelector12drawContentsEP8QPainter@Base 4:4.3.4
 _ZN19KColorValueSelector13setColorValueEi@Base 4:4.3.4
 _ZN19KColorValueSelector13setSaturationEi@Base 4:4.3.4
 _ZN19KColorValueSelector14setChooserModeE17KColorChooserMode@Base 4:4.3.4
 _ZN19KColorValueSelector14updateContentsEv@Base 4:4.3.4
 _ZN19KColorValueSelector16staticMetaObjectE@Base 4:4.3.4
 _ZN19KColorValueSelector6setHueEi@Base 4:4.3.4
 _ZN19KColorValueSelectorC1EN2Qt11OrientationEP7QWidget@Base 4:4.3.4
 _ZN19KColorValueSelectorC1EP7QWidget@Base 4:4.3.4
 _ZN19KColorValueSelectorC2EN2Qt11OrientationEP7QWidget@Base 4:4.3.4
 _ZN19KColorValueSelectorC2EP7QWidget@Base 4:4.3.4
 _ZN19KColorValueSelectorD0Ev@Base 4:4.3.4
 _ZN19KColorValueSelectorD1Ev@Base 4:4.3.4
 _ZN19KColorValueSelectorD2Ev@Base 4:4.3.4
 _ZN19KGlobalShortcutInfo11qt_metacallEN11QMetaObject4CallEiPPv@Base 4:4.3.4
 _ZN19KGlobalShortcutInfo11qt_metacastEPKc@Base 4:4.3.4
 _ZN19KGlobalShortcutInfo16staticMetaObjectE@Base 4:4.3.4
 _ZN19KGlobalShortcutInfoC1ERKS_@Base 4:4.3.4
 _ZN19KGlobalShortcutInfoC1Ev@Base 4:4.3.4
 _ZN19KGlobalShortcutInfoC2ERKS_@Base 4:4.3.4
 _ZN19KGlobalShortcutInfoC2Ev@Base 4:4.3.4
 _ZN19KGlobalShortcutInfoD0Ev@Base 4:4.3.4
 _ZN19KGlobalShortcutInfoD1Ev@Base 4:4.3.4
 _ZN19KGlobalShortcutInfoD2Ev@Base 4:4.3.4
 _ZN19KGlobalShortcutInfoaSERKS_@Base 4:4.3.4
 _ZN19KIdentityProxyModel10insertRowsEiiRK11QModelIndex@Base 4:4.5.85
 _ZN19KIdentityProxyModel10removeRowsEiiRK11QModelIndex@Base 4:4.5.85
 _ZN19KIdentityProxyModel11qt_metacallEN11QMetaObject4CallEiPPv@Base 4:4.5.85
 _ZN19KIdentityProxyModel11qt_metacastEPKc@Base 4:4.5.85
 _ZN19KIdentityProxyModel12dropMimeDataEPK9QMimeDataN2Qt10DropActionEiiRK11QModelIndex@Base 4:4.5.85
 _ZN19KIdentityProxyModel13insertColumnsEiiRK11QModelIndex@Base 4:4.5.85
 _ZN19KIdentityProxyModel13removeColumnsEiiRK11QModelIndex@Base 4:4.5.85
 _ZN19KIdentityProxyModel14setSourceModelEP18QAbstractItemModel@Base 4:4.5.85
 _ZN19KIdentityProxyModel16staticMetaObjectE@Base 4:4.5.85
 _ZN19KIdentityProxyModel17resetInternalDataEv@Base 4:4.5.85
 _ZN19KIdentityProxyModel9fetchMoreERK11QModelIndex@Base 4:4.6.4
 _ZN19KIdentityProxyModelC1EP26KIdentityProxyModelPrivateP7QObject@Base 4:4.5.85
 _ZN19KIdentityProxyModelC1EP7QObject@Base 4:4.5.85
 _ZN19KIdentityProxyModelC2EP26KIdentityProxyModelPrivateP7QObject@Base 4:4.5.85
 _ZN19KIdentityProxyModelC2EP7QObject@Base 4:4.5.85
 _ZN19KIdentityProxyModelD0Ev@Base 4:4.5.85
 _ZN19KIdentityProxyModelD1Ev@Base 4:4.5.85
 _ZN19KIdentityProxyModelD2Ev@Base 4:4.5.85
 _ZN19KStatusNotifierItem10setToolTipERK5QIconRK7QStringS5_@Base 4:4.4.0
 _ZN19KStatusNotifierItem10setToolTipERK7QStringS2_S2_@Base 4:4.4.0
 _ZN19KStatusNotifierItem11eventFilterEP7QObjectP6QEvent@Base 4:4.4.0
 _ZN19KStatusNotifierItem11qt_metacallEN11QMetaObject4CallEiPPv@Base 4:4.4.0
 _ZN19KStatusNotifierItem11qt_metacastEPKc@Base 4:4.4.0
 _ZN19KStatusNotifierItem11setCategoryENS_12ItemCategoryE@Base 4:4.4.0
 _ZN19KStatusNotifierItem11showMessageERK7QStringS2_S2_i@Base 4:4.4.0
 _ZN19KStatusNotifierItem13setIconByNameERK7QString@Base 4:4.4.0
 _ZN19KStatusNotifierItem14setContextMenuEP5KMenu@Base 4:4.4.0
 _ZN19KStatusNotifierItem15scrollRequestedEiN2Qt11OrientationE@Base 4:4.4.0
 _ZN19KStatusNotifierItem15setIconByPixmapERK5QIcon@Base 4:4.4.0
 _ZN19KStatusNotifierItem15setToolTipTitleERK7QString@Base 4:4.4.0
 _ZN19KStatusNotifierItem16staticMetaObjectE@Base 4:4.4.0
 _ZN19KStatusNotifierItem17activateRequestedEbRK6QPoint@Base 4:4.4.0
 _ZN19KStatusNotifierItem18setToolTipSubTitleERK7QString@Base 4:4.4.0
 _ZN19KStatusNotifierItem19setAssociatedWidgetEP7QWidget@Base 4:4.4.0
 _ZN19KStatusNotifierItem20setOverlayIconByNameERK7QString@Base 4:4.4.0
 _ZN19KStatusNotifierItem20setToolTipIconByNameERK7QString@Base 4:4.4.0
 _ZN19KStatusNotifierItem22setAttentionIconByNameERK7QString@Base 4:4.4.0
 _ZN19KStatusNotifierItem22setOverlayIconByPixmapERK5QIcon@Base 4:4.4.0
 _ZN19KStatusNotifierItem22setToolTipIconByPixmapERK5QIcon@Base 4:4.4.0
 _ZN19KStatusNotifierItem23setAttentionMovieByNameERK7QString@Base 4:4.4.0
 _ZN19KStatusNotifierItem24setAttentionIconByPixmapERK5QIcon@Base 4:4.4.0
 _ZN19KStatusNotifierItem25setStandardActionsEnabledEb@Base 4:4.4.0
 _ZN19KStatusNotifierItem26secondaryActivateRequestedERK6QPoint@Base 4:4.4.0
 _ZN19KStatusNotifierItem8activateERK6QPoint@Base 4:4.4.0
 _ZN19KStatusNotifierItem8setTitleERK7QString@Base 4:4.4.0
 _ZN19KStatusNotifierItem9setStatusENS_10ItemStatusE@Base 4:4.4.0
 _ZN19KStatusNotifierItemC1EP7QObject@Base 4:4.4.0
 _ZN19KStatusNotifierItemC1ERK7QStringP7QObject@Base 4:4.4.0
 _ZN19KStatusNotifierItemC2EP7QObject@Base 4:4.4.0
 _ZN19KStatusNotifierItemC2ERK7QStringP7QObject@Base 4:4.4.0
 _ZN19KStatusNotifierItemD0Ev@Base 4:4.4.0
 _ZN19KStatusNotifierItemD1Ev@Base 4:4.4.0
 _ZN19KStatusNotifierItemD2Ev@Base 4:4.4.0
 _ZN19KToolBarLabelAction11eventFilterEP7QObjectP6QEvent@Base 4:4.3.4
 _ZN19KToolBarLabelAction11qt_metacallEN11QMetaObject4CallEiPPv@Base 4:4.3.4
 _ZN19KToolBarLabelAction11qt_metacastEPKc@Base 4:4.3.4
 _ZN19KToolBarLabelAction11textChangedERK7QString@Base 4:4.3.4
 _ZN19KToolBarLabelAction12createWidgetEP7QWidget@Base 4:4.3.4
 _ZN19KToolBarLabelAction16staticMetaObjectE@Base 4:4.3.4
 _ZN19KToolBarLabelAction5eventEP6QEvent@Base 4:4.3.4
 _ZN19KToolBarLabelAction8setBuddyEP7QAction@Base 4:4.3.4
 _ZN19KToolBarLabelActionC1EP7QActionRK7QStringP7QObject@Base 4:4.3.4
 _ZN19KToolBarLabelActionC1ERK7QStringP7QObject@Base 4:4.3.4
 _ZN19KToolBarLabelActionC2EP7QActionRK7QStringP7QObject@Base 4:4.3.4
 _ZN19KToolBarLabelActionC2ERK7QStringP7QObject@Base 4:4.3.4
 _ZN19KToolBarLabelActionD0Ev@Base 4:4.3.4
 _ZN19KToolBarLabelActionD1Ev@Base 4:4.3.4
 _ZN19KToolBarLabelActionD2Ev@Base 4:4.3.4
 _ZN19KToolBarPopupAction10setDelayedEb@Base 4:4.3.4
 _ZN19KToolBarPopupAction11qt_metacallEN11QMetaObject4CallEiPPv@Base 4:4.3.4
 _ZN19KToolBarPopupAction11qt_metacastEPKc@Base 4:4.3.4
 _ZN19KToolBarPopupAction12createWidgetEP7QWidget@Base 4:4.3.4
 _ZN19KToolBarPopupAction13setStickyMenuEb@Base 4:4.3.4
 _ZN19KToolBarPopupAction16staticMetaObjectE@Base 4:4.3.4
 _ZN19KToolBarPopupActionC1ERK5KIconRK7QStringP7QObject@Base 4:4.3.4
 _ZN19KToolBarPopupActionC2ERK5KIconRK7QStringP7QObject@Base 4:4.3.4
 _ZN19KToolBarPopupActionD0Ev@Base 4:4.3.4
 _ZN19KToolBarPopupActionD1Ev@Base 4:4.3.4
 _ZN19KToolBarPopupActionD2Ev@Base 4:4.3.4
 _ZN19KUiServerJobTracker11descriptionEP4KJobRK7QStringRK5QPairIS2_S2_ES8_@Base 4:4.3.4
 _ZN19KUiServerJobTracker11infoMessageEP4KJobRK7QStringS4_@Base 4:4.3.4
 _ZN19KUiServerJobTracker11qt_metacallEN11QMetaObject4CallEiPPv@Base 4:4.3.4
 _ZN19KUiServerJobTracker11qt_metacastEPKc@Base 4:4.3.4
 _ZN19KUiServerJobTracker11registerJobEP4KJob@Base 4:4.3.4
 _ZN19KUiServerJobTracker11totalAmountEP4KJobNS0_4UnitEy@Base 4:4.3.4
 _ZN19KUiServerJobTracker13unregisterJobEP4KJob@Base 4:4.3.4
 _ZN19KUiServerJobTracker15processedAmountEP4KJobNS0_4UnitEy@Base 4:4.3.4
 _ZN19KUiServerJobTracker16staticMetaObjectE@Base 4:4.3.4
 _ZN19KUiServerJobTracker5speedEP4KJobm@Base 4:4.3.4
 _ZN19KUiServerJobTracker7Private10_k_killJobEv@Base 4:4.3.4
 _ZN19KUiServerJobTracker7percentEP4KJobm@Base 4:4.3.4
 _ZN19KUiServerJobTracker7resumedEP4KJob@Base 4:4.3.4
 _ZN19KUiServerJobTracker8finishedEP4KJob@Base 4:4.3.4
 _ZN19KUiServerJobTracker9suspendedEP4KJob@Base 4:4.3.4
 _ZN19KUiServerJobTrackerC1EP7QObject@Base 4:4.3.4
 _ZN19KUiServerJobTrackerC2EP7QObject@Base 4:4.3.4
 _ZN19KUiServerJobTrackerD0Ev@Base 4:4.3.4
 _ZN19KUiServerJobTrackerD1Ev@Base 4:4.3.4
 _ZN19KUiServerJobTrackerD2Ev@Base 4:4.3.4
 _ZN19KWidgetItemDelegate11qt_metacallEN11QMetaObject4CallEiPPv@Base 4:4.3.4
 _ZN19KWidgetItemDelegate11qt_metacastEPKc@Base 4:4.3.4
 _ZN19KWidgetItemDelegate16staticMetaObjectE@Base 4:4.3.4
 _ZN19KWidgetItemDelegateC1EP17QAbstractItemViewP7QObject@Base 4:4.3.4
 _ZN19KWidgetItemDelegateC2EP17QAbstractItemViewP7QObject@Base 4:4.3.4
 _ZN19KWidgetItemDelegateD0Ev@Base 4:4.3.4
 _ZN19KWidgetItemDelegateD1Ev@Base 4:4.3.4
 _ZN19KWidgetItemDelegateD2Ev@Base 4:4.3.4
 _ZN20KCheckableProxyModel11qt_metacallEN11QMetaObject4CallEiPPv@Base 4:4.5.85
 _ZN20KCheckableProxyModel11qt_metacastEPKc@Base 4:4.5.85
 _ZN20KCheckableProxyModel14setSourceModelEP18QAbstractItemModel@Base 4:4.5.85
 _ZN20KCheckableProxyModel16staticMetaObjectE@Base 4:4.5.85
 _ZN20KCheckableProxyModel17setSelectionModelEP19QItemSelectionModel@Base 4:4.5.85
 _ZN20KCheckableProxyModel6selectERK14QItemSelection6QFlagsIN19QItemSelectionModel13SelectionFlagEE@Base 4:4.5.85
 _ZN20KCheckableProxyModel7setDataERK11QModelIndexRK8QVarianti@Base 4:4.5.85
 _ZN20KCheckableProxyModelC1EP7QObject@Base 4:4.5.85
 _ZN20KCheckableProxyModelC2EP7QObject@Base 4:4.5.85
 _ZN20KCheckableProxyModelD0Ev@Base 4:4.5.85
 _ZN20KCheckableProxyModelD1Ev@Base 4:4.5.85
 _ZN20KCheckableProxyModelD2Ev@Base 4:4.5.85
 _ZN20KConfigDialogManager10changedMapEv@Base 4:4.3.4
 _ZN20KConfigDialogManager11propertyMapEv@Base 4:4.3.4
 _ZN20KConfigDialogManager11qt_metacallEN11QMetaObject4CallEiPPv@Base 4:4.3.4
 _ZN20KConfigDialogManager11qt_metacastEPKc@Base 4:4.3.4
 _ZN20KConfigDialogManager11setPropertyEP7QWidgetRK8QVariant@Base 4:4.3.4
 _ZN20KConfigDialogManager11setupWidgetEP7QWidgetP19KConfigSkeletonItem@Base 4:4.3.4
 _ZN20KConfigDialogManager13parseChildrenEPK7QWidgetb@Base 4:4.3.4
 _ZN20KConfigDialogManager13updateWidgetsEv@Base 4:4.3.4
 _ZN20KConfigDialogManager14updateSettingsEv@Base 4:4.3.4
 _ZN20KConfigDialogManager14widgetModifiedEv@Base 4:4.3.4
 _ZN20KConfigDialogManager15settingsChangedEP7QWidget@Base 4:4.3.4
 _ZN20KConfigDialogManager15settingsChangedEv@Base 4:4.3.4
 _ZN20KConfigDialogManager16staticMetaObjectE@Base 4:4.3.4
 _ZN20KConfigDialogManager20updateWidgetsDefaultEv@Base 4:4.3.4
 _ZN20KConfigDialogManager4initEb@Base 4:4.3.4
 _ZN20KConfigDialogManager8initMapsEv@Base 4:4.3.4
 _ZN20KConfigDialogManager9addWidgetEP7QWidget@Base 4:4.3.4
 _ZN20KConfigDialogManagerC1EP7QWidgetP15KConfigSkeleton@Base 4:4.3.4
 _ZN20KConfigDialogManagerC1EP7QWidgetP19KCoreConfigSkeleton@Base 4:4.5.85
 _ZN20KConfigDialogManagerC2EP7QWidgetP15KConfigSkeleton@Base 4:4.3.4
 _ZN20KConfigDialogManagerC2EP7QWidgetP19KCoreConfigSkeleton@Base 4:4.5.85
 _ZN20KConfigDialogManagerD0Ev@Base 4:4.3.4
 _ZN20KConfigDialogManagerD1Ev@Base 4:4.3.4
 _ZN20KConfigDialogManagerD2Ev@Base 4:4.3.4
 _ZN20KDialogJobUiDelegate11qt_metacallEN11QMetaObject4CallEiPPv@Base 4:4.3.4
 _ZN20KDialogJobUiDelegate11qt_metacastEPKc@Base 4:4.3.4
 _ZN20KDialogJobUiDelegate11slotWarningEP4KJobRK7QStringS4_@Base 4:4.3.4
 _ZN20KDialogJobUiDelegate16showErrorMessageEv@Base 4:4.3.4
 _ZN20KDialogJobUiDelegate16staticMetaObjectE@Base 4:4.3.4
 _ZN20KDialogJobUiDelegate19updateUserTimestampEm@Base 4:4.3.4
 _ZN20KDialogJobUiDelegate9setWindowEP7QWidget@Base 4:4.3.4
 _ZN20KDialogJobUiDelegateC1Ev@Base 4:4.3.4
 _ZN20KDialogJobUiDelegateC2Ev@Base 4:4.3.4
 _ZN20KDialogJobUiDelegateD0Ev@Base 4:4.3.4
 _ZN20KDialogJobUiDelegateD1Ev@Base 4:4.3.4
 _ZN20KDialogJobUiDelegateD2Ev@Base 4:4.3.4
 _ZN20KSelectionProxyModel11qt_metacallEN11QMetaObject4CallEiPPv@Base 4:4.4.0
 _ZN20KSelectionProxyModel11qt_metacastEPKc@Base 4:4.4.0
 _ZN20KSelectionProxyModel12dropMimeDataEPK9QMimeDataN2Qt10DropActionEiiRK11QModelIndex@Base 4:4.4.0
 _ZN20KSelectionProxyModel14rootIndexAddedERK11QModelIndex@Base 4:4.4.0
 _ZN20KSelectionProxyModel14setSourceModelEP18QAbstractItemModel@Base 4:4.4.0
 _ZN20KSelectionProxyModel16staticMetaObjectE@Base 4:4.4.0
 _ZN20KSelectionProxyModel17setFilterBehaviorENS_14FilterBehaviorE@Base 4:4.4.0
 _ZN20KSelectionProxyModel18rootSelectionAddedERK14QItemSelection@Base 4:4.4.95
 _ZN20KSelectionProxyModel25rootIndexAboutToBeRemovedERK11QModelIndex@Base 4:4.4.0
 _ZN20KSelectionProxyModel29rootSelectionAboutToBeRemovedERK14QItemSelection@Base 4:4.4.95
 _ZN20KSelectionProxyModelC1EP19QItemSelectionModelP7QObject@Base 4:4.4.0
 _ZN20KSelectionProxyModelC2EP19QItemSelectionModelP7QObject@Base 4:4.4.0
 _ZN20KSelectionProxyModelD0Ev@Base 4:4.4.0
 _ZN20KSelectionProxyModelD1Ev@Base 4:4.4.0
 _ZN20KSelectionProxyModelD2Ev@Base 4:4.4.0
 _ZN20KStatusBarJobTracker11descriptionEP4KJobRK7QStringRK5QPairIS2_S2_ES8_@Base 4:4.3.4
 _ZN20KStatusBarJobTracker11qt_metacallEN11QMetaObject4CallEiPPv@Base 4:4.3.4
 _ZN20KStatusBarJobTracker11qt_metacastEPKc@Base 4:4.3.4
 _ZN20KStatusBarJobTracker11registerJobEP4KJob@Base 4:4.3.4
 _ZN20KStatusBarJobTracker11totalAmountEP4KJobNS0_4UnitEy@Base 4:4.3.4
 _ZN20KStatusBarJobTracker13unregisterJobEP4KJob@Base 4:4.3.4
 _ZN20KStatusBarJobTracker16setStatusBarModeE6QFlagsINS_13StatusBarModeEE@Base 4:4.3.4
 _ZN20KStatusBarJobTracker16staticMetaObjectE@Base 4:4.3.4
 _ZN20KStatusBarJobTracker5speedEP4KJobm@Base 4:4.3.4
 _ZN20KStatusBarJobTracker6widgetEP4KJob@Base 4:4.3.4
 _ZN20KStatusBarJobTracker7Private14ProgressWidget11descriptionERK7QStringRK5QPairIS2_S2_ES8_@Base 4:4.3.4
 _ZN20KStatusBarJobTracker7Private14ProgressWidget11eventFilterEP7QObjectP6QEvent@Base 4:4.3.4
 _ZN20KStatusBarJobTracker7Private14ProgressWidget11qt_metacallEN11QMetaObject4CallEiPPv@Base 4:4.3.4
 _ZN20KStatusBarJobTracker7Private14ProgressWidget11qt_metacastEPKc@Base 4:4.3.4
 _ZN20KStatusBarJobTracker7Private14ProgressWidget11totalAmountEN4KJob4UnitEy@Base 4:4.3.4
 _ZN20KStatusBarJobTracker7Private14ProgressWidget16staticMetaObjectE@Base 4:4.3.4
 _ZN20KStatusBarJobTracker7Private14ProgressWidget4initEP4KJobP7QWidget@Base 4:4.3.4
 _ZN20KStatusBarJobTracker7Private14ProgressWidget5speedEm@Base 4:4.3.4
 _ZN20KStatusBarJobTracker7Private14ProgressWidget7killJobEv@Base 4:4.3.4
 _ZN20KStatusBarJobTracker7Private14ProgressWidget7percentEm@Base 4:4.3.4
 _ZN20KStatusBarJobTracker7Private14ProgressWidget7setModeE6QFlagsINS_13StatusBarModeEE@Base 4:4.3.4
 _ZN20KStatusBarJobTracker7Private14ProgressWidget9slotCleanEv@Base 4:4.3.4
 _ZN20KStatusBarJobTracker7percentEP4KJobm@Base 4:4.3.4
 _ZN20KStatusBarJobTracker9slotCleanEP4KJob@Base 4:4.3.4
 _ZN20KStatusBarJobTrackerC1EP7QWidgetb@Base 4:4.3.4
 _ZN20KStatusBarJobTrackerC2EP7QWidgetb@Base 4:4.3.4
 _ZN20KStatusBarJobTrackerD0Ev@Base 4:4.3.4
 _ZN20KStatusBarJobTrackerD1Ev@Base 4:4.3.4
 _ZN20KStatusBarJobTrackerD2Ev@Base 4:4.3.4
 _ZN20KStringListValidator11qt_metacallEN11QMetaObject4CallEiPPv@Base 4:4.3.4
 _ZN20KStringListValidator11qt_metacastEPKc@Base 4:4.3.4
 _ZN20KStringListValidator12setRejectingEb@Base 4:4.3.4
 _ZN20KStringListValidator13setStringListERK11QStringList@Base 4:4.3.4
 _ZN20KStringListValidator15setFixupEnabledEb@Base 4:4.3.4
 _ZN20KStringListValidator16staticMetaObjectE@Base 4:4.3.4
 _ZN20KStringListValidatorC1ERK11QStringListbbP7QObject@Base 4:4.3.4
 _ZN20KStringListValidatorC2ERK11QStringListbbP7QObject@Base 4:4.3.4
 _ZN20KStringListValidatorD0Ev@Base 4:4.3.4
 _ZN20KStringListValidatorD1Ev@Base 4:4.3.4
 _ZN20KStringListValidatorD2Ev@Base 4:4.3.4
 _ZN20KToggleToolBarAction11eventFilterEP7QObjectP6QEvent@Base 4:4.3.4
 _ZN20KToggleToolBarAction11qt_metacallEN11QMetaObject4CallEiPPv@Base 4:4.3.4
 _ZN20KToggleToolBarAction11qt_metacastEPKc@Base 4:4.3.4
 _ZN20KToggleToolBarAction11slotToggledEb@Base 4:4.3.4
 _ZN20KToggleToolBarAction16staticMetaObjectE@Base 4:4.3.4
 _ZN20KToggleToolBarAction7toolBarEv@Base 4:4.3.4
 _ZN20KToggleToolBarActionC1EP8KToolBarRK7QStringP7QObject@Base 4:4.3.4
 _ZN20KToggleToolBarActionC1EPKcRK7QStringP7QObject@Base 4:4.3.4
 _ZN20KToggleToolBarActionC2EP8KToolBarRK7QStringP7QObject@Base 4:4.3.4
 _ZN20KToggleToolBarActionC2EPKcRK7QStringP7QObject@Base 4:4.3.4
 _ZN20KToggleToolBarActionD0Ev@Base 4:4.3.4
 _ZN20KToggleToolBarActionD1Ev@Base 4:4.3.4
 _ZN20KToggleToolBarActionD2Ev@Base 4:4.3.4
 _ZN20KToolBarSpacerAction11qt_metacallEN11QMetaObject4CallEiPPv@Base 4:4.3.4
 _ZN20KToolBarSpacerAction11qt_metacastEPKc@Base 4:4.3.4
 _ZN20KToolBarSpacerAction12createWidgetEP7QWidget@Base 4:4.3.4
 _ZN20KToolBarSpacerAction12deleteWidgetEP7QWidget@Base 4:4.3.4
 _ZN20KToolBarSpacerAction15setMaximumWidthEi@Base 4:4.3.4
 _ZN20KToolBarSpacerAction15setMinimumWidthEi@Base 4:4.3.4
 _ZN20KToolBarSpacerAction16staticMetaObjectE@Base 4:4.3.4
 _ZN20KToolBarSpacerAction8setWidthEi@Base 4:4.3.4
 _ZN20KToolBarSpacerActionC1EP7QObject@Base 4:4.3.4
 _ZN20KToolBarSpacerActionC2EP7QObject@Base 4:4.3.4
 _ZN20KToolBarSpacerActionD0Ev@Base 4:4.3.4
 _ZN20KToolBarSpacerActionD1Ev@Base 4:4.3.4
 _ZN20KToolBarSpacerActionD2Ev@Base 4:4.3.4
 _ZN21KListWidgetSearchLine11qt_metacallEN11QMetaObject4CallEiPPv@Base 4:4.3.4
 _ZN21KListWidgetSearchLine11qt_metacastEPKc@Base 4:4.3.4
 _ZN21KListWidgetSearchLine12updateSearchERK7QString@Base 4:4.3.4
 _ZN21KListWidgetSearchLine13setListWidgetEP11QListWidget@Base 4:4.3.4
 _ZN21KListWidgetSearchLine16staticMetaObjectE@Base 4:4.3.4
 _ZN21KListWidgetSearchLine18setCaseSensitivityEN2Qt15CaseSensitivityE@Base 4:4.3.4
 _ZN21KListWidgetSearchLine28KListWidgetSearchLinePrivate14_k_dataChangedERK11QModelIndexS3_@Base 4:4.6.1
 _ZN21KListWidgetSearchLine28KListWidgetSearchLinePrivate14_k_queueSearchERK7QString@Base 4:4.3.4
 _ZN21KListWidgetSearchLine28KListWidgetSearchLinePrivate15_k_rowsInsertedERK11QModelIndexii@Base 4:4.6.1
 _ZN21KListWidgetSearchLine28KListWidgetSearchLinePrivate17_k_activateSearchEv@Base 4:4.3.4
 _ZN21KListWidgetSearchLine28KListWidgetSearchLinePrivate17updateHiddenStateEii@Base 4:4.6.1
 _ZN21KListWidgetSearchLine28KListWidgetSearchLinePrivate20_k_listWidgetDeletedEv@Base 4:4.3.4
 _ZN21KListWidgetSearchLine28KListWidgetSearchLinePrivate4initEP11QListWidget@Base 4:4.3.4
 _ZN21KListWidgetSearchLine5clearEv@Base 4:4.3.4
 _ZN21KListWidgetSearchLine5eventEP6QEvent@Base 4:4.3.4
 _ZN21KListWidgetSearchLineC1EP7QWidgetP11QListWidget@Base 4:4.3.4
 _ZN21KListWidgetSearchLineC2EP7QWidgetP11QListWidget@Base 4:4.3.4
 _ZN21KListWidgetSearchLineD0Ev@Base 4:4.3.4
 _ZN21KListWidgetSearchLineD1Ev@Base 4:4.3.4
 _ZN21KListWidgetSearchLineD2Ev@Base 4:4.3.4
 _ZN21KPixmapSequenceWidget11qt_metacallEN11QMetaObject4CallEiPPv@Base 4:4.4.0
 _ZN21KPixmapSequenceWidget11qt_metacastEPKc@Base 4:4.4.0
 _ZN21KPixmapSequenceWidget11setIntervalEi@Base 4:4.4.0
 _ZN21KPixmapSequenceWidget11setSequenceERK15KPixmapSequence@Base 4:4.4.0
 _ZN21KPixmapSequenceWidget16staticMetaObjectE@Base 4:4.4.0
 _ZN21KPixmapSequenceWidgetC1EP7QWidget@Base 4:4.4.0
 _ZN21KPixmapSequenceWidgetC2EP7QWidget@Base 4:4.4.0
 _ZN21KPixmapSequenceWidgetD0Ev@Base 4:4.4.0
 _ZN21KPixmapSequenceWidgetD1Ev@Base 4:4.4.0
 _ZN21KPixmapSequenceWidgetD2Ev@Base 4:4.4.0
 _ZN21KTreeWidgetSearchLine11qt_metacallEN11QMetaObject4CallEiPPv@Base 4:4.3.4
 _ZN21KTreeWidgetSearchLine11qt_metacastEPKc@Base 4:4.3.4
 _ZN21KTreeWidgetSearchLine12updateSearchEP11QTreeWidget@Base 4:4.3.4
 _ZN21KTreeWidgetSearchLine12updateSearchERK7QString@Base 4:4.3.4
 _ZN21KTreeWidgetSearchLine13addTreeWidgetEP11QTreeWidget@Base 4:4.3.4
 _ZN21KTreeWidgetSearchLine13hiddenChangedEP15QTreeWidgetItemb@Base 4:4.3.4
 _ZN21KTreeWidgetSearchLine13setTreeWidgetEP11QTreeWidget@Base 4:4.3.4
 _ZN21KTreeWidgetSearchLine14setTreeWidgetsERK5QListIP11QTreeWidgetE@Base 4:4.3.4
 _ZN21KTreeWidgetSearchLine16contextMenuEventEP17QContextMenuEvent@Base 4:4.3.4
 _ZN21KTreeWidgetSearchLine16removeTreeWidgetEP11QTreeWidget@Base 4:4.3.4
 _ZN21KTreeWidgetSearchLine16setSearchColumnsERK5QListIiE@Base 4:4.3.4
 _ZN21KTreeWidgetSearchLine16staticMetaObjectE@Base 4:4.3.4
 _ZN21KTreeWidgetSearchLine17connectTreeWidgetEP11QTreeWidget@Base 4:4.3.4
 _ZN21KTreeWidgetSearchLine18setCaseSensitivityEN2Qt15CaseSensitivityE@Base 4:4.3.4
 _ZN21KTreeWidgetSearchLine20disconnectTreeWidgetEP11QTreeWidget@Base 4:4.3.4
 _ZN21KTreeWidgetSearchLine21canChooseColumnsCheckEv@Base 4:4.3.4
 _ZN21KTreeWidgetSearchLine21setKeepParentsVisibleEb@Base 4:4.3.4
 _ZN21KTreeWidgetSearchLine5eventEP6QEvent@Base 4:4.3.4
 _ZN21KTreeWidgetSearchLine7Private12checkColumnsEv@Base 4:4.3.4
 _ZN21KTreeWidgetSearchLine7Private14_k_queueSearchERK7QString@Base 4:4.3.4
 _ZN21KTreeWidgetSearchLine7Private17_k_activateSearchEv@Base 4:4.3.4
 _ZN21KTreeWidgetSearchLine7Private20_k_treeWidgetDeletedEP7QObject@Base 4:4.3.4
 _ZN21KTreeWidgetSearchLine7Private22_k_slotColumnActivatedEP7QAction@Base 4:4.3.4
 _ZN21KTreeWidgetSearchLine7Private23checkItemParentsVisibleEP15QTreeWidgetItem@Base 4:4.3.4
 _ZN21KTreeWidgetSearchLine7Private24_k_slotAllVisibleColumnsEv@Base 4:4.3.4
 _ZN21KTreeWidgetSearchLine7Private26checkItemParentsNotVisibleEP11QTreeWidget@Base 4:4.3.4
 _ZN21KTreeWidgetSearchLineC1EP7QWidgetP11QTreeWidget@Base 4:4.3.4
 _ZN21KTreeWidgetSearchLineC1EP7QWidgetRK5QListIP11QTreeWidgetE@Base 4:4.3.4
 _ZN21KTreeWidgetSearchLineC2EP7QWidgetP11QTreeWidget@Base 4:4.3.4
 _ZN21KTreeWidgetSearchLineC2EP7QWidgetRK5QListIP11QTreeWidgetE@Base 4:4.3.4
 _ZN21KTreeWidgetSearchLineD0Ev@Base 4:4.3.4
 _ZN21KTreeWidgetSearchLineD1Ev@Base 4:4.3.4
 _ZN21KTreeWidgetSearchLineD2Ev@Base 4:4.3.4
 _ZN22KClipboardSynchronizer11qt_metacallEN11QMetaObject4CallEiPPv@Base 4:4.3.4
 _ZN22KClipboardSynchronizer11qt_metacastEPKc@Base 4:4.3.4
 _ZN22KClipboardSynchronizer15isSynchronizingEv@Base 4:4.3.4
 _ZN22KClipboardSynchronizer16setSynchronizingEb@Base 4:4.3.4
 _ZN22KClipboardSynchronizer16staticMetaObjectE@Base 4:4.3.4
 _ZN22KClipboardSynchronizer22isReverseSynchronizingEv@Base 4:4.3.4
 _ZN22KClipboardSynchronizer23setReverseSynchronizingEb@Base 4:4.3.4
 _ZN22KClipboardSynchronizer4selfEv@Base 4:4.3.4
 _ZN22KClipboardSynchronizer7Private12setClipboardEPK9QMimeDataN10QClipboard4ModeE@Base 4:4.3.4
 _ZN22KClipboardSynchronizer7Private12setupSignalsEv@Base 4:4.3.4
 _ZN22KClipboardSynchronizer7Private14s_reverse_syncE@Base 4:4.3.4
 _ZN22KClipboardSynchronizer7Private19_k_slotNotifyChangeEii@Base 4:4.3.4
 _ZN22KClipboardSynchronizer7Private23_k_slotClipboardChangedEv@Base 4:4.3.4
 _ZN22KClipboardSynchronizer7Private23_k_slotSelectionChangedEv@Base 4:4.3.4
 _ZN22KClipboardSynchronizer7Private6s_syncE@Base 4:4.3.4
 _ZN22KClipboardSynchronizer7Private9s_blockedE@Base 4:4.3.4
 _ZN22KClipboardSynchronizerC1EP7QObject@Base 4:4.3.4
 _ZN22KClipboardSynchronizerC2EP7QObject@Base 4:4.3.4
 _ZN22KClipboardSynchronizerD0Ev@Base 4:4.3.4
 _ZN22KClipboardSynchronizerD1Ev@Base 4:4.3.4
 _ZN22KClipboardSynchronizerD2Ev@Base 4:4.3.4
 _ZN22KDescendantsProxyModel11qt_metacallEN11QMetaObject4CallEiPPv@Base 4:4.5.85
 _ZN22KDescendantsProxyModel11qt_metacastEPKc@Base 4:4.5.85
 _ZN22KDescendantsProxyModel12setRootIndexERK11QModelIndex@Base 4:4.5.85
 _ZN22KDescendantsProxyModel14setSourceModelEP18QAbstractItemModel@Base 4:4.5.85
 _ZN22KDescendantsProxyModel16staticMetaObjectE@Base 4:4.5.85
 _ZN22KDescendantsProxyModel20setAncestorSeparatorERK7QString@Base 4:4.5.85
 _ZN22KDescendantsProxyModel22setDisplayAncestorDataEb@Base 4:4.5.85
 _ZN22KDescendantsProxyModelC1EP7QObject@Base 4:4.5.85
 _ZN22KDescendantsProxyModelC2EP7QObject@Base 4:4.5.85
 _ZN22KDescendantsProxyModelD0Ev@Base 4:4.5.85
 _ZN22KDescendantsProxyModelD1Ev@Base 4:4.5.85
 _ZN22KDescendantsProxyModelD2Ev@Base 4:4.5.85
 _ZN22KFilterProxySearchLine11qt_metacallEN11QMetaObject4CallEiPPv@Base 4:4.3.4
 _ZN22KFilterProxySearchLine11qt_metacastEPKc@Base 4:4.3.4
 _ZN22KFilterProxySearchLine16staticMetaObjectE@Base 4:4.3.4
 _ZN22KFilterProxySearchLine7Private20slotSearchLineChangeERK7QString@Base 4:4.3.4
 _ZN22KFilterProxySearchLine7Private22slotSearchLineActivateEv@Base 4:4.3.4
 _ZN22KFilterProxySearchLine7setTextERK7QString@Base 4:4.3.4
 _ZN22KFilterProxySearchLine8setProxyEP21QSortFilterProxyModel@Base 4:4.3.4
 _ZN22KFilterProxySearchLineC1EP7QWidget@Base 4:4.3.4
 _ZN22KFilterProxySearchLineC2EP7QWidget@Base 4:4.3.4
 _ZN22KFilterProxySearchLineD0Ev@Base 4:4.3.4
 _ZN22KFilterProxySearchLineD1Ev@Base 4:4.3.4
 _ZN22KFilterProxySearchLineD2Ev@Base 4:4.3.4
 _ZN22KHueSaturationSelector11drawPaletteEP7QPixmap@Base 4:4.3.4
 _ZN22KHueSaturationSelector11qt_metacallEN11QMetaObject4CallEiPPv@Base 4:4.3.4
 _ZN22KHueSaturationSelector11qt_metacastEPKc@Base 4:4.3.4
 _ZN22KHueSaturationSelector11resizeEventEP12QResizeEvent@Base 4:4.3.4
 _ZN22KHueSaturationSelector12drawContentsEP8QPainter@Base 4:4.3.4
 _ZN22KHueSaturationSelector13setColorValueEi@Base 4:4.3.4
 _ZN22KHueSaturationSelector13setSaturationEi@Base 4:4.3.4
 _ZN22KHueSaturationSelector14setChooserModeE17KColorChooserMode@Base 4:4.3.4
 _ZN22KHueSaturationSelector14updateContentsEv@Base 4:4.3.4
 _ZN22KHueSaturationSelector16staticMetaObjectE@Base 4:4.3.4
 _ZN22KHueSaturationSelector6setHueEi@Base 4:4.3.4
 _ZN22KHueSaturationSelectorC1EP7QWidget@Base 4:4.3.4
 _ZN22KHueSaturationSelectorC2EP7QWidget@Base 4:4.3.4
 _ZN22KHueSaturationSelectorD0Ev@Base 4:4.3.4
 _ZN22KHueSaturationSelectorD1Ev@Base 4:4.3.4
 _ZN22KHueSaturationSelectorD2Ev@Base 4:4.3.4
 _ZN22KModelIndexProxyMapper11qt_metacallEN11QMetaObject4CallEiPPv@Base 4:4.4.95
 _ZN22KModelIndexProxyMapper11qt_metacastEPKc@Base 4:4.4.95
 _ZN22KModelIndexProxyMapper16staticMetaObjectE@Base 4:4.4.95
 _ZN22KModelIndexProxyMapperC1EPK18QAbstractItemModelS2_P7QObject@Base 4:4.4.95
 _ZN22KModelIndexProxyMapperC2EPK18QAbstractItemModelS2_P7QObject@Base 4:4.4.95
 _ZN22KModelIndexProxyMapperD0Ev@Base 4:4.5.2
 _ZN22KModelIndexProxyMapperD1Ev@Base 4:4.5.2
 _ZN22KModelIndexProxyMapperD2Ev@Base 4:4.5.2
 _ZN23KAboutApplicationDialog11qt_metacallEN11QMetaObject4CallEiPPv@Base 4:4.3.4
 _ZN23KAboutApplicationDialog11qt_metacastEPKc@Base 4:4.3.4
 _ZN23KAboutApplicationDialog16staticMetaObjectE@Base 4:4.3.4
 _ZN23KAboutApplicationDialog7Private14_k_showLicenseERK7QString@Base 4:4.3.4
 _ZN23KAboutApplicationDialog7Private4initEPK10KAboutData6QFlagsINS_6OptionEE@Base 4:4.4.0
 _ZN23KAboutApplicationDialogC1EPK10KAboutData6QFlagsINS_6OptionEEP7QWidget@Base 4:4.4.0
 _ZN23KAboutApplicationDialogC1EPK10KAboutDataP7QWidget@Base 4:4.3.4
 _ZN23KAboutApplicationDialogC2EPK10KAboutData6QFlagsINS_6OptionEEP7QWidget@Base 4:4.4.0
 _ZN23KAboutApplicationDialogC2EPK10KAboutDataP7QWidget@Base 4:4.3.4
 _ZN23KAboutApplicationDialogD0Ev@Base 4:4.3.4
 _ZN23KAboutApplicationDialogD1Ev@Base 4:4.3.4
 _ZN23KAboutApplicationDialogD2Ev@Base 4:4.3.4
 _ZN23KExtendableItemDelegate10extendItemEP7QWidgetRK11QModelIndex@Base 4:4.3.4
 _ZN23KExtendableItemDelegate11contractAllEv@Base 4:4.3.4
 _ZN23KExtendableItemDelegate11qt_metacallEN11QMetaObject4CallEiPPv@Base 4:4.3.4
 _ZN23KExtendableItemDelegate11qt_metacastEPKc@Base 4:4.3.4
 _ZN23KExtendableItemDelegate12contractItemERK11QModelIndex@Base 4:4.3.4
 _ZN23KExtendableItemDelegate12extendPixmapEv@Base 4:4.3.4
 _ZN23KExtendableItemDelegate14contractPixmapEv@Base 4:4.3.4
 _ZN23KExtendableItemDelegate15extenderCreatedEP7QWidgetRK11QModelIndex@Base 4:4.3.4
 _ZN23KExtendableItemDelegate15setExtendPixmapERK7QPixmap@Base 4:4.3.4
 _ZN23KExtendableItemDelegate16staticMetaObjectE@Base 4:4.3.4
 _ZN23KExtendableItemDelegate17extenderDestroyedEP7QWidgetRK11QModelIndex@Base 4:4.3.4
 _ZN23KExtendableItemDelegate17setContractPixmapERK7QPixmap@Base 4:4.3.4
 _ZN23KExtendableItemDelegate7Private15deleteExtendersEv@Base 4:4.3.4
 _ZN23KExtendableItemDelegate7Private17_k_verticalScrollEv@Base 4:4.3.4
 _ZN23KExtendableItemDelegate7Private24scheduleUpdateViewLayoutEv@Base 4:4.3.4
 _ZN23KExtendableItemDelegate7Private29_k_extenderDestructionHandlerEP7QObject@Base 4:4.3.4
 _ZN23KExtendableItemDelegateC1EP17QAbstractItemView@Base 4:4.3.4
 _ZN23KExtendableItemDelegateC2EP17QAbstractItemView@Base 4:4.3.4
 _ZN23KExtendableItemDelegateD0Ev@Base 4:4.3.4
 _ZN23KExtendableItemDelegateD1Ev@Base 4:4.3.4
 _ZN23KExtendableItemDelegateD2Ev@Base 4:4.3.4
 _ZN23KLinkItemSelectionModel11qt_metacallEN11QMetaObject4CallEiPPv@Base 4:4.4.95
 _ZN23KLinkItemSelectionModel11qt_metacastEPKc@Base 4:4.4.95
 _ZN23KLinkItemSelectionModel16staticMetaObjectE@Base 4:4.4.95
 _ZN23KLinkItemSelectionModel6selectERK11QModelIndex6QFlagsIN19QItemSelectionModel13SelectionFlagEE@Base 4:4.4.95
 _ZN23KLinkItemSelectionModel6selectERK14QItemSelection6QFlagsIN19QItemSelectionModel13SelectionFlagEE@Base 4:4.4.95
 _ZN23KLinkItemSelectionModelC1EP18QAbstractItemModelP19QItemSelectionModelP7QObject@Base 4:4.4.95
 _ZN23KLinkItemSelectionModelC2EP18QAbstractItemModelP19QItemSelectionModelP7QObject@Base 4:4.4.95
 _ZN23KLinkItemSelectionModelD0Ev@Base 4:4.4.95
 _ZN23KLinkItemSelectionModelD1Ev@Base 4:4.4.95
 _ZN23KLinkItemSelectionModelD2Ev@Base 4:4.4.95
 _ZN23KToggleFullScreenAction11eventFilterEP7QObjectP6QEvent@Base 4:4.3.4
 _ZN23KToggleFullScreenAction11qt_metacallEN11QMetaObject4CallEiPPv@Base 4:4.3.4
 _ZN23KToggleFullScreenAction11qt_metacastEPKc@Base 4:4.3.4
 _ZN23KToggleFullScreenAction11slotToggledEb@Base 4:4.3.4
 _ZN23KToggleFullScreenAction13setFullScreenEP7QWidgetb@Base 4:4.3.4
 _ZN23KToggleFullScreenAction16staticMetaObjectE@Base 4:4.3.4
 _ZN23KToggleFullScreenAction9setWindowEP7QWidget@Base 4:4.3.4
 _ZN23KToggleFullScreenActionC1EP7QObject@Base 4:4.3.4
 _ZN23KToggleFullScreenActionC1EP7QWidgetP7QObject@Base 4:4.3.4
 _ZN23KToggleFullScreenActionC2EP7QObject@Base 4:4.3.4
 _ZN23KToggleFullScreenActionC2EP7QWidgetP7QObject@Base 4:4.3.4
 _ZN23KToggleFullScreenActionD0Ev@Base 4:4.3.4
 _ZN23KToggleFullScreenActionD1Ev@Base 4:4.3.4
 _ZN23KToggleFullScreenActionD2Ev@Base 4:4.3.4
 _ZN24KViewStateMaintainerBase11qt_metacallEN11QMetaObject4CallEiPPv@Base 4:4.5.85
 _ZN24KViewStateMaintainerBase11qt_metacastEPKc@Base 4:4.5.85
 _ZN24KViewStateMaintainerBase16staticMetaObjectE@Base 4:4.5.85
 _ZN24KViewStateMaintainerBase17setSelectionModelEP19QItemSelectionModel@Base 4:4.5.85
 _ZN24KViewStateMaintainerBase7setViewEP17QAbstractItemView@Base 4:4.5.85
 _ZN24KViewStateMaintainerBaseC1E12KConfigGroupP7QObject@Base 4:4.5.85
 _ZN24KViewStateMaintainerBaseC2E12KConfigGroupP7QObject@Base 4:4.5.85
 _ZN24KViewStateMaintainerBaseD0Ev@Base 4:4.5.85
 _ZN24KViewStateMaintainerBaseD1Ev@Base 4:4.5.85
 _ZN24KViewStateMaintainerBaseD2Ev@Base 4:4.5.85
 _ZN25KAbstractWidgetJobTracker10slotResumeEP4KJob@Base 4:4.3.4
 _ZN25KAbstractWidgetJobTracker11qt_metacallEN11QMetaObject4CallEiPPv@Base 4:4.3.4
 _ZN25KAbstractWidgetJobTracker11qt_metacastEPKc@Base 4:4.3.4
 _ZN25KAbstractWidgetJobTracker11registerJobEP4KJob@Base 4:4.3.4
 _ZN25KAbstractWidgetJobTracker11slotSuspendEP4KJob@Base 4:4.3.4
 _ZN25KAbstractWidgetJobTracker13setAutoDeleteEP4KJobb@Base 4:4.3.4
 _ZN25KAbstractWidgetJobTracker13unregisterJobEP4KJob@Base 4:4.3.4
 _ZN25KAbstractWidgetJobTracker14setStopOnCloseEP4KJobb@Base 4:4.3.4
 _ZN25KAbstractWidgetJobTracker16staticMetaObjectE@Base 4:4.3.4
 _ZN25KAbstractWidgetJobTracker6resumeEP4KJob@Base 4:4.3.4
 _ZN25KAbstractWidgetJobTracker7stoppedEP4KJob@Base 4:4.3.4
 _ZN25KAbstractWidgetJobTracker7suspendEP4KJob@Base 4:4.3.4
 _ZN25KAbstractWidgetJobTracker8finishedEP4KJob@Base 4:4.3.4
 _ZN25KAbstractWidgetJobTracker8slotStopEP4KJob@Base 4:4.3.4
 _ZN25KAbstractWidgetJobTracker9slotCleanEP4KJob@Base 4:4.3.4
 _ZN25KAbstractWidgetJobTrackerC1EP7QWidget@Base 4:4.3.4
 _ZN25KAbstractWidgetJobTrackerC2EP7QWidget@Base 4:4.3.4
 _ZN25KAbstractWidgetJobTrackerD0Ev@Base 4:4.3.4
 _ZN25KAbstractWidgetJobTrackerD1Ev@Base 4:4.3.4
 _ZN25KAbstractWidgetJobTrackerD2Ev@Base 4:4.3.4
 _ZN25KBreadcrumbSelectionModel11qt_metacallEN11QMetaObject4CallEiPPv@Base 4:4.4.95
 _ZN25KBreadcrumbSelectionModel11qt_metacastEPKc@Base 4:4.4.95
 _ZN25KBreadcrumbSelectionModel16staticMetaObjectE@Base 4:4.4.95
 _ZN25KBreadcrumbSelectionModel19setBreadcrumbLengthEi@Base 4:4.4.95
 _ZN25KBreadcrumbSelectionModel26setActualSelectionIncludedEb@Base 4:4.4.95
 _ZN25KBreadcrumbSelectionModel6selectERK11QModelIndex6QFlagsIN19QItemSelectionModel13SelectionFlagEE@Base 4:4.4.95
 _ZN25KBreadcrumbSelectionModel6selectERK14QItemSelection6QFlagsIN19QItemSelectionModel13SelectionFlagEE@Base 4:4.4.95
 _ZN25KBreadcrumbSelectionModelC1EP19QItemSelectionModelNS_16BreadcrumbTargetEP7QObject@Base 4:4.4.95
 _ZN25KBreadcrumbSelectionModelC1EP19QItemSelectionModelP7QObject@Base 4:4.4.95
 _ZN25KBreadcrumbSelectionModelC2EP19QItemSelectionModelNS_16BreadcrumbTargetEP7QObject@Base 4:4.4.95
 _ZN25KBreadcrumbSelectionModelC2EP19QItemSelectionModelP7QObject@Base 4:4.4.95
 _ZN25KBreadcrumbSelectionModelD0Ev@Base 4:4.4.95
 _ZN25KBreadcrumbSelectionModelD1Ev@Base 4:4.4.95
 _ZN25KBreadcrumbSelectionModelD2Ev@Base 4:4.4.95
 _ZN25KMessageBoxMessageHandler11qt_metacallEN11QMetaObject4CallEiPPv@Base 4:4.3.4
 _ZN25KMessageBoxMessageHandler11qt_metacastEPKc@Base 4:4.3.4
 _ZN25KMessageBoxMessageHandler16staticMetaObjectE@Base 4:4.3.4
 _ZN25KMessageBoxMessageHandler7messageEN8KMessage11MessageTypeERK7QStringS4_@Base 4:4.3.4
 _ZN25KMessageBoxMessageHandlerC1EP7QWidget@Base 4:4.3.4
 _ZN25KMessageBoxMessageHandlerC2EP7QWidget@Base 4:4.3.4
 _ZN25KMessageBoxMessageHandlerD0Ev@Base 4:4.3.4
 _ZN25KMessageBoxMessageHandlerD1Ev@Base 4:4.3.4
 _ZN25KMessageBoxMessageHandlerD2Ev@Base 4:4.3.4
 _ZN25KNotificationRestrictions11qt_metacallEN11QMetaObject4CallEiPPv@Base 4:4.3.4
 _ZN25KNotificationRestrictions11qt_metacastEPKc@Base 4:4.3.4
 _ZN25KNotificationRestrictions16staticMetaObjectE@Base 4:4.3.4
 _ZN25KNotificationRestrictions7Private20determineProgramNameEv@Base 4:4.3.4
 _ZN25KNotificationRestrictions7Private23screensaverFakeKeyEventEv@Base 4:4.3.4
 _ZN25KNotificationRestrictions7Private25stopScreenSaverPreventionEv@Base 4:4.3.4
 _ZN25KNotificationRestrictions7Private26startScreenSaverPreventionEv@Base 4:4.3.4
 _ZN25KNotificationRestrictionsC1E6QFlagsINS_7ServiceEEP7QObject@Base 4:4.3.4
 _ZN25KNotificationRestrictionsC2E6QFlagsINS_7ServiceEEP7QObject@Base 4:4.3.4
 _ZN25KNotificationRestrictionsD0Ev@Base 4:4.3.4
 _ZN25KNotificationRestrictionsD1Ev@Base 4:4.3.4
 _ZN25KNotificationRestrictionsD2Ev@Base 4:4.3.4
 _ZN26KRecursiveFilterProxyModel11qt_metacallEN11QMetaObject4CallEiPPv@Base 4:4.4.95
 _ZN26KRecursiveFilterProxyModel11qt_metacastEPKc@Base 4:4.4.95
 _ZN26KRecursiveFilterProxyModel14setSourceModelEP18QAbstractItemModel@Base 4:4.4.95
 _ZN26KRecursiveFilterProxyModel16staticMetaObjectE@Base 4:4.4.95
 _ZN26KRecursiveFilterProxyModelC1EP7QObject@Base 4:4.4.95
 _ZN26KRecursiveFilterProxyModelC2EP7QObject@Base 4:4.4.95
 _ZN26KRecursiveFilterProxyModelD0Ev@Base 4:4.4.95
 _ZN26KRecursiveFilterProxyModelD1Ev@Base 4:4.4.95
 _ZN26KRecursiveFilterProxyModelD2Ev@Base 4:4.4.95
 _ZN27KPassivePopupMessageHandler11qt_metacallEN11QMetaObject4CallEiPPv@Base 4:4.3.4
 _ZN27KPassivePopupMessageHandler11qt_metacastEPKc@Base 4:4.3.4
 _ZN27KPassivePopupMessageHandler12parentWidgetEv@Base 4:4.3.4
 _ZN27KPassivePopupMessageHandler16showPassivePopupEN8KMessage11MessageTypeERK7QStringS4_@Base 4:4.3.4
 _ZN27KPassivePopupMessageHandler16staticMetaObjectE@Base 4:4.3.4
 _ZN27KPassivePopupMessageHandler7messageEN8KMessage11MessageTypeERK7QStringS4_@Base 4:4.3.4
 _ZN27KPassivePopupMessageHandlerC1EP7QWidget@Base 4:4.3.4
 _ZN27KPassivePopupMessageHandlerC2EP7QWidget@Base 4:4.3.4
 _ZN27KPassivePopupMessageHandlerD0Ev@Base 4:4.7.2
 _ZN27KPassivePopupMessageHandlerD1Ev@Base 4:4.7.2
 _ZN27KPassivePopupMessageHandlerD2Ev@Base 4:4.7.2
 _ZN27KPixmapRegionSelectorDialog11qt_metacallEN11QMetaObject4CallEiPPv@Base 4:4.4.95
 _ZN27KPixmapRegionSelectorDialog11qt_metacastEPKc@Base 4:4.4.95
 _ZN27KPixmapRegionSelectorDialog16getSelectedImageERK7QPixmapP7QWidget@Base 4:4.3.4
 _ZN27KPixmapRegionSelectorDialog16getSelectedImageERK7QPixmapiiP7QWidget@Base 4:4.3.4
 _ZN27KPixmapRegionSelectorDialog16staticMetaObjectE@Base 4:4.4.95
 _ZN27KPixmapRegionSelectorDialog17getSelectedRegionERK7QPixmapP7QWidget@Base 4:4.3.4
 _ZN27KPixmapRegionSelectorDialog17getSelectedRegionERK7QPixmapiiP7QWidget@Base 4:4.3.4
 _ZN27KPixmapRegionSelectorDialog41adjustRegionSelectorWidgetSizeToFitScreenEv@Base 4:4.4.95
 _ZN27KPixmapRegionSelectorDialogC1EP7QWidget@Base 4:4.3.4
 _ZN27KPixmapRegionSelectorDialogC2EP7QWidget@Base 4:4.3.4
 _ZN27KPixmapRegionSelectorDialogD0Ev@Base 4:4.3.4
 _ZN27KPixmapRegionSelectorDialogD1Ev@Base 4:4.3.4
 _ZN27KPixmapRegionSelectorDialogD2Ev@Base 4:4.3.4
 _ZN27KPixmapRegionSelectorWidget11eventFilterEP7QObjectP6QEvent@Base 4:4.3.4
 _ZN27KPixmapRegionSelectorWidget11qt_metacallEN11QMetaObject4CallEiPPv@Base 4:4.3.4
 _ZN27KPixmapRegionSelectorWidget11qt_metacastEPKc@Base 4:4.3.4
 _ZN27KPixmapRegionSelectorWidget13pixmapRotatedEv@Base 4:4.4.95
 _ZN27KPixmapRegionSelectorWidget14resetSelectionEv@Base 4:4.3.4
 _ZN27KPixmapRegionSelectorWidget15createPopupMenuEv@Base 4:4.3.4
 _ZN27KPixmapRegionSelectorWidget15rotateClockwiseEv@Base 4:4.3.4
 _ZN27KPixmapRegionSelectorWidget16staticMetaObjectE@Base 4:4.3.4
 _ZN27KPixmapRegionSelectorWidget17setSelectedRegionERK5QRect@Base 4:4.3.4
 _ZN27KPixmapRegionSelectorWidget20setMaximumWidgetSizeEii@Base 4:4.3.4
 _ZN27KPixmapRegionSelectorWidget22rotateCounterclockwiseEv@Base 4:4.3.4
 _ZN27KPixmapRegionSelectorWidget23setSelectionAspectRatioEii@Base 4:4.3.4
 _ZN27KPixmapRegionSelectorWidget27setFreeSelectionAspectRatioEv@Base 4:4.3.4
 _ZN27KPixmapRegionSelectorWidget6rotateENS_15RotateDirectionE@Base 4:4.3.4
 _ZN27KPixmapRegionSelectorWidget7Private12updatePixmapEv@Base 4:4.3.4
 _ZN27KPixmapRegionSelectorWidget7Private22calcSelectionRectangleERK6QPointS3_@Base 4:4.3.4
 _ZN27KPixmapRegionSelectorWidget9setPixmapERK7QPixmap@Base 4:4.3.4
 _ZN27KPixmapRegionSelectorWidgetC1EP7QWidget@Base 4:4.3.4
 _ZN27KPixmapRegionSelectorWidgetC2EP7QWidget@Base 4:4.3.4
 _ZN27KPixmapRegionSelectorWidgetD0Ev@Base 4:4.3.4
 _ZN27KPixmapRegionSelectorWidgetD1Ev@Base 4:4.3.4
 _ZN27KPixmapRegionSelectorWidgetD2Ev@Base 4:4.3.4
 _ZN27KTreeWidgetSearchLineWidget11qt_metacallEN11QMetaObject4CallEiPPv@Base 4:4.3.4
 _ZN27KTreeWidgetSearchLineWidget11qt_metacastEPKc@Base 4:4.3.4
 _ZN27KTreeWidgetSearchLineWidget13createWidgetsEv@Base 4:4.3.4
 _ZN27KTreeWidgetSearchLineWidget16staticMetaObjectE@Base 4:4.3.4
 _ZN27KTreeWidgetSearchLineWidgetC1EP7QWidgetP11QTreeWidget@Base 4:4.3.4
 _ZN27KTreeWidgetSearchLineWidgetC2EP7QWidgetP11QTreeWidget@Base 4:4.3.4
 _ZN27KTreeWidgetSearchLineWidgetD0Ev@Base 4:4.3.4
 _ZN27KTreeWidgetSearchLineWidgetD1Ev@Base 4:4.3.4
 _ZN27KTreeWidgetSearchLineWidgetD2Ev@Base 4:4.3.4
 _ZN29KPixmapSequenceOverlayPainter11eventFilterEP7QObjectP6QEvent@Base 4:4.4.0
 _ZN29KPixmapSequenceOverlayPainter11qt_metacallEN11QMetaObject4CallEiPPv@Base 4:4.4.0
 _ZN29KPixmapSequenceOverlayPainter11qt_metacastEPKc@Base 4:4.4.0
 _ZN29KPixmapSequenceOverlayPainter11setIntervalEi@Base 4:4.4.0
 _ZN29KPixmapSequenceOverlayPainter11setSequenceERK15KPixmapSequence@Base 4:4.4.0
 _ZN29KPixmapSequenceOverlayPainter12setAlignmentE6QFlagsIN2Qt13AlignmentFlagEE@Base 4:4.4.0
 _ZN29KPixmapSequenceOverlayPainter16staticMetaObjectE@Base 4:4.4.0
 _ZN29KPixmapSequenceOverlayPainter4stopEv@Base 4:4.4.0
 _ZN29KPixmapSequenceOverlayPainter5startEv@Base 4:4.4.0
 _ZN29KPixmapSequenceOverlayPainter7Private10_k_timeoutEv@Base 4:4.4.0
 _ZN29KPixmapSequenceOverlayPainter7Private10paintFrameEv@Base 4:4.4.0
 _ZN29KPixmapSequenceOverlayPainter7Private10pixmapRectEv@Base 4:4.4.0
 _ZN29KPixmapSequenceOverlayPainter7Private8sequenceEv@Base 4:4.4.0
 _ZN29KPixmapSequenceOverlayPainter7setRectERK5QRect@Base 4:4.4.0
 _ZN29KPixmapSequenceOverlayPainter9setOffsetERK6QPoint@Base 4:4.4.0
 _ZN29KPixmapSequenceOverlayPainter9setWidgetEP7QWidget@Base 4:4.4.0
 _ZN29KPixmapSequenceOverlayPainterC1EP7QObject@Base 4:4.4.0
 _ZN29KPixmapSequenceOverlayPainterC2EP7QObject@Base 4:4.4.0
 _ZN29KPixmapSequenceOverlayPainterD0Ev@Base 4:4.4.0
 _ZN29KPixmapSequenceOverlayPainterD1Ev@Base 4:4.4.0
 _ZN29KPixmapSequenceOverlayPainterD2Ev@Base 4:4.4.0
 _ZN32KCategorizedSortFilterProxyModel14naturalCompareERK7QStringS2_@Base 4:4.3.4
 _ZN32KCategorizedSortFilterProxyModel19setCategorizedModelEb@Base 4:4.3.4
 _ZN32KCategorizedSortFilterProxyModel36setSortCategoriesByNaturalComparisonEb@Base 4:4.3.4
 _ZN32KCategorizedSortFilterProxyModel4sortEiN2Qt9SortOrderE@Base 4:4.3.4
 _ZN32KCategorizedSortFilterProxyModelC1EP7QObject@Base 4:4.3.4
 _ZN32KCategorizedSortFilterProxyModelC2EP7QObject@Base 4:4.3.4
 _ZN32KCategorizedSortFilterProxyModelD0Ev@Base 4:4.3.4
 _ZN32KCategorizedSortFilterProxyModelD1Ev@Base 4:4.3.4
 _ZN32KCategorizedSortFilterProxyModelD2Ev@Base 4:4.3.4
 _ZN3NET13timestampDiffEmm@Base 4:4.3.4
 _ZN3NET15typeMatchesMaskENS_10WindowTypeEm@Base 4:4.3.4
 _ZN3NET16timestampCompareEmm@Base 4:4.3.4
 _ZN4KLed10paintEventEP11QPaintEvent@Base 4:4.3.4
 _ZN4KLed11paintRaisedEv@Base 4:4.3.4
 _ZN4KLed11paintSunkenEv@Base 4:4.3.4
 _ZN4KLed11qt_metacallEN11QMetaObject4CallEiPPv@Base 4:4.3.4
 _ZN4KLed11qt_metacastEPKc@Base 4:4.3.4
 _ZN4KLed11resizeEventEP12QResizeEvent@Base 4:4.5.85
 _ZN4KLed13setDarkFactorEi@Base 4:4.3.4
 _ZN4KLed14paintRectFrameEb@Base 4:4.3.4
 _ZN4KLed16staticMetaObjectE@Base 4:4.3.4
 _ZN4KLed17paintCachedPixmapEv@Base 4:4.3.4
 _ZN4KLed18updateCachedPixmapEv@Base 4:4.5.85
 _ZN4KLed2onEv@Base 4:4.3.4
 _ZN4KLed3offEv@Base 4:4.3.4
 _ZN4KLed6toggleEv@Base 4:4.3.4
 _ZN4KLed7setLookENS_4LookE@Base 4:4.3.4
 _ZN4KLed8paintLedENS_5ShapeENS_4LookE@Base 4:4.5.85
 _ZN4KLed8setColorERK6QColor@Base 4:4.3.4
 _ZN4KLed8setShapeENS_5ShapeE@Base 4:4.3.4
 _ZN4KLed8setStateENS_5StateE@Base 4:4.3.4
 _ZN4KLed9paintFlatEv@Base 4:4.3.4
 _ZN4KLed9paintRectEv@Base 4:4.3.4
 _ZN4KLedC1EP7QWidget@Base 4:4.3.4
 _ZN4KLedC1ERK6QColorNS_5StateENS_4LookENS_5ShapeEP7QWidget@Base 4:4.3.4
 _ZN4KLedC1ERK6QColorP7QWidget@Base 4:4.3.4
 _ZN4KLedC2EP7QWidget@Base 4:4.3.4
 _ZN4KLedC2ERK6QColorNS_5StateENS_4LookENS_5ShapeEP7QWidget@Base 4:4.3.4
 _ZN4KLedC2ERK6QColorP7QWidget@Base 4:4.3.4
 _ZN4KLedD0Ev@Base 4:4.3.4
 _ZN4KLedD1Ev@Base 4:4.3.4
 _ZN4KLedD2Ev@Base 4:4.3.4
 _ZN5KFind10setOptionsEl@Base 4:4.3.4
 _ZN5KFind10setPatternERK7QString@Base 4:4.3.4
 _ZN5KFind11qt_metacallEN11QMetaObject4CallEiPPv@Base 4:4.3.4
 _ZN5KFind11qt_metacastEPKc@Base 4:4.3.4
 _ZN5KFind11resetCountsEv@Base 4:4.3.4
 _ZN5KFind12dialogClosedEv@Base 4:4.3.4
 _ZN5KFind13validateMatchERK7QStringii@Base 4:4.3.4
 _ZN5KFind14findNextDialogEb@Base 4:4.3.4
 _ZN5KFind14optionsChangedEv@Base 4:4.3.4
 _ZN5KFind16staticMetaObjectE@Base 4:4.3.4
 _ZN5KFind19closeFindNextDialogEv@Base 4:4.3.4
 _ZN5KFind4findERK7QStringRK7QRegExpilPi@Base 4:4.3.4
 _ZN5KFind4findERK7QStringS2_ilPi@Base 4:4.3.4
 _ZN5KFind4findEv@Base 4:4.3.4
 _ZN5KFind7Private15_k_slotFindNextEv@Base 4:4.3.4
 _ZN5KFind7Private19_k_slotDialogClosedEv@Base 4:4.3.4
 _ZN5KFind7Private25startNewIncrementalSearchEv@Base 4:4.3.4
 _ZN5KFind7Private4initERK7QString@Base 4:4.3.4
 _ZN5KFind7setDataERK7QStringi@Base 4:4.3.4
 _ZN5KFind7setDataEiRK7QStringi@Base 4:4.3.4
 _ZN5KFind8findNextEv@Base 4:4.3.4
 _ZN5KFind9highlightERK7QStringii@Base 4:4.3.4
 _ZN5KFind9highlightEiii@Base 4:4.3.4
 _ZN5KFindC1ERK7QStringlP7QWidget@Base 4:4.3.4
 _ZN5KFindC1ERK7QStringlP7QWidgetS4_@Base 4:4.3.4
 _ZN5KFindC2ERK7QStringlP7QWidget@Base 4:4.3.4
 _ZN5KFindC2ERK7QStringlP7QWidgetS4_@Base 4:4.3.4
 _ZN5KFindD0Ev@Base 4:4.3.4
 _ZN5KFindD1Ev@Base 4:4.3.4
 _ZN5KFindD2Ev@Base 4:4.3.4
 _ZN5KHBox10childEventEP11QChildEvent@Base 4:4.3.4
 _ZN5KHBox10setSpacingEi@Base 4:4.3.4
 _ZN5KHBox11qt_metacallEN11QMetaObject4CallEiPPv@Base 4:4.3.4
 _ZN5KHBox11qt_metacastEPKc@Base 4:4.3.4
 _ZN5KHBox16setStretchFactorEP7QWidgeti@Base 4:4.3.4
 _ZN5KHBox16staticMetaObjectE@Base 4:4.3.4
 _ZN5KHBox9setMarginEi@Base 4:4.3.4
 _ZN5KHBoxC1EP7QWidget@Base 4:4.3.4
 _ZN5KHBoxC1EbP7QWidget@Base 4:4.3.4
 _ZN5KHBoxC2EP7QWidget@Base 4:4.3.4
 _ZN5KHBoxC2EbP7QWidget@Base 4:4.3.4
 _ZN5KHBoxD0Ev@Base 4:4.3.4
 _ZN5KHBoxD1Ev@Base 4:4.3.4
 _ZN5KHBoxD2Ev@Base 4:4.3.4
 _ZN5KIconC1ERK5QIcon@Base 4:4.3.4
 _ZN5KIconC1ERK7QString@Base 4:4.3.4
 _ZN5KIconC1ERK7QStringP11KIconLoader@Base 4:4.3.4
 _ZN5KIconC1ERK7QStringP11KIconLoaderRK11QStringList@Base 4:4.3.4
 _ZN5KIconC1Ev@Base 4:4.3.4
 _ZN5KIconC2ERK5QIcon@Base 4:4.3.4
 _ZN5KIconC2ERK7QString@Base 4:4.3.4
 _ZN5KIconC2ERK7QStringP11KIconLoader@Base 4:4.3.4
 _ZN5KIconC2ERK7QStringP11KIconLoaderRK11QStringList@Base 4:4.3.4
 _ZN5KIconC2Ev@Base 4:4.3.4
 _ZN5KIconD1Ev@Base 4:4.3.4
 _ZN5KIconD2Ev@Base 4:4.3.4
 _ZN5KIconaSERKS_@Base 4:4.3.4
 _ZN5KMenu10closeEventEP11QCloseEvent@Base 4:4.3.4
 _ZN5KMenu11contextMenuEv@Base 4:4.3.4
 _ZN5KMenu11qt_metacallEN11QMetaObject4CallEiPPv@Base 4:4.3.4
 _ZN5KMenu11qt_metacastEPKc@Base 4:4.3.4
 _ZN5KMenu12KMenuPrivate10skipTitlesEP9QKeyEvent@Base 4:4.4.0
 _ZN5KMenu12KMenuPrivate11showCtxMenuERK6QPoint@Base 4:4.3.4
 _ZN5KMenu12KMenuPrivate13actionHoveredEP7QAction@Base 4:4.3.4
 _ZN5KMenu12KMenuPrivate17resetKeyboardVarsEb@Base 4:4.3.4
 _ZN5KMenu12KMenuPrivateC1EPS_@Base 4:4.3.4
 _ZN5KMenu12KMenuPrivateC2EPS_@Base 4:4.3.4
 _ZN5KMenu12KMenuPrivateD0Ev@Base 4:4.5.85
 _ZN5KMenu12KMenuPrivateD1Ev@Base 4:4.3.4
 _ZN5KMenu12KMenuPrivateD2Ev@Base 4:4.3.4
 _ZN5KMenu13keyPressEventEP9QKeyEvent@Base 4:4.3.4
 _ZN5KMenu13underlineTextERK7QStringj@Base 4:4.3.4
 _ZN5KMenu15hideContextMenuEv@Base 4:4.3.4
 _ZN5KMenu15mousePressEventEP11QMouseEvent@Base 4:4.3.4
 _ZN5KMenu16contextMenuEventEP17QContextMenuEvent@Base 4:4.3.4
 _ZN5KMenu16contextMenuFocusEv@Base 4:4.3.4
 _ZN5KMenu16staticMetaObjectE@Base 4:4.3.4
 _ZN5KMenu17mouseReleaseEventEP11QMouseEvent@Base 4:4.3.4
 _ZN5KMenu18focusNextPrevChildEb@Base 4:4.3.4
 _ZN5KMenu22aboutToShowContextMenuEPS_P7QActionP5QMenu@Base 4:4.3.4
 _ZN5KMenu22contextMenuFocusActionEv@Base 4:4.3.4
 _ZN5KMenu27setKeyboardShortcutsEnabledEb@Base 4:4.3.4
 _ZN5KMenu27setKeyboardShortcutsExecuteEb@Base 4:4.3.4
 _ZN5KMenu8addTitleERK5QIconRK7QStringP7QAction@Base 4:4.3.4
 _ZN5KMenu8addTitleERK7QStringP7QAction@Base 4:4.3.4
 _ZN5KMenu9hideEventEP10QHideEvent@Base 4:4.3.4
 _ZN5KMenuC1EP7QWidget@Base 4:4.3.4
 _ZN5KMenuC1ERK7QStringP7QWidget@Base 4:4.3.4
 _ZN5KMenuC2EP7QWidget@Base 4:4.3.4
 _ZN5KMenuC2ERK7QStringP7QWidget@Base 4:4.3.4
 _ZN5KMenuD0Ev@Base 4:4.3.4
 _ZN5KMenuD1Ev@Base 4:4.3.4
 _ZN5KMenuD2Ev@Base 4:4.3.4
 _ZN5KVBox11qt_metacallEN11QMetaObject4CallEiPPv@Base 4:4.3.4
 _ZN5KVBox11qt_metacastEPKc@Base 4:4.3.4
 _ZN5KVBox16staticMetaObjectE@Base 4:4.3.4
 _ZN5KVBoxC1EP7QWidget@Base 4:4.3.4
 _ZN5KVBoxC2EP7QWidget@Base 4:4.3.4
 _ZN5KVBoxD0Ev@Base 4:4.3.4
 _ZN5KVBoxD1Ev@Base 4:4.3.4
 _ZN5KVBoxD2Ev@Base 4:4.3.4
 _ZN6K3IconC1Ev@Base 4:4.3.4
 _ZN6K3IconC2Ev@Base 4:4.3.4
 _ZN6K3IconD1Ev@Base 4:4.3.4
 _ZN6K3IconD2Ev@Base 4:4.3.4
 _ZN6KCrash12crashHandlerEv@Base 4:4.3.4
 _ZN6KCrash15setCrashHandlerEPFviE@Base 4:4.3.4
 _ZN6KCrash16isDrKonqiEnabledEv@Base 4:4.4.95
 _ZN6KCrash17setDrKonqiEnabledEb@Base 4:4.4.95
 _ZN6KCrash18setApplicationNameERK7QString@Base 4:4.3.4
 _ZN6KCrash18setApplicationPathERK7QString@Base 4:4.3.4
 _ZN6KCrash19defaultCrashHandlerEi@Base 4:4.3.4
 _ZN6KCrash21emergencySaveFunctionEv@Base 4:4.3.4
 _ZN6KCrash24setEmergencySaveFunctionEPFviE@Base 4:4.3.4
 _ZN6KCrash8setFlagsE6QFlagsINS_9CrashFlagEE@Base 4:4.3.4
 _ZN6KRuler10paintEventEP11QPaintEvent@Base 4:4.3.4
 _ZN6KRuler11qt_metacallEN11QMetaObject4CallEiPPv@Base 4:4.3.4
 _ZN6KRuler11qt_metacastEPKc@Base 4:4.3.4
 _ZN6KRuler11setEndLabelERK7QString@Base 4:4.3.4
 _ZN6KRuler11setMaxValueEi@Base 4:4.3.4
 _ZN6KRuler11setMinValueEi@Base 4:4.3.4
 _ZN6KRuler12slotNewValueEi@Base 4:4.3.4
 _ZN6KRuler13setFrameStyleEi@Base 4:4.3.4
 _ZN6KRuler13slotEndOffsetEi@Base 4:4.3.4
 _ZN6KRuler13slotNewOffsetEi@Base 4:4.3.4
 _ZN6KRuler14setLengthFixedEb@Base 4:4.3.4
 _ZN6KRuler14setShowPointerEb@Base 4:4.3.4
 _ZN6KRuler15setPixelPerMarkEd@Base 4:4.3.4
 _ZN6KRuler15setShowBigMarksEb@Base 4:4.3.4
 _ZN6KRuler15setShowEndLabelEb@Base 4:4.3.4
 _ZN6KRuler15setShowEndMarksEb@Base 4:4.3.4
 _ZN6KRuler16setShowTinyMarksEb@Base 4:4.3.4
 _ZN6KRuler16staticMetaObjectE@Base 4:4.3.4
 _ZN6KRuler18setBigMarkDistanceEi@Base 4:4.3.4
 _ZN6KRuler18setShowLittleMarksEb@Base 4:4.3.4
 _ZN6KRuler18setShowMediumMarksEb@Base 4:4.3.4
 _ZN6KRuler19setRulerMetricStyleENS_11MetricStyleE@Base 4:4.3.4
 _ZN6KRuler19setTinyMarkDistanceEi@Base 4:4.3.4
 _ZN6KRuler21setLittleMarkDistanceEi@Base 4:4.3.4
 _ZN6KRuler21setMediumMarkDistanceEi@Base 4:4.3.4
 _ZN6KRuler4initEN2Qt11OrientationE@Base 4:4.3.4
 _ZN6KRuler7slideUpEi@Base 4:4.3.4
 _ZN6KRuler9setLengthEi@Base 4:4.3.4
 _ZN6KRuler9setOffsetEi@Base 4:4.3.4
 _ZN6KRuler9slideDownEi@Base 4:4.3.4
 _ZN6KRulerC1EN2Qt11OrientationEP7QWidget6QFlagsINS0_10WindowTypeEE@Base 4:4.3.4
 _ZN6KRulerC1EN2Qt11OrientationEiP7QWidget6QFlagsINS0_10WindowTypeEE@Base 4:4.3.4
 _ZN6KRulerC1EP7QWidget@Base 4:4.3.4
 _ZN6KRulerC2EN2Qt11OrientationEP7QWidget6QFlagsINS0_10WindowTypeEE@Base 4:4.3.4
 _ZN6KRulerC2EN2Qt11OrientationEiP7QWidget6QFlagsINS0_10WindowTypeEE@Base 4:4.3.4
 _ZN6KRulerC2EP7QWidget@Base 4:4.3.4
 _ZN6KRulerD0Ev@Base 4:4.3.4
 _ZN6KRulerD1Ev@Base 4:4.3.4
 _ZN6KRulerD2Ev@Base 4:4.3.4
 _ZN6KStyle10IconOptionD0Ev@Base 4:4.7.2
 _ZN6KStyle10IconOptionD1Ev@Base 4:4.7.2
 _ZN6KStyle10IconOptionD2Ev@Base 4:4.7.2
 _ZN6KStyle10OptionBaseINS_10IconOptionENS_6OptionEED0Ev@Base 4:4.6.5
 _ZN6KStyle10OptionBaseINS_10IconOptionENS_6OptionEED1Ev@Base 4:4.6.5
 _ZN6KStyle10OptionBaseINS_10IconOptionENS_6OptionEED2Ev@Base 4:4.6.5
 _ZN6KStyle10OptionBaseINS_10TextOptionENS_11ColorOptionEED0Ev@Base 4:4.6.5
 _ZN6KStyle10OptionBaseINS_10TextOptionENS_11ColorOptionEED1Ev@Base 4:4.6.5
 _ZN6KStyle10OptionBaseINS_10TextOptionENS_11ColorOptionEED2Ev@Base 4:4.6.5
 _ZN6KStyle10OptionBaseINS_11ColorOptionENS_6OptionEED0Ev@Base 4:4.6.5
 _ZN6KStyle10OptionBaseINS_11ColorOptionENS_6OptionEED1Ev@Base 4:4.6.5
 _ZN6KStyle10OptionBaseINS_11ColorOptionENS_6OptionEED2Ev@Base 4:4.6.5
 _ZN6KStyle10OptionBaseINS_17TitleButtonOptionENS_6OptionEED0Ev@Base 4:4.6.5
 _ZN6KStyle10OptionBaseINS_17TitleButtonOptionENS_6OptionEED1Ev@Base 4:4.6.5
 _ZN6KStyle10OptionBaseINS_17TitleButtonOptionENS_6OptionEED2Ev@Base 4:4.6.5
 _ZN6KStyle10OptionBaseINS_18DoubleButtonOptionENS_6OptionEED0Ev@Base 4:4.6.5
 _ZN6KStyle10OptionBaseINS_18DoubleButtonOptionENS_6OptionEED1Ev@Base 4:4.6.5
 _ZN6KStyle10OptionBaseINS_18DoubleButtonOptionENS_6OptionEED2Ev@Base 4:4.6.5
 _ZN6KStyle10TextOption4initEv@Base 4:4.3.4
 _ZN6KStyle10TextOptionC1ERK7QString@Base 4:4.3.4
 _ZN6KStyle10TextOptionC1Ev@Base 4:4.3.4
 _ZN6KStyle10TextOptionC2ERK7QString@Base 4:4.3.4
 _ZN6KStyle10TextOptionC2Ev@Base 4:4.3.4
 _ZN6KStyle10TextOptionD0Ev@Base 4:4.7.2
 _ZN6KStyle10TextOptionD1Ev@Base 4:4.7.2
 _ZN6KStyle10TextOptionD2Ev@Base 4:4.7.2
 _ZN6KStyle11ColorOptionD0Ev@Base 4:4.7.2
 _ZN6KStyle11ColorOptionD1Ev@Base 4:4.7.2
 _ZN6KStyle11ColorOptionD2Ev@Base 4:4.7.2
 _ZN6KStyle11eventFilterEP7QObjectP6QEvent@Base 4:4.3.4
 _ZN6KStyle11qt_metacallEN11QMetaObject4CallEiPPv@Base 4:4.3.4
 _ZN6KStyle11qt_metacastEPKc@Base 4:4.3.4
 _ZN6KStyle12defaultStyleEv@Base 4:4.3.4
 _ZN6KStyle12newStyleHintERK7QString@Base 4:4.3.4
 _ZN6KStyle13extractOptionIPNS_10IconOptionEEET_PNS_6OptionE@Base 4:4.4.2
 _ZN6KStyle13extractOptionIPNS_10TextOptionEEET_PNS_6OptionE@Base 4:4.4.2
 _ZN6KStyle13extractOptionIPNS_11ColorOptionEEET_PNS_6OptionE@Base 4:4.4.2
 _ZN6KStyle13extractOptionIPNS_17TitleButtonOptionEEET_PNS_6OptionE@Base 4:4.3.4
 _ZN6KStyle13newSubElementERK7QString@Base 4:4.3.4
 _ZN6KStyle15customStyleHintERK7QStringPK7QWidget@Base 4:4.3.4
 _ZN6KStyle16customSubElementERK7QStringPK7QWidget@Base 4:4.3.4
 _ZN6KStyle16staticMetaObjectE@Base 4:4.3.4
 _ZN6KStyle17TitleButtonOptionD0Ev@Base 4:4.7.2
 _ZN6KStyle17TitleButtonOptionD1Ev@Base 4:4.7.2
 _ZN6KStyle17TitleButtonOptionD2Ev@Base 4:4.7.2
 _ZN6KStyle17newControlElementERK7QString@Base 4:4.3.4
 _ZN6KStyle18DoubleButtonOptionD0Ev@Base 4:4.7.2
 _ZN6KStyle18DoubleButtonOptionD1Ev@Base 4:4.7.2
 _ZN6KStyle18DoubleButtonOptionD2Ev@Base 4:4.7.2
 _ZN6KStyle19setWidgetLayoutPropENS_10WidgetTypeEii@Base 4:4.3.4
 _ZN6KStyle20customControlElementERK7QStringPK7QWidget@Base 4:4.3.4
 _ZN6KStyle6polishEP12QApplication@Base 4:4.3.4
 _ZN6KStyle6polishEP7QWidget@Base 4:4.3.4
 _ZN6KStyle6polishER8QPalette@Base 4:4.3.4
 _ZN6KStyle8unpolishEP12QApplication@Base 4:4.3.4
 _ZN6KStyle8unpolishEP7QWidget@Base 4:4.3.4
 _ZN6KStyle9ColorMode5colorERK8QPalette@Base 4:4.3.4
 _ZN6KStyle9ColorModeC1EN8QPalette9ColorRoleE@Base 4:4.3.4
 _ZN6KStyle9ColorModeC1ENS0_4ModeEN8QPalette9ColorRoleE@Base 4:4.3.4
 _ZN6KStyle9ColorModeC1Ei@Base 4:4.3.4
 _ZN6KStyle9ColorModeC2EN8QPalette9ColorRoleE@Base 4:4.3.4
 _ZN6KStyle9ColorModeC2ENS0_4ModeEN8QPalette9ColorRoleE@Base 4:4.3.4
 _ZN6KStyle9ColorModeC2Ei@Base 4:4.3.4
 _ZN6KStyleC1Ev@Base 4:4.3.4
 _ZN6KStyleC2Ev@Base 4:4.3.4
 _ZN6KStyleD0Ev@Base 4:4.3.4
 _ZN6KStyleD1Ev@Base 4:4.3.4
 _ZN6KStyleD2Ev@Base 4:4.3.4
 _ZN6Sonnet11Highlighter10ignoreWordERK7QString@Base 4:4.3.4
 _ZN6Sonnet11Highlighter11eventFilterEP7QObjectP6QEvent@Base 4:4.3.4
 _ZN6Sonnet11Highlighter11qt_metacallEN11QMetaObject4CallEiPPv@Base 4:4.3.4
 _ZN6Sonnet11Highlighter11qt_metacastEPKc@Base 4:4.3.4
 _ZN6Sonnet11Highlighter12setAutomaticEb@Base 4:4.3.4
 _ZN6Sonnet11Highlighter13activeChangedERK7QString@Base 4:4.3.4
 _ZN6Sonnet11Highlighter13connectNotifyEPKc@Base 4:4.3.4
 _ZN6Sonnet11Highlighter13personalWordsEv@Base 4:4.3.4
 _ZN6Sonnet11Highlighter13setMisspelledEii@Base 4:4.3.4
 _ZN6Sonnet11Highlighter14highlightBlockERK7QString@Base 4:4.3.4
 _ZN6Sonnet11Highlighter14newSuggestionsERK7QStringRK11QStringList@Base 4:4.3.4
 _ZN6Sonnet11Highlighter15slotRehighlightEv@Base 4:4.3.4
 _ZN6Sonnet11Highlighter15unsetMisspelledEii@Base 4:4.3.4
 _ZN6Sonnet11Highlighter16disconnectNotifyEPKc@Base 4:4.3.4
 _ZN6Sonnet11Highlighter16isWordMisspelledERK7QString@Base 4:4.3.4
 _ZN6Sonnet11Highlighter16staticMetaObjectE@Base 4:4.3.4
 _ZN6Sonnet11Highlighter17slotAutoDetectionEv@Base 4:4.3.4
 _ZN6Sonnet11Highlighter18setCurrentLanguageERK7QString@Base 4:4.3.4
 _ZN6Sonnet11Highlighter18setMisspelledColorERK6QColor@Base 4:4.3.4
 _ZN6Sonnet11Highlighter18suggestionsForWordERK7QStringi@Base 4:4.3.4
 _ZN6Sonnet11Highlighter19addWordToDictionaryERK7QString@Base 4:4.3.4
 _ZN6Sonnet11Highlighter19setIntraWordEditingEb@Base 4:4.3.4
 _ZN6Sonnet11Highlighter7PrivateD1Ev@Base 4:4.3.4
 _ZN6Sonnet11Highlighter7PrivateD2Ev@Base 4:4.3.4
 _ZN6Sonnet11Highlighter9setActiveEb@Base 4:4.3.4
 _ZN6Sonnet11HighlighterC1EP9QTextEditRK7QStringRK6QColor@Base 4:4.3.4
 _ZN6Sonnet11HighlighterC2EP9QTextEditRK7QStringRK6QColor@Base 4:4.3.4
 _ZN6Sonnet11HighlighterD0Ev@Base 4:4.3.4
 _ZN6Sonnet11HighlighterD1Ev@Base 4:4.3.4
 _ZN6Sonnet11HighlighterD2Ev@Base 4:4.3.4
 _ZN6Sonnet12ConfigDialog11qt_metacallEN11QMetaObject4CallEiPPv@Base 4:4.3.4
 _ZN6Sonnet12ConfigDialog11qt_metacastEPKc@Base 4:4.3.4
 _ZN6Sonnet12ConfigDialog11setLanguageERK7QString@Base 4:4.3.4
 _ZN6Sonnet12ConfigDialog13configChangedEv@Base 4:4.8.1
 _ZN6Sonnet12ConfigDialog15languageChangedERK7QString@Base 4:4.3.4
 _ZN6Sonnet12ConfigDialog16staticMetaObjectE@Base 4:4.3.4
 _ZN6Sonnet12ConfigDialog4initEP7KConfig@Base 4:4.3.4
 _ZN6Sonnet12ConfigDialog6slotOkEv@Base 4:4.3.4
 _ZN6Sonnet12ConfigDialog7Private17slotConfigChangedEv@Base 4:4.3.4
 _ZN6Sonnet12ConfigDialog9slotApplyEv@Base 4:4.3.4
 _ZN6Sonnet12ConfigDialogC1EP7KConfigP7QWidget@Base 4:4.3.4
 _ZN6Sonnet12ConfigDialogC2EP7KConfigP7QWidget@Base 4:4.3.4
 _ZN6Sonnet12ConfigDialogD0Ev@Base 4:4.3.4
 _ZN6Sonnet12ConfigDialogD1Ev@Base 4:4.3.4
 _ZN6Sonnet12ConfigDialogD2Ev@Base 4:4.3.4
 _ZN6Sonnet12ConfigWidget10setFromGuiEv@Base 4:4.3.4
 _ZN6Sonnet12ConfigWidget11qt_metacallEN11QMetaObject4CallEiPPv@Base 4:4.3.4
 _ZN6Sonnet12ConfigWidget11qt_metacastEPKc@Base 4:4.3.4
 _ZN6Sonnet12ConfigWidget11setLanguageERK7QString@Base 4:4.3.4
 _ZN6Sonnet12ConfigWidget11slotChangedEv@Base 4:4.3.4
 _ZN6Sonnet12ConfigWidget11slotDefaultEv@Base 4:4.3.4
 _ZN6Sonnet12ConfigWidget13configChangedEv@Base 4:4.3.4
 _ZN6Sonnet12ConfigWidget16staticMetaObjectE@Base 4:4.3.4
 _ZN6Sonnet12ConfigWidget18setCorrectLanguageERK11QStringList@Base 4:4.3.4
 _ZN6Sonnet12ConfigWidget32setBackgroundCheckingButtonShownEb@Base 4:4.3.4
 _ZN6Sonnet12ConfigWidget4initEP7KConfig@Base 4:4.3.4
 _ZN6Sonnet12ConfigWidget4saveEv@Base 4:4.3.4
 _ZN6Sonnet12ConfigWidgetC1EP7KConfigP7QWidget@Base 4:4.3.4
 _ZN6Sonnet12ConfigWidgetC2EP7KConfigP7QWidget@Base 4:4.3.4
 _ZN6Sonnet12ConfigWidgetD0Ev@Base 4:4.3.4
 _ZN6Sonnet12ConfigWidgetD1Ev@Base 4:4.3.4
 _ZN6Sonnet12ConfigWidgetD2Ev@Base 4:4.3.4
 _ZN6Sonnet18DictionaryComboBox11qt_metacallEN11QMetaObject4CallEiPPv@Base 4:4.3.4
 _ZN6Sonnet18DictionaryComboBox11qt_metacastEPKc@Base 4:4.3.4
 _ZN6Sonnet18DictionaryComboBox11reloadComboEv@Base 4:4.3.4
 _ZN6Sonnet18DictionaryComboBox16staticMetaObjectE@Base 4:4.3.4
 _ZN6Sonnet18DictionaryComboBox17dictionaryChangedERK7QString@Base 4:4.3.4
 _ZN6Sonnet18DictionaryComboBox21dictionaryNameChangedERK7QString@Base 4:4.3.4
 _ZN6Sonnet18DictionaryComboBox22setCurrentByDictionaryERK7QString@Base 4:4.3.4
 _ZN6Sonnet18DictionaryComboBox26setCurrentByDictionaryNameERK7QString@Base 4:4.3.4
 _ZN6Sonnet18DictionaryComboBox7Private21slotDictionaryChangedEi@Base 4:4.3.4
 _ZN6Sonnet18DictionaryComboBoxC1EP7QWidget@Base 4:4.3.4
 _ZN6Sonnet18DictionaryComboBoxC2EP7QWidget@Base 4:4.3.4
 _ZN6Sonnet18DictionaryComboBoxD0Ev@Base 4:4.3.4
 _ZN6Sonnet18DictionaryComboBoxD1Ev@Base 4:4.3.4
 _ZN6Sonnet18DictionaryComboBoxD2Ev@Base 4:4.3.4
 _ZN6Sonnet6Dialog10slotCancelEv@Base 4:4.3.4
 _ZN6Sonnet6Dialog11autoCorrectERK7QStringS3_@Base 4:4.3.4
 _ZN6Sonnet6Dialog11misspellingERK7QStringi@Base 4:4.3.4
 _ZN6Sonnet6Dialog11qt_metacallEN11QMetaObject4CallEiPPv@Base 4:4.3.4
 _ZN6Sonnet6Dialog11qt_metacastEPKc@Base 4:4.3.4
 _ZN6Sonnet6Dialog11slotAddWordEv@Base 4:4.3.4
 _ZN6Sonnet6Dialog11slotSkipAllEv@Base 4:4.3.4
 _ZN6Sonnet6Dialog11slotSuggestEv@Base 4:4.3.4
 _ZN6Sonnet6Dialog12slotFinishedEv@Base 4:4.3.4
 _ZN6Sonnet6Dialog12updateDialogERK7QString@Base 4:4.3.4
 _ZN6Sonnet6Dialog13setGuiEnabledEb@Base 4:4.4.0
 _ZN6Sonnet6Dialog14slotReplaceAllEv@Base 4:4.3.4
 _ZN6Sonnet6Dialog15fillSuggestionsERK11QStringList@Base 4:4.3.4
 _ZN6Sonnet6Dialog15initConnectionsEv@Base 4:4.3.4
 _ZN6Sonnet6Dialog15languageChangedERK7QString@Base 4:4.3.4
 _ZN6Sonnet6Dialog15slotAutocorrectEv@Base 4:4.3.4
 _ZN6Sonnet6Dialog15slotMisspellingERK7QStringi@Base 4:4.3.4
 _ZN6Sonnet6Dialog15slotReplaceWordEv@Base 4:4.3.4
 _ZN6Sonnet6Dialog16spellCheckStatusERK7QString@Base 4:4.3.4
 _ZN6Sonnet6Dialog16staticMetaObjectE@Base 4:4.3.4
 _ZN6Sonnet6Dialog17activeAutoCorrectEb@Base 4:4.3.4
 _ZN6Sonnet6Dialog18showProgressDialogEi@Base 4:4.4.0
 _ZN6Sonnet6Dialog18slotChangeLanguageERK7QString@Base 4:4.3.4
 _ZN6Sonnet6Dialog20slotSelectionChangedERK11QModelIndex@Base 4:4.3.4
 _ZN6Sonnet6Dialog22fillDictionaryComboBoxEv@Base 4:4.7.0
 _ZN6Sonnet6Dialog24setProgressDialogVisibleEb@Base 4:4.4.0
 _ZN6Sonnet6Dialog24updateDictionaryComboBoxEv@Base 4:4.4.0
 _ZN6Sonnet6Dialog31showSpellCheckCompletionMessageEb@Base 4:4.4.0
 _ZN6Sonnet6Dialog38setSpellCheckContinuedAfterReplacementEb@Base 4:4.4.0
 _ZN6Sonnet6Dialog4doneERK7QString@Base 4:4.3.4
 _ZN6Sonnet6Dialog4showEv@Base 4:4.3.4
 _ZN6Sonnet6Dialog4stopEv@Base 4:4.3.4
 _ZN6Sonnet6Dialog6cancelEv@Base 4:4.3.4
 _ZN6Sonnet6Dialog7initGuiEv@Base 4:4.3.4
 _ZN6Sonnet6Dialog7replaceERK7QStringiS3_@Base 4:4.3.4
 _ZN6Sonnet6Dialog8slotDoneEv@Base 4:4.3.4
 _ZN6Sonnet6Dialog8slotSkipEv@Base 4:4.3.4
 _ZN6Sonnet6Dialog9setBufferERK7QString@Base 4:4.3.4
 _ZN6Sonnet6DialogC1EPNS_17BackgroundCheckerEP7QWidget@Base 4:4.3.4
 _ZN6Sonnet6DialogC2EPNS_17BackgroundCheckerEP7QWidget@Base 4:4.3.4
 _ZN6Sonnet6DialogD0Ev@Base 4:4.3.4
 _ZN6Sonnet6DialogD1Ev@Base 4:4.3.4
 _ZN6Sonnet6DialogD2Ev@Base 4:4.3.4
 _ZN7KAction10authorizedEPN5KAuth6ActionE@Base 4:4.4.0
 _ZN7KAction11qt_metacallEN11QMetaObject4CallEiPPv@Base 4:4.3.4
 _ZN7KAction11qt_metacastEPKc@Base 4:4.3.4
 _ZN7KAction11setHelpTextERK7QString@Base 4:4.3.4
 _ZN7KAction11setShortcutERK12QKeySequence6QFlagsINS_12ShortcutTypeEE@Base 4:4.3.4
 _ZN7KAction11setShortcutERK9KShortcut6QFlagsINS_12ShortcutTypeEE@Base 4:4.3.4
 _ZN7KAction12setShortcutsERK5QListI12QKeySequenceE6QFlagsINS_12ShortcutTypeEE@Base 4:4.3.4
 _ZN7KAction13setAuthActionEPN5KAuth6ActionE@Base 4:4.4.0
 _ZN7KAction13setAuthActionERK7QString@Base 4:4.4.0
 _ZN7KAction15setShapeGestureERK13KShapeGesture6QFlagsINS_12ShortcutTypeEE@Base 4:4.3.4
 _ZN7KAction16setRockerGestureERK14KRockerGesture6QFlagsINS_12ShortcutTypeEE@Base 4:4.3.4
 _ZN7KAction16staticMetaObjectE@Base 4:4.3.4
 _ZN7KAction17setGlobalShortcutERK9KShortcut6QFlagsINS_12ShortcutTypeEENS_21GlobalShortcutLoadingE@Base 4:4.3.4
 _ZN7KAction20forgetGlobalShortcutEv@Base 4:4.3.4
 _ZN7KAction21globalShortcutChangedERK12QKeySequence@Base 4:4.3.4
 _ZN7KAction23setShortcutConfigurableEb@Base 4:4.3.4
 _ZN7KAction24setGlobalShortcutAllowedEbNS_21GlobalShortcutLoadingE@Base 4:4.3.4
 _ZN7KAction5eventEP6QEvent@Base 4:4.3.4
 _ZN7KAction9triggeredE6QFlagsIN2Qt11MouseButtonEES0_INS1_16KeyboardModifierEE@Base 4:4.3.4
 _ZN7KActionC1EP7QObject@Base 4:4.3.4
 _ZN7KActionC1ERK5KIconRK7QStringP7QObject@Base 4:4.3.4
 _ZN7KActionC1ERK7QStringP7QObject@Base 4:4.3.4
 _ZN7KActionC2EP7QObject@Base 4:4.3.4
 _ZN7KActionC2ERK5KIconRK7QStringP7QObject@Base 4:4.3.4
 _ZN7KActionC2ERK7QStringP7QObject@Base 4:4.3.4
 _ZN7KActionD0Ev@Base 4:4.3.4
 _ZN7KActionD1Ev@Base 4:4.3.4
 _ZN7KActionD2Ev@Base 4:4.3.4
 _ZN7KCursor15hideCursorDelayEv@Base 4:4.3.4
 _ZN7KCursor17setAutoHideCursorEP7QWidgetbb@Base 4:4.3.4
 _ZN7KCursor18setHideCursorDelayEi@Base 4:4.3.4
 _ZN7KCursor19autoHideEventFilterEP7QObjectP6QEvent@Base 4:4.3.4
 _ZN7KCursorC1ERK7QCursor@Base 4:4.3.4
 _ZN7KCursorC1ERK7QStringN2Qt11CursorShapeE@Base 4:4.3.4
 _ZN7KCursorC2ERK7QCursor@Base 4:4.3.4
 _ZN7KCursorC2ERK7QStringN2Qt11CursorShapeE@Base 4:4.3.4
 _ZN7KCursoraSERKS_@Base 4:4.3.4
 _ZN7KDialog10closeEventEP11QCloseEvent@Base 4:4.3.4
 _ZN7KDialog10mainWidgetEv@Base 4:4.3.4
 _ZN7KDialog10marginHintEv@Base 4:4.3.4
 _ZN7KDialog10setButtonsE6QFlagsINS_10ButtonCodeEE@Base 4:4.3.4
 _ZN7KDialog10setCaptionERK7QString@Base 4:4.3.4
 _ZN7KDialog10setCaptionERK7QStringb@Base 4:4.3.4
 _ZN7KDialog10showButtonENS_10ButtonCodeEb@Base 4:4.3.4
 _ZN7KDialog10tryClickedEv@Base 4:4.3.4
 _ZN7KDialog10yesClickedEv@Base 4:4.3.4
 _ZN7KDialog11helpClickedEv@Base 4:4.3.4
 _ZN7KDialog11qt_metacallEN11QMetaObject4CallEiPPv@Base 4:4.3.4
 _ZN7KDialog11qt_metacastEPKc@Base 4:4.3.4
 _ZN7KDialog11spacingHintEv@Base 4:4.3.4
 _ZN7KDialog12applyClickedEv@Base 4:4.3.4
 _ZN7KDialog12closeClickedEv@Base 4:4.3.4
 _ZN7KDialog12enableButtonENS_10ButtonCodeEb@Base 4:4.3.4
 _ZN7KDialog12resetClickedEv@Base 4:4.3.4
 _ZN7KDialog12resizeLayoutEP7QLayoutii@Base 4:4.3.4
 _ZN7KDialog12resizeLayoutEP7QWidgetii@Base 4:4.3.4
 _ZN7KDialog12user1ClickedEv@Base 4:4.3.4
 _ZN7KDialog12user2ClickedEv@Base 4:4.3.4
 _ZN7KDialog12user3ClickedEv@Base 4:4.3.4
 _ZN7KDialog13buttonClickedENS_10ButtonCodeE@Base 4:4.3.4
 _ZN7KDialog13cancelClickedEv@Base 4:4.3.4
 _ZN7KDialog13keyPressEventEP9QKeyEvent@Base 4:4.3.4
 _ZN7KDialog13setButtonIconENS_10ButtonCodeERK5KIcon@Base 4:4.3.4
 _ZN7KDialog13setButtonMenuENS_10ButtonCodeEP5QMenuNS_15ButtonPopupModeE@Base 4:4.3.4
 _ZN7KDialog13setButtonTextENS_10ButtonCodeERK7QString@Base 4:4.3.4
 _ZN7KDialog13setMainWidgetEP7QWidget@Base 4:4.3.4
 _ZN7KDialog14centerOnScreenEP7QWidgeti@Base 4:4.3.4
 _ZN7KDialog14defaultClickedEv@Base 4:4.3.4
 _ZN7KDialog14enableButtonOkEb@Base 4:4.3.4
 _ZN7KDialog14setButtonFocusENS_10ButtonCodeE@Base 4:4.3.4
 _ZN7KDialog14setInitialSizeERK5QSize@Base 4:4.3.4
 _ZN7KDialog14updateGeometryEv@Base 4:4.3.4
 _ZN7KDialog15delayedDestructEv@Base 4:4.3.4
 _ZN7KDialog15setEscapeButtonENS_10ButtonCodeE@Base 4:4.3.4
 _ZN7KDialog15setHelpLinkTextERK7QString@Base 4:4.3.4
 _ZN7KDialog15setPlainCaptionERK7QString@Base 4:4.3.4
 _ZN7KDialog16enableLinkedHelpEb@Base 4:4.3.4
 _ZN7KDialog16groupSpacingHintEv@Base 4:4.3.4
 _ZN7KDialog16setButtonGuiItemENS_10ButtonCodeERK8KGuiItem@Base 4:4.3.4
 _ZN7KDialog16setButtonToolTipENS_10ButtonCodeERK7QString@Base 4:4.3.4
 _ZN7KDialog16setDefaultButtonENS_10ButtonCodeE@Base 4:4.3.4
 _ZN7KDialog16setDetailsWidgetEP7QWidget@Base 4:4.3.4
 _ZN7KDialog16staticMetaObjectE@Base 4:4.3.4
 _ZN7KDialog17enableButtonApplyEb@Base 4:4.3.4
 _ZN7KDialog17layoutHintChangedEv@Base 4:4.3.4
 _ZN7KDialog17restoreDialogSizeERK12KConfigGroup@Base 4:4.3.4
 _ZN7KDialog17slotButtonClickedEi@Base 4:4.3.4
 _ZN7KDialog18aboutToShowDetailsEv@Base 4:4.3.4
 _ZN7KDialog18enableButtonCancelEb@Base 4:4.3.4
 _ZN7KDialog18setButtonWhatsThisENS_10ButtonCodeERK7QString@Base 4:4.3.4
 _ZN7KDialog19makeStandardCaptionERK7QStringP7QWidget6QFlagsINS_11CaptionFlagEE@Base 4:4.3.4
 _ZN7KDialog19showButtonSeparatorEb@Base 4:4.3.4
 _ZN7KDialog20incrementInitialSizeERK5QSize@Base 4:4.3.4
 _ZN7KDialog21setButtonsOrientationEN2Qt11OrientationE@Base 4:4.3.4
 _ZN7KDialog23setDetailsWidgetVisibleEb@Base 4:4.3.4
 _ZN7KDialog31setAllowEmbeddingInGraphicsViewEb@Base 4:4.5.85
 _ZN7KDialog6hiddenEv@Base 4:4.3.4
 _ZN7KDialog7setHelpERK7QStringS2_@Base 4:4.3.4
 _ZN7KDialog8finishedEv@Base 4:4.3.4
 _ZN7KDialog9avoidAreaEP7QWidgetRK5QRecti@Base 4:4.3.4
 _ZN7KDialog9hideEventEP10QHideEvent@Base 4:4.3.4
 _ZN7KDialog9noClickedEv@Base 4:4.3.4
 _ZN7KDialog9okClickedEv@Base 4:4.3.4
 _ZN7KDialogC1EP7QWidget6QFlagsIN2Qt10WindowTypeEE@Base 4:4.3.4
 _ZN7KDialogC1ER14KDialogPrivateP7QWidget6QFlagsIN2Qt10WindowTypeEE@Base 4:4.3.4
 _ZN7KDialogC2EP7QWidget6QFlagsIN2Qt10WindowTypeEE@Base 4:4.3.4
 _ZN7KDialogC2ER14KDialogPrivateP7QWidget6QFlagsIN2Qt10WindowTypeEE@Base 4:4.3.4
 _ZN7KDialogD0Ev@Base 4:4.3.4
 _ZN7KDialogD1Ev@Base 4:4.3.4
 _ZN7KDialogD2Ev@Base 4:4.3.4
 _ZN7KTabBar10leaveEventEP6QEvent@Base 4:4.3.4
 _ZN7KTabBar10paintEventEP11QPaintEvent@Base 4:4.3.4
 _ZN7KTabBar10wheelDeltaEi@Base 4:4.3.4
 _ZN7KTabBar10wheelEventEP11QWheelEvent@Base 4:4.3.4
 _ZN7KTabBar11contextMenuEiRK6QPoint@Base 4:4.3.4
 _ZN7KTabBar11qt_metacallEN11QMetaObject4CallEiPPv@Base 4:4.3.4
 _ZN7KTabBar11qt_metacastEPKc@Base 4:4.3.4
 _ZN7KTabBar12closeRequestEi@Base 4:4.3.4
 _ZN7KTabBar12initiateDragEi@Base 4:4.3.4
 _ZN7KTabBar13dragMoveEventEP14QDragMoveEvent@Base 4:4.3.4
 _ZN7KTabBar13newTabRequestEv@Base 4:4.3.4
 _ZN7KTabBar13testCanDecodeEPK14QDragMoveEventRb@Base 4:4.3.4
 _ZN7KTabBar14dragEnterEventEP15QDragEnterEvent@Base 4:4.3.4
 _ZN7KTabBar14mouseMoveEventEP11QMouseEvent@Base 4:4.3.4
 _ZN7KTabBar15mousePressEventEP11QMouseEvent@Base 4:4.3.4
 _ZN7KTabBar15tabLayoutChangeEv@Base 4:4.3.4
 _ZN7KTabBar16mouseDoubleClickEi@Base 4:4.3.4
 _ZN7KTabBar16mouseMiddleClickEi@Base 4:4.3.4
 _ZN7KTabBar16staticMetaObjectE@Base 4:4.3.4
 _ZN7KTabBar16tabDoubleClickedEi@Base 4:4.3.4
 _ZN7KTabBar17enableCloseButtonEv@Base 4:4.3.4
 _ZN7KTabBar17mouseReleaseEventEP11QMouseEvent@Base 4:4.3.4
 _ZN7KTabBar17receivedDropEventEiP10QDropEvent@Base 4:4.3.4
 _ZN7KTabBar18closeButtonClickedEv@Base 4:4.3.4
 _ZN7KTabBar19setHoverCloseButtonEb@Base 4:4.3.4
 _ZN7KTabBar20emptyAreaContextMenuERK6QPoint@Base 4:4.3.4
 _ZN7KTabBar21activateDragSwitchTabEv@Base 4:4.3.4
 _ZN7KTabBar21mouseDoubleClickEventEP11QMouseEvent@Base 4:4.3.4
 _ZN7KTabBar21setCloseButtonEnabledEb@Base 4:4.3.4
 _ZN7KTabBar23setTabReorderingEnabledEb@Base 4:4.3.4
 _ZN7KTabBar26setHoverCloseButtonDelayedEb@Base 4:4.3.4
 _ZN7KTabBar27setTabCloseActivatePreviousEb@Base 4:4.3.4
 _ZN7KTabBar7moveTabEii@Base 4:4.3.4
 _ZN7KTabBar9dropEventEP10QDropEvent@Base 4:4.3.4
 _ZN7KTabBarC1EP7QWidget@Base 4:4.3.4
 _ZN7KTabBarC2EP7QWidget@Base 4:4.3.4
 _ZN7KTabBarD0Ev@Base 4:4.3.4
 _ZN7KTabBarD1Ev@Base 4:4.3.4
 _ZN7KTabBarD2Ev@Base 4:4.3.4
 _ZN7KWallet6Wallet10folderListEv@Base 4:4.3.4
 _ZN7KWallet6Wallet10lockWalletEv@Base 4:4.3.4
 _ZN7KWallet6Wallet10openWalletERK7QStringmNS0_8OpenTypeE@Base 4:4.3.4
 _ZN7KWallet6Wallet10walletListEv@Base 4:4.3.4
 _ZN7KWallet6Wallet10writeEntryERK7QStringRK10QByteArray@Base 4:4.3.4
 _ZN7KWallet6Wallet10writeEntryERK7QStringRK10QByteArrayNS0_9EntryTypeE@Base 4:4.3.4
 _ZN7KWallet6Wallet11LocalWalletEv@Base 4:4.3.4
 _ZN7KWallet6Wallet11closeWalletERK7QStringb@Base 4:4.3.4
 _ZN7KWallet6Wallet11qt_metacallEN11QMetaObject4CallEiPPv@Base 4:4.3.4
 _ZN7KWallet6Wallet11qt_metacastEPKc@Base 4:4.3.4
 _ZN7KWallet6Wallet11readMapListERK7QStringR4QMapIS1_S4_IS1_S1_EE@Base 4:4.3.4
 _ZN7KWallet6Wallet11removeEntryERK7QString@Base 4:4.3.4
 _ZN7KWallet6Wallet11renameEntryERK7QStringS3_@Base 4:4.3.4
 _ZN7KWallet6Wallet12createFolderERK7QString@Base 4:4.3.4
 _ZN7KWallet6Wallet12deleteWalletERK7QString@Base 4:4.3.4
 _ZN7KWallet6Wallet12readPasswordERK7QStringRS1_@Base 4:4.3.4
 _ZN7KWallet6Wallet12removeFolderERK7QString@Base 4:4.3.4
 _ZN7KWallet6Wallet12virtual_hookEiPv@Base 4:4.3.4
 _ZN7KWallet6Wallet12walletClosedEv@Base 4:4.3.4
 _ZN7KWallet6Wallet12walletOpenedEb@Base 4:4.3.4
 _ZN7KWallet6Wallet13NetworkWalletEv@Base 4:4.3.4
 _ZN7KWallet6Wallet13WalletPrivate25walletServiceUnregisteredEv@Base 4:4.4.95
 _ZN7KWallet6Wallet13folderRemovedERK7QString@Base 4:4.3.4
 _ZN7KWallet6Wallet13folderUpdatedERK7QString@Base 4:4.3.4
 _ZN7KWallet6Wallet13readEntryListERK7QStringR4QMapIS1_10QByteArrayE@Base 4:4.3.4
 _ZN7KWallet6Wallet13writePasswordERK7QStringS3_@Base 4:4.3.4
 _ZN7KWallet6Wallet14FormDataFolderEv@Base 4:4.3.4
 _ZN7KWallet6Wallet14PasswordFolderEv@Base 4:4.3.4
 _ZN7KWallet6Wallet14changePasswordERK7QStringm@Base 4:4.3.4
 _ZN7KWallet6Wallet15keyDoesNotExistERK7QStringS3_S3_@Base 4:4.3.4
 _ZN7KWallet6Wallet16emitWalletOpenedEv@Base 4:4.7.0
 _ZN7KWallet6Wallet16readPasswordListERK7QStringR4QMapIS1_S1_E@Base 4:4.3.4
 _ZN7KWallet6Wallet16slotWalletClosedEi@Base 4:4.3.4
 _ZN7KWallet6Wallet16staticMetaObjectE@Base 4:4.3.4
 _ZN7KWallet6Wallet17folderListUpdatedEv@Base 4:4.3.4
 _ZN7KWallet6Wallet17slotFolderUpdatedERK7QStringS3_@Base 4:4.3.4
 _ZN7KWallet6Wallet17walletAsyncOpenedEii@Base 4:4.3.4
 _ZN7KWallet6Wallet18folderDoesNotExistERK7QStringS3_@Base 4:4.3.4
 _ZN7KWallet6Wallet21disconnectApplicationERK7QStringS3_@Base 4:4.3.4
 _ZN7KWallet6Wallet21requestChangePasswordEm@Base 4:4.3.4
 _ZN7KWallet6Wallet21slotCollectionDeletedEv@Base 4:4.7.4
 _ZN7KWallet6Wallet21slotFolderListUpdatedERK7QString@Base 4:4.3.4
 _ZN7KWallet6Wallet22isUsingKSecretsServiceEv@Base 4:4.7.4
 _ZN7KWallet6Wallet24emitWalletAsyncOpenErrorEv@Base 4:4.3.4
 _ZN7KWallet6Wallet27slotApplicationDisconnectedERK7QStringS3_@Base 4:4.3.4
 _ZN7KWallet6Wallet27slotCollectionStatusChangedEi@Base 4:4.7.4
 _ZN7KWallet6Wallet4syncEv@Base 4:4.3.4
 _ZN7KWallet6Wallet5usersERK7QString@Base 4:4.3.4
 _ZN7KWallet6Wallet6isOpenERK7QString@Base 4:4.3.4
 _ZN7KWallet6Wallet7readMapERK7QStringR4QMapIS1_S1_E@Base 4:4.3.4
 _ZN7KWallet6Wallet8hasEntryERK7QString@Base 4:4.3.4
 _ZN7KWallet6Wallet8writeMapERK7QStringRK4QMapIS1_S1_E@Base 4:4.3.4
 _ZN7KWallet6Wallet9entryListEv@Base 4:4.3.4
 _ZN7KWallet6Wallet9entryTypeERK7QString@Base 4:4.3.4
 _ZN7KWallet6Wallet9hasFolderERK7QString@Base 4:4.3.4
 _ZN7KWallet6Wallet9isEnabledEv@Base 4:4.3.4
 _ZN7KWallet6Wallet9readEntryERK7QStringR10QByteArray@Base 4:4.3.4
 _ZN7KWallet6Wallet9setFolderERK7QString@Base 4:4.3.4
 _ZN7KWallet6WalletC1EiRK7QString@Base 4:4.3.4
 _ZN7KWallet6WalletC2EiRK7QString@Base 4:4.3.4
 _ZN7KWallet6WalletD0Ev@Base 4:4.3.4
 _ZN7KWallet6WalletD1Ev@Base 4:4.3.4
 _ZN7KWallet6WalletD2Ev@Base 4:4.3.4
 _ZN7KXUtils13timestampDiffEmm@Base 4:4.3.4
 _ZN7KXUtils16timestampCompareEmm@Base 4:4.3.4
 _ZN7KXUtils22createPixmapFromHandleEmm@Base 4:4.3.4
 _ZN8KCModule10setButtonsE6QFlagsINS_6ButtonEE@Base 4:4.3.4
 _ZN8KCModule11qt_metacallEN11QMetaObject4CallEiPPv@Base 4:4.3.4
 _ZN8KCModule11qt_metacastEPKc@Base 4:4.3.4
 _ZN8KCModule12setAboutDataEPK10KAboutData@Base 4:4.3.4
 _ZN8KCModule12setQuickHelpERK7QString@Base 4:4.3.4
 _ZN8KCModule13setExportTextERK7QString@Base 4:4.4.95
 _ZN8KCModule13widgetChangedEv@Base 4:4.3.4
 _ZN8KCModule16quickHelpChangedEv@Base 4:4.3.4
 _ZN8KCModule16staticMetaObjectE@Base 4:4.3.4
 _ZN8KCModule17authStatusChangedEi@Base 4:4.4.0
 _ZN8KCModule18setRootOnlyMessageERK7QString@Base 4:4.3.4
 _ZN8KCModule21setNeedsAuthorizationEb@Base 4:4.4.0
 _ZN8KCModule21setUseRootOnlyMessageEb@Base 4:4.3.4
 _ZN8KCModule22rootOnlyMessageChangedEb7QString@Base 4:4.4.0
 _ZN8KCModule26unmanagedWidgetChangeStateEb@Base 4:4.3.4
 _ZN8KCModule4loadEv@Base 4:4.3.4
 _ZN8KCModule4saveEv@Base 4:4.3.4
 _ZN8KCModule7changedEb@Base 4:4.3.4
 _ZN8KCModule7changedEv@Base 4:4.3.4
 _ZN8KCModule8defaultsEv@Base 4:4.3.4
 _ZN8KCModule9addConfigEP15KConfigSkeletonP7QWidget@Base 4:4.3.4
 _ZN8KCModule9addConfigEP19KCoreConfigSkeletonP7QWidget@Base 4:4.5.85
 _ZN8KCModule9showEventEP10QShowEvent@Base 4:4.3.4
 _ZN8KCModuleC1EP7QWidgetPKcRK11QStringList@Base 4:4.3.4
 _ZN8KCModuleC1ERK14KComponentDataP7QWidgetRK11QStringList@Base 4:4.3.4
 _ZN8KCModuleC1ERK14KComponentDataP7QWidgetRK5QListI8QVariantE@Base 4:4.3.4
 _ZN8KCModuleC2EP7QWidgetPKcRK11QStringList@Base 4:4.3.4
 _ZN8KCModuleC2ERK14KComponentDataP7QWidgetRK11QStringList@Base 4:4.3.4
 _ZN8KCModuleC2ERK14KComponentDataP7QWidgetRK5QListI8QVariantE@Base 4:4.3.4
 _ZN8KCModuleD0Ev@Base 4:4.3.4
 _ZN8KCModuleD1Ev@Base 4:4.3.4
 _ZN8KCModuleD2Ev@Base 4:4.3.4
 _ZN8KGuiItem10setEnabledEb@Base 4:4.3.4
 _ZN8KGuiItem10setToolTipERK7QString@Base 4:4.3.4
 _ZN8KGuiItem11setIconNameERK7QString@Base 4:4.3.4
 _ZN8KGuiItem12setWhatsThisERK7QString@Base 4:4.3.4
 _ZN8KGuiItem7setIconERK5KIcon@Base 4:4.3.4
 _ZN8KGuiItem7setTextERK7QString@Base 4:4.3.4
 _ZN8KGuiItemC1ERK7QStringRK5KIconS2_S2_@Base 4:4.3.4
 _ZN8KGuiItemC1ERK7QStringS2_S2_S2_@Base 4:4.3.4
 _ZN8KGuiItemC1ERKS_@Base 4:4.3.4
 _ZN8KGuiItemC1Ev@Base 4:4.3.4
 _ZN8KGuiItemC2ERK7QStringRK5KIconS2_S2_@Base 4:4.3.4
 _ZN8KGuiItemC2ERK7QStringS2_S2_S2_@Base 4:4.3.4
 _ZN8KGuiItemC2ERKS_@Base 4:4.3.4
 _ZN8KGuiItemC2Ev@Base 4:4.3.4
 _ZN8KGuiItemD1Ev@Base 4:4.3.4
 _ZN8KGuiItemD2Ev@Base 4:4.3.4
 _ZN8KGuiItemaSERKS_@Base 4:4.3.4
 _ZN8KMenuBar10closeEventEP11QCloseEvent@Base 4:4.3.4
 _ZN8KMenuBar10paintEventEP11QPaintEvent@Base 4:4.3.4
 _ZN8KMenuBar11eventFilterEP7QObjectP6QEvent@Base 4:4.3.4
 _ZN8KMenuBar11qt_metacallEN11QMetaObject4CallEiPPv@Base 4:4.3.4
 _ZN8KMenuBar11qt_metacastEPKc@Base 4:4.3.4
 _ZN8KMenuBar11resizeEventEP12QResizeEvent@Base 4:4.3.4
 _ZN8KMenuBar11setGeometryERK5QRect@Base 4:4.3.4
 _ZN8KMenuBar11setGeometryEiiii@Base 4:4.3.4
 _ZN8KMenuBar12setLineWidthEi@Base 4:4.3.4
 _ZN8KMenuBar13setFrameStyleEi@Base 4:4.3.4
 _ZN8KMenuBar14slotReadConfigEv@Base 4:4.3.4
 _ZN8KMenuBar15KMenuBarPrivate17makeSelectionAtomEv@Base 4:4.3.4
 _ZN8KMenuBar15setTopLevelMenuEb@Base 4:4.3.4
 _ZN8KMenuBar16selectionTimeoutEv@Base 4:4.3.4
 _ZN8KMenuBar16staticMetaObjectE@Base 4:4.3.4
 _ZN8KMenuBar17updateMenuBarSizeEv@Base 4:4.3.4
 _ZN8KMenuBar18updateFallbackSizeEv@Base 4:4.3.4
 _ZN8KMenuBar23setTopLevelMenuInternalEb@Base 4:4.3.4
 _ZN8KMenuBar6resizeERK5QSize@Base 4:4.3.4
 _ZN8KMenuBar6resizeEii@Base 4:4.3.4
 _ZN8KMenuBar8x11EventEP7_XEvent@Base 4:4.3.4
 _ZN8KMenuBar9checkSizeERiS0_@Base 4:4.3.4
 _ZN8KMenuBar9setMarginEi@Base 4:4.3.4
 _ZN8KMenuBarC1EP7QWidget@Base 4:4.3.4
 _ZN8KMenuBarC2EP7QWidget@Base 4:4.3.4
 _ZN8KMenuBarD0Ev@Base 4:4.3.4
 _ZN8KMenuBarD1Ev@Base 4:4.3.4
 _ZN8KMenuBarD2Ev@Base 4:4.3.4
 _ZN8KReplace11qt_metacallEN11QMetaObject4CallEiPPv@Base 4:4.3.4
 _ZN8KReplace11qt_metacastEPKc@Base 4:4.3.4
 _ZN8KReplace11resetCountsEv@Base 4:4.3.4
 _ZN8KReplace16staticMetaObjectE@Base 4:4.3.4
 _ZN8KReplace17replaceNextDialogEb@Base 4:4.3.4
 _ZN8KReplace22closeReplaceNextDialogEv@Base 4:4.3.4
 _ZN8KReplace7replaceER7QStringRK7QRegExpRKS0_ilPi@Base 4:4.3.4
 _ZN8KReplace7replaceER7QStringRKS0_S3_ilPi@Base 4:4.3.4
 _ZN8KReplace7replaceERK7QStringiii@Base 4:4.3.4
 _ZN8KReplace7replaceEv@Base 4:4.3.4
 _ZN8KReplaceC1ERK7QStringS2_lP7QWidget@Base 4:4.3.4
 _ZN8KReplaceC1ERK7QStringS2_lP7QWidgetS4_@Base 4:4.3.4
 _ZN8KReplaceC2ERK7QStringS2_lP7QWidget@Base 4:4.3.4
 _ZN8KReplaceC2ERK7QStringS2_lP7QWidgetS4_@Base 4:4.3.4
 _ZN8KReplaceD0Ev@Base 4:4.3.4
 _ZN8KReplaceD1Ev@Base 4:4.3.4
 _ZN8KReplaceD2Ev@Base 4:4.3.4
 _ZN8KToolBar11actionEventEP12QActionEvent@Base 4:4.3.4
 _ZN8KToolBar11eventFilterEP7QObjectP6QEvent@Base 4:4.3.4
 _ZN8KToolBar11qt_metacallEN11QMetaObject4CallEiPPv@Base 4:4.3.4
 _ZN8KToolBar11qt_metacastEPKc@Base 4:4.3.4
 _ZN8KToolBar12saveSettingsER12KConfigGroup@Base 4:4.3.4
 _ZN8KToolBar13applySettingsERK12KConfigGroupb@Base 4:4.3.4
 _ZN8KToolBar13dragMoveEventEP14QDragMoveEvent@Base 4:4.3.4
 _ZN8KToolBar14dragEnterEventEP15QDragEnterEvent@Base 4:4.3.4
 _ZN8KToolBar14dragLeaveEventEP15QDragLeaveEvent@Base 4:4.3.4
 _ZN8KToolBar14mouseMoveEventEP11QMouseEvent@Base 4:4.3.4
 _ZN8KToolBar14toolBarsLockedEv@Base 4:4.3.4
 _ZN8KToolBar15addXMLGUIClientEP13KXMLGUIClient@Base 4:4.8.1
 _ZN8KToolBar15mousePressEventEP11QMouseEvent@Base 4:4.3.4
 _ZN8KToolBar15setXMLGUIClientEP13KXMLGUIClient@Base 4:4.3.4
 _ZN8KToolBar16contextMenuEventEP17QContextMenuEvent@Base 4:4.3.4
 _ZN8KToolBar16staticMetaObjectE@Base 4:4.3.4
 _ZN8KToolBar16toolBarsEditableEv@Base 4:4.3.4
 _ZN8KToolBar17mouseReleaseEventEP11QMouseEvent@Base 4:4.3.4
 _ZN8KToolBar17setIconDimensionsEi@Base 4:4.3.4
 _ZN8KToolBar17setToolBarsLockedEb@Base 4:4.3.4
 _ZN8KToolBar18slotMovableChangedEb@Base 4:4.3.4
 _ZN8KToolBar19setToolBarsEditableEb@Base 4:4.3.4
 _ZN8KToolBar21setContextMenuEnabledEb@Base 4:4.3.4
 _ZN8KToolBar22toolButtonStyleSettingEv@Base 4:4.3.4
 _ZN8KToolBar7Private10s_editableE@Base 4:4.3.4
 _ZN8KToolBar7Private11contextMenuERK6QPoint@Base 4:4.7.0
 _ZN8KToolBar7Private14slotContextTopEv@Base 4:4.3.4
 _ZN8KToolBar7Private15loadKDESettingsEv@Base 4:4.3.4
 _ZN8KToolBar7Private15slotContextLeftEv@Base 4:4.3.4
 _ZN8KToolBar7Private15slotContextTextEv@Base 4:4.3.4
 _ZN8KToolBar7Private16slotContextIconsEv@Base 4:4.3.4
 _ZN8KToolBar7Private16slotContextRightEv@Base 4:4.3.4
 _ZN8KToolBar7Private16slotLockToolBarsEb@Base 4:4.3.4
 _ZN8KToolBar7Private17slotContextBottomEv@Base 4:4.3.4
 _ZN8KToolBar7Private18positionFromStringERK7QString@Base 4:4.3.4
 _ZN8KToolBar7Private19slotContextIconSizeEv@Base 4:4.3.4
 _ZN8KToolBar7Private19slotContextShowTextEv@Base 4:4.7.0
 _ZN8KToolBar7Private20applyCurrentSettingsEv@Base 4:4.3.4
 _ZN8KToolBar7Private20slotContextTextRightEv@Base 4:4.3.4
 _ZN8KToolBar7Private20slotContextTextUnderEv@Base 4:4.3.4
 _ZN8KToolBar7Private21slotAppearanceChangedEv@Base 4:4.3.4
 _ZN8KToolBar7Private22slotContextAboutToHideEv@Base 4:4.3.4
 _ZN8KToolBar7Private22slotContextAboutToShowEv@Base 4:4.3.4
 _ZN8KToolBar7Private23toolButtonStyleToStringEN2Qt15ToolButtonStyleE@Base 4:4.3.4
 _ZN8KToolBar7Private25adjustSeparatorVisibilityEv@Base 4:4.3.4
 _ZN8KToolBar7Private25toolButtonStyleFromStringERK7QString@Base 4:4.3.4
 _ZN8KToolBar7Private4initEbb@Base 4:4.3.4
 _ZN8KToolBar7Private8s_lockedE@Base 4:4.3.4
 _ZN8KToolBar7Private9setLockedEb@Base 4:4.3.4
 _ZN8KToolBar9dropEventEP10QDropEvent@Base 4:4.3.4
 _ZN8KToolBar9loadStateERK11QDomElement@Base 4:4.3.4
 _ZN8KToolBarC1EP7QWidgetbb@Base 4:4.3.4
 _ZN8KToolBarC1ERK7QStringP11QMainWindowN2Qt11ToolBarAreaEbbb@Base 4:4.3.4
 _ZN8KToolBarC1ERK7QStringP7QWidgetb@Base 4:4.3.4
 _ZN8KToolBarC2EP7QWidgetbb@Base 4:4.3.4
 _ZN8KToolBarC2ERK7QStringP11QMainWindowN2Qt11ToolBarAreaEbbb@Base 4:4.3.4
 _ZN8KToolBarC2ERK7QStringP7QWidgetb@Base 4:4.3.4
 _ZN8KToolBarD0Ev@Base 4:4.3.4
 _ZN8KToolBarD1Ev@Base 4:4.3.4
 _ZN8KToolBarD2Ev@Base 4:4.3.4
 _ZN8KdePrint17createPrintDialogEP8QPrinterNS_16PageSelectPolicyEP7QWidget@Base 4:4.4.0
 _ZN8KdePrint17createPrintDialogEP8QPrinterNS_16PageSelectPolicyERK5QListIP7QWidgetES5_@Base 4:4.4.0
 _ZN8KdePrint17createPrintDialogEP8QPrinterP7QWidget@Base 4:4.3.4
 _ZN8KdePrint17createPrintDialogEP8QPrinterRK5QListIP7QWidgetES4_@Base 4:4.3.4
 _ZN9KComboBox10completionERK7QString@Base 4:4.3.4
 _ZN9KComboBox10rotateTextEN15KCompletionBase14KeyBindingTypeE@Base 4:4.3.4
 _ZN9KComboBox10setEditUrlERK4KUrl@Base 4:4.3.4
 _ZN9KComboBox10wheelEventEP11QWheelEvent@Base 4:4.3.4
 _ZN9KComboBox11eventFilterEP7QObjectP6QEvent@Base 4:4.3.4
 _ZN9KComboBox11qt_metacallEN11QMetaObject4CallEiPPv@Base 4:4.3.4
 _ZN9KComboBox11qt_metacastEPKc@Base 4:4.3.4
 _ZN9KComboBox11setEditableEb@Base 4:4.3.4
 _ZN9KComboBox11setLineEditEP9QLineEdit@Base 4:4.3.4
 _ZN9KComboBox12textRotationEN15KCompletionBase14KeyBindingTypeE@Base 4:4.3.4
 _ZN9KComboBox13completionBoxEb@Base 4:4.3.4
 _ZN9KComboBox13returnPressedERK7QString@Base 4:4.3.4
 _ZN9KComboBox13returnPressedEv@Base 4:4.3.4
 _ZN9KComboBox14makeCompletionERK7QString@Base 4:4.3.4
 _ZN9KComboBox14setCurrentItemERK7QStringbi@Base 4:4.3.4
 _ZN9KComboBox15lineEditDeletedEv@Base 4:4.3.4
 _ZN9KComboBox16setCompletedTextERK7QString@Base 4:4.3.4
 _ZN9KComboBox16setCompletedTextERK7QStringb@Base 4:4.3.4
 _ZN9KComboBox16setTrapReturnKeyEb@Base 4:4.3.4
 _ZN9KComboBox16staticMetaObjectE@Base 4:4.3.4
 _ZN9KComboBox17setAutoCompletionEb@Base 4:4.3.4
 _ZN9KComboBox17setCompletedItemsERK11QStringListb@Base 4:4.3.4
 _ZN9KComboBox18setUrlDropsEnabledEb@Base 4:4.3.4
 _ZN9KComboBox19substringCompletionERK7QString@Base 4:4.3.4
 _ZN9KComboBox21completionModeChangedEN15KGlobalSettings10CompletionE@Base 4:4.3.4
 _ZN9KComboBox21setContextMenuEnabledEb@Base 4:4.3.4
 _ZN9KComboBox22aboutToShowContextMenuEP5QMenu@Base 4:4.3.4
 _ZN9KComboBox4initEv@Base 4:4.3.4
 _ZN9KComboBox6addUrlERK4KUrl@Base 4:4.3.4
 _ZN9KComboBox6addUrlERK5QIconRK4KUrl@Base 4:4.3.4
 _ZN9KComboBox6createEmbb@Base 4:4.3.4
 _ZN9KComboBox9changeUrlEiRK4KUrl@Base 4:4.3.4
 _ZN9KComboBox9changeUrlEiRK5QIconRK4KUrl@Base 4:4.3.4
 _ZN9KComboBox9insertUrlEiRK4KUrl@Base 4:4.3.4
 _ZN9KComboBox9insertUrlEiRK5QIconRK4KUrl@Base 4:4.3.4
 _ZN9KComboBoxC1EP7QWidget@Base 4:4.3.4
 _ZN9KComboBoxC1EbP7QWidget@Base 4:4.3.4
 _ZN9KComboBoxC2EP7QWidget@Base 4:4.3.4
 _ZN9KComboBoxC2EbP7QWidget@Base 4:4.3.4
 _ZN9KComboBoxD0Ev@Base 4:4.3.4
 _ZN9KComboBoxD1Ev@Base 4:4.3.4
 _ZN9KComboBoxD2Ev@Base 4:4.3.4
 _ZN9KHelpMenu11qt_metacallEN11QMetaObject4CallEiPPv@Base 4:4.3.4
 _ZN9KHelpMenu11qt_metacastEPKc@Base 4:4.3.4
 _ZN9KHelpMenu12timerExpiredEv@Base 4:4.3.4
 _ZN9KHelpMenu13menuDestroyedEv@Base 4:4.3.4
 _ZN9KHelpMenu14dialogFinishedEv@Base 4:4.3.4
 _ZN9KHelpMenu16aboutApplicationEv@Base 4:4.3.4
 _ZN9KHelpMenu16appHelpActivatedEv@Base 4:4.3.4
 _ZN9KHelpMenu16staticMetaObjectE@Base 4:4.3.4
 _ZN9KHelpMenu20contextHelpActivatedEv@Base 4:4.3.4
 _ZN9KHelpMenu20showAboutApplicationEv@Base 4:4.3.4
 _ZN9KHelpMenu25switchApplicationLanguageEv@Base 4:4.3.4
 _ZN9KHelpMenu4menuEv@Base 4:4.3.4
 _ZN9KHelpMenu8aboutKDEEv@Base 4:4.3.4
 _ZN9KHelpMenu9reportBugEv@Base 4:4.3.4
 _ZN9KHelpMenuC1EP7QWidgetPK10KAboutDatabP17KActionCollection@Base 4:4.3.4
 _ZN9KHelpMenuC1EP7QWidgetRK7QStringb@Base 4:4.3.4
 _ZN9KHelpMenuC2EP7QWidgetPK10KAboutDatabP17KActionCollection@Base 4:4.3.4
 _ZN9KHelpMenuC2EP7QWidgetRK7QStringb@Base 4:4.3.4
 _ZN9KHelpMenuD0Ev@Base 4:4.3.4
 _ZN9KHelpMenuD1Ev@Base 4:4.3.4
 _ZN9KHelpMenuD2Ev@Base 4:4.3.4
 _ZN9KLineEdit10completionERK7QString@Base 4:4.3.4
 _ZN9KLineEdit10paintEventEP11QPaintEvent@Base 4:4.3.4
 _ZN9KLineEdit10rotateTextEN15KCompletionBase14KeyBindingTypeE@Base 4:4.3.4
 _ZN9KLineEdit11qt_metacallEN11QMetaObject4CallEiPPv@Base 4:4.3.4
 _ZN9KLineEdit11qt_metacastEPKc@Base 4:4.3.4
 _ZN9KLineEdit11resizeEventEP12QResizeEvent@Base 4:4.3.4
 _ZN9KLineEdit11setReadOnlyEb@Base 4:4.3.4
 _ZN9KLineEdit12doCompletionERK7QString@Base 4:4.3.4
 _ZN9KLineEdit12focusInEventEP11QFocusEvent@Base 4:4.3.4
 _ZN9KLineEdit12textRotationEN15KCompletionBase14KeyBindingTypeE@Base 4:4.3.4
 _ZN9KLineEdit13completionBoxEb@Base 4:4.3.4
 _ZN9KLineEdit13focusOutEventEP11QFocusEvent@Base 4:4.3.4
 _ZN9KLineEdit13keyPressEventEP9QKeyEvent@Base 4:4.3.4
 _ZN9KLineEdit13returnPressedERK7QString@Base 4:4.3.4
 _ZN9KLineEdit13userCancelledERK7QString@Base 4:4.3.4
 _ZN9KLineEdit14makeCompletionERK7QString@Base 4:4.3.4
 _ZN9KLineEdit15mousePressEventEP11QMouseEvent@Base 4:4.3.4
 _ZN9KLineEdit15setClickMessageERK7QString@Base 4:4.3.4
 _ZN9KLineEdit15setPasswordModeEb@Base 4:4.3.4
 _ZN9KLineEdit15setSqueezedTextERK7QString@Base 4:4.3.4
 _ZN9KLineEdit15setSqueezedTextEv@Base 4:4.3.4
 _ZN9KLineEdit15userTextChangedERK7QString@Base 4:4.3.4
 _ZN9KLineEdit16contextMenuEventEP17QContextMenuEvent@Base 4:4.3.4
 _ZN9KLineEdit16setCompletedTextERK7QString@Base 4:4.3.4
 _ZN9KLineEdit16setCompletedTextERK7QStringb@Base 4:4.3.4
 _ZN9KLineEdit16setCompletionBoxEP14KCompletionBox@Base 4:4.3.4
 _ZN9KLineEdit16setTrapReturnKeyEb@Base 4:4.3.4
 _ZN9KLineEdit16setUserSelectionEb@Base 4:4.3.4
 _ZN9KLineEdit16staticMetaObjectE@Base 4:4.3.4
 _ZN9KLineEdit17mouseReleaseEventEP11QMouseEvent@Base 4:4.3.4
 _ZN9KLineEdit17setCompletedItemsERK11QStringListb@Base 4:4.3.4
 _ZN9KLineEdit17setCompletionModeEN15KGlobalSettings10CompletionE@Base 4:4.3.4
 _ZN9KLineEdit17updateClearButtonEv@Base 4:4.3.4
 _ZN9KLineEdit18clearButtonClickedEv@Base 4:4.3.4
 _ZN9KLineEdit18setUrlDropsEnabledEb@Base 4:4.3.4
 _ZN9KLineEdit18tripleClickTimeoutEv@Base 4:4.3.4
 _ZN9KLineEdit19setClearButtonShownEb@Base 4:4.3.4
 _ZN9KLineEdit19setCompletionObjectEP11KCompletionb@Base 4:4.3.4
 _ZN9KLineEdit19substringCompletionERK7QString@Base 4:4.3.4
 _ZN9KLineEdit21completionModeChangedEN15KGlobalSettings10CompletionE@Base 4:4.3.4
 _ZN9KLineEdit21mouseDoubleClickEventEP11QMouseEvent@Base 4:4.3.4
 _ZN9KLineEdit21setContextMenuEnabledEb@Base 4:4.3.4
 _ZN9KLineEdit21updateClearButtonIconERK7QString@Base 4:4.3.4
 _ZN9KLineEdit22aboutToShowContextMenuEP5QMenu@Base 4:4.3.4
 _ZN9KLineEdit22completionBoxActivatedERK7QString@Base 4:4.3.4
 _ZN9KLineEdit22setSqueezedTextEnabledEb@Base 4:4.3.4
 _ZN9KLineEdit23completionMenuActivatedEP7QAction@Base 4:4.3.4
 _ZN9KLineEdit25createStandardContextMenuEv@Base 4:4.3.4
 _ZN9KLineEdit25setCompletionModeDisabledEN15KGlobalSettings10CompletionEb@Base 4:4.3.4
 _ZN9KLineEdit26slotRestoreSelectionColorsEv@Base 4:4.3.4
 _ZN9KLineEdit31_k_slotCompletionBoxTextChangedERK7QString@Base 4:4.4.95
 _ZN9KLineEdit4initEv@Base 4:4.3.4
 _ZN9KLineEdit5clearEv@Base 4:4.3.4
 _ZN9KLineEdit5eventEP6QEvent@Base 4:4.3.4
 _ZN9KLineEdit6createEmbb@Base 4:4.3.4
 _ZN9KLineEdit6setUrlERK4KUrl@Base 4:4.3.4
 _ZN9KLineEdit7setTextERK7QString@Base 4:4.3.4
 _ZN9KLineEdit9dropEventEP10QDropEvent@Base 4:4.3.4
 _ZN9KLineEditC1EP7QWidget@Base 4:4.3.4
 _ZN9KLineEditC1ERK7QStringP7QWidget@Base 4:4.3.4
 _ZN9KLineEditC2EP7QWidget@Base 4:4.3.4
 _ZN9KLineEditC2ERK7QStringP7QWidget@Base 4:4.3.4
 _ZN9KLineEditD0Ev@Base 4:4.3.4
 _ZN9KLineEditD1Ev@Base 4:4.3.4
 _ZN9KLineEditD2Ev@Base 4:4.3.4
 _ZN9KNumInput11qt_metacallEN11QMetaObject4CallEiPPv@Base 4:4.3.4
 _ZN9KNumInput11qt_metacastEPKc@Base 4:4.3.4
 _ZN9KNumInput16staticMetaObjectE@Base 4:4.3.4
 _ZN9KNumInput6layoutEb@Base 4:4.3.4
 _ZN9KNumInput8setLabelERK7QString6QFlagsIN2Qt13AlignmentFlagEE@Base 4:4.3.4
 _ZN9KNumInput8setStepsEii@Base 4:4.3.4
 _ZN9KNumInputC1EP7QWidget@Base 4:4.3.4
 _ZN9KNumInputC1EP7QWidgetPS_@Base 4:4.3.4
 _ZN9KNumInputC2EP7QWidget@Base 4:4.3.4
 _ZN9KNumInputC2EP7QWidgetPS_@Base 4:4.3.4
 _ZN9KNumInputD0Ev@Base 4:4.3.4
 _ZN9KNumInputD1Ev@Base 4:4.3.4
 _ZN9KNumInputD2Ev@Base 4:4.3.4
 _ZN9KPageView10createViewEv@Base 4:4.3.4
 _ZN9KPageView11qt_metacallEN11QMetaObject4CallEiPPv@Base 4:4.3.4
 _ZN9KPageView11qt_metacastEPKc@Base 4:4.3.4
 _ZN9KPageView11setFaceTypeENS_8FaceTypeE@Base 4:4.3.4
 _ZN9KPageView14setCurrentPageERK11QModelIndex@Base 4:4.3.4
 _ZN9KPageView15setItemDelegateEP21QAbstractItemDelegate@Base 4:4.3.4
 _ZN9KPageView16setDefaultWidgetEP7QWidget@Base 4:4.3.4
 _ZN9KPageView16staticMetaObjectE@Base 4:4.3.4
 _ZN9KPageView18currentPageChangedERK11QModelIndexS2_@Base 4:4.3.4
 _ZN9KPageView8setModelEP18QAbstractItemModel@Base 4:4.3.4
 _ZN9KPageViewC1EP7QWidget@Base 4:4.3.4
 _ZN9KPageViewC1ER16KPageViewPrivateP7QWidget@Base 4:4.3.4
 _ZN9KPageViewC2EP7QWidget@Base 4:4.3.4
 _ZN9KPageViewC2ER16KPageViewPrivateP7QWidget@Base 4:4.3.4
 _ZN9KPageViewD0Ev@Base 4:4.3.4
 _ZN9KPageViewD1Ev@Base 4:4.3.4
 _ZN9KPageViewD2Ev@Base 4:4.3.4
 _ZN9KPlotAxis10setVisibleEb@Base 4:4.3.4
 _ZN9KPlotAxis12setTickMarksEdd@Base 4:4.3.4
 _ZN9KPlotAxis18setTickLabelFormatEcii@Base 4:4.3.4
 _ZN9KPlotAxis18setTickLabelsShownEb@Base 4:4.3.4
 _ZN9KPlotAxis8setLabelERK7QString@Base 4:4.3.4
 _ZN9KPlotAxisC1ERK7QString@Base 4:4.3.4
 _ZN9KPlotAxisC2ERK7QString@Base 4:4.3.4
 _ZN9KPlotAxisD1Ev@Base 4:4.3.4
 _ZN9KPlotAxisD2Ev@Base 4:4.3.4
 _ZN9KSelector10paintEventEP11QPaintEvent@Base 4:4.3.4
 _ZN9KSelector10wheelEventEP11QWheelEvent@Base 4:4.3.4
 _ZN9KSelector11qt_metacallEN11QMetaObject4CallEiPPv@Base 4:4.3.4
 _ZN9KSelector11qt_metacastEPKc@Base 4:4.3.4
 _ZN9KSelector12calcArrowPosEi@Base 4:4.3.4
 _ZN9KSelector12drawContentsEP8QPainter@Base 4:4.3.4
 _ZN9KSelector14mouseMoveEventEP11QMouseEvent@Base 4:4.3.4
 _ZN9KSelector15mousePressEventEP11QMouseEvent@Base 4:4.3.4
 _ZN9KSelector16staticMetaObjectE@Base 4:4.3.4
 _ZN9KSelector17mouseReleaseEventEP11QMouseEvent@Base 4:4.3.4
 _ZN9KSelector17setArrowDirectionEN2Qt9ArrowTypeE@Base 4:4.3.4
 _ZN9KSelector9drawArrowEP8QPainterRK6QPoint@Base 4:4.3.4
 _ZN9KSelector9moveArrowERK6QPoint@Base 4:4.3.4
 _ZN9KSelector9setIndentEb@Base 4:4.3.4
 _ZN9KSelectorC1EN2Qt11OrientationEP7QWidget@Base 4:4.3.4
 _ZN9KSelectorC1EP7QWidget@Base 4:4.3.4
 _ZN9KSelectorC2EN2Qt11OrientationEP7QWidget@Base 4:4.3.4
 _ZN9KSelectorC2EP7QWidget@Base 4:4.3.4
 _ZN9KSelectorD0Ev@Base 4:4.3.4
 _ZN9KSelectorD1Ev@Base 4:4.3.4
 _ZN9KSelectorD2Ev@Base 4:4.3.4
 _ZN9KShortcut10setPrimaryERK12QKeySequence@Base 4:4.3.4
 _ZN9KShortcut12setAlternateERK12QKeySequence@Base 4:4.3.4
 _ZN9KShortcut6removeERK12QKeySequenceNS_13EmptyHandlingE@Base 4:4.3.4
 _ZN9KShortcutC1ERK12QKeySequence@Base 4:4.3.4
 _ZN9KShortcutC1ERK12QKeySequenceS2_@Base 4:4.3.4
 _ZN9KShortcutC1ERK5QListI12QKeySequenceE@Base 4:4.3.4
 _ZN9KShortcutC1ERK7QString@Base 4:4.3.4
 _ZN9KShortcutC1ERKS_@Base 4:4.3.4
 _ZN9KShortcutC1Eii@Base 4:4.3.4
 _ZN9KShortcutC1Ev@Base 4:4.3.4
 _ZN9KShortcutC2ERK12QKeySequence@Base 4:4.3.4
 _ZN9KShortcutC2ERK12QKeySequenceS2_@Base 4:4.3.4
 _ZN9KShortcutC2ERK5QListI12QKeySequenceE@Base 4:4.3.4
 _ZN9KShortcutC2ERK7QString@Base 4:4.3.4
 _ZN9KShortcutC2ERKS_@Base 4:4.3.4
 _ZN9KShortcutC2Eii@Base 4:4.3.4
 _ZN9KShortcutC2Ev@Base 4:4.3.4
 _ZN9KShortcutD1Ev@Base 4:4.3.4
 _ZN9KShortcutD2Ev@Base 4:4.3.4
 _ZN9KShortcutaSERKS_@Base 4:4.3.4
 _ZN9KTextEdit10paintEventEP11QPaintEvent@Base 4:4.4.0
 _ZN9KTextEdit10slotDoFindEv@Base 4:4.3.4
 _ZN9KTextEdit10wheelEventEP11QWheelEvent@Base 4:4.3.4
 _ZN9KTextEdit11qt_metacallEN11QMetaObject4CallEiPPv@Base 4:4.3.4
 _ZN9KTextEdit11qt_metacastEPKc@Base 4:4.3.4
 _ZN9KTextEdit11setReadOnlyEb@Base 4:4.3.4
 _ZN9KTextEdit11slotReplaceEv@Base 4:4.3.4
 _ZN9KTextEdit12focusInEventEP11QFocusEvent@Base 4:4.3.4
 _ZN9KTextEdit12slotFindNextEv@Base 4:4.3.4
 _ZN9KTextEdit13checkSpellingEv@Base 4:4.3.4
 _ZN9KTextEdit13focusOutEventEP11QFocusEvent@Base 4:4.4.0
 _ZN9KTextEdit13highlightWordEii@Base 4:4.3.4
 _ZN9KTextEdit13keyPressEventEP9QKeyEvent@Base 4:4.3.4
 _ZN9KTextEdit13slotDoReplaceEv@Base 4:4.3.4
 _ZN9KTextEdit13slotSpeakTextEv@Base 4:4.3.4
 _ZN9KTextEdit14deleteWordBackEv@Base 4:4.3.4
 _ZN9KTextEdit14mousePopupMenuEv@Base 4:4.3.4
 _ZN9KTextEdit14setHighlighterEPN6Sonnet11HighlighterE@Base 4:4.3.4
 _ZN9KTextEdit15languageChangedERK7QString@Base 4:4.3.4
 _ZN9KTextEdit15setClickMessageERK7QString@Base 4:4.4.0
 _ZN9KTextEdit15slotReplaceNextEv@Base 4:4.3.4
 _ZN9KTextEdit16contextMenuEventEP17QContextMenuEvent@Base 4:4.3.4
 _ZN9KTextEdit16spellCheckStatusERK7QString@Base 4:4.3.4
 _ZN9KTextEdit16staticMetaObjectE@Base 4:4.3.4
 _ZN9KTextEdit17createHighlighterEv@Base 4:4.3.4
 _ZN9KTextEdit17deleteWordForwardEv@Base 4:4.3.4
 _ZN9KTextEdit17enableFindReplaceEb@Base 4:4.3.4
 _ZN9KTextEdit17setSpellInterfaceEP23KTextEditSpellInterface@Base 4:4.3.4
 _ZN9KTextEdit20checkSpellingChangedEb@Base 4:4.3.4
 _ZN9KTextEdit21showSpellConfigDialogERK7QStringS2_@Base 4:4.3.4
 _ZN9KTextEdit22aboutToShowContextMenuEP5QMenu@Base 4:4.4.95
 _ZN9KTextEdit23setCheckSpellingEnabledEb@Base 4:4.3.4
 _ZN9KTextEdit24setSpellCheckingLanguageERK7QString@Base 4:4.3.4
 _ZN9KTextEdit30setSpellCheckingConfigFileNameERK7QString@Base 4:4.3.4
 _ZN9KTextEdit31setCheckSpellingEnabledInternalEb@Base 4:4.3.4
 _ZN9KTextEdit5eventEP6QEvent@Base 4:4.3.4
 _ZN9KTextEdit7Private12slotAllowTabEv@Base 4:4.3.4
 _ZN9KTextEdit7Private13menuActivatedEP7QAction@Base 4:4.3.4
 _ZN9KTextEdit7Private13undoableClearEv@Base 4:4.3.4
 _ZN9KTextEdit7Private14handleShortcutEPK9QKeyEvent@Base 4:4.3.4
 _ZN9KTextEdit7Private15slotReplaceTextERK7QStringiii@Base 4:4.3.4
 _ZN9KTextEdit7Private16overrideShortcutEPK9QKeyEvent@Base 4:4.3.4
 _ZN9KTextEdit7Private17slotFindHighlightERK7QStringii@Base 4:4.3.4
 _ZN9KTextEdit7Private20spellCheckerCanceledEv@Base 4:4.3.4
 _ZN9KTextEdit7Private20spellCheckerFinishedEv@Base 4:4.3.4
 _ZN9KTextEdit7Private20toggleAutoSpellCheckEv@Base 4:4.3.4
 _ZN9KTextEdit7Private21spellCheckerCorrectedERK7QStringiS3_@Base 4:4.3.4
 _ZN9KTextEdit7Private22updateClickMessageRectEv@Base 4:4.4.0
 _ZN9KTextEdit7Private23spellCheckerAutoCorrectERK7QStringS3_@Base 4:4.3.4
 _ZN9KTextEdit7Private23spellCheckerMisspellingERK7QStringi@Base 4:4.3.4
 _ZN9KTextEdit7Private4initEv@Base 4:4.3.4
 _ZN9KTextEdit7replaceEv@Base 4:4.3.4
 _ZN9KTextEdit8slotFindEv@Base 4:4.3.4
 _ZN9KTextEditC1EP7QWidget@Base 4:4.3.4
 _ZN9KTextEditC1ERK7QStringP7QWidget@Base 4:4.3.4
 _ZN9KTextEditC2EP7QWidget@Base 4:4.3.4
 _ZN9KTextEditC2ERK7QStringP7QWidget@Base 4:4.3.4
 _ZN9KTextEditD0Ev@Base 4:4.3.4
 _ZN9KTextEditD1Ev@Base 4:4.3.4
 _ZN9KTextEditD2Ev@Base 4:4.3.4
 _ZN9KUrlLabel10enterEventEP6QEvent@Base 4:4.3.4
 _ZN9KUrlLabel10enteredUrlERK7QString@Base 4:4.3.4
 _ZN9KUrlLabel10enteredUrlEv@Base 4:4.3.4
 _ZN9KUrlLabel10leaveEventEP6QEvent@Base 4:4.3.4
 _ZN9KUrlLabel10setTipTextERK7QString@Base 4:4.3.4
 _ZN9KUrlLabel10setUseTipsEb@Base 4:4.3.4
 _ZN9KUrlLabel11qt_metacallEN11QMetaObject4CallEiPPv@Base 4:4.3.4
 _ZN9KUrlLabel11qt_metacastEPKc@Base 4:4.3.4
 _ZN9KUrlLabel12setUnderlineEb@Base 4:4.3.4
 _ZN9KUrlLabel12setUseCursorEbP7QCursor@Base 4:4.3.4
 _ZN9KUrlLabel14leftClickedUrlERK7QString@Base 4:4.3.4
 _ZN9KUrlLabel14leftClickedUrlEv@Base 4:4.3.4
 _ZN9KUrlLabel14setGlowEnabledEb@Base 4:4.3.4
 _ZN9KUrlLabel15rightClickedUrlERK7QString@Base 4:4.3.4
 _ZN9KUrlLabel15rightClickedUrlEv@Base 4:4.3.4
 _ZN9KUrlLabel15setFloatEnabledEb@Base 4:4.3.4
 _ZN9KUrlLabel16middleClickedUrlERK7QString@Base 4:4.3.4
 _ZN9KUrlLabel16middleClickedUrlEv@Base 4:4.3.4
 _ZN9KUrlLabel16setSelectedColorERK6QColor@Base 4:4.3.4
 _ZN9KUrlLabel16setSelectedColorERK7QString@Base 4:4.3.4
 _ZN9KUrlLabel16staticMetaObjectE@Base 4:4.3.4
 _ZN9KUrlLabel17mouseReleaseEventEP11QMouseEvent@Base 4:4.3.4
 _ZN9KUrlLabel18setAlternatePixmapERK7QPixmap@Base 4:4.3.4
 _ZN9KUrlLabel19setHighlightedColorERK6QColor@Base 4:4.3.4
 _ZN9KUrlLabel19setHighlightedColorERK7QString@Base 4:4.3.4
 _ZN9KUrlLabel5eventEP6QEvent@Base 4:4.3.4
 _ZN9KUrlLabel6setUrlERK7QString@Base 4:4.3.4
 _ZN9KUrlLabel7leftUrlERK7QString@Base 4:4.3.4
 _ZN9KUrlLabel7leftUrlEv@Base 4:4.3.4
 _ZN9KUrlLabel7setFontERK5QFont@Base 4:4.3.4
 _ZN9KUrlLabelC1EP7QWidget@Base 4:4.3.4
 _ZN9KUrlLabelC1ERK7QStringS2_P7QWidget@Base 4:4.3.4
 _ZN9KUrlLabelC2EP7QWidget@Base 4:4.3.4
 _ZN9KUrlLabelC2ERK7QStringS2_P7QWidget@Base 4:4.3.4
 _ZN9KUrlLabelD0Ev@Base 4:4.3.4
 _ZN9KUrlLabelD1Ev@Base 4:4.3.4
 _ZN9KUrlLabelD2Ev@Base 4:4.3.4
 _ZN9KWordWrap10formatTextER12QFontMetricsRK5QRectiRK7QStringi@Base 4:4.3.4
 _ZN9KWordWrap15drawFadeoutTextEP8QPainteriiiRK7QString@Base 4:4.3.4
 _ZN9KWordWrap16drawTruncateTextEP8QPainteriiiRK7QString@Base 4:4.3.4
 _ZN9KWordWrapC1ERK5QRect@Base 4:4.3.4
 _ZN9KWordWrapC2ERK5QRect@Base 4:4.3.4
 _ZN9KWordWrapD1Ev@Base 4:4.3.4
 _ZN9KWordWrapD2Ev@Base 4:4.3.4
 _ZNK10KBugReport10metaObjectEv@Base 4:4.3.4
 _ZNK10KBugReport11messageBodyEv@Base 4:4.3.4
 _ZNK10KBugReport4textEv@Base 4:4.3.4
 _ZNK10KDateTable10metaObjectEv@Base 4:4.3.4
 _ZNK10KDateTable16popupMenuEnabledEv@Base 4:4.3.4
 _ZNK10KDateTable4dateEv@Base 4:4.3.4
 _ZNK10KDateTable8calendarEv@Base 4:4.3.4
 _ZNK10KDateTable8sizeHintEv@Base 4:4.3.4
 _ZNK10KIconCache15defaultIconSizeEN11KIconLoader5GroupE@Base 4:4.3.4
 _ZNK10KIconCache15mostRecentMTimeERK4QSetI7QStringE@Base 4:4.3.4
 _ZNK10KIconCache21existingIconThemeDirsERK11QStringList@Base 4:4.3.4
 _ZNK10KIconTheme10hasContextEN11KIconLoader7ContextE@Base 4:4.3.4
 _ZNK10KIconTheme10queryIconsEiN11KIconLoader7ContextE@Base 4:4.3.4
 _ZNK10KIconTheme10querySizesEN11KIconLoader5GroupE@Base 4:4.3.4
 _ZNK10KIconTheme10screenshotEv@Base 4:4.3.4
 _ZNK10KIconTheme11defaultSizeEN11KIconLoader5GroupE@Base 4:4.3.4
 _ZNK10KIconTheme11descriptionEv@Base 4:4.3.4
 _ZNK10KIconTheme12internalNameEv@Base 4:4.3.4
 _ZNK10KIconTheme19queryIconsByContextEiN11KIconLoader7ContextE@Base 4:4.3.4
 _ZNK10KIconTheme3dirEv@Base 4:4.3.4
 _ZNK10KIconTheme4nameEv@Base 4:4.3.4
 _ZNK10KIconTheme5depthEv@Base 4:4.3.4
 _ZNK10KIconTheme7exampleEv@Base 4:4.3.4
 _ZNK10KIconTheme7isValidEv@Base 4:4.3.4
 _ZNK10KIconTheme8iconPathERK7QStringiN11KIconLoader9MatchTypeE@Base 4:4.3.4
 _ZNK10KIconTheme8inheritsEv@Base 4:4.3.4
 _ZNK10KIconTheme8isHiddenEv@Base 4:4.3.4
 _ZNK10KPageModel10metaObjectEv@Base 4:4.3.4
 _ZNK10KPlotPoint1xEv@Base 4:4.3.4
 _ZNK10KPlotPoint1yEv@Base 4:4.3.4
 _ZNK10KPlotPoint5labelEv@Base 4:4.3.4
 _ZNK10KPlotPoint8barWidthEv@Base 4:4.3.4
 _ZNK10KPlotPoint8positionEv@Base 4:4.3.4
 _ZNK10KSeparator10metaObjectEv@Base 4:4.3.4
 _ZNK10KSeparator11orientationEv@Base 4:4.3.4
 _ZNK10KStatusBar10metaObjectEv@Base 4:4.3.4
 _ZNK10KStatusBar7hasItemEi@Base 4:4.3.4
 _ZNK10KStatusBar8itemTextEi@Base 4:4.3.4
 _ZNK10KTabWidget10metaObjectEv@Base 4:4.3.4
 _ZNK10KTabWidget12tabTextColorEi@Base 4:4.3.4
 _ZNK10KTabWidget14isTabBarHiddenEv@Base 4:4.3.4
 _ZNK10KTabWidget16hoverCloseButtonEv@Base 4:4.3.4
 _ZNK10KTabWidget19automaticResizeTabsEv@Base 4:4.3.4
 _ZNK10KTabWidget20isCloseButtonEnabledEv@Base 4:4.3.4
 _ZNK10KTabWidget22isTabReorderingEnabledEv@Base 4:4.3.4
 _ZNK10KTabWidget23hoverCloseButtonDelayedEv@Base 4:4.3.4
 _ZNK10KTabWidget24tabCloseActivatePreviousEv@Base 4:4.3.4
 _ZNK10KTabWidget7Private18isEmptyTabbarSpaceERK6QPoint@Base 4:4.3.4
 _ZNK10KTabWidget7tabTextEi@Base 4:4.3.4
 _ZNK10KTipDialog10metaObjectEv@Base 4:4.3.4
 _ZNK10KUndoStack10metaObjectEv@Base 4:4.3.4
 _ZNK10KXMessages10metaObjectEv@Base 4:4.3.4
 _ZNK10NETWinInfo10activitiesEv@Base 4:4.5.85
 _ZNK10NETWinInfo10windowRoleEv@Base 4:4.3.4
 _ZNK10NETWinInfo10windowTypeEm@Base 4:4.3.4
 _ZNK10NETWinInfo11groupLeaderEv@Base 4:4.3.4
 _ZNK10NETWinInfo11visibleNameEv@Base 4:4.3.4
 _ZNK10NETWinInfo12frameExtentsEv@Base 4:4.3.4
 _ZNK10NETWinInfo12frameOverlapEv@Base 4:4.4.0
 _ZNK10NETWinInfo12handledIconsEv@Base 4:4.3.4
 _ZNK10NETWinInfo12iconGeometryEv@Base 4:4.3.4
 _ZNK10NETWinInfo12iconInternalER9NETRArrayI7NETIconEiii@Base 4:4.3.4
 _ZNK10NETWinInfo12mappingStateEv@Base 4:4.3.4
 _ZNK10NETWinInfo12transientForEv@Base 4:4.3.4
 _ZNK10NETWinInfo13clientMachineEv@Base 4:4.3.4
 _ZNK10NETWinInfo13extendedStrutEv@Base 4:4.3.4
 _ZNK10NETWinInfo13hasNETSupportEv@Base 4:4.3.4
 _ZNK10NETWinInfo13hasWindowTypeEv@Base 4:4.3.4
 _ZNK10NETWinInfo14allowedActionsEv@Base 4:4.3.4
 _ZNK10NETWinInfo15visibleIconNameEv@Base 4:4.3.4
 _ZNK10NETWinInfo15windowClassNameEv@Base 4:4.3.4
 _ZNK10NETWinInfo16passedPropertiesEv@Base 4:4.3.4
 _ZNK10NETWinInfo16windowClassClassEv@Base 4:4.3.4
 _ZNK10NETWinInfo21isBlockingCompositingEv@Base 4:4.7.0
 _ZNK10NETWinInfo3pidEv@Base 4:4.3.4
 _ZNK10NETWinInfo4iconEii@Base 4:4.3.4
 _ZNK10NETWinInfo4nameEv@Base 4:4.3.4
 _ZNK10NETWinInfo5stateEv@Base 4:4.3.4
 _ZNK10NETWinInfo5strutEv@Base 4:4.3.4
 _ZNK10NETWinInfo7desktopEb@Base 4:4.3.4
 _ZNK10NETWinInfo7opacityEv@Base 4:4.3.4
 _ZNK10NETWinInfo8iconNameEv@Base 4:4.3.4
 _ZNK10NETWinInfo8userTimeEv@Base 4:4.3.4
 _ZNK10NETWinInfo9iconSizesEv@Base 4:4.3.4
 _ZNK10NETWinInfo9startupIdEv@Base 4:4.3.4
 _ZNK11KActionMenu10metaObjectEv@Base 4:4.3.4
 _ZNK11KActionMenu10stickyMenuEv@Base 4:4.3.4
 _ZNK11KActionMenu7delayedEv@Base 4:4.3.4
 _ZNK11KCharSelect10metaObjectEv@Base 4:4.3.4
 _ZNK11KCharSelect11currentCharEv@Base 4:4.3.4
 _ZNK11KCharSelect11currentFontEv@Base 4:4.3.4
 _ZNK11KCharSelect14displayedCharsEv@Base 4:4.3.4
 _ZNK11KCharSelect8sizeHintEv@Base 4:4.3.4
 _ZNK11KColorCells10metaObjectEv@Base 4:4.3.4
 _ZNK11KColorCells13selectedIndexEv@Base 4:4.3.4
 _ZNK11KColorCells14positionToCellERK6QPointb@Base 4:4.3.4
 _ZNK11KColorCells14sizeHintForRowEi@Base 4:4.3.4
 _ZNK11KColorCells17sizeHintForColumnEi@Base 4:4.3.4
 _ZNK11KColorCells5colorEi@Base 4:4.3.4
 _ZNK11KColorCells5countEv@Base 4:4.3.4
 _ZNK11KColorCombo10metaObjectEv@Base 4:4.3.4
 _ZNK11KColorCombo13isCustomColorEv@Base 4:4.3.4
 _ZNK11KColorCombo5colorEv@Base 4:4.3.4
 _ZNK11KColorCombo6colorsEv@Base 4:4.3.4
 _ZNK11KColorPatch10metaObjectEv@Base 4:4.3.4
 _ZNK11KColorPatch5colorEv@Base 4:4.4.0
 _ZNK11KCompletion10ignoreCaseEv@Base 4:4.3.4
 _ZNK11KCompletion10metaObjectEv@Base 4:4.3.4
 _ZNK11KCompletion13soundsEnabledEv@Base 4:4.3.4
 _ZNK11KCompletion14completionModeEv@Base 4:4.3.4
 _ZNK11KCompletion16postProcessMatchEP7QString@Base 4:4.3.4
 _ZNK11KCompletion18findAllCompletionsERK7QStringP25KCompletionMatchesWrapperRb@Base 4:4.3.4
 _ZNK11KCompletion18hasMultipleMatchesEv@Base 4:4.3.4
 _ZNK11KCompletion18postProcessMatchesEP11QStringList@Base 4:4.3.4
 _ZNK11KCompletion18postProcessMatchesEP18KCompletionMatches@Base 4:4.3.4
 _ZNK11KCompletion19substringCompletionERK7QString@Base 4:4.3.4
 _ZNK11KCompletion22extractStringsFromNodeEPK13KCompTreeNodeRK7QStringP25KCompletionMatchesWrapperb@Base 4:4.3.4
 _ZNK11KCompletion24extractStringsFromNodeCIEPK13KCompTreeNodeRK7QStringS5_P25KCompletionMatchesWrapper@Base 4:4.3.4
 _ZNK11KCompletion5itemsEv@Base 4:4.3.4
 _ZNK11KCompletion5orderEv@Base 4:4.3.4
 _ZNK11KCompletion6doBeepENS_8BeepModeE@Base 4:4.3.4
 _ZNK11KCompletion7isEmptyEv@Base 4:4.3.4
 _ZNK11KCompletion9lastMatchEv@Base 4:4.3.4
 _ZNK11KDatePicker10metaObjectEv@Base 4:4.3.4
 _ZNK11KDatePicker14hasCloseButtonEv@Base 4:4.3.4
 _ZNK11KDatePicker4dateEv@Base 4:4.3.4
 _ZNK11KDatePicker8calendarEv@Base 4:4.3.4
 _ZNK11KDatePicker8fontSizeEv@Base 4:4.3.4
 _ZNK11KDatePicker8sizeHintEv@Base 4:4.3.4
 _ZNK11KDatePicker9dateTableEv@Base 4:4.3.4
 _ZNK11KDateWidget10metaObjectEv@Base 4:4.3.4
 _ZNK11KDateWidget4dateEv@Base 4:4.3.4
 _ZNK11KDateWidget8calendarEv@Base 4:4.3.4
 _ZNK11KDualAction10activeIconEv@Base 4:4.5.85
 _ZNK11KDualAction10activeTextEv@Base 4:4.5.85
 _ZNK11KDualAction10autoToggleEv@Base 4:4.5.85
 _ZNK11KDualAction10metaObjectEv@Base 4:4.5.85
 _ZNK11KDualAction12inactiveIconEv@Base 4:4.5.85
 _ZNK11KDualAction12inactiveTextEv@Base 4:4.5.85
 _ZNK11KDualAction13activeGuiItemEv@Base 4:4.5.85
 _ZNK11KDualAction13activeToolTipEv@Base 4:4.5.85
 _ZNK11KDualAction15inactiveGuiItemEv@Base 4:4.5.85
 _ZNK11KDualAction15inactiveToolTipEv@Base 4:4.5.85
 _ZNK11KDualAction8isActiveEv@Base 4:4.5.85
 _ZNK11KFindDialog10metaObjectEv@Base 4:4.3.4
 _ZNK11KFindDialog11findHistoryEv@Base 4:4.3.4
 _ZNK11KFindDialog13findExtensionEv@Base 4:4.3.4
 _ZNK11KFindDialog7optionsEv@Base 4:4.3.4
 _ZNK11KFindDialog7patternEv@Base 4:4.3.4
 _ZNK11KFontAction10metaObjectEv@Base 4:4.3.4
 _ZNK11KFontAction4fontEv@Base 4:4.3.4
 _ZNK11KFontDialog10metaObjectEv@Base 4:4.3.4
 _ZNK11KFontDialog14sizeIsRelativeEv@Base 4:4.3.4
 _ZNK11KFontDialog4fontEv@Base 4:4.3.4
 _ZNK11KIconEffect11fingerprintEii@Base 4:4.3.4
 _ZNK11KIconEffect12doublePixelsERK6QImage@Base 4:4.3.4
 _ZNK11KIconEffect5applyERK6QImageifRK6QColorS5_b@Base 4:4.3.4
 _ZNK11KIconEffect5applyERK6QImageifRK6QColorb@Base 4:4.3.4
 _ZNK11KIconEffect5applyERK6QImageii@Base 4:4.3.4
 _ZNK11KIconEffect5applyERK7QPixmapifRK6QColorS5_b@Base 4:4.3.4
 _ZNK11KIconEffect5applyERK7QPixmapifRK6QColorb@Base 4:4.3.4
 _ZNK11KIconEffect5applyERK7QPixmapii@Base 4:4.3.4
 _ZNK11KIconEffect9hasEffectEii@Base 4:4.3.4
 _ZNK11KIconLoader10hasContextENS_7ContextE@Base 4:4.3.4
 _ZNK11KIconLoader10iconEffectEv@Base 4:4.3.4
 _ZNK11KIconLoader10metaObjectEv@Base 4:4.3.4
 _ZNK11KIconLoader10queryIconsEiNS_7ContextE@Base 4:4.3.4
 _ZNK11KIconLoader11currentSizeENS_5GroupE@Base 4:4.3.4
 _ZNK11KIconLoader12drawOverlaysERK11QStringListR7QPixmapNS_5GroupEi@Base 4:4.7.0
 _ZNK11KIconLoader12loadAnimatedERK7QStringNS_5GroupEi@Base 4:4.3.4
 _ZNK11KIconLoader13alphaBlendingENS_5GroupE@Base 4:4.3.4
 _ZNK11KIconLoader15queryIconsByDirERK7QString@Base 4:4.3.4
 _ZNK11KIconLoader16loadMimeTypeIconERK7QStringNS_5GroupEiiRK11QStringListPS0_@Base 4:4.3.4
 _ZNK11KIconLoader19queryIconsByContextEiNS_7ContextE@Base 4:4.3.4
 _ZNK11KIconLoader23extraDesktopThemesAddedEv@Base 4:4.3.4
 _ZNK11KIconLoader5themeEv@Base 4:4.3.4
 _ZNK11KIconLoader8iconPathERK7QStringib@Base 4:4.3.4
 _ZNK11KIconLoader8loadIconERK7QStringNS_5GroupEiiRK11QStringListPS0_b@Base 4:4.3.4
 _ZNK11KIconLoader9loadMovieERK7QStringNS_5GroupEiP7QObject@Base 4:4.3.4
 _ZNK11KIconLoader9moviePathERK7QStringNS_5GroupEi@Base 4:4.3.4
 _ZNK11KImageCache10findPixmapERK7QStringP7QPixmap@Base 4:4.4.95
 _ZNK11KImageCache13pixmapCachingEv@Base 4:4.4.95
 _ZNK11KImageCache16lastModifiedTimeEv@Base 4:4.4.95
 _ZNK11KImageCache16pixmapCacheLimitEv@Base 4:4.5.85
 _ZNK11KImageCache7Private10metaObjectEv@Base 4:4.4.95
 _ZNK11KImageCache9findImageERK7QStringP6QImage@Base 4:4.4.95
 _ZNK11KIntSpinBox10metaObjectEv@Base 4:4.3.4
 _ZNK11KIntSpinBox13textFromValueEi@Base 4:4.3.4
 _ZNK11KIntSpinBox13valueFromTextERK7QString@Base 4:4.3.4
 _ZNK11KIntSpinBox4baseEv@Base 4:4.3.4
 _ZNK11KListWidget10metaObjectEv@Base 4:4.3.4
 _ZNK11KMainWindow10metaObjectEv@Base 4:4.3.4
 _ZNK11KMainWindow13autoSaveGroupEv@Base 4:4.3.4
 _ZNK11KMainWindow13settingsDirtyEv@Base 4:4.3.4
 _ZNK11KMainWindow14saveWindowSizeERK12KConfigGroup@Base 4:4.3.4
 _ZNK11KMainWindow16autoSaveSettingsEv@Base 4:4.3.4
 _ZNK11KMainWindow18initialGeometrySetEv@Base 4:4.3.4
 _ZNK11KMainWindow19autoSaveConfigGroupEv@Base 4:4.3.4
 _ZNK11KMainWindow8dbusNameEv@Base 4:4.3.4
 _ZNK11KMainWindow8toolBarsEv@Base 4:4.3.4
 _ZNK11KPageDialog10metaObjectEv@Base 4:4.3.4
 _ZNK11KPageDialog10pageWidgetEv@Base 4:4.3.4
 _ZNK11KPageDialog11currentPageEv@Base 4:4.3.4
 _ZNK11KPageWidget10metaObjectEv@Base 4:4.3.4
 _ZNK11KPageWidget11currentPageEv@Base 4:4.3.4
 _ZNK11KPlotObject10pointStyleEv@Base 4:4.3.4
 _ZNK11KPlotObject3penEv@Base 4:4.3.4
 _ZNK11KPlotObject4sizeEv@Base 4:4.3.4
 _ZNK11KPlotObject5brushEv@Base 4:4.3.4
 _ZNK11KPlotObject6barPenEv@Base 4:4.3.4
 _ZNK11KPlotObject6pointsEv@Base 4:4.3.4
 _ZNK11KPlotObject7linePenEv@Base 4:4.3.4
 _ZNK11KPlotObject8barBrushEv@Base 4:4.3.4
 _ZNK11KPlotObject8labelPenEv@Base 4:4.3.4
 _ZNK11KPlotObject9plotTypesEv@Base 4:4.3.4
 _ZNK11KPlotWidget10metaObjectEv@Base 4:4.3.4
 _ZNK11KPlotWidget10topPaddingEv@Base 4:4.3.4
 _ZNK11KPlotWidget11isGridShownEv@Base 4:4.3.4
 _ZNK11KPlotWidget11leftPaddingEv@Base 4:4.3.4
 _ZNK11KPlotWidget11mapToWidgetERK7QPointF@Base 4:4.3.4
 _ZNK11KPlotWidget11plotObjectsEv@Base 4:4.3.4
 _ZNK11KPlotWidget12antialiasingEv@Base 4:4.3.4
 _ZNK11KPlotWidget12rightPaddingEv@Base 4:4.3.4
 _ZNK11KPlotWidget13bottomPaddingEv@Base 4:4.3.4
 _ZNK11KPlotWidget15backgroundColorEv@Base 4:4.3.4
 _ZNK11KPlotWidget15foregroundColorEv@Base 4:4.3.4
 _ZNK11KPlotWidget15minimumSizeHintEv@Base 4:4.3.4
 _ZNK11KPlotWidget16pointsUnderPointERK6QPoint@Base 4:4.3.4
 _ZNK11KPlotWidget17secondaryDataRectEv@Base 4:4.3.4
 _ZNK11KPlotWidget20isObjectToolTipShownEv@Base 4:4.3.4
 _ZNK11KPlotWidget4axisENS_4AxisE@Base 4:4.3.4
 _ZNK11KPlotWidget7Private8rectCostERK6QRectF@Base 4:4.3.4
 _ZNK11KPlotWidget7pixRectEv@Base 4:4.3.4
 _ZNK11KPlotWidget8dataRectEv@Base 4:4.3.4
 _ZNK11KPlotWidget8sizeHintEv@Base 4:4.3.4
 _ZNK11KPlotWidget9gridColorEv@Base 4:4.3.4
 _ZNK11KPopupFrame10metaObjectEv@Base 4:4.3.4
 _ZNK11KPushButton10authActionEv@Base 4:4.4.0
 _ZNK11KPushButton10metaObjectEv@Base 4:4.3.4
 _ZNK11KPushButton13isDragEnabledEv@Base 4:4.3.4
 _ZNK11KPushButton7guiItemEv@Base 4:4.3.4
 _ZNK11KPushButton8sizeHintEv@Base 4:4.4.0
 _ZNK11KWindowInfo10windowRoleEv@Base 4:4.3.4
 _ZNK11KWindowInfo10windowTypeEi@Base 4:4.3.4
 _ZNK11KWindowInfo11groupLeaderEv@Base 4:4.3.4
 _ZNK11KWindowInfo11isMinimizedEv@Base 4:4.3.4
 _ZNK11KWindowInfo11isOnDesktopEi@Base 4:4.3.4
 _ZNK11KWindowInfo11visibleNameEv@Base 4:4.3.4
 _ZNK11KWindowInfo12mappingStateEv@Base 4:4.3.4
 _ZNK11KWindowInfo12transientForEv@Base 4:4.3.4
 _ZNK11KWindowInfo13clientMachineEv@Base 4:4.3.4
 _ZNK11KWindowInfo13extendedStrutEv@Base 4:4.3.4
 _ZNK11KWindowInfo13frameGeometryEv@Base 4:4.3.4
 _ZNK11KWindowInfo13onAllDesktopsEv@Base 4:4.3.4
 _ZNK11KWindowInfo15actionSupportedEN3NET6ActionE@Base 4:4.3.4
 _ZNK11KWindowInfo15visibleIconNameEv@Base 4:4.3.4
 _ZNK11KWindowInfo15windowClassNameEv@Base 4:4.3.4
 _ZNK11KWindowInfo16windowClassClassEv@Base 4:4.3.4
 _ZNK11KWindowInfo18isOnCurrentDesktopEv@Base 4:4.3.4
 _ZNK11KWindowInfo20visibleNameWithStateEv@Base 4:4.3.4
 _ZNK11KWindowInfo24visibleIconNameWithStateEv@Base 4:4.3.4
 _ZNK11KWindowInfo3winEv@Base 4:4.3.4
 _ZNK11KWindowInfo4nameEv@Base 4:4.3.4
 _ZNK11KWindowInfo5stateEv@Base 4:4.3.4
 _ZNK11KWindowInfo5validEb@Base 4:4.3.4
 _ZNK11KWindowInfo7desktopEv@Base 4:4.3.4
 _ZNK11KWindowInfo8geometryEv@Base 4:4.3.4
 _ZNK11KWindowInfo8hasStateEm@Base 4:4.3.4
 _ZNK11KWindowInfo8iconNameEv@Base 4:4.3.4
 _ZNK11KXYSelector10metaObjectEv@Base 4:4.3.4
 _ZNK11KXYSelector12contentsRectEv@Base 4:4.3.4
 _ZNK11KXYSelector15minimumSizeHintEv@Base 4:4.3.4
 _ZNK11KXYSelector18valuesFromPositionEiiRiS0_@Base 4:4.3.4
 _ZNK11KXYSelector6xValueEv@Base 4:4.3.4
 _ZNK11KXYSelector6yValueEv@Base 4:4.3.4
 _ZNK11NETRootInfo10clientListEv@Base 4:4.3.4
 _ZNK11NETRootInfo10rootWindowEv@Base 4:4.3.4
 _ZNK11NETRootInfo10x11DisplayEv@Base 4:4.3.4
 _ZNK11NETRootInfo11desktopNameEi@Base 4:4.3.4
 _ZNK11NETRootInfo11isSupportedEN3NET10WindowTypeE@Base 4:4.3.4
 _ZNK11NETRootInfo11isSupportedEN3NET5StateE@Base 4:4.3.4
 _ZNK11NETRootInfo11isSupportedEN3NET6ActionE@Base 4:4.3.4
 _ZNK11NETRootInfo11isSupportedEN3NET8PropertyE@Base 4:4.3.4
 _ZNK11NETRootInfo11isSupportedEN3NET9Property2E@Base 4:4.3.4
 _ZNK11NETRootInfo12activeWindowEv@Base 4:4.3.4
 _ZNK11NETRootInfo12screenNumberEv@Base 4:4.3.4
 _ZNK11NETRootInfo12virtualRootsEv@Base 4:4.3.4
 _ZNK11NETRootInfo13supportWindowEv@Base 4:4.3.4
 _ZNK11NETRootInfo14currentDesktopEb@Base 4:4.3.4
 _ZNK11NETRootInfo14showingDesktopEv@Base 4:4.3.4
 _ZNK11NETRootInfo15clientListCountEv@Base 4:4.3.4
 _ZNK11NETRootInfo15desktopGeometryEi@Base 4:4.3.4
 _ZNK11NETRootInfo15desktopViewportEi@Base 4:4.3.4
 _ZNK11NETRootInfo16numberOfDesktopsEb@Base 4:4.3.4
 _ZNK11NETRootInfo16passedPropertiesEv@Base 4:4.3.4
 _ZNK11NETRootInfo17virtualRootsCountEv@Base 4:4.3.4
 _ZNK11NETRootInfo18clientListStackingEv@Base 4:4.3.4
 _ZNK11NETRootInfo19desktopLayoutCornerEv@Base 4:4.3.4
 _ZNK11NETRootInfo19supportedPropertiesEv@Base 4:4.3.4
 _ZNK11NETRootInfo23clientListStackingCountEv@Base 4:4.3.4
 _ZNK11NETRootInfo24desktopLayoutColumnsRowsEv@Base 4:4.3.4
 _ZNK11NETRootInfo24desktopLayoutOrientationEv@Base 4:4.3.4
 _ZNK11NETRootInfo6wmNameEv@Base 4:4.3.4
 _ZNK11NETRootInfo8workAreaEi@Base 4:4.3.4
 _ZNK11NETWinInfo218fullscreenMonitorsEv@Base 4:4.3.4
 _ZNK12KApplication10metaObjectEv@Base 4:4.3.4
 _ZNK12KApplication13sessionSavingEv@Base 4:4.3.4
 _ZNK12KApplication13userTimestampEv@Base 4:4.3.4
 _ZNK12KApplication9startupIdEv@Base 4:4.3.4
 _ZNK12KArrowButton10metaObjectEv@Base 4:4.3.4
 _ZNK12KArrowButton8sizeHintEv@Base 4:4.3.4
 _ZNK12KArrowButton9arrowTypeEv@Base 4:4.3.4
 _ZNK12KButtonGroup10metaObjectEv@Base 4:4.3.4
 _ZNK12KButtonGroup2idEP15QAbstractButton@Base 4:4.3.4
 _ZNK12KButtonGroup8selectedEv@Base 4:4.3.4
 _ZNK12KCapacityBar10continuousEv@Base 4:4.3.4
 _ZNK12KCapacityBar10metaObjectEv@Base 4:4.4.0
 _ZNK12KCapacityBar12drawTextModeEv@Base 4:4.4.0
 _ZNK12KCapacityBar14fillFullBlocksEv@Base 4:4.3.4
 _ZNK12KCapacityBar15drawCapacityBarEP8QPainterRK5QRect@Base 4:4.3.4
 _ZNK12KCapacityBar15minimumSizeHintEv@Base 4:4.3.4
 _ZNK12KCapacityBar23horizontalTextAlignmentEv@Base 4:4.3.4
 _ZNK12KCapacityBar4textEv@Base 4:4.3.4
 _ZNK12KCapacityBar5valueEv@Base 4:4.3.4
 _ZNK12KCapacityBar9barHeightEv@Base 4:4.3.4
 _ZNK12KCodecAction10metaObjectEv@Base 4:4.3.4
 _ZNK12KCodecAction10mibForNameERK7QStringPb@Base 4:4.3.4
 _ZNK12KCodecAction11codecForMibEi@Base 4:4.3.4
 _ZNK12KCodecAction12currentCodecEv@Base 4:4.3.4
 _ZNK12KCodecAction15currentCodecMibEv@Base 4:4.3.4
 _ZNK12KCodecAction16currentCodecNameEv@Base 4:4.3.4
 _ZNK12KCodecAction23currentAutoDetectScriptEv@Base 4:4.3.4
 _ZNK12KColorButton10metaObjectEv@Base 4:4.3.4
 _ZNK12KColorButton12defaultColorEv@Base 4:4.3.4
 _ZNK12KColorButton15minimumSizeHintEv@Base 4:4.3.4
 _ZNK12KColorButton19KColorButtonPrivate15initStyleOptionEP18QStyleOptionButton@Base 4:4.3.4
 _ZNK12KColorButton21isAlphaChannelEnabledEv@Base 4:4.4.95
 _ZNK12KColorButton5colorEv@Base 4:4.3.4
 _ZNK12KColorButton8sizeHintEv@Base 4:4.3.4
 _ZNK12KColorDialog10metaObjectEv@Base 4:4.3.4
 _ZNK12KColorDialog12defaultColorEv@Base 4:4.3.4
 _ZNK12KColorDialog21isAlphaChannelEnabledEv@Base 4:4.4.95
 _ZNK12KColorDialog5colorEv@Base 4:4.3.4
 _ZNK12KColorScheme10backgroundENS_14BackgroundRoleE@Base 4:4.3.4
 _ZNK12KColorScheme10decorationENS_14DecorationRoleE@Base 4:4.3.4
 _ZNK12KColorScheme10foregroundENS_14ForegroundRoleE@Base 4:4.3.4
 _ZNK12KColorScheme5shadeENS_9ShadeRoleE@Base 4:4.3.4
 _ZNK12KConfigGroup9readCheckIbEET_PKcRKS1_@Base 4:4.6.2
 _ZNK12KEditListBox10downButtonEv@Base 4:4.3.4
 _ZNK12KEditListBox10metaObjectEv@Base 4:4.3.4
 _ZNK12KEditListBox11currentItemEv@Base 4:4.3.4
 _ZNK12KEditListBox11currentTextEv@Base 4:4.3.4
 _ZNK12KEditListBox12CustomEditor20representationWidgetEv@Base 4:4.3.4
 _ZNK12KEditListBox12CustomEditor8lineEditEv@Base 4:4.3.4
 _ZNK12KEditListBox12removeButtonEv@Base 4:4.3.4
 _ZNK12KEditListBox4textEi@Base 4:4.3.4
 _ZNK12KEditListBox5countEv@Base 4:4.3.4
 _ZNK12KEditListBox5itemsEv@Base 4:4.3.4
 _ZNK12KEditListBox7buttonsEv@Base 4:4.3.4
 _ZNK12KEditListBox8lineEditEv@Base 4:4.3.4
 _ZNK12KEditListBox8listViewEv@Base 4:4.3.4
 _ZNK12KEditListBox8upButtonEv@Base 4:4.3.4
 _ZNK12KEditListBox9addButtonEv@Base 4:4.3.4
 _ZNK12KEditToolBar10metaObjectEv@Base 4:4.3.4
 _ZNK12KFontChooser10metaObjectEv@Base 4:4.3.4
 _ZNK12KFontChooser10sampleTextEv@Base 4:4.3.4
 _ZNK12KFontChooser13fontDiffFlagsEv@Base 4:4.3.4
 _ZNK12KFontChooser14sizeIsRelativeEv@Base 4:4.3.4
 _ZNK12KFontChooser15backgroundColorEv@Base 4:4.3.4
 _ZNK12KFontChooser4fontEv@Base 4:4.3.4
 _ZNK12KFontChooser5colorEv@Base 4:4.3.4
 _ZNK12KFontChooser8sizeHintEv@Base 4:4.3.4
 _ZNK12KGlobalAccel10metaObjectEv@Base 4:4.3.4
 _ZNK12KGlobalAccel9isEnabledEv@Base 4:4.3.4
 _ZNK12KIntNumInput10metaObjectEv@Base 4:4.3.4
 _ZNK12KIntNumInput10singleStepEv@Base 4:4.3.4
 _ZNK12KIntNumInput13relativeValueEv@Base 4:4.3.4
 _ZNK12KIntNumInput14referencePointEv@Base 4:4.3.4
 _ZNK12KIntNumInput15minimumSizeHintEv@Base 4:4.3.4
 _ZNK12KIntNumInput16specialValueTextEv@Base 4:4.3.4
 _ZNK12KIntNumInput5valueEv@Base 4:4.3.4
 _ZNK12KIntNumInput6prefixEv@Base 4:4.3.4
 _ZNK12KIntNumInput6suffixEv@Base 4:4.3.4
 _ZNK12KIntNumInput7maximumEv@Base 4:4.3.4
 _ZNK12KIntNumInput7minimumEv@Base 4:4.3.4
 _ZNK12KIntNumInput7spinBoxEv@Base 4:4.3.4
 _ZNK12KMultiTabBar10metaObjectEv@Base 4:4.3.4
 _ZNK12KMultiTabBar11isTabRaisedEi@Base 4:4.3.4
 _ZNK12KMultiTabBar3tabEi@Base 4:4.3.4
 _ZNK12KMultiTabBar6buttonEi@Base 4:4.3.4
 _ZNK12KMultiTabBar8positionEv@Base 4:4.3.4
 _ZNK12KMultiTabBar8tabStyleEv@Base 4:4.3.4
 _ZNK12KPixmapCache10cacheLimitEv@Base 4:4.3.4
 _ZNK12KPixmapCache12ensureInitedEv@Base 4:4.3.4
 _ZNK12KPixmapCache15useQPixmapCacheEv@Base 4:4.3.4
 _ZNK12KPixmapCache19removeEntryStrategyEv@Base 4:4.3.4
 _ZNK12KPixmapCache4sizeEv@Base 4:4.3.4
 _ZNK12KPixmapCache7Private6qpcKeyERK7QString@Base 4:4.4.0
 _ZNK12KPixmapCache7isValidEv@Base 4:4.3.4
 _ZNK12KPixmapCache9isEnabledEv@Base 4:4.3.4
 _ZNK12KPixmapCache9timestampEv@Base 4:4.3.4
 _ZNK12KStartupInfo10metaObjectEv@Base 4:4.3.4
 _ZNK12KSvgRenderer10metaObjectEv@Base 4:4.3.4
 _ZNK12KTextBrowser10metaObjectEv@Base 4:4.3.4
 _ZNK12KTextBrowser13isNotifyClickEv@Base 4:4.3.4
 _ZNK12KTipDatabase3tipEv@Base 4:4.3.4
 _ZNK12KTitleWidget10metaObjectEv@Base 4:4.3.4
 _ZNK12KTitleWidget15autoHideTimeoutEv@Base 4:4.3.4
 _ZNK12KTitleWidget4textEv@Base 4:4.3.4
 _ZNK12KTitleWidget6pixmapEv@Base 4:4.3.4
 _ZNK12KTitleWidget7commentEv@Base 4:4.3.4
 _ZNK13KConfigDialog10metaObjectEv@Base 4:4.3.4
 _ZNK13KDateComboBox10metaObjectEv@Base 4:4.7.0
 _ZNK13KDateComboBox11maximumDateEv@Base 4:4.7.0
 _ZNK13KDateComboBox11minimumDateEv@Base 4:4.7.0
 _ZNK13KDateComboBox13displayFormatEv@Base 4:4.7.0
 _ZNK13KDateComboBox14calendarSystemEv@Base 4:4.7.0
 _ZNK13KDateComboBox4dateEv@Base 4:4.7.0
 _ZNK13KDateComboBox6isNullEv@Base 4:4.7.0
 _ZNK13KDateComboBox7dateMapEv@Base 4:4.7.0
 _ZNK13KDateComboBox7isValidEv@Base 4:4.7.0
 _ZNK13KDateComboBox7optionsEv@Base 4:4.7.0
 _ZNK13KDateComboBox8calendarEv@Base 4:4.7.0
 _ZNK13KDateTimeEdit10isNullDateEv@Base 4:4.7.0
 _ZNK13KDateTimeEdit10isNullTimeEv@Base 4:4.7.0
 _ZNK13KDateTimeEdit10metaObjectEv@Base 4:4.7.0
 _ZNK13KDateTimeEdit11isValidDateEv@Base 4:4.7.0
 _ZNK13KDateTimeEdit11isValidTimeEv@Base 4:4.7.0
 _ZNK13KDateTimeEdit14calendarSystemEv@Base 4:4.7.0
 _ZNK13KDateTimeEdit15maximumDateTimeEv@Base 4:4.7.0
 _ZNK13KDateTimeEdit15minimumDateTimeEv@Base 4:4.7.0
 _ZNK13KDateTimeEdit16timeListIntervalEv@Base 4:4.7.0
 _ZNK13KDateTimeEdit17dateDisplayFormatEv@Base 4:4.7.0
 _ZNK13KDateTimeEdit17timeDisplayFormatEv@Base 4:4.7.0
 _ZNK13KDateTimeEdit19calendarSystemsListEv@Base 4:4.7.0
 _ZNK13KDateTimeEdit4dateEv@Base 4:4.7.0
 _ZNK13KDateTimeEdit4timeEv@Base 4:4.7.0
 _ZNK13KDateTimeEdit6isNullEv@Base 4:4.7.0
 _ZNK13KDateTimeEdit7dateMapEv@Base 4:4.7.0
 _ZNK13KDateTimeEdit7isValidEv@Base 4:4.7.0
 _ZNK13KDateTimeEdit7optionsEv@Base 4:4.7.0
 _ZNK13KDateTimeEdit8dateTimeEv@Base 4:4.7.0
 _ZNK13KDateTimeEdit8timeListEv@Base 4:4.7.0
 _ZNK13KDateTimeEdit8timeSpecEv@Base 4:4.7.0
 _ZNK13KDateTimeEdit9timeZonesEv@Base 4:4.7.0
 _ZNK13KFontComboBox10metaObjectEv@Base 4:4.3.4
 _ZNK13KFontComboBox11currentFontEv@Base 4:4.3.4
 _ZNK13KFontComboBox8sizeHintEv@Base 4:4.3.4
 _ZNK13KIntValidator3topEv@Base 4:4.3.4
 _ZNK13KIntValidator4baseEv@Base 4:4.3.4
 _ZNK13KIntValidator5fixupER7QString@Base 4:4.3.4
 _ZNK13KIntValidator6bottomEv@Base 4:4.3.4
 _ZNK13KIntValidator8validateER7QStringRi@Base 4:4.3.4
 _ZNK13KNotification10metaObjectEv@Base 4:4.3.4
 _ZNK13KNotification4textEv@Base 4:4.3.4
 _ZNK13KNotification5flagsEv@Base 4:4.3.4
 _ZNK13KNotification5titleEv@Base 4:4.3.4
 _ZNK13KNotification6pixmapEv@Base 4:4.3.4
 _ZNK13KNotification6widgetEv@Base 4:4.3.4
 _ZNK13KNotification7actionsEv@Base 4:4.3.4
 _ZNK13KNotification7eventIdEv@Base 4:4.3.4
 _ZNK13KNotification8contextsEv@Base 4:4.3.4
 _ZNK13KPassivePopup10autoDeleteEv@Base 4:4.3.4
 _ZNK13KPassivePopup10metaObjectEv@Base 4:4.3.4
 _ZNK13KPassivePopup11defaultAreaEv@Base 4:4.3.4
 _ZNK13KPassivePopup4viewEv@Base 4:4.3.4
 _ZNK13KPassivePopup6anchorEv@Base 4:4.3.4
 _ZNK13KPassivePopup7timeoutEv@Base 4:4.3.4
 _ZNK13KRatingWidget10metaObjectEv@Base 4:4.5.85
 _ZNK13KRatingWidget15layoutDirectionEv@Base 4:4.5.85
 _ZNK13KRatingWidget16halfStepsEnabledEv@Base 4:4.5.85
 _ZNK13KRatingWidget4iconEv@Base 4:4.5.85
 _ZNK13KRatingWidget6ratingEv@Base 4:4.5.85
 _ZNK13KRatingWidget7spacingEv@Base 4:4.5.85
 _ZNK13KRatingWidget8sizeHintEv@Base 4:4.5.85
 _ZNK13KRatingWidget9alignmentEv@Base 4:4.5.85
 _ZNK13KRatingWidget9maxRatingEv@Base 4:4.5.85
 _ZNK13KRichTextEdit10metaObjectEv@Base 4:4.3.4
 _ZNK13KRichTextEdit10textOrHtmlEv@Base 4:4.3.4
 _ZNK13KRichTextEdit11toCleanHtmlEv@Base 4:4.3.4
 _ZNK13KRichTextEdit13canDedentListEv@Base 4:4.3.4
 _ZNK13KRichTextEdit13canIndentListEv@Base 4:4.3.4
 _ZNK13KRichTextEdit14currentLinkUrlEv@Base 4:4.3.4
 _ZNK13KRichTextEdit14selectLinkTextEP11QTextCursor@Base 4:4.3.4
 _ZNK13KRichTextEdit14selectLinkTextEv@Base 4:4.3.4
 _ZNK13KRichTextEdit15currentLinkTextEv@Base 4:4.3.4
 _ZNK13KRichTextEdit8textModeEv@Base 4:4.3.4
 _ZNK13KSelectAction10comboWidthEv@Base 4:4.3.4
 _ZNK13KSelectAction10isEditableEv@Base 4:4.3.4
 _ZNK13KSelectAction10metaObjectEv@Base 4:4.3.4
 _ZNK13KSelectAction11currentItemEv@Base 4:4.3.4
 _ZNK13KSelectAction11currentTextEv@Base 4:4.3.4
 _ZNK13KSelectAction11toolBarModeEv@Base 4:4.3.4
 _ZNK13KSelectAction13currentActionEv@Base 4:4.3.4
 _ZNK13KSelectAction17menuAccelsEnabledEv@Base 4:4.3.4
 _ZNK13KSelectAction19toolButtonPopupModeEv@Base 4:4.3.4
 _ZNK13KSelectAction21selectableActionGroupEv@Base 4:4.3.4
 _ZNK13KSelectAction5itemsEv@Base 4:4.3.4
 _ZNK13KSelectAction6actionERK7QStringN2Qt15CaseSensitivityE@Base 4:4.3.4
 _ZNK13KSelectAction6actionEi@Base 4:4.3.4
 _ZNK13KSelectAction7actionsEv@Base 4:4.3.4
 _ZNK13KShapeGesture5toSvgERK7QString@Base 4:4.3.4
 _ZNK13KShapeGesture7isValidEv@Base 4:4.3.4
 _ZNK13KShapeGesture8distanceERKS_f@Base 4:4.3.4
 _ZNK13KShapeGesture8hashableEv@Base 4:4.3.4
 _ZNK13KShapeGesture8toStringEv@Base 4:4.3.4
 _ZNK13KShapeGesture9shapeNameEv@Base 4:4.3.4
 _ZNK13KShapeGestureeqERKS_@Base 4:4.3.4
 _ZNK13KShapeGestureneERKS_@Base 4:4.3.4
 _ZNK13KSplashScreen10metaObjectEv@Base 4:4.3.4
 _ZNK13KTimeComboBox10metaObjectEv@Base 4:4.7.0
 _ZNK13KTimeComboBox11maximumTimeEv@Base 4:4.7.0
 _ZNK13KTimeComboBox11minimumTimeEv@Base 4:4.7.0
 _ZNK13KTimeComboBox13displayFormatEv@Base 4:4.7.0
 _ZNK13KTimeComboBox16timeListIntervalEv@Base 4:4.7.0
 _ZNK13KTimeComboBox4timeEv@Base 4:4.7.0
 _ZNK13KTimeComboBox6isNullEv@Base 4:4.7.0
 _ZNK13KTimeComboBox7isValidEv@Base 4:4.7.0
 _ZNK13KTimeComboBox7optionsEv@Base 4:4.7.0
 _ZNK13KTimeComboBox8timeListEv@Base 4:4.7.0
 _ZNK13KToggleAction10metaObjectEv@Base 4:4.3.4
 _ZNK13KWindowSystem10metaObjectEv@Base 4:4.3.4
 _ZNK13KXMLGUIClient11domDocumentEv@Base 4:4.3.4
 _ZNK13KXMLGUIClient12localXMLFileEv@Base 4:4.3.4
 _ZNK13KXMLGUIClient12parentClientEv@Base 4:4.3.4
 _ZNK13KXMLGUIClient13clientBuilderEv@Base 4:4.3.4
 _ZNK13KXMLGUIClient13componentDataEv@Base 4:4.3.4
 _ZNK13KXMLGUIClient16actionCollectionEv@Base 4:4.3.4
 _ZNK13KXMLGUIClient19xmlguiBuildDocumentEv@Base 4:4.3.4
 _ZNK13KXMLGUIClient6actionEPKc@Base 4:4.3.4
 _ZNK13KXMLGUIClient6actionERK11QDomElement@Base 4:4.3.4
 _ZNK13KXMLGUIClient7factoryEv@Base 4:4.3.4
 _ZNK13KXMLGUIClient7xmlFileEv@Base 4:4.3.4
 _ZNK13KXmlGuiWindow10metaObjectEv@Base 4:4.3.4
 _ZNK13KXmlGuiWindow17isHelpMenuEnabledEv@Base 4:4.3.4
 _ZNK13KXmlGuiWindow28isStandardToolBarMenuEnabledEv@Base 4:4.3.4
 _ZNK14KCompletionBox10metaObjectEv@Base 4:4.3.4
 _ZNK14KCompletionBox13cancelledTextEv@Base 4:4.3.4
 _ZNK14KCompletionBox13isTabHandlingEv@Base 4:4.3.4
 _ZNK14KCompletionBox16activateOnSelectEv@Base 4:4.3.4
 _ZNK14KCompletionBox17calculateGeometryEv@Base 4:4.3.4
 _ZNK14KCompletionBox18globalPositionHintEv@Base 4:4.3.4
 _ZNK14KCompletionBox5itemsEv@Base 4:4.3.4
 _ZNK14KCompletionBox8sizeHintEv@Base 4:4.3.4
 _ZNK14KDateValidator4dateERK7QStringR5QDate@Base 4:4.3.4
 _ZNK14KDateValidator5fixupER7QString@Base 4:4.3.4
 _ZNK14KDateValidator8validateER7QStringRi@Base 4:4.3.4
 _ZNK14KFontRequester10metaObjectEv@Base 4:4.3.4
 _ZNK14KFontRequester10sampleTextEv@Base 4:4.3.4
 _ZNK14KFontRequester11isFixedOnlyEv@Base 4:4.3.4
 _ZNK14KFontRequester4fontEv@Base 4:4.3.4
 _ZNK14KFontRequester5labelEv@Base 4:4.3.4
 _ZNK14KFontRequester5titleEv@Base 4:4.3.4
 _ZNK14KFontRequester6buttonEv@Base 4:4.3.4
 _ZNK14KMessageWidget10metaObjectEv@Base 4:4.7.0
 _ZNK14KMessageWidget11messageTypeEv@Base 4:4.7.0
 _ZNK14KMessageWidget14heightForWidthEi@Base 4:4.8.4
 _ZNK14KMessageWidget15minimumSizeHintEv@Base 4:4.7.0
 _ZNK14KMessageWidget20isCloseButtonVisibleEv@Base 4:4.7.0
 _ZNK14KMessageWidget4textEv@Base 4:4.7.0
 _ZNK14KMessageWidget8sizeHintEv@Base 4:4.7.0
 _ZNK14KMessageWidget8wordWrapEv@Base 4:4.7.0
 _ZNK14KRatingPainter12customPixmapEv@Base 4:4.5.85
 _ZNK14KRatingPainter15layoutDirectionEv@Base 4:4.5.85
 _ZNK14KRatingPainter16halfStepsEnabledEv@Base 4:4.5.85
 _ZNK14KRatingPainter18ratingFromPositionERK5QRectRK6QPoint@Base 4:4.5.85
 _ZNK14KRatingPainter4iconEv@Base 4:4.5.85
 _ZNK14KRatingPainter5paintEP8QPainterRK5QRectii@Base 4:4.5.85
 _ZNK14KRatingPainter7spacingEv@Base 4:4.5.85
 _ZNK14KRatingPainter9alignmentEv@Base 4:4.5.85
 _ZNK14KRatingPainter9isEnabledEv@Base 4:4.5.85
 _ZNK14KRatingPainter9maxRatingEv@Base 4:4.5.85
 _ZNK14KReplaceDialog10metaObjectEv@Base 4:4.3.4
 _ZNK14KReplaceDialog11replacementEv@Base 4:4.3.4
 _ZNK14KReplaceDialog16replaceExtensionEv@Base 4:4.3.4
 _ZNK14KReplaceDialog18replacementHistoryEv@Base 4:4.3.4
 _ZNK14KReplaceDialog7optionsEv@Base 4:4.3.4
 _ZNK14KRockerGesture10getButtonsEPN2Qt11MouseButtonES2_@Base 4:4.3.4
 _ZNK14KRockerGesture10rockerNameEv@Base 4:4.3.4
 _ZNK14KRockerGesture7isValidEv@Base 4:4.3.4
 _ZNK14KRockerGesture8hashableEv@Base 4:4.3.4
 _ZNK14KRockerGesture8toStringEv@Base 4:4.3.4
 _ZNK14KRockerGestureeqERKS_@Base 4:4.3.4
 _ZNK14KRockerGestureneERKS_@Base 4:4.3.4
 _ZNK14KStartupInfoId15setupStartupEnvEv@Base 4:4.3.4
 _ZNK14KStartupInfoId2idEv@Base 4:4.3.4
 _ZNK14KStartupInfoId4noneEv@Base 4:4.3.4
 _ZNK14KStartupInfoId7Private7to_textEv@Base 4:4.3.4
 _ZNK14KStartupInfoId9timestampEv@Base 4:4.3.4
 _ZNK14KStartupInfoIdeqERKS_@Base 4:4.3.4
 _ZNK14KStartupInfoIdltERKS_@Base 4:4.3.4
 _ZNK14KStartupInfoIdneERKS_@Base 4:4.3.4
 _ZNK14KStatefulBrush5brushEN8QPalette10ColorGroupE@Base 4:4.3.4
 _ZNK14KStatefulBrush5brushEPK7QWidget@Base 4:4.3.4
 _ZNK14KStatefulBrush5brushERK8QPalette@Base 4:4.3.4
 _ZNK14KXErrorHandler10errorEventEv@Base 4:4.3.4
 _ZNK14KXErrorHandler5errorEb@Base 4:4.3.4
 _ZNK14KXMLGUIBuilder10customTagsEv@Base 4:4.3.4
 _ZNK14KXMLGUIBuilder13builderClientEv@Base 4:4.3.4
 _ZNK14KXMLGUIBuilder13containerTagsEv@Base 4:4.3.4
 _ZNK14KXMLGUIBuilder20builderComponentDataEv@Base 4:4.3.4
 _ZNK14KXMLGUIFactory10metaObjectEv@Base 4:4.3.4
 _ZNK14KXMLGUIFactory7clientsEv@Base 4:4.3.4
 _ZNK15KActionCategory10collectionEv@Base 4:4.3.4
 _ZNK15KActionCategory10metaObjectEv@Base 4:4.3.4
 _ZNK15KActionCategory4textEv@Base 4:4.3.4
 _ZNK15KActionCategory7actionsEv@Base 4:4.3.4
 _ZNK15KActionSelector10metaObjectEv@Base 4:4.3.4
 _ZNK15KActionSelector13selectedLabelEv@Base 4:4.3.4
 _ZNK15KActionSelector14availableLabelEv@Base 4:4.3.4
 _ZNK15KActionSelector15keyboardEnabledEv@Base 4:4.3.4
 _ZNK15KActionSelector17moveOnDoubleClickEv@Base 4:4.3.4
 _ZNK15KActionSelector17showUpDownButtonsEv@Base 4:4.3.4
 _ZNK15KActionSelector18selectedListWidgetEv@Base 4:4.3.4
 _ZNK15KActionSelector19availableListWidgetEv@Base 4:4.3.4
 _ZNK15KActionSelector23selectedInsertionPolicyEv@Base 4:4.3.4
 _ZNK15KActionSelector24availableInsertionPolicyEv@Base 4:4.3.4
 _ZNK15KAnimatedButton10metaObjectEv@Base 4:4.3.4
 _ZNK15KAnimatedButton14iconDimensionsEv@Base 4:4.3.4
 _ZNK15KAnimatedButton5iconsEv@Base 4:4.3.4
 _ZNK15KCategoryDrawer10leftMarginEv@Base 4:4.4.0
 _ZNK15KCategoryDrawer11rightMarginEv@Base 4:4.4.0
 _ZNK15KCategoryDrawer12drawCategoryERK11QModelIndexiRK12QStyleOptionP8QPainter@Base 4:4.3.4
 _ZNK15KCategoryDrawer14categoryHeightERK11QModelIndexRK12QStyleOption@Base 4:4.3.4
 _ZNK15KCompletionBase11emitSignalsEv@Base 4:4.3.4
 _ZNK15KCompletionBase13getKeyBindingENS_14KeyBindingTypeE@Base 4:4.3.4
 _ZNK15KCompletionBase13handleSignalsEv@Base 4:4.3.4
 _ZNK15KCompletionBase14completionModeEv@Base 4:4.3.4
 _ZNK15KCompletionBase14getKeyBindingsEv@Base 4:4.3.4
 _ZNK15KCompletionBase29isCompletionObjectAutoDeletedEv@Base 4:4.3.4
 _ZNK15KCompletionBase7compObjEv@Base 4:4.3.4
 _ZNK15KCompletionBase8delegateEv@Base 4:4.3.4
 _ZNK15KConfigSkeleton10metaObjectEv@Base 4:4.3.4
 _ZNK15KConfigSkeleton8ItemFont7isEqualERK8QVariant@Base 4:4.3.4
 _ZNK15KConfigSkeleton8ItemFont8propertyEv@Base 4:4.3.4
 _ZNK15KConfigSkeleton9ItemColor7isEqualERK8QVariant@Base 4:4.3.4
 _ZNK15KConfigSkeleton9ItemColor8propertyEv@Base 4:4.3.4
 _ZNK15KDateTimeWidget10metaObjectEv@Base 4:4.3.4
 _ZNK15KDateTimeWidget8dateTimeEv@Base 4:4.3.4
 _ZNK15KDoubleNumInput10metaObjectEv@Base 4:4.3.4
 _ZNK15KDoubleNumInput10singleStepEv@Base 4:4.3.4
 _ZNK15KDoubleNumInput13exponentRatioEv@Base 4:4.3.4
 _ZNK15KDoubleNumInput13relativeValueEv@Base 4:4.3.4
 _ZNK15KDoubleNumInput14referencePointEv@Base 4:4.3.4
 _ZNK15KDoubleNumInput15mapSliderToSpinEi@Base 4:4.3.4
 _ZNK15KDoubleNumInput15minimumSizeHintEv@Base 4:4.3.4
 _ZNK15KDoubleNumInput16specialValueTextEv@Base 4:4.3.4
 _ZNK15KDoubleNumInput5valueEv@Base 4:4.3.4
 _ZNK15KDoubleNumInput6prefixEv@Base 4:4.3.4
 _ZNK15KDoubleNumInput6suffixEv@Base 4:4.3.4
 _ZNK15KDoubleNumInput7maximumEv@Base 4:4.3.4
 _ZNK15KDoubleNumInput7minimumEv@Base 4:4.3.4
 _ZNK15KDoubleNumInput8decimalsEv@Base 4:4.3.4
 _ZNK15KEditListWidget10downButtonEv@Base 4:4.5.85
 _ZNK15KEditListWidget10metaObjectEv@Base 4:4.5.85
 _ZNK15KEditListWidget11currentItemEv@Base 4:4.5.85
 _ZNK15KEditListWidget11currentTextEv@Base 4:4.5.85
 _ZNK15KEditListWidget12CustomEditor20representationWidgetEv@Base 4:4.5.85
 _ZNK15KEditListWidget12CustomEditor8lineEditEv@Base 4:4.5.85
 _ZNK15KEditListWidget12removeButtonEv@Base 4:4.5.85
 _ZNK15KEditListWidget4textEi@Base 4:4.5.85
 _ZNK15KEditListWidget5countEv@Base 4:4.5.85
 _ZNK15KEditListWidget5itemsEv@Base 4:4.5.85
 _ZNK15KEditListWidget7buttonsEv@Base 4:4.5.85
 _ZNK15KEditListWidget8lineEditEv@Base 4:4.5.85
 _ZNK15KEditListWidget8listViewEv@Base 4:4.5.85
 _ZNK15KEditListWidget8upButtonEv@Base 4:4.5.85
 _ZNK15KEditListWidget9addButtonEv@Base 4:4.5.85
 _ZNK15KFloatValidator22acceptLocalizedNumbersEv@Base 4:4.3.4
 _ZNK15KFloatValidator3topEv@Base 4:4.3.4
 _ZNK15KFloatValidator5fixupER7QString@Base 4:4.3.4
 _ZNK15KFloatValidator6bottomEv@Base 4:4.3.4
 _ZNK15KFloatValidator8validateER7QStringRi@Base 4:4.3.4
 _ZNK15KFontSizeAction10metaObjectEv@Base 4:4.3.4
 _ZNK15KFontSizeAction8fontSizeEv@Base 4:4.3.4
 _ZNK15KGlobalSettings10metaObjectEv@Base 4:4.3.4
 _ZNK15KLanguageButton10metaObjectEv@Base 4:4.3.4
 _ZNK15KLanguageButton5countEv@Base 4:4.3.4
 _ZNK15KLanguageButton7currentEv@Base 4:4.3.4
 _ZNK15KLanguageButton8containsERK7QString@Base 4:4.3.4
 _ZNK15KMultiTabBarTab10iconPixmapEv@Base 4:4.3.4
 _ZNK15KMultiTabBarTab10isVerticalEv@Base 4:4.3.4
 _ZNK15KMultiTabBarTab10metaObjectEv@Base 4:4.3.4
 _ZNK15KMultiTabBarTab14computeMarginsEPiS0_@Base 4:4.3.4
 _ZNK15KMultiTabBarTab14shouldDrawTextEv@Base 4:4.3.4
 _ZNK15KMultiTabBarTab15computeSizeHintEb@Base 4:4.3.4
 _ZNK15KMultiTabBarTab15initStyleOptionEP22QStyleOptionToolButton@Base 4:4.3.4
 _ZNK15KMultiTabBarTab15minimumSizeHintEv@Base 4:4.3.4
 _ZNK15KMultiTabBarTab8sizeHintEv@Base 4:4.3.4
 _ZNK15KPageWidgetItem10metaObjectEv@Base 4:4.3.4
 _ZNK15KPageWidgetItem11isCheckableEv@Base 4:4.3.4
 _ZNK15KPageWidgetItem4iconEv@Base 4:4.3.4
 _ZNK15KPageWidgetItem4nameEv@Base 4:4.3.4
 _ZNK15KPageWidgetItem6headerEv@Base 4:4.3.4
 _ZNK15KPageWidgetItem6widgetEv@Base 4:4.3.4
 _ZNK15KPageWidgetItem9isCheckedEv@Base 4:4.3.4
 _ZNK15KPageWidgetItem9isEnabledEv@Base 4:4.3.4
 _ZNK15KPasswordDialog10metaObjectEv@Base 4:4.3.4
 _ZNK15KPasswordDialog12keepPasswordEv@Base 4:4.3.4
 _ZNK15KPasswordDialog13anonymousModeEv@Base 4:4.3.4
 _ZNK15KPasswordDialog6domainEv@Base 4:4.3.4
 _ZNK15KPasswordDialog6pixmapEv@Base 4:4.3.4
 _ZNK15KPasswordDialog6promptEv@Base 4:4.3.4
 _ZNK15KPasswordDialog8passwordEv@Base 4:4.3.4
 _ZNK15KPasswordDialog8usernameEv@Base 4:4.3.4
 _ZNK15KPixmapSequence10frameCountEv@Base 4:4.4.0
 _ZNK15KPixmapSequence7frameAtEi@Base 4:4.4.0
 _ZNK15KPixmapSequence7isEmptyEv@Base 4:4.4.0
 _ZNK15KPixmapSequence7isValidEv@Base 4:4.4.0
 _ZNK15KPixmapSequence9frameSizeEv@Base 4:4.4.0
 _ZNK15KProgressDialog10buttonTextEv@Base 4:4.3.4
 _ZNK15KProgressDialog10metaObjectEv@Base 4:4.3.4
 _ZNK15KProgressDialog11allowCancelEv@Base 4:4.3.4
 _ZNK15KProgressDialog11progressBarEv@Base 4:4.3.4
 _ZNK15KProgressDialog12wasCancelledEv@Base 4:4.3.4
 _ZNK15KProgressDialog15minimumDurationEv@Base 4:4.3.4
 _ZNK15KProgressDialog9autoCloseEv@Base 4:4.3.4
 _ZNK15KProgressDialog9autoResetEv@Base 4:4.3.4
 _ZNK15KProgressDialog9labelTextEv@Base 4:4.3.4
 _ZNK15KRestrictedLine10metaObjectEv@Base 4:4.3.4
 _ZNK15KRestrictedLine10validCharsEv@Base 4:4.3.4
 _ZNK15KRichTextWidget10metaObjectEv@Base 4:4.3.4
 _ZNK15KRichTextWidget15richTextSupportEv@Base 4:4.3.4
 _ZNK15KSelectionOwner10metaObjectEv@Base 4:4.3.4
 _ZNK15KSelectionOwner11ownerWindowEv@Base 4:4.3.4
 _ZNK15KShortcutWidget10metaObjectEv@Base 4:4.3.4
 _ZNK15KShortcutWidget8shortcutEv@Base 4:4.3.4
 _ZNK15KSystemTrayIcon10metaObjectEv@Base 4:4.3.4
 _ZNK15KSystemTrayIcon12parentWidgetEv@Base 4:4.3.4
 _ZNK15KSystemTrayIcon16contextMenuTitleEv@Base 4:4.3.4
 _ZNK15KSystemTrayIcon21parentWidgetTrayCloseEv@Base 4:4.3.4
 _ZNK15KSystemTrayIcon5movieEv@Base 4:4.3.4
 _ZNK15KTimeZoneWidget10metaObjectEv@Base 4:4.3.4
 _ZNK15KTimeZoneWidget13selectionModeEv@Base 4:4.4.0
 _ZNK15KTimeZoneWidget14itemsCheckableEv@Base 4:4.4.0
 _ZNK15KTimeZoneWidget9selectionEv@Base 4:4.3.4
 _ZNK15KViewStateSaver10metaObjectEv@Base 4:4.4.95
 _ZNK15KViewStateSaver11scrollStateEv@Base 4:4.4.95
 _ZNK15KViewStateSaver13expansionKeysEv@Base 4:4.4.95
 _ZNK15KViewStateSaver13selectionKeysEv@Base 4:4.4.95
 _ZNK15KViewStateSaver14selectionModelEv@Base 4:4.4.95
 _ZNK15KViewStateSaver15currentIndexKeyEv@Base 4:4.4.95
 _ZNK15KViewStateSaver4viewEv@Base 4:4.4.95
 _ZNK15KdeUiProxyStyle10metaObjectEv@Base 4:4.3.4
 _ZNK15KdeUiProxyStyle11drawControlEN6QStyle14ControlElementEPK12QStyleOptionP8QPainterPK7QWidget@Base 4:4.3.4
 _ZNK15KdeUiProxyStyle11pixelMetricEN6QStyle11PixelMetricEPK12QStyleOptionPK7QWidget@Base 4:4.3.4
 _ZNK15KdeUiProxyStyle12drawItemTextEP8QPainterRK5QRectiRK8QPalettebRK7QStringNS5_9ColorRoleE@Base 4:4.3.4
 _ZNK15KdeUiProxyStyle12itemTextRectERK12QFontMetricsRK5QRectibRK7QString@Base 4:4.3.4
 _ZNK15KdeUiProxyStyle12standardIconEN6QStyle14StandardPixmapEPK12QStyleOptionPK7QWidget@Base 4:4.3.4
 _ZNK15KdeUiProxyStyle13drawPrimitiveEN6QStyle16PrimitiveElementEPK12QStyleOptionP8QPainterPK7QWidget@Base 4:4.3.4
 _ZNK15KdeUiProxyStyle14drawItemPixmapEP8QPainterRK5QRectiRK7QPixmap@Base 4:4.3.4
 _ZNK15KdeUiProxyStyle14itemPixmapRectERK5QRectiRK7QPixmap@Base 4:4.3.4
 _ZNK15KdeUiProxyStyle14standardPixmapEN6QStyle14StandardPixmapEPK12QStyleOptionPK7QWidget@Base 4:4.3.4
 _ZNK15KdeUiProxyStyle14subControlRectEN6QStyle14ComplexControlEPK19QStyleOptionComplexNS0_10SubControlEPK7QWidget@Base 4:4.3.4
 _ZNK15KdeUiProxyStyle14subElementRectEN6QStyle10SubElementEPK12QStyleOptionPK7QWidget@Base 4:4.3.4
 _ZNK15KdeUiProxyStyle15standardPaletteEv@Base 4:4.3.4
 _ZNK15KdeUiProxyStyle16sizeFromContentsEN6QStyle12ContentsTypeEPK12QStyleOptionRK5QSizePK7QWidget@Base 4:4.3.4
 _ZNK15KdeUiProxyStyle18drawComplexControlEN6QStyle14ComplexControlEPK19QStyleOptionComplexP8QPainterPK7QWidget@Base 4:4.3.4
 _ZNK15KdeUiProxyStyle19generatedIconPixmapEN5QIcon4ModeERK7QPixmapPK12QStyleOption@Base 4:4.3.4
 _ZNK15KdeUiProxyStyle21hitTestComplexControlEN6QStyle14ComplexControlEPK19QStyleOptionComplexRK6QPointPK7QWidget@Base 4:4.3.4
 _ZNK15KdeUiProxyStyle5styleEv@Base 4:4.3.4
 _ZNK15KdeUiProxyStyle9styleHintEN6QStyle9StyleHintEPK12QStyleOptionPK7QWidgetP16QStyleHintReturn@Base 4:4.3.4
 _ZNK16KAssistantDialog10metaObjectEv@Base 4:4.3.4
 _ZNK16KAssistantDialog13isAppropriateEP15KPageWidgetItem@Base 4:4.3.4
 _ZNK16KAssistantDialog7isValidEP15KPageWidgetItem@Base 4:4.3.4
 _ZNK16KCategorizedView10metaObjectEv@Base 4:4.3.4
 _ZNK16KCategorizedView10visualRectERK11QModelIndex@Base 4:4.3.4
 _ZNK16KCategorizedView14categoryDrawerEv@Base 4:4.3.4
 _ZNK16KCategorizedView15categorySpacingEv@Base 4:4.4.0
 _ZNK16KCategorizedView17collapsibleBlocksEv@Base 4:4.4.0
 _ZNK16KCategorizedView22alternatingBlockColorsEv@Base 4:4.4.0
 _ZNK16KCategorizedView7Private13isCategorizedEv@Base 4:4.4.0
 _ZNK16KCategorizedView7Private13mapToViewportERK5QRect@Base 4:4.4.0
 _ZNK16KCategorizedView7Private13viewportWidthEv@Base 4:4.4.0
 _ZNK16KCategorizedView7Private15mapFromViewportERK5QRect@Base 4:4.4.0
 _ZNK16KCategorizedView7Private16categoryForIndexERK11QModelIndex@Base 4:4.4.0
 _ZNK16KCategorizedView7Private21leftToRightVisualRectERK11QModelIndexRNS0_4ItemERKNS0_5BlockERK6QPoint@Base 4:4.4.0
 _ZNK16KCategorizedView7Private21topToBottomVisualRectERK11QModelIndexRNS0_4ItemERKNS0_5BlockERK6QPoint@Base 4:4.4.0
 _ZNK16KCategorizedView7Private23highestElementInLastRowERKNS0_5BlockE@Base 4:4.4.0
 _ZNK16KCategorizedView7Private27intersectingIndexesWithRectERK5QRect@Base 4:4.4.0
 _ZNK16KCategorizedView7Private7hasGridEv@Base 4:4.4.0
 _ZNK16KCategorizedView7indexAtERK6QPoint@Base 4:4.3.4
 _ZNK16KColorCollection11descriptionEv@Base 4:4.3.4
 _ZNK16KColorCollection4nameERK6QColor@Base 4:4.3.4
 _ZNK16KColorCollection4nameEi@Base 4:4.3.4
 _ZNK16KColorCollection4nameEv@Base 4:4.3.4
 _ZNK16KColorCollection5colorEi@Base 4:4.3.4
 _ZNK16KColorCollection5countEv@Base 4:4.3.4
 _ZNK16KColorCollection8editableEv@Base 4:4.3.4
 _ZNK16KColorCollection9findColorERK6QColor@Base 4:4.3.4
 _ZNK16KDialogButtonBox10metaObjectEv@Base 4:4.3.4
 _ZNK16KDoubleValidator10metaObjectEv@Base 4:4.3.4
 _ZNK16KDoubleValidator22acceptLocalizedNumbersEv@Base 4:4.3.4
 _ZNK16KDoubleValidator8validateER7QStringRi@Base 4:4.3.4
 _ZNK16KHistoryComboBox10metaObjectEv@Base 4:4.3.4
 _ZNK16KHistoryComboBox12historyItemsEv@Base 4:4.3.4
 _ZNK16KHistoryComboBox13useCompletionEv@Base 4:4.3.4
 _ZNK16KHistoryComboBox14pixmapProviderEv@Base 4:4.3.4
 _ZNK16KModifierKeyInfo10metaObjectEv@Base 4:4.3.4
 _ZNK16KModifierKeyInfo11isKeyLockedEN2Qt3KeyE@Base 4:4.3.4
 _ZNK16KModifierKeyInfo12isKeyLatchedEN2Qt3KeyE@Base 4:4.3.4
 _ZNK16KModifierKeyInfo12isKeyPressedEN2Qt3KeyE@Base 4:4.3.4
 _ZNK16KModifierKeyInfo15isButtonPressedEN2Qt11MouseButtonE@Base 4:4.3.4
 _ZNK16KModifierKeyInfo8knowsKeyEN2Qt3KeyE@Base 4:4.3.4
 _ZNK16KModifierKeyInfo9knownKeysEv@Base 4:4.3.4
 _ZNK16KPageWidgetModel10metaObjectEv@Base 4:4.3.4
 _ZNK16KPageWidgetModel11columnCountERK11QModelIndex@Base 4:4.3.4
 _ZNK16KPageWidgetModel4dataERK11QModelIndexi@Base 4:4.3.4
 _ZNK16KPageWidgetModel4itemERK11QModelIndex@Base 4:4.3.4
 _ZNK16KPageWidgetModel5flagsERK11QModelIndex@Base 4:4.3.4
 _ZNK16KPageWidgetModel5indexEPK15KPageWidgetItem@Base 4:4.3.4
 _ZNK16KPageWidgetModel5indexEiiRK11QModelIndex@Base 4:4.3.4
 _ZNK16KPageWidgetModel6parentERK11QModelIndex@Base 4:4.3.4
 _ZNK16KPageWidgetModel8rowCountERK11QModelIndex@Base 4:4.3.4
 _ZNK16KPasteTextAction10metaObjectEv@Base 4:4.3.4
 _ZNK16KShortcutsDialog10metaObjectEv@Base 4:4.3.4
 _ZNK16KShortcutsDialog17actionCollectionsEv@Base 4:4.3.4
 _ZNK16KShortcutsDialog8sizeHintEv@Base 4:4.3.4
 _ZNK16KShortcutsEditor10isModifiedEv@Base 4:4.3.4
 _ZNK16KShortcutsEditor10metaObjectEv@Base 4:4.3.4
 _ZNK16KShortcutsEditor14printShortcutsEv@Base 4:4.3.4
 _ZNK16KShortcutsEditor18writeConfigurationEP12KConfigGroup@Base 4:4.3.4
 _ZNK16KShortcutsEditor19exportConfigurationEP11KConfigBase@Base 4:4.3.4
 _ZNK16KShortcutsEditor19exportConfigurationEP7KConfig@Base 4:4.3.4
 _ZNK16KStartupInfoData10launchedByEv@Base 4:4.3.4
 _ZNK16KStartupInfoData11descriptionEv@Base 4:4.3.4
 _ZNK16KStartupInfoData11findWMClassEv@Base 4:4.3.4
 _ZNK16KStartupInfoData13applicationIdEv@Base 4:4.4.95
 _ZNK16KStartupInfoData15findDescriptionEv@Base 4:4.3.4
 _ZNK16KStartupInfoData3binEv@Base 4:4.3.4
 _ZNK16KStartupInfoData4iconEv@Base 4:4.3.4
 _ZNK16KStartupInfoData4nameEv@Base 4:4.3.4
 _ZNK16KStartupInfoData4pidsEv@Base 4:4.3.4
 _ZNK16KStartupInfoData6is_pidEi@Base 4:4.3.4
 _ZNK16KStartupInfoData6screenEv@Base 4:4.3.4
 _ZNK16KStartupInfoData6silentEv@Base 4:4.3.4
 _ZNK16KStartupInfoData7Private7to_textEv@Base 4:4.3.4
 _ZNK16KStartupInfoData7WMClassEv@Base 4:4.3.4
 _ZNK16KStartupInfoData7desktopEv@Base 4:4.3.4
 _ZNK16KStartupInfoData8findIconEv@Base 4:4.3.4
 _ZNK16KStartupInfoData8findNameEv@Base 4:4.3.4
 _ZNK16KStartupInfoData8hostnameEv@Base 4:4.3.4
 _ZNK16KStartupInfoData8xineramaEv@Base 4:4.3.4
 _ZNK16KStartupInfoData9timestampEv@Base 4:4.3.4
 _ZNK17KActionCollection10metaObjectEv@Base 4:4.3.4
 _ZNK17KActionCollection11configGroupEv@Base 4:4.3.4
 _ZNK17KActionCollection12actionGroupsEv@Base 4:4.3.4
 _ZNK17KActionCollection13componentDataEv@Base 4:4.3.4
 _ZNK17KActionCollection13writeSettingsEP12KConfigGroupbP7QAction@Base 4:4.3.4
 _ZNK17KActionCollection14configIsGlobalEv@Base 4:4.3.4
 _ZNK17KActionCollection15associateWidgetEP7QWidget@Base 4:4.3.4
 _ZNK17KActionCollection15parentGUIClientEv@Base 4:4.3.4
 _ZNK17KActionCollection17associatedWidgetsEv@Base 4:4.3.4
 _ZNK17KActionCollection19actionsWithoutGroupEv@Base 4:4.3.4
 _ZNK17KActionCollection21exportGlobalShortcutsEP12KConfigGroupb@Base 4:4.3.4
 _ZNK17KActionCollection5countEv@Base 4:4.3.4
 _ZNK17KActionCollection6actionERK7QString@Base 4:4.3.4
 _ZNK17KActionCollection6actionEi@Base 4:4.3.4
 _ZNK17KActionCollection7actionsEv@Base 4:4.3.4
 _ZNK17KActionCollection7isEmptyEv@Base 4:4.3.4
 _ZNK17KCategoryDrawerV210metaObjectEv@Base 4:4.4.0
 _ZNK17KCategoryDrawerV34viewEv@Base 4:4.4.95
 _ZNK17KCompTreeNodeList2atEj@Base 4:4.3.4
 _ZNK17KFadeWidgetEffect10metaObjectEv@Base 4:4.3.4
 _ZNK17KGradientSelector10firstColorEv@Base 4:4.3.4
 _ZNK17KGradientSelector10metaObjectEv@Base 4:4.3.4
 _ZNK17KGradientSelector10secondTextEv@Base 4:4.3.4
 _ZNK17KGradientSelector11minimumSizeEv@Base 4:4.3.4
 _ZNK17KGradientSelector11secondColorEv@Base 4:4.3.4
 _ZNK17KGradientSelector5stopsEv@Base 4:4.4.95
 _ZNK17KGradientSelector9firstTextEv@Base 4:4.3.4
 _ZNK17KSelectionWatcher10metaObjectEv@Base 4:4.3.4
 _ZNK17KWidgetJobTracker10metaObjectEv@Base 4:4.3.4
 _ZNK17KWidgetJobTracker7Private10autoDeleteEP4KJob@Base 4:4.3.4
 _ZNK17KWidgetJobTracker7Private11stopOnCloseEP4KJob@Base 4:4.3.4
 _ZNK17KWidgetJobTracker7Private14ProgressWidget10metaObjectEv@Base 4:4.3.4
 _ZNK17KWidgetJobTracker8keepOpenEP4KJob@Base 4:4.3.4
 _ZNK18KCompletionMatches4listEb@Base 4:4.3.4
 _ZNK18KCompletionMatches7sortingEv@Base 4:4.3.4
 _ZNK18KKeySequenceWidget10metaObjectEv@Base 4:4.3.4
 _ZNK18KKeySequenceWidget11keySequenceEv@Base 4:4.3.4
 _ZNK18KKeySequenceWidget22isKeySequenceAvailableERK12QKeySequence@Base 4:4.3.4
 _ZNK18KKeySequenceWidget24checkForConflictsAgainstEv@Base 4:4.3.4
 _ZNK18KKeySequenceWidget24multiKeyShortcutsAllowedEv@Base 4:4.3.4
 _ZNK18KMimeTypeValidator10metaObjectEv@Base 4:4.3.4
 _ZNK18KMimeTypeValidator5fixupER7QString@Base 4:4.3.4
 _ZNK18KMimeTypeValidator8validateER7QStringRi@Base 4:4.3.4
 _ZNK18KMultiTabBarButton10metaObjectEv@Base 4:4.3.4
 _ZNK18KMultiTabBarButton2idEv@Base 4:4.3.4
 _ZNK18KNewPasswordDialog10metaObjectEv@Base 4:4.3.4
 _ZNK18KNewPasswordDialog19allowEmptyPasswordsEv@Base 4:4.3.4
 _ZNK18KNewPasswordDialog21maximumPasswordLengthEv@Base 4:4.3.4
 _ZNK18KNewPasswordDialog21minimumPasswordLengthEv@Base 4:4.3.4
 _ZNK18KNewPasswordDialog24reasonablePasswordLengthEv@Base 4:4.3.4
 _ZNK18KNewPasswordDialog28passwordStrengthWarningLevelEv@Base 4:4.3.4
 _ZNK18KNewPasswordDialog6pixmapEv@Base 4:4.3.4
 _ZNK18KNewPasswordDialog6promptEv@Base 4:4.3.4
 _ZNK18KNewPasswordDialog8passwordEv@Base 4:4.3.4
 _ZNK18KRecentFilesAction10metaObjectEv@Base 4:4.3.4
 _ZNK18KRecentFilesAction4urlsEv@Base 4:4.3.4
 _ZNK18KRecentFilesAction8maxItemsEv@Base 4:4.3.4
 _ZNK18KSqueezedTextLabel10metaObjectEv@Base 4:4.3.4
 _ZNK18KSqueezedTextLabel13textElideModeEv@Base 4:4.3.4
 _ZNK18KSqueezedTextLabel15minimumSizeHintEv@Base 4:4.3.4
 _ZNK18KSqueezedTextLabel8fullTextEv@Base 4:4.4.0
 _ZNK18KSqueezedTextLabel8sizeHintEv@Base 4:4.3.4
 _ZNK18KUniqueApplication10metaObjectEv@Base 4:4.3.4
 _ZNK19KColorValueSelector10colorValueEv@Base 4:4.3.4
 _ZNK19KColorValueSelector10metaObjectEv@Base 4:4.3.4
 _ZNK19KColorValueSelector10saturationEv@Base 4:4.3.4
 _ZNK19KColorValueSelector11chooserModeEv@Base 4:4.3.4
 _ZNK19KColorValueSelector3hueEv@Base 4:4.3.4
 _ZNK19KGlobalShortcutInfo10metaObjectEv@Base 4:4.3.4
 _ZNK19KGlobalShortcutInfo10uniqueNameEv@Base 4:4.3.4
 _ZNK19KGlobalShortcutInfo11defaultKeysEv@Base 4:4.3.4
 _ZNK19KGlobalShortcutInfo12friendlyNameEv@Base 4:4.3.4
 _ZNK19KGlobalShortcutInfo17contextUniqueNameEv@Base 4:4.3.4
 _ZNK19KGlobalShortcutInfo19componentUniqueNameEv@Base 4:4.3.4
 _ZNK19KGlobalShortcutInfo19contextFriendlyNameEv@Base 4:4.3.4
 _ZNK19KGlobalShortcutInfo21componentFriendlyNameEv@Base 4:4.3.4
 _ZNK19KGlobalShortcutInfo4keysEv@Base 4:4.3.4
 _ZNK19KIdentityProxyModel10metaObjectEv@Base 4:4.5.85
 _ZNK19KIdentityProxyModel11columnCountERK11QModelIndex@Base 4:4.5.85
 _ZNK19KIdentityProxyModel11mapToSourceERK11QModelIndex@Base 4:4.5.85
 _ZNK19KIdentityProxyModel12canFetchMoreERK11QModelIndex@Base 4:4.6.4
 _ZNK19KIdentityProxyModel13mapFromSourceERK11QModelIndex@Base 4:4.5.85
 _ZNK19KIdentityProxyModel20mapSelectionToSourceERK14QItemSelection@Base 4:4.5.85
 _ZNK19KIdentityProxyModel20supportedDropActionsEv@Base 4:4.6.4
 _ZNK19KIdentityProxyModel22mapSelectionFromSourceERK14QItemSelection@Base 4:4.5.85
 _ZNK19KIdentityProxyModel5indexEiiRK11QModelIndex@Base 4:4.5.85
 _ZNK19KIdentityProxyModel5matchERK11QModelIndexiRK8QVarianti6QFlagsIN2Qt9MatchFlagEE@Base 4:4.5.85
 _ZNK19KIdentityProxyModel6parentERK11QModelIndex@Base 4:4.5.85
 _ZNK19KIdentityProxyModel8mimeDataERK5QListI11QModelIndexE@Base 4:4.6.4
 _ZNK19KIdentityProxyModel8rowCountERK11QModelIndex@Base 4:4.5.85
 _ZNK19KIdentityProxyModel9mimeTypesEv@Base 4:4.6.4
 _ZNK19KStatusNotifierItem10iconPixmapEv@Base 4:4.4.0
 _ZNK19KStatusNotifierItem10metaObjectEv@Base 4:4.4.0
 _ZNK19KStatusNotifierItem11contextMenuEv@Base 4:4.4.0
 _ZNK19KStatusNotifierItem12toolTipTitleEv@Base 4:4.4.0
 _ZNK19KStatusNotifierItem15overlayIconNameEv@Base 4:4.4.0
 _ZNK19KStatusNotifierItem15toolTipIconNameEv@Base 4:4.4.0
 _ZNK19KStatusNotifierItem15toolTipSubTitleEv@Base 4:4.4.0
 _ZNK19KStatusNotifierItem16actionCollectionEv@Base 4:4.4.0
 _ZNK19KStatusNotifierItem16associatedWidgetEv@Base 4:4.4.0
 _ZNK19KStatusNotifierItem17attentionIconNameEv@Base 4:4.4.0
 _ZNK19KStatusNotifierItem17overlayIconPixmapEv@Base 4:4.4.0
 _ZNK19KStatusNotifierItem17toolTipIconPixmapEv@Base 4:4.4.0
 _ZNK19KStatusNotifierItem18attentionMovieNameEv@Base 4:4.4.0
 _ZNK19KStatusNotifierItem19attentionIconPixmapEv@Base 4:4.4.0
 _ZNK19KStatusNotifierItem22standardActionsEnabledEv@Base 4:4.4.0
 _ZNK19KStatusNotifierItem2idEv@Base 4:4.4.0
 _ZNK19KStatusNotifierItem5titleEv@Base 4:4.4.0
 _ZNK19KStatusNotifierItem6statusEv@Base 4:4.4.0
 _ZNK19KStatusNotifierItem8categoryEv@Base 4:4.4.0
 _ZNK19KStatusNotifierItem8iconNameEv@Base 4:4.4.0
 _ZNK19KToolBarLabelAction10metaObjectEv@Base 4:4.3.4
 _ZNK19KToolBarLabelAction5buddyEv@Base 4:4.3.4
 _ZNK19KToolBarPopupAction10metaObjectEv@Base 4:4.3.4
 _ZNK19KToolBarPopupAction10stickyMenuEv@Base 4:4.3.4
 _ZNK19KToolBarPopupAction7delayedEv@Base 4:4.3.4
 _ZNK19KToolBarPopupAction9popupMenuEv@Base 4:4.3.4
 _ZNK19KUiServerJobTracker10metaObjectEv@Base 4:4.3.4
 _ZNK19KWidgetItemDelegate10metaObjectEv@Base 4:4.3.4
 _ZNK19KWidgetItemDelegate12focusedIndexEv@Base 4:4.3.4
 _ZNK19KWidgetItemDelegate12paintWidgetsEP8QPainterRK20QStyleOptionViewItemRK21QPersistentModelIndex@Base 4:4.3.4
 _ZNK19KWidgetItemDelegate17blockedEventTypesEP7QWidget@Base 4:4.3.4
 _ZNK19KWidgetItemDelegate20setBlockedEventTypesEP7QWidget5QListIN6QEvent4TypeEE@Base 4:4.3.4
 _ZNK19KWidgetItemDelegate8itemViewEv@Base 4:4.3.4
 _ZNK20KCheckableProxyModel10metaObjectEv@Base 4:4.5.85
 _ZNK20KCheckableProxyModel14selectionModelEv@Base 4:4.5.85
 _ZNK20KCheckableProxyModel4dataERK11QModelIndexi@Base 4:4.5.85
 _ZNK20KCheckableProxyModel5flagsERK11QModelIndex@Base 4:4.5.85
 _ZNK20KConfigDialogManager10hasChangedEv@Base 4:4.3.4
 _ZNK20KConfigDialogManager10metaObjectEv@Base 4:4.3.4
 _ZNK20KConfigDialogManager15getUserPropertyEPK7QWidget@Base 4:4.3.4
 _ZNK20KConfigDialogManager17getCustomPropertyEPK7QWidget@Base 4:4.3.4
 _ZNK20KConfigDialogManager8propertyEP7QWidget@Base 4:4.3.4
 _ZNK20KConfigDialogManager9isDefaultEv@Base 4:4.3.4
 _ZNK20KDialogJobUiDelegate10metaObjectEv@Base 4:4.3.4
 _ZNK20KDialogJobUiDelegate13userTimestampEv@Base 4:4.3.4
 _ZNK20KDialogJobUiDelegate6windowEv@Base 4:4.3.4
 _ZNK20KSelectionProxyModel10headerDataEiN2Qt11OrientationEi@Base 4:4.4.0
 _ZNK20KSelectionProxyModel10metaObjectEv@Base 4:4.4.0
 _ZNK20KSelectionProxyModel11columnCountERK11QModelIndex@Base 4:4.4.0
 _ZNK20KSelectionProxyModel11hasChildrenERK11QModelIndex@Base 4:4.4.0
 _ZNK20KSelectionProxyModel11mapToSourceERK11QModelIndex@Base 4:4.4.0
 _ZNK20KSelectionProxyModel13mapFromSourceERK11QModelIndex@Base 4:4.4.0
 _ZNK20KSelectionProxyModel14filterBehaviorEv@Base 4:4.4.0
 _ZNK20KSelectionProxyModel14selectionModelEv@Base 4:4.4.0
 _ZNK20KSelectionProxyModel17sourceRootIndexesEv@Base 4:4.4.0
 _ZNK20KSelectionProxyModel20mapSelectionToSourceERK14QItemSelection@Base 4:4.5.85
 _ZNK20KSelectionProxyModel20supportedDropActionsEv@Base 4:4.4.0
 _ZNK20KSelectionProxyModel22mapSelectionFromSourceERK14QItemSelection@Base 4:4.5.85
 _ZNK20KSelectionProxyModel4dataERK11QModelIndexi@Base 4:4.4.0
 _ZNK20KSelectionProxyModel5flagsERK11QModelIndex@Base 4:4.4.0
 _ZNK20KSelectionProxyModel5indexEiiRK11QModelIndex@Base 4:4.4.0
 _ZNK20KSelectionProxyModel5matchERK11QModelIndexiRK8QVarianti6QFlagsIN2Qt9MatchFlagEE@Base 4:4.4.0
 _ZNK20KSelectionProxyModel6parentERK11QModelIndex@Base 4:4.4.0
 _ZNK20KSelectionProxyModel8mimeDataERK5QListI11QModelIndexE@Base 4:4.4.0
 _ZNK20KSelectionProxyModel8rowCountERK11QModelIndex@Base 4:4.4.0
 _ZNK20KSelectionProxyModel9mimeTypesEv@Base 4:4.4.0
 _ZNK20KStatusBarJobTracker10metaObjectEv@Base 4:4.3.4
 _ZNK20KStatusBarJobTracker7Private14ProgressWidget10metaObjectEv@Base 4:4.3.4
 _ZNK20KStringListValidator10metaObjectEv@Base 4:4.3.4
 _ZNK20KStringListValidator10stringListEv@Base 4:4.3.4
 _ZNK20KStringListValidator11isRejectingEv@Base 4:4.3.4
 _ZNK20KStringListValidator14isFixupEnabledEv@Base 4:4.3.4
 _ZNK20KStringListValidator5fixupER7QString@Base 4:4.3.4
 _ZNK20KStringListValidator8validateER7QStringRi@Base 4:4.3.4
 _ZNK20KToggleToolBarAction10metaObjectEv@Base 4:4.3.4
 _ZNK20KToolBarSpacerAction10metaObjectEv@Base 4:4.3.4
 _ZNK20KToolBarSpacerAction12maximumWidthEv@Base 4:4.3.4
 _ZNK20KToolBarSpacerAction12minimumWidthEv@Base 4:4.3.4
 _ZNK20KToolBarSpacerAction5widthEv@Base 4:4.3.4
 _ZNK21KListWidgetSearchLine10listWidgetEv@Base 4:4.3.4
 _ZNK21KListWidgetSearchLine10metaObjectEv@Base 4:4.3.4
 _ZNK21KListWidgetSearchLine11itemMatchesEPK15QListWidgetItemRK7QString@Base 4:4.3.4
 _ZNK21KListWidgetSearchLine13caseSensitiveEv@Base 4:4.3.4
 _ZNK21KPixmapSequenceWidget10metaObjectEv@Base 4:4.4.0
 _ZNK21KPixmapSequenceWidget8intervalEv@Base 4:4.4.0
 _ZNK21KPixmapSequenceWidget8sequenceEv@Base 4:4.4.0
 _ZNK21KPixmapSequenceWidget8sizeHintEv@Base 4:4.4.0
 _ZNK21KTreeWidgetSearchLine10metaObjectEv@Base 4:4.3.4
 _ZNK21KTreeWidgetSearchLine10treeWidgetEv@Base 4:4.3.4
 _ZNK21KTreeWidgetSearchLine11itemMatchesEPK15QTreeWidgetItemRK7QString@Base 4:4.3.4
 _ZNK21KTreeWidgetSearchLine11treeWidgetsEv@Base 4:4.3.4
 _ZNK21KTreeWidgetSearchLine13searchColumnsEv@Base 4:4.3.4
 _ZNK21KTreeWidgetSearchLine15caseSensitivityEv@Base 4:4.3.4
 _ZNK21KTreeWidgetSearchLine18keepParentsVisibleEv@Base 4:4.3.4
 _ZNK21KTreeWidgetSearchLine7Private15_k_rowsInsertedERK11QModelIndexii@Base 4:4.3.4
 _ZNK22KClipboardSynchronizer10metaObjectEv@Base 4:4.3.4
 _ZNK22KDescendantsProxyModel10headerDataEiN2Qt11OrientationEi@Base 4:4.5.85
 _ZNK22KDescendantsProxyModel10metaObjectEv@Base 4:4.5.85
 _ZNK22KDescendantsProxyModel11columnCountERK11QModelIndex@Base 4:4.5.85
 _ZNK22KDescendantsProxyModel11hasChildrenERK11QModelIndex@Base 4:4.5.85
 _ZNK22KDescendantsProxyModel11mapToSourceERK11QModelIndex@Base 4:4.5.85
 _ZNK22KDescendantsProxyModel13mapFromSourceERK11QModelIndex@Base 4:4.5.85
 _ZNK22KDescendantsProxyModel17ancestorSeparatorEv@Base 4:4.5.85
 _ZNK22KDescendantsProxyModel19displayAncestorDataEv@Base 4:4.5.85
 _ZNK22KDescendantsProxyModel20supportedDropActionsEv@Base 4:4.5.85
 _ZNK22KDescendantsProxyModel4dataERK11QModelIndexi@Base 4:4.5.85
 _ZNK22KDescendantsProxyModel5flagsERK11QModelIndex@Base 4:4.5.85
 _ZNK22KDescendantsProxyModel5indexEiiRK11QModelIndex@Base 4:4.5.85
 _ZNK22KDescendantsProxyModel5matchERK11QModelIndexiRK8QVarianti6QFlagsIN2Qt9MatchFlagEE@Base 4:4.5.85
 _ZNK22KDescendantsProxyModel6parentERK11QModelIndex@Base 4:4.5.85
 _ZNK22KDescendantsProxyModel8mimeDataERK5QListI11QModelIndexE@Base 4:4.5.85
 _ZNK22KDescendantsProxyModel8rowCountERK11QModelIndex@Base 4:4.5.85
 _ZNK22KDescendantsProxyModel9mimeTypesEv@Base 4:4.5.85
 _ZNK22KFilterProxySearchLine10metaObjectEv@Base 4:4.3.4
 _ZNK22KFilterProxySearchLine8lineEditEv@Base 4:4.3.4
 _ZNK22KHueSaturationSelector10colorValueEv@Base 4:4.3.4
 _ZNK22KHueSaturationSelector10metaObjectEv@Base 4:4.3.4
 _ZNK22KHueSaturationSelector10saturationEv@Base 4:4.3.4
 _ZNK22KHueSaturationSelector11chooserModeEv@Base 4:4.3.4
 _ZNK22KHueSaturationSelector3hueEv@Base 4:4.3.4
 _ZNK22KModelIndexProxyMapper10metaObjectEv@Base 4:4.4.95
 _ZNK22KModelIndexProxyMapper14mapLeftToRightERK11QModelIndex@Base 4:4.4.95
 _ZNK22KModelIndexProxyMapper14mapRightToLeftERK11QModelIndex@Base 4:4.4.95
 _ZNK22KModelIndexProxyMapper23mapSelectionLeftToRightERK14QItemSelection@Base 4:4.4.95
 _ZNK22KModelIndexProxyMapper23mapSelectionRightToLeftERK14QItemSelection@Base 4:4.4.95
 _ZNK23KAboutApplicationDialog10metaObjectEv@Base 4:4.3.4
 _ZNK23KExtendableItemDelegate10isExtendedERK11QModelIndex@Base 4:4.3.4
 _ZNK23KExtendableItemDelegate10metaObjectEv@Base 4:4.3.4
 _ZNK23KExtendableItemDelegate12extenderRectEP7QWidgetRK20QStyleOptionViewItemRK11QModelIndex@Base 4:4.3.4
 _ZNK23KExtendableItemDelegate22updateExtenderGeometryEP7QWidgetRK20QStyleOptionViewItemRK11QModelIndex@Base 4:4.3.4
 _ZNK23KExtendableItemDelegate5paintEP8QPainterRK20QStyleOptionViewItemRK11QModelIndex@Base 4:4.3.4
 _ZNK23KExtendableItemDelegate7Private17maybeExtendedSizeERK20QStyleOptionViewItemRK11QModelIndex@Base 4:4.3.4
 _ZNK23KExtendableItemDelegate7Private30indexOfExtendedColumnInSameRowERK11QModelIndex@Base 4:4.3.4
 _ZNK23KExtendableItemDelegate8sizeHintERK20QStyleOptionViewItemRK11QModelIndex@Base 4:4.3.4
 _ZNK23KLinkItemSelectionModel10metaObjectEv@Base 4:4.4.95
 _ZNK23KToggleFullScreenAction10metaObjectEv@Base 4:4.3.4
 _ZNK24KViewStateMaintainerBase10metaObjectEv@Base 4:4.5.85
 _ZNK24KViewStateMaintainerBase11configGroupEv@Base 4:4.5.85
 _ZNK24KViewStateMaintainerBase14selectionModelEv@Base 4:4.5.85
 _ZNK24KViewStateMaintainerBase4viewEv@Base 4:4.5.85
 _ZNK25KAbstractWidgetJobTracker10autoDeleteEP4KJob@Base 4:4.3.4
 _ZNK25KAbstractWidgetJobTracker10metaObjectEv@Base 4:4.3.4
 _ZNK25KAbstractWidgetJobTracker11stopOnCloseEP4KJob@Base 4:4.3.4
 _ZNK25KBreadcrumbSelectionModel10metaObjectEv@Base 4:4.4.95
 _ZNK25KBreadcrumbSelectionModel16breadcrumbLengthEv@Base 4:4.4.95
 _ZNK25KBreadcrumbSelectionModel25isActualSelectionIncludedEv@Base 4:4.4.95
 _ZNK25KCompletionMatchesWrapper4listEv@Base 4:4.3.4
 _ZNK25KMessageBoxMessageHandler10metaObjectEv@Base 4:4.3.4
 _ZNK25KNotificationRestrictions10metaObjectEv@Base 4:4.3.4
 _ZNK26KRecursiveFilterProxyModel10metaObjectEv@Base 4:4.4.95
 _ZNK26KRecursiveFilterProxyModel16filterAcceptsRowEiRK11QModelIndex@Base 4:4.4.95
 _ZNK26KRecursiveFilterProxyModel5matchERK11QModelIndexiRK8QVarianti6QFlagsIN2Qt9MatchFlagEE@Base 4:4.6.1
 _ZNK26KRecursiveFilterProxyModel9acceptRowEiRK11QModelIndex@Base 4:4.4.95
 _ZNK27KPassivePopupMessageHandler10metaObjectEv@Base 4:4.3.4
 _ZNK27KPixmapRegionSelectorDialog10metaObjectEv@Base 4:4.4.95
 _ZNK27KPixmapRegionSelectorDialog26pixmapRegionSelectorWidgetEv@Base 4:4.3.4
 _ZNK27KPixmapRegionSelectorWidget10metaObjectEv@Base 4:4.3.4
 _ZNK27KPixmapRegionSelectorWidget13selectedImageEv@Base 4:4.3.4
 _ZNK27KPixmapRegionSelectorWidget14selectedRegionEv@Base 4:4.3.4
 _ZNK27KPixmapRegionSelectorWidget22unzoomedSelectedRegionEv@Base 4:4.3.4
 _ZNK27KPixmapRegionSelectorWidget6pixmapEv@Base 4:4.3.4
 _ZNK27KTreeWidgetSearchLineWidget10metaObjectEv@Base 4:4.3.4
 _ZNK27KTreeWidgetSearchLineWidget10searchLineEv@Base 4:4.3.4
 _ZNK27KTreeWidgetSearchLineWidget16createSearchLineEP11QTreeWidget@Base 4:4.3.4
 _ZNK29KPixmapSequenceOverlayPainter10metaObjectEv@Base 4:4.4.0
 _ZNK29KPixmapSequenceOverlayPainter4rectEv@Base 4:4.4.0
 _ZNK29KPixmapSequenceOverlayPainter6offsetEv@Base 4:4.4.0
 _ZNK29KPixmapSequenceOverlayPainter8intervalEv@Base 4:4.4.0
 _ZNK29KPixmapSequenceOverlayPainter8sequenceEv@Base 4:4.4.0
 _ZNK29KPixmapSequenceOverlayPainter9alignmentEv@Base 4:4.4.0
 _ZNK32KCategorizedSortFilterProxyModel10sortColumnEv@Base 4:4.3.4
 _ZNK32KCategorizedSortFilterProxyModel15subSortLessThanERK11QModelIndexS2_@Base 4:4.3.4
 _ZNK32KCategorizedSortFilterProxyModel17compareCategoriesERK11QModelIndexS2_@Base 4:4.3.4
 _ZNK32KCategorizedSortFilterProxyModel18isCategorizedModelEv@Base 4:4.3.4
 _ZNK32KCategorizedSortFilterProxyModel33sortCategoriesByNaturalComparisonEv@Base 4:4.3.4
 _ZNK32KCategorizedSortFilterProxyModel8lessThanERK11QModelIndexS2_@Base 4:4.3.4
 _ZNK32KCategorizedSortFilterProxyModel9sortOrderEv@Base 4:4.3.4
 _ZNK4KLed10darkFactorEv@Base 4:4.3.4
 _ZNK4KLed10metaObjectEv@Base 4:4.3.4
 _ZNK4KLed15minimumSizeHintEv@Base 4:4.3.4
 _ZNK4KLed4lookEv@Base 4:4.3.4
 _ZNK4KLed5colorEv@Base 4:4.3.4
 _ZNK4KLed5shapeEv@Base 4:4.3.4
 _ZNK4KLed5stateEv@Base 4:4.3.4
 _ZNK4KLed8ledWidthEv@Base 4:4.3.4
 _ZNK4KLed8sizeHintEv@Base 4:4.3.4
 _ZNK5KFind10metaObjectEv@Base 4:4.3.4
 _ZNK5KFind10numMatchesEv@Base 4:4.3.4
 _ZNK5KFind12parentWidgetEv@Base 4:4.3.4
 _ZNK5KFind13dialogsParentEv@Base 4:4.3.4
 _ZNK5KFind13shouldRestartEbb@Base 4:4.3.4
 _ZNK5KFind18displayFinalDialogEv@Base 4:4.3.4
 _ZNK5KFind5indexEv@Base 4:4.3.4
 _ZNK5KFind7optionsEv@Base 4:4.3.4
 _ZNK5KFind7patternEv@Base 4:4.3.4
 _ZNK5KFind8needDataEv@Base 4:4.3.4
 _ZNK5KHBox10metaObjectEv@Base 4:4.3.4
 _ZNK5KHBox15minimumSizeHintEv@Base 4:4.3.4
 _ZNK5KHBox8sizeHintEv@Base 4:4.3.4
 _ZNK5KMenu10metaObjectEv@Base 4:4.3.4
 _ZNK5KMenu11contextMenuEv@Base 4:4.3.4
 _ZNK5KMenu12mouseButtonsEv@Base 4:4.3.4
 _ZNK5KMenu17keyboardModifiersEv@Base 4:4.3.4
 _ZNK5KVBox10metaObjectEv@Base 4:4.3.4
 _ZNK6K3Icon7isValidEv@Base 4:4.3.4
 _ZNK6KRuler10metaObjectEv@Base 4:4.3.4
 _ZNK6KRuler11lengthFixedEv@Base 4:4.3.4
 _ZNK6KRuler11showPointerEv@Base 4:4.3.4
 _ZNK6KRuler12pixelPerMarkEv@Base 4:4.3.4
 _ZNK6KRuler12showBigMarksEv@Base 4:4.3.4
 _ZNK6KRuler12showEndLabelEv@Base 4:4.3.4
 _ZNK6KRuler12showEndMarksEv@Base 4:4.3.4
 _ZNK6KRuler13showTinyMarksEv@Base 4:4.3.4
 _ZNK6KRuler15bigMarkDistanceEv@Base 4:4.3.4
 _ZNK6KRuler15showLittleMarksEv@Base 4:4.3.4
 _ZNK6KRuler15showMediumMarksEv@Base 4:4.3.4
 _ZNK6KRuler16tinyMarkDistanceEv@Base 4:4.3.4
 _ZNK6KRuler18littleMarkDistanceEv@Base 4:4.3.4
 _ZNK6KRuler18mediumMarkDistanceEv@Base 4:4.3.4
 _ZNK6KRuler6lengthEv@Base 4:4.3.4
 _ZNK6KRuler6offsetEv@Base 4:4.3.4
 _ZNK6KRuler8endLabelEv@Base 4:4.3.4
 _ZNK6KRuler8maxValueEv@Base 4:4.3.4
 _ZNK6KRuler8minValueEv@Base 4:4.3.4
 _ZNK6KRuler9endOffsetEv@Base 4:4.3.4
 _ZNK6KStyle10centerRectERK5QRectRK5QSize@Base 4:4.3.4
 _ZNK6KStyle10centerRectERK5QRectii@Base 4:4.3.4
 _ZNK6KStyle10metaObjectEv@Base 4:4.3.4
 _ZNK6KStyle11drawControlEN6QStyle14ControlElementEPK12QStyleOptionP8QPainterPK7QWidget@Base 4:4.3.4
 _ZNK6KStyle11pixelMetricEN6QStyle11PixelMetricEPK12QStyleOptionPK7QWidget@Base 4:4.3.4
 _ZNK6KStyle11useSideTextEPK23QStyleOptionProgressBar@Base 4:4.3.4
 _ZNK6KStyle12drawItemTextEP8QPainterRK5QRectiRK8QPalettebRK7QStringNS5_9ColorRoleE@Base 4:4.3.4
 _ZNK6KStyle12insideMarginERK5QRectNS_10WidgetTypeEiPK12QStyleOptionPK7QWidget@Base 4:4.3.4
 _ZNK6KStyle12itemTextRectERK12QFontMetricsRK5QRectibRK7QString@Base 4:4.3.4
 _ZNK6KStyle13drawPrimitiveEN6QStyle16PrimitiveElementEPK12QStyleOptionP8QPainterPK7QWidget@Base 4:4.3.4
 _ZNK6KStyle13isVerticalTabEPK15QStyleOptionTab@Base 4:4.3.4
 _ZNK6KStyle13sideTextWidthEPK23QStyleOptionProgressBar@Base 4:4.3.4
 _ZNK6KStyle14drawInsideRectEP8QPainterRK5QRect@Base 4:4.3.4
 _ZNK6KStyle14drawItemPixmapEP8QPainterRK5QRectiRK7QPixmap@Base 4:4.3.4
 _ZNK6KStyle14isReflectedTabEPK15QStyleOptionTab@Base 4:4.3.4
 _ZNK6KStyle14itemPixmapRectERK5QRectiRK7QPixmap@Base 4:4.3.4
 _ZNK6KStyle14standardPixmapEN6QStyle14StandardPixmapEPK12QStyleOptionPK7QWidget@Base 4:4.3.4
 _ZNK6KStyle14subControlRectEN6QStyle14ComplexControlEPK19QStyleOptionComplexNS0_10SubControlEPK7QWidget@Base 4:4.3.4
 _ZNK6KStyle14subElementRectEN6QStyle10SubElementEPK12QStyleOptionPK7QWidget@Base 4:4.3.4
 _ZNK6KStyle15standardPaletteEv@Base 4:4.3.4
 _ZNK6KStyle16sizeFromContentsEN6QStyle12ContentsTypeEPK12QStyleOptionRK5QSizePK7QWidget@Base 4:4.3.4
 _ZNK6KStyle16widgetLayoutPropENS_10WidgetTypeEiPK12QStyleOptionPK7QWidget@Base 4:4.3.4
 _ZNK6KStyle17marginAdjustedTabEPK15QStyleOptionTabi@Base 4:4.3.4
 _ZNK6KStyle18drawComplexControlEN6QStyle14ComplexControlEPK19QStyleOptionComplexP8QPainterPK7QWidget@Base 4:4.3.4
 _ZNK6KStyle19drawKStylePrimitiveENS_10WidgetTypeEiPK12QStyleOptionRK5QRectRK8QPalette6QFlagsIN6QStyle9StateFlagEEP8QPainterPK7QWidgetPNS_6OptionE@Base 4:4.3.4
 _ZNK6KStyle19generatedIconPixmapEN5QIcon4ModeERK7QPixmapPK12QStyleOption@Base 4:4.3.4
 _ZNK6KStyle21hitTestComplexControlEN6QStyle14ComplexControlEPK19QStyleOptionComplexRK6QPointPK7QWidget@Base 4:4.3.4
 _ZNK6KStyle22internalSubControlRectEN6QStyle14ComplexControlEPK19QStyleOptionComplexNS0_10SubControlEPK7QWidget@Base 4:4.3.4
 _ZNK6KStyle26standardIconImplementationEN6QStyle14StandardPixmapEPK12QStyleOptionPK7QWidget@Base 4:4.3.4
 _ZNK6KStyle27layoutSpacingImplementationEN11QSizePolicy11ControlTypeES1_N2Qt11OrientationEPK12QStyleOptionPK7QWidget@Base 4:4.3.4
 _ZNK6KStyle7tabSideEPK15QStyleOptionTab@Base 4:4.3.4
 _ZNK6KStyle9ColorModecviEv@Base 4:4.3.4
 _ZNK6KStyle9expandDimERK5QSizeNS_10WidgetTypeEiPK12QStyleOptionPK7QWidgetb@Base 4:4.3.4
 _ZNK6KStyle9handleRTLEPK12QStyleOptionRK5QRect@Base 4:4.3.4
 _ZNK6KStyle9handleRTLEPK12QStyleOptionRK6QPoint@Base 4:4.3.4
 _ZNK6KStyle9styleHintEN6QStyle9StyleHintEPK12QStyleOptionPK7QWidgetP16QStyleHintReturn@Base 4:4.3.4
 _ZNK6Sonnet11Highlighter10metaObjectEv@Base 4:4.3.4
 _ZNK6Sonnet11Highlighter15currentLanguageEv@Base 4:4.3.4
 _ZNK6Sonnet11Highlighter16intraWordEditingEv@Base 4:4.3.4
 _ZNK6Sonnet11Highlighter17spellCheckerFoundEv@Base 4:4.3.4
 _ZNK6Sonnet11Highlighter23checkerEnabledByDefaultEv@Base 4:4.4.95
 _ZNK6Sonnet11Highlighter8isActiveEv@Base 4:4.3.4
 _ZNK6Sonnet11Highlighter9automaticEv@Base 4:4.3.4
 _ZNK6Sonnet12ConfigDialog10metaObjectEv@Base 4:4.3.4
 _ZNK6Sonnet12ConfigDialog8languageEv@Base 4:4.8.1
 _ZNK6Sonnet12ConfigWidget10metaObjectEv@Base 4:4.3.4
 _ZNK6Sonnet12ConfigWidget29backgroundCheckingButtonShownEv@Base 4:4.3.4
 _ZNK6Sonnet12ConfigWidget8languageEv@Base 4:4.3.4
 _ZNK6Sonnet18DictionaryComboBox10metaObjectEv@Base 4:4.3.4
 _ZNK6Sonnet18DictionaryComboBox17currentDictionaryEv@Base 4:4.3.4
 _ZNK6Sonnet18DictionaryComboBox21currentDictionaryNameEv@Base 4:4.3.4
 _ZNK6Sonnet6Dialog10metaObjectEv@Base 4:4.3.4
 _ZNK6Sonnet6Dialog14originalBufferEv@Base 4:4.3.4
 _ZNK6Sonnet6Dialog6bufferEv@Base 4:4.3.4
 _ZNK7KAction10authActionEv@Base 4:4.4.0
 _ZNK7KAction10metaObjectEv@Base 4:4.3.4
 _ZNK7KAction12shapeGestureE6QFlagsINS_12ShortcutTypeEE@Base 4:4.3.4
 _ZNK7KAction13rockerGestureE6QFlagsINS_12ShortcutTypeEE@Base 4:4.3.4
 _ZNK7KAction14globalShortcutE6QFlagsINS_12ShortcutTypeEE@Base 4:4.3.4
 _ZNK7KAction21globalShortcutAllowedEv@Base 4:4.3.4
 _ZNK7KAction22isShortcutConfigurableEv@Base 4:4.3.4
 _ZNK7KAction23isGlobalShortcutEnabledEv@Base 4:4.3.4
 _ZNK7KAction8shortcutE6QFlagsINS_12ShortcutTypeEE@Base 4:4.3.4
 _ZNK7KDialog10buttonIconENS_10ButtonCodeE@Base 4:4.3.4
 _ZNK7KDialog10buttonTextENS_10ButtonCodeE@Base 4:4.3.4
 _ZNK7KDialog10metaObjectEv@Base 4:4.3.4
 _ZNK7KDialog12helpLinkTextEv@Base 4:4.3.4
 _ZNK7KDialog13buttonToolTipENS_10ButtonCodeE@Base 4:4.3.4
 _ZNK7KDialog13defaultButtonEv@Base 4:4.3.4
 _ZNK7KDialog14saveDialogSizeER12KConfigGroup6QFlagsIN11KConfigBase15WriteConfigFlagEE@Base 4:4.3.4
 _ZNK7KDialog15buttonWhatsThisENS_10ButtonCodeE@Base 4:4.3.4
 _ZNK7KDialog15isButtonEnabledENS_10ButtonCodeE@Base 4:4.3.4
 _ZNK7KDialog15minimumSizeHintEv@Base 4:4.3.4
 _ZNK7KDialog22isDetailsWidgetVisibleEv@Base 4:4.3.4
 _ZNK7KDialog6buttonENS_10ButtonCodeE@Base 4:4.3.4
 _ZNK7KDialog8sizeHintEv@Base 4:4.3.4
 _ZNK7KTabBar10metaObjectEv@Base 4:4.3.4
 _ZNK7KTabBar11tabSizeHintEi@Base 4:4.3.4
 _ZNK7KTabBar14closeButtonPosEi@Base 4:4.3.4
 _ZNK7KTabBar15closeButtonRectEi@Base 4:4.3.4
 _ZNK7KTabBar16hoverCloseButtonEv@Base 4:4.3.4
 _ZNK7KTabBar20isCloseButtonEnabledEv@Base 4:4.3.4
 _ZNK7KTabBar22isTabReorderingEnabledEv@Base 4:4.3.4
 _ZNK7KTabBar23hoverCloseButtonDelayedEv@Base 4:4.3.4
 _ZNK7KTabBar24tabCloseActivatePreviousEv@Base 4:4.3.4
 _ZNK7KTabBar9selectTabERK6QPoint@Base 4:4.3.4
 _ZNK7KWallet6Wallet10metaObjectEv@Base 4:4.3.4
 _ZNK7KWallet6Wallet10walletNameEv@Base 4:4.3.4
 _ZNK7KWallet6Wallet13currentFolderEv@Base 4:4.3.4
 _ZNK7KWallet6Wallet6isOpenEv@Base 4:4.3.4
 _ZNK8KCModule10authActionEv@Base 4:4.4.0
 _ZNK8KCModule10exportTextEv@Base 4:4.4.95
 _ZNK8KCModule10metaObjectEv@Base 4:4.3.4
 _ZNK8KCModule13componentDataEv@Base 4:4.3.4
 _ZNK8KCModule15rootOnlyMessageEv@Base 4:4.3.4
 _ZNK8KCModule18needsAuthorizationEv@Base 4:4.4.0
 _ZNK8KCModule18useRootOnlyMessageEv@Base 4:4.3.4
 _ZNK8KCModule24managedWidgetChangeStateEv@Base 4:4.3.4
 _ZNK8KCModule7buttonsEv@Base 4:4.3.4
 _ZNK8KCModule7configsEv@Base 4:4.3.4
 _ZNK8KCModule9aboutDataEv@Base 4:4.3.4
 _ZNK8KCModule9quickHelpEv@Base 4:4.3.4
 _ZNK8KGuiItem4iconEv@Base 4:4.3.4
 _ZNK8KGuiItem4textEv@Base 4:4.3.4
 _ZNK8KGuiItem7hasIconEv@Base 4:4.3.4
 _ZNK8KGuiItem7iconSetEN11KIconLoader5GroupEi@Base 4:4.3.4
 _ZNK8KGuiItem7toolTipEv@Base 4:4.3.4
 _ZNK8KGuiItem8iconNameEv@Base 4:4.3.4
 _ZNK8KGuiItem9isEnabledEv@Base 4:4.3.4
 _ZNK8KGuiItem9plainTextEv@Base 4:4.3.4
 _ZNK8KGuiItem9whatsThisEv@Base 4:4.3.4
 _ZNK8KMenuBar10metaObjectEv@Base 4:4.3.4
 _ZNK8KMenuBar14isTopLevelMenuEv@Base 4:4.3.4
 _ZNK8KMenuBar8sizeHintEv@Base 4:4.3.4
 _ZNK8KReplace10metaObjectEv@Base 4:4.3.4
 _ZNK8KReplace13shouldRestartEbb@Base 4:4.3.4
 _ZNK8KReplace15numReplacementsEv@Base 4:4.3.4
 _ZNK8KReplace18displayFinalDialogEv@Base 4:4.3.4
 _ZNK8KToolBar10mainWindowEv@Base 4:4.3.4
 _ZNK8KToolBar10metaObjectEv@Base 4:4.3.4
 _ZNK8KToolBar15iconSizeDefaultEv@Base 4:4.3.4
 _ZNK8KToolBar18contextMenuEnabledEv@Base 4:4.3.4
 _ZNK8KToolBar7Private10findActionERK7QStringPP13KXMLGUIClient@Base 4:4.8.1
 _ZNK8KToolBar7Private19getPositionAsStringEv@Base 4:4.3.4
 _ZNK8KToolBar9saveStateER11QDomElement@Base 4:4.3.4
 _ZNK9KComboBox10metaObjectEv@Base 4:4.3.4
 _ZNK9KComboBox13trapReturnKeyEv@Base 4:4.3.4
 _ZNK9KComboBox14autoCompletionEv@Base 4:4.3.4
 _ZNK9KComboBox14cursorPositionEv@Base 4:4.3.4
 _ZNK9KComboBox15minimumSizeHintEv@Base 4:4.3.4
 _ZNK9KComboBox15urlDropsEnabledEv@Base 4:4.3.4
 _ZNK9KComboBox8containsERK7QString@Base 4:4.3.4
 _ZNK9KHelpMenu10metaObjectEv@Base 4:4.3.4
 _ZNK9KHelpMenu6actionENS_6MenuIdE@Base 4:4.3.4
 _ZNK9KLineEdit10metaObjectEv@Base 4:4.3.4
 _ZNK9KLineEdit11autoSuggestEv@Base 4:4.3.4
 _ZNK9KLineEdit12clickMessageEv@Base 4:4.3.4
 _ZNK9KLineEdit12originalTextEv@Base 4:4.3.4
 _ZNK9KLineEdit12passwordModeEv@Base 4:4.3.4
 _ZNK9KLineEdit13trapReturnKeyEv@Base 4:4.3.4
 _ZNK9KLineEdit15urlDropsEnabledEv@Base 4:4.3.4
 _ZNK9KLineEdit16copySqueezedTextEb@Base 4:4.3.4
 _ZNK9KLineEdit18isClearButtonShownEv@Base 4:4.3.4
 _ZNK9KLineEdit19clearButtonUsedSizeEv@Base 4:4.3.4
 _ZNK9KLineEdit20isContextMenuEnabledEv@Base 4:4.3.4
 _ZNK9KLineEdit21isSqueezedTextEnabledEv@Base 4:4.3.4
 _ZNK9KLineEdit4copyEv@Base 4:4.3.4
 _ZNK9KLineEdit8userTextEv@Base 4:4.3.4
 _ZNK9KNumInput10metaObjectEv@Base 4:4.3.4
 _ZNK9KNumInput10showSliderEv@Base 4:4.3.4
 _ZNK9KNumInput5labelEv@Base 4:4.3.4
 _ZNK9KNumInput6sliderEv@Base 4:4.3.4
 _ZNK9KNumInput8sizeHintEv@Base 4:4.3.4
 _ZNK9KPageView10metaObjectEv@Base 4:4.3.4
 _ZNK9KPageView11currentPageEv@Base 4:4.3.4
 _ZNK9KPageView12itemDelegateEv@Base 4:4.3.4
 _ZNK9KPageView12viewPositionEv@Base 4:4.3.4
 _ZNK9KPageView14showPageHeaderEv@Base 4:4.3.4
 _ZNK9KPageView5modelEv@Base 4:4.3.4
 _ZNK9KPageView8faceTypeEv@Base 4:4.3.4
 _ZNK9KPlotAxis14majorTickMarksEv@Base 4:4.3.4
 _ZNK9KPlotAxis14minorTickMarksEv@Base 4:4.3.4
 _ZNK9KPlotAxis14tickLabelWidthEv@Base 4:4.3.4
 _ZNK9KPlotAxis15tickLabelFormatEv@Base 4:4.3.4
 _ZNK9KPlotAxis18areTickLabelsShownEv@Base 4:4.3.4
 _ZNK9KPlotAxis18tickLabelPrecisionEv@Base 4:4.3.4
 _ZNK9KPlotAxis5labelEv@Base 4:4.3.4
 _ZNK9KPlotAxis9isVisibleEv@Base 4:4.3.4
 _ZNK9KPlotAxis9tickLabelEd@Base 4:4.3.4
 _ZNK9KSelector10metaObjectEv@Base 4:4.3.4
 _ZNK9KSelector12contentsRectEv@Base 4:4.3.4
 _ZNK9KSelector14arrowDirectionEv@Base 4:4.3.4
 _ZNK9KSelector6indentEv@Base 4:4.3.4
 _ZNK9KShortcut13conflictsWithERK12QKeySequence@Base 4:4.3.4
 _ZNK9KShortcut6toListENS_13EmptyHandlingE@Base 4:4.3.4
 _ZNK9KShortcut7isEmptyEv@Base 4:4.3.4
 _ZNK9KShortcut7primaryEv@Base 4:4.3.4
 _ZNK9KShortcut8containsERK12QKeySequence@Base 4:4.3.4
 _ZNK9KShortcut8toStringEN12QKeySequence14SequenceFormatE@Base 4:4.3.4
 _ZNK9KShortcut8toStringEv@Base 4:4.3.4
 _ZNK9KShortcut9alternateEv@Base 4:4.3.4
 _ZNK9KShortcutcv5QListI12QKeySequenceEEv@Base 4:4.3.4
 _ZNK9KShortcutcv8QVariantEv@Base 4:4.3.4
 _ZNK9KShortcuteqERKS_@Base 4:4.3.4
 _ZNK9KShortcutneERKS_@Base 4:4.3.4
 _ZNK9KTextEdit10metaObjectEv@Base 4:4.3.4
 _ZNK9KTextEdit11highlighterEv@Base 4:4.3.4
 _ZNK9KTextEdit12clickMessageEv@Base 4:4.4.0
 _ZNK9KTextEdit20checkSpellingEnabledEv@Base 4:4.3.4
 _ZNK9KTextEdit21spellCheckingLanguageEv@Base 4:4.3.4
 _ZNK9KTextEdit28checkSpellingEnabledInternalEv@Base 4:4.3.4
 _ZNK9KUrlLabel10metaObjectEv@Base 4:4.3.4
 _ZNK9KUrlLabel13isGlowEnabledEv@Base 4:4.3.4
 _ZNK9KUrlLabel14isFloatEnabledEv@Base 4:4.3.4
 _ZNK9KUrlLabel15alternatePixmapEv@Base 4:4.3.4
 _ZNK9KUrlLabel3urlEv@Base 4:4.3.4
 _ZNK9KUrlLabel7tipTextEv@Base 4:4.3.4
 _ZNK9KUrlLabel7useTipsEv@Base 4:4.3.4
 _ZNK9KUrlLabel9useCursorEv@Base 4:4.3.4
 _ZNK9KWordWrap12boundingRectEv@Base 4:4.3.4
 _ZNK9KWordWrap13wrappedStringEv@Base 4:4.3.4
 _ZNK9KWordWrap15truncatedStringEb@Base 4:4.3.4
 _ZNK9KWordWrap8drawTextEP8QPainteriii@Base 4:4.3.4
 _ZTI10KBugReport@Base 4:4.3.4
 _ZTI10KDateTable@Base 4:4.3.4
 _ZTI10KIconCache@Base 4:4.3.4
 _ZTI10KPageModel@Base 4:4.3.4
 _ZTI10KSeparator@Base 4:4.3.4
 _ZTI10KStatusBar@Base 4:4.3.4
 _ZTI10KTabWidget@Base 4:4.3.4
 _ZTI10KTipDialog@Base 4:4.3.4
 _ZTI10KUndoStack@Base 4:4.3.4
 _ZTI10KXMessages@Base 4:4.3.4
 _ZTI10NETWinInfo@Base 4:4.3.4
 _ZTI11KActionMenu@Base 4:4.3.4
 _ZTI11KCharSelect@Base 4:4.3.4
 _ZTI11KColorCells@Base 4:4.3.4
 _ZTI11KColorCombo@Base 4:4.3.4
 _ZTI11KColorPatch@Base 4:4.3.4
 _ZTI11KCompletion@Base 4:4.3.4
 _ZTI11KDatePicker@Base 4:4.3.4
 _ZTI11KDateWidget@Base 4:4.3.4
 _ZTI11KDualAction@Base 4:4.5.85
 _ZTI11KFindDialog@Base 4:4.3.4
 _ZTI11KFontAction@Base 4:4.3.4
 _ZTI11KFontDialog@Base 4:4.3.4
 _ZTI11KIconLoader@Base 4:4.3.4
 _ZTI11KIntSpinBox@Base 4:4.3.4
 _ZTI11KListWidget@Base 4:4.3.4
 _ZTI11KMainWindow@Base 4:4.3.4
 _ZTI11KPageDialog@Base 4:4.3.4
 _ZTI11KPageWidget@Base 4:4.3.4
 _ZTI11KPlotWidget@Base 4:4.3.4
 _ZTI11KPopupFrame@Base 4:4.3.4
 _ZTI11KPushButton@Base 4:4.3.4
 _ZTI11KXYSelector@Base 4:4.3.4
 _ZTI11NETRootInfo@Base 4:4.3.4
 _ZTI11NETWinInfo2@Base 4:4.3.4
 _ZTI12KApplication@Base 4:4.3.4
 _ZTI12KArrowButton@Base 4:4.3.4
 _ZTI12KButtonGroup@Base 4:4.3.4
 _ZTI12KCapacityBar@Base 4:4.3.4
 _ZTI12KCodecAction@Base 4:4.3.4
 _ZTI12KColorButton@Base 4:4.3.4
 _ZTI12KColorDialog@Base 4:4.3.4
 _ZTI12KColorScheme@Base 4:4.3.4
 _ZTI12KEditListBox@Base 4:4.3.4
 _ZTI12KEditToolBar@Base 4:4.3.4
 _ZTI12KFontChooser@Base 4:4.3.4
 _ZTI12KGlobalAccel@Base 4:4.3.4
 _ZTI12KIntNumInput@Base 4:4.3.4
 _ZTI12KMultiTabBar@Base 4:4.3.4
 _ZTI12KPixmapCache@Base 4:4.3.4
 _ZTI12KStartupInfo@Base 4:4.3.4
 _ZTI12KSvgRenderer@Base 4:4.3.4
 _ZTI12KTextBrowser@Base 4:4.3.4
 _ZTI12KTitleWidget@Base 4:4.3.4
 _ZTI13KConfigDialog@Base 4:4.3.4
 _ZTI13KDateComboBox@Base 4:4.7.0
 _ZTI13KDateTimeEdit@Base 4:4.7.0
 _ZTI13KFontComboBox@Base 4:4.3.4
 _ZTI13KIntValidator@Base 4:4.3.4
 _ZTI13KNotification@Base 4:4.3.4
 _ZTI13KPassivePopup@Base 4:4.3.4
 _ZTI13KRatingWidget@Base 4:4.5.85
 _ZTI13KRichTextEdit@Base 4:4.3.4
 _ZTI13KSelectAction@Base 4:4.3.4
 _ZTI13KSplashScreen@Base 4:4.3.4
 _ZTI13KTimeComboBox@Base 4:4.7.0
 _ZTI13KToggleAction@Base 4:4.3.4
 _ZTI13KWindowSystem@Base 4:4.3.4
 _ZTI13KXMLGUIClient@Base 4:4.3.4
 _ZTI13KXmlGuiWindow@Base 4:4.3.4
 _ZTI14KCompletionBox@Base 4:4.3.4
 _ZTI14KDateValidator@Base 4:4.3.4
 _ZTI14KFontRequester@Base 4:4.3.4
 _ZTI14KMessageWidget@Base 4:4.7.0
 _ZTI14KReplaceDialog@Base 4:4.3.4
 _ZTI14KXMLGUIBuilder@Base 4:4.3.4
 _ZTI14KXMLGUIFactory@Base 4:4.3.4
 _ZTI15KActionCategory@Base 4:4.3.4
 _ZTI15KActionSelector@Base 4:4.3.4
 _ZTI15KAnimatedButton@Base 4:4.3.4
 _ZTI15KCategoryDrawer@Base 4:4.3.4
 _ZTI15KCompletionBase@Base 4:4.3.4
 _ZTI15KConfigSkeleton@Base 4:4.3.4
 _ZTI15KDateTimeWidget@Base 4:4.3.4
 _ZTI15KDoubleNumInput@Base 4:4.3.4
 _ZTI15KEditListWidget@Base 4:4.5.85
 _ZTI15KFloatValidator@Base 4:4.3.4
 _ZTI15KFontSizeAction@Base 4:4.3.4
 _ZTI15KGlobalSettings@Base 4:4.3.4
 _ZTI15KLanguageButton@Base 4:4.3.4
 _ZTI15KMessageHandler@Base 4:4.3.4
 _ZTI15KMultiTabBarTab@Base 4:4.3.4
 _ZTI15KPageWidgetItem@Base 4:4.3.4
 _ZTI15KPasswordDialog@Base 4:4.3.4
 _ZTI15KPixmapProvider@Base 4:4.3.4
 _ZTI15KProgressDialog@Base 4:4.3.4
 _ZTI15KRestrictedLine@Base 4:4.3.4
 _ZTI15KRichTextWidget@Base 4:4.3.4
 _ZTI15KSelectionOwner@Base 4:4.3.4
 _ZTI15KSessionManager@Base 4:4.3.4
 _ZTI15KShortcutWidget@Base 4:4.3.4
 _ZTI15KSystemTrayIcon@Base 4:4.3.4
 _ZTI15KTimeZoneWidget@Base 4:4.3.4
 _ZTI15KViewStateSaver@Base 4:4.4.95
 _ZTI15KdeUiProxyStyle@Base 4:4.3.4
 _ZTI16KAssistantDialog@Base 4:4.3.4
 _ZTI16KCategorizedView@Base 4:4.3.4
 _ZTI16KDialogButtonBox@Base 4:4.3.4
 _ZTI16KDoubleValidator@Base 4:4.3.4
 _ZTI16KHistoryComboBox@Base 4:4.3.4
 _ZTI16KModifierKeyInfo@Base 4:4.3.4
 _ZTI16KPageWidgetModel@Base 4:4.3.4
 _ZTI16KPasteTextAction@Base 4:4.3.4
 _ZTI16KShortcutsDialog@Base 4:4.3.4
 _ZTI16KShortcutsEditor@Base 4:4.3.4
 _ZTI17KActionCollection@Base 4:4.3.4
 _ZTI17KCategoryDrawerV2@Base 4:4.4.0
 _ZTI17KCategoryDrawerV3@Base 4:4.4.95
 _ZTI17KFadeWidgetEffect@Base 4:4.3.4
 _ZTI17KGradientSelector@Base 4:4.3.4
 _ZTI17KSelectionWatcher@Base 4:4.3.4
 _ZTI17KWidgetJobTracker@Base 4:4.3.4
 _ZTI18KKeySequenceWidget@Base 4:4.3.4
 _ZTI18KMimeTypeValidator@Base 4:4.3.4
 _ZTI18KMultiTabBarButton@Base 4:4.3.4
 _ZTI18KNewPasswordDialog@Base 4:4.3.4
 _ZTI18KPageDialogPrivate@Base 4:4.3.4
 _ZTI18KRecentFilesAction@Base 4:4.3.4
 _ZTI18KSqueezedTextLabel@Base 4:4.3.4
 _ZTI18KUniqueApplication@Base 4:4.3.4
 _ZTI19KColorValueSelector@Base 4:4.3.4
 _ZTI19KGlobalShortcutInfo@Base 4:4.3.4
 _ZTI19KIdentityProxyModel@Base 4:4.5.85
 _ZTI19KStatusNotifierItem@Base 4:4.4.0
 _ZTI19KToolBarLabelAction@Base 4:4.3.4
 _ZTI19KToolBarPopupAction@Base 4:4.3.4
 _ZTI19KUiServerJobTracker@Base 4:4.3.4
 _ZTI19KWidgetItemDelegate@Base 4:4.3.4
 _ZTI20KCheckableProxyModel@Base 4:4.5.85
 _ZTI20KConfigDialogManager@Base 4:4.3.4
 _ZTI20KDialogJobUiDelegate@Base 4:4.3.4
 _ZTI20KSelectionProxyModel@Base 4:4.4.0
 _ZTI20KStatusBarJobTracker@Base 4:4.3.4
 _ZTI20KStringListValidator@Base 4:4.3.4
 _ZTI20KToggleToolBarAction@Base 4:4.3.4
 _ZTI20KToolBarSpacerAction@Base 4:4.3.4
 _ZTI21KListWidgetSearchLine@Base 4:4.3.4
 _ZTI21KPixmapSequenceWidget@Base 4:4.4.0
 _ZTI21KTreeWidgetSearchLine@Base 4:4.3.4
 _ZTI22KClipboardSynchronizer@Base 4:4.3.4
 _ZTI22KDescendantsProxyModel@Base 4:4.5.85
 _ZTI22KFilterProxySearchLine@Base 4:4.3.4
 _ZTI22KHueSaturationSelector@Base 4:4.3.4
 _ZTI22KModelIndexProxyMapper@Base 4:4.4.95
 _ZTI23KAboutApplicationDialog@Base 4:4.3.4
 _ZTI23KExtendableItemDelegate@Base 4:4.3.4
 _ZTI23KLinkItemSelectionModel@Base 4:4.4.95
 _ZTI23KToggleFullScreenAction@Base 4:4.3.4
 _ZTI24KViewStateMaintainerBase@Base 4:4.5.85
 _ZTI25KAbstractWidgetJobTracker@Base 4:4.3.4
 _ZTI25KBreadcrumbSelectionModel@Base 4:4.4.95
 _ZTI25KMessageBoxMessageHandler@Base 4:4.3.4
 _ZTI25KNotificationRestrictions@Base 4:4.3.4
 _ZTI26KRecursiveFilterProxyModel@Base 4:4.4.95
 _ZTI27KPassivePopupMessageHandler@Base 4:4.3.4
 _ZTI27KPixmapRegionSelectorDialog@Base 4:4.3.4
 _ZTI27KPixmapRegionSelectorWidget@Base 4:4.3.4
 _ZTI27KTreeWidgetSearchLineWidget@Base 4:4.3.4
 _ZTI29KPixmapSequenceOverlayPainter@Base 4:4.4.0
 _ZTI32KCategorizedSortFilterProxyModel@Base 4:4.3.4
 _ZTI3NET@Base 4:4.3.4
 _ZTI4KLed@Base 4:4.3.4
 _ZTI5KFind@Base 4:4.3.4
 _ZTI5KHBox@Base 4:4.3.4
 _ZTI5KMenu@Base 4:4.3.4
 _ZTI5KVBox@Base 4:4.3.4
 _ZTI6KRuler@Base 4:4.3.4
 _ZTI6KStyle@Base 4:4.3.4
 _ZTI7KAction@Base 4:4.3.4
 _ZTI7KDialog@Base 4:4.3.4
 _ZTI7KTabBar@Base 4:4.3.4
 _ZTI8KCModule@Base 4:4.3.4
 _ZTI8KMenuBar@Base 4:4.3.4
 _ZTI8KReplace@Base 4:4.3.4
 _ZTI8KToolBar@Base 4:4.3.4
 _ZTI9KComboBox@Base 4:4.3.4
 _ZTI9KHelpMenu@Base 4:4.3.4
 _ZTI9KLineEdit@Base 4:4.3.4
 _ZTI9KNumInput@Base 4:4.3.4
 _ZTI9KPageView@Base 4:4.3.4
 _ZTI9KSelector@Base 4:4.3.4
 _ZTI9KTextEdit@Base 4:4.3.4
 _ZTI9KUrlLabel@Base 4:4.3.4
 _ZTIN11KImageCache7PrivateE@Base 4:4.4.95
 _ZTIN11KPopupFrame18KPopupFramePrivate19OutsideClickCatcherE@Base 4:4.3.4
 _ZTIN12KEditListBox12CustomEditorE@Base 4:4.3.4
 _ZTIN15KConfigSkeleton8ItemFontE@Base 4:4.3.4
 _ZTIN15KConfigSkeleton9ItemColorE@Base 4:4.3.4
 _ZTIN15KEditListWidget12CustomEditorE@Base 4:4.5.85
 _ZTIN15KSelectionOwner7PrivateE@Base 4:4.3.4
 _ZTIN17KSelectionWatcher7PrivateE@Base 4:4.3.4
 _ZTIN17KWidgetJobTracker7Private14ProgressWidgetE@Base 4:4.3.4
 _ZTIN17KWidgetJobTracker7PrivateE@Base 4:4.3.4
 _ZTIN20KStatusBarJobTracker7Private14ProgressWidgetE@Base 4:4.3.4
 _ZTIN25KAbstractWidgetJobTracker7PrivateE@Base 4:4.3.4
 _ZTIN5KMenu12KMenuPrivateE@Base 4:4.5.85
 _ZTIN6KStyle10IconOptionE@Base 4:4.3.4
 _ZTIN6KStyle10OptionBaseINS_10IconOptionENS_6OptionEEE@Base 4:4.3.4
 _ZTIN6KStyle10OptionBaseINS_10TextOptionENS_11ColorOptionEEE@Base 4:4.3.4
 _ZTIN6KStyle10OptionBaseINS_11ColorOptionENS_6OptionEEE@Base 4:4.3.4
 _ZTIN6KStyle10OptionBaseINS_17TitleButtonOptionENS_6OptionEEE@Base 4:4.3.4
 _ZTIN6KStyle10OptionBaseINS_18DoubleButtonOptionENS_6OptionEEE@Base 4:4.3.4
 _ZTIN6KStyle10TextOptionE@Base 4:4.3.4
 _ZTIN6KStyle11ColorOptionE@Base 4:4.3.4
 _ZTIN6KStyle17TitleButtonOptionE@Base 4:4.3.4
 _ZTIN6KStyle18DoubleButtonOptionE@Base 4:4.3.4
 _ZTIN6KStyle6OptionE@Base 4:4.3.4
 _ZTIN6Sonnet11HighlighterE@Base 4:4.3.4
 _ZTIN6Sonnet12ConfigDialogE@Base 4:4.3.4
 _ZTIN6Sonnet12ConfigWidgetE@Base 4:4.3.4
 _ZTIN6Sonnet18DictionaryComboBoxE@Base 4:4.3.4
 _ZTIN6Sonnet6DialogE@Base 4:4.3.4
 _ZTIN7KWallet6WalletE@Base 4:4.3.4
 _ZTS10KBugReport@Base 4:4.3.4
 _ZTS10KDateTable@Base 4:4.3.4
 _ZTS10KIconCache@Base 4:4.3.4
 _ZTS10KPageModel@Base 4:4.3.4
 _ZTS10KSeparator@Base 4:4.3.4
 _ZTS10KStatusBar@Base 4:4.3.4
 _ZTS10KTabWidget@Base 4:4.3.4
 _ZTS10KTipDialog@Base 4:4.3.4
 _ZTS10KUndoStack@Base 4:4.3.4
 _ZTS10KXMessages@Base 4:4.3.4
 _ZTS10NETWinInfo@Base 4:4.3.4
 _ZTS11KActionMenu@Base 4:4.3.4
 _ZTS11KCharSelect@Base 4:4.3.4
 _ZTS11KColorCells@Base 4:4.3.4
 _ZTS11KColorCombo@Base 4:4.3.4
 _ZTS11KColorPatch@Base 4:4.3.4
 _ZTS11KCompletion@Base 4:4.3.4
 _ZTS11KDatePicker@Base 4:4.3.4
 _ZTS11KDateWidget@Base 4:4.3.4
 _ZTS11KDualAction@Base 4:4.5.85
 _ZTS11KFindDialog@Base 4:4.3.4
 _ZTS11KFontAction@Base 4:4.3.4
 _ZTS11KFontDialog@Base 4:4.3.4
 _ZTS11KIconLoader@Base 4:4.3.4
 _ZTS11KIntSpinBox@Base 4:4.3.4
 _ZTS11KListWidget@Base 4:4.3.4
 _ZTS11KMainWindow@Base 4:4.3.4
 _ZTS11KPageDialog@Base 4:4.3.4
 _ZTS11KPageWidget@Base 4:4.3.4
 _ZTS11KPlotWidget@Base 4:4.3.4
 _ZTS11KPopupFrame@Base 4:4.3.4
 _ZTS11KPushButton@Base 4:4.3.4
 _ZTS11KXYSelector@Base 4:4.3.4
 _ZTS11NETRootInfo@Base 4:4.3.4
 _ZTS11NETWinInfo2@Base 4:4.3.4
 _ZTS12KApplication@Base 4:4.3.4
 _ZTS12KArrowButton@Base 4:4.3.4
 _ZTS12KButtonGroup@Base 4:4.3.4
 _ZTS12KCapacityBar@Base 4:4.3.4
 _ZTS12KCodecAction@Base 4:4.3.4
 _ZTS12KColorButton@Base 4:4.3.4
 _ZTS12KColorDialog@Base 4:4.3.4
 _ZTS12KColorScheme@Base 4:4.3.4
 _ZTS12KEditListBox@Base 4:4.3.4
 _ZTS12KEditToolBar@Base 4:4.3.4
 _ZTS12KFontChooser@Base 4:4.3.4
 _ZTS12KGlobalAccel@Base 4:4.3.4
 _ZTS12KIntNumInput@Base 4:4.3.4
 _ZTS12KMultiTabBar@Base 4:4.3.4
 _ZTS12KPixmapCache@Base 4:4.3.4
 _ZTS12KStartupInfo@Base 4:4.3.4
 _ZTS12KSvgRenderer@Base 4:4.3.4
 _ZTS12KTextBrowser@Base 4:4.3.4
 _ZTS12KTitleWidget@Base 4:4.3.4
 _ZTS13KConfigDialog@Base 4:4.3.4
 _ZTS13KDateComboBox@Base 4:4.7.0
 _ZTS13KDateTimeEdit@Base 4:4.7.0
 _ZTS13KFontComboBox@Base 4:4.3.4
 _ZTS13KIntValidator@Base 4:4.3.4
 _ZTS13KNotification@Base 4:4.3.4
 _ZTS13KPassivePopup@Base 4:4.3.4
 _ZTS13KRatingWidget@Base 4:4.5.85
 _ZTS13KRichTextEdit@Base 4:4.3.4
 _ZTS13KSelectAction@Base 4:4.3.4
 _ZTS13KSplashScreen@Base 4:4.3.4
 _ZTS13KTimeComboBox@Base 4:4.7.0
 _ZTS13KToggleAction@Base 4:4.3.4
 _ZTS13KWindowSystem@Base 4:4.3.4
 _ZTS13KXMLGUIClient@Base 4:4.3.4
 _ZTS13KXmlGuiWindow@Base 4:4.3.4
 _ZTS14KCompletionBox@Base 4:4.3.4
 _ZTS14KDateValidator@Base 4:4.3.4
 _ZTS14KFontRequester@Base 4:4.3.4
 _ZTS14KMessageWidget@Base 4:4.7.0
 _ZTS14KReplaceDialog@Base 4:4.3.4
 _ZTS14KXMLGUIBuilder@Base 4:4.3.4
 _ZTS14KXMLGUIFactory@Base 4:4.3.4
 _ZTS15KActionCategory@Base 4:4.3.4
 _ZTS15KActionSelector@Base 4:4.3.4
 _ZTS15KAnimatedButton@Base 4:4.3.4
 _ZTS15KCategoryDrawer@Base 4:4.3.4
 _ZTS15KCompletionBase@Base 4:4.3.4
 _ZTS15KConfigSkeleton@Base 4:4.3.4
 _ZTS15KDateTimeWidget@Base 4:4.3.4
 _ZTS15KDoubleNumInput@Base 4:4.3.4
 _ZTS15KEditListWidget@Base 4:4.5.85
 _ZTS15KFloatValidator@Base 4:4.3.4
 _ZTS15KFontSizeAction@Base 4:4.3.4
 _ZTS15KGlobalSettings@Base 4:4.3.4
 _ZTS15KLanguageButton@Base 4:4.3.4
 _ZTS15KMessageHandler@Base 4:4.3.4
 _ZTS15KMultiTabBarTab@Base 4:4.3.4
 _ZTS15KPageWidgetItem@Base 4:4.3.4
 _ZTS15KPasswordDialog@Base 4:4.3.4
 _ZTS15KPixmapProvider@Base 4:4.3.4
 _ZTS15KProgressDialog@Base 4:4.3.4
 _ZTS15KRestrictedLine@Base 4:4.3.4
 _ZTS15KRichTextWidget@Base 4:4.3.4
 _ZTS15KSelectionOwner@Base 4:4.3.4
 _ZTS15KSessionManager@Base 4:4.3.4
 _ZTS15KShortcutWidget@Base 4:4.3.4
 _ZTS15KSystemTrayIcon@Base 4:4.3.4
 _ZTS15KTimeZoneWidget@Base 4:4.3.4
 _ZTS15KViewStateSaver@Base 4:4.4.95
 _ZTS15KdeUiProxyStyle@Base 4:4.3.4
 _ZTS16KAssistantDialog@Base 4:4.3.4
 _ZTS16KCategorizedView@Base 4:4.3.4
 _ZTS16KDialogButtonBox@Base 4:4.3.4
 _ZTS16KDoubleValidator@Base 4:4.3.4
 _ZTS16KHistoryComboBox@Base 4:4.3.4
 _ZTS16KModifierKeyInfo@Base 4:4.3.4
 _ZTS16KPageWidgetModel@Base 4:4.3.4
 _ZTS16KPasteTextAction@Base 4:4.3.4
 _ZTS16KShortcutsDialog@Base 4:4.3.4
 _ZTS16KShortcutsEditor@Base 4:4.3.4
 _ZTS17KActionCollection@Base 4:4.3.4
 _ZTS17KCategoryDrawerV2@Base 4:4.4.0
 _ZTS17KCategoryDrawerV3@Base 4:4.4.95
 _ZTS17KFadeWidgetEffect@Base 4:4.3.4
 _ZTS17KGradientSelector@Base 4:4.3.4
 _ZTS17KSelectionWatcher@Base 4:4.3.4
 _ZTS17KWidgetJobTracker@Base 4:4.3.4
 _ZTS18KKeySequenceWidget@Base 4:4.3.4
 _ZTS18KMimeTypeValidator@Base 4:4.3.4
 _ZTS18KMultiTabBarButton@Base 4:4.3.4
 _ZTS18KNewPasswordDialog@Base 4:4.3.4
 _ZTS18KPageDialogPrivate@Base 4:4.3.4
 _ZTS18KRecentFilesAction@Base 4:4.3.4
 _ZTS18KSqueezedTextLabel@Base 4:4.3.4
 _ZTS18KUniqueApplication@Base 4:4.3.4
 _ZTS19KColorValueSelector@Base 4:4.3.4
 _ZTS19KGlobalShortcutInfo@Base 4:4.3.4
 _ZTS19KIdentityProxyModel@Base 4:4.5.85
 _ZTS19KStatusNotifierItem@Base 4:4.4.0
 _ZTS19KToolBarLabelAction@Base 4:4.3.4
 _ZTS19KToolBarPopupAction@Base 4:4.3.4
 _ZTS19KUiServerJobTracker@Base 4:4.3.4
 _ZTS19KWidgetItemDelegate@Base 4:4.3.4
 _ZTS20KCheckableProxyModel@Base 4:4.5.85
 _ZTS20KConfigDialogManager@Base 4:4.3.4
 _ZTS20KDialogJobUiDelegate@Base 4:4.3.4
 _ZTS20KSelectionProxyModel@Base 4:4.4.0
 _ZTS20KStatusBarJobTracker@Base 4:4.3.4
 _ZTS20KStringListValidator@Base 4:4.3.4
 _ZTS20KToggleToolBarAction@Base 4:4.3.4
 _ZTS20KToolBarSpacerAction@Base 4:4.3.4
 _ZTS21KListWidgetSearchLine@Base 4:4.3.4
 _ZTS21KPixmapSequenceWidget@Base 4:4.4.0
 _ZTS21KTreeWidgetSearchLine@Base 4:4.3.4
 _ZTS22KClipboardSynchronizer@Base 4:4.3.4
 _ZTS22KDescendantsProxyModel@Base 4:4.5.85
 _ZTS22KFilterProxySearchLine@Base 4:4.3.4
 _ZTS22KHueSaturationSelector@Base 4:4.3.4
 _ZTS22KModelIndexProxyMapper@Base 4:4.4.95
 _ZTS23KAboutApplicationDialog@Base 4:4.3.4
 _ZTS23KExtendableItemDelegate@Base 4:4.3.4
 _ZTS23KLinkItemSelectionModel@Base 4:4.4.95
 _ZTS23KToggleFullScreenAction@Base 4:4.3.4
 _ZTS24KViewStateMaintainerBase@Base 4:4.5.85
 _ZTS25KAbstractWidgetJobTracker@Base 4:4.3.4
 _ZTS25KBreadcrumbSelectionModel@Base 4:4.4.95
 _ZTS25KMessageBoxMessageHandler@Base 4:4.3.4
 _ZTS25KNotificationRestrictions@Base 4:4.3.4
 _ZTS26KRecursiveFilterProxyModel@Base 4:4.4.95
 _ZTS27KPassivePopupMessageHandler@Base 4:4.3.4
 _ZTS27KPixmapRegionSelectorDialog@Base 4:4.3.4
 _ZTS27KPixmapRegionSelectorWidget@Base 4:4.3.4
 _ZTS27KTreeWidgetSearchLineWidget@Base 4:4.3.4
 _ZTS29KPixmapSequenceOverlayPainter@Base 4:4.4.0
 _ZTS32KCategorizedSortFilterProxyModel@Base 4:4.3.4
 _ZTS3NET@Base 4:4.3.4
 _ZTS4KLed@Base 4:4.3.4
 _ZTS5KFind@Base 4:4.3.4
 _ZTS5KHBox@Base 4:4.3.4
 _ZTS5KMenu@Base 4:4.3.4
 _ZTS5KVBox@Base 4:4.3.4
 _ZTS6KRuler@Base 4:4.3.4
 _ZTS6KStyle@Base 4:4.3.4
 _ZTS7KAction@Base 4:4.3.4
 _ZTS7KDialog@Base 4:4.3.4
 _ZTS7KTabBar@Base 4:4.3.4
 _ZTS8KCModule@Base 4:4.3.4
 _ZTS8KMenuBar@Base 4:4.3.4
 _ZTS8KReplace@Base 4:4.3.4
 _ZTS8KToolBar@Base 4:4.3.4
 _ZTS9KComboBox@Base 4:4.3.4
 _ZTS9KHelpMenu@Base 4:4.3.4
 _ZTS9KLineEdit@Base 4:4.3.4
 _ZTS9KNumInput@Base 4:4.3.4
 _ZTS9KPageView@Base 4:4.3.4
 _ZTS9KSelector@Base 4:4.3.4
 _ZTS9KTextEdit@Base 4:4.3.4
 _ZTS9KUrlLabel@Base 4:4.3.4
 _ZTSN11KImageCache7PrivateE@Base 4:4.4.95
 _ZTSN11KPopupFrame18KPopupFramePrivate19OutsideClickCatcherE@Base 4:4.3.4
 _ZTSN12KEditListBox12CustomEditorE@Base 4:4.3.4
 _ZTSN15KConfigSkeleton8ItemFontE@Base 4:4.3.4
 _ZTSN15KConfigSkeleton9ItemColorE@Base 4:4.3.4
 _ZTSN15KEditListWidget12CustomEditorE@Base 4:4.5.85
 _ZTSN15KSelectionOwner7PrivateE@Base 4:4.3.4
 _ZTSN17KSelectionWatcher7PrivateE@Base 4:4.3.4
 _ZTSN17KWidgetJobTracker7Private14ProgressWidgetE@Base 4:4.3.4
 _ZTSN17KWidgetJobTracker7PrivateE@Base 4:4.3.4
 _ZTSN20KStatusBarJobTracker7Private14ProgressWidgetE@Base 4:4.3.4
 _ZTSN25KAbstractWidgetJobTracker7PrivateE@Base 4:4.3.4
 _ZTSN5KMenu12KMenuPrivateE@Base 4:4.5.85
 _ZTSN6KStyle10IconOptionE@Base 4:4.3.4
 _ZTSN6KStyle10OptionBaseINS_10IconOptionENS_6OptionEEE@Base 4:4.3.4
 _ZTSN6KStyle10OptionBaseINS_10TextOptionENS_11ColorOptionEEE@Base 4:4.3.4
 _ZTSN6KStyle10OptionBaseINS_11ColorOptionENS_6OptionEEE@Base 4:4.3.4
 _ZTSN6KStyle10OptionBaseINS_17TitleButtonOptionENS_6OptionEEE@Base 4:4.3.4
 _ZTSN6KStyle10OptionBaseINS_18DoubleButtonOptionENS_6OptionEEE@Base 4:4.3.4
 _ZTSN6KStyle10TextOptionE@Base 4:4.3.4
 _ZTSN6KStyle11ColorOptionE@Base 4:4.3.4
 _ZTSN6KStyle17TitleButtonOptionE@Base 4:4.3.4
 _ZTSN6KStyle18DoubleButtonOptionE@Base 4:4.3.4
 _ZTSN6KStyle6OptionE@Base 4:4.3.4
 _ZTSN6Sonnet11HighlighterE@Base 4:4.3.4
 _ZTSN6Sonnet12ConfigDialogE@Base 4:4.3.4
 _ZTSN6Sonnet12ConfigWidgetE@Base 4:4.3.4
 _ZTSN6Sonnet18DictionaryComboBoxE@Base 4:4.3.4
 _ZTSN6Sonnet6DialogE@Base 4:4.3.4
 _ZTSN7KWallet6WalletE@Base 4:4.3.4
 _ZTT13KXmlGuiWindow@Base 4:4.3.4
 _ZTV10KBugReport@Base 4:4.3.4
 _ZTV10KDateTable@Base 4:4.3.4
 _ZTV10KIconCache@Base 4:4.3.4
 _ZTV10KPageModel@Base 4:4.3.4
 _ZTV10KSeparator@Base 4:4.3.4
 _ZTV10KStatusBar@Base 4:4.3.4
 _ZTV10KTabWidget@Base 4:4.3.4
 _ZTV10KTipDialog@Base 4:4.3.4
 _ZTV10KUndoStack@Base 4:4.3.4
 _ZTV10KXMessages@Base 4:4.3.4
 _ZTV10NETWinInfo@Base 4:4.3.4
 _ZTV11KActionMenu@Base 4:4.3.4
 _ZTV11KCharSelect@Base 4:4.3.4
 _ZTV11KColorCells@Base 4:4.3.4
 _ZTV11KColorCombo@Base 4:4.3.4
 _ZTV11KColorPatch@Base 4:4.3.4
 _ZTV11KCompletion@Base 4:4.3.4
 _ZTV11KDatePicker@Base 4:4.3.4
 _ZTV11KDateWidget@Base 4:4.3.4
 _ZTV11KDualAction@Base 4:4.5.85
 _ZTV11KFindDialog@Base 4:4.3.4
 _ZTV11KFontAction@Base 4:4.3.4
 _ZTV11KFontDialog@Base 4:4.3.4
 _ZTV11KIconLoader@Base 4:4.3.4
 _ZTV11KIntSpinBox@Base 4:4.3.4
 _ZTV11KListWidget@Base 4:4.3.4
 _ZTV11KMainWindow@Base 4:4.3.4
 _ZTV11KPageDialog@Base 4:4.3.4
 _ZTV11KPageWidget@Base 4:4.3.4
 _ZTV11KPlotWidget@Base 4:4.3.4
 _ZTV11KPopupFrame@Base 4:4.3.4
 _ZTV11KPushButton@Base 4:4.3.4
 _ZTV11KXYSelector@Base 4:4.3.4
 _ZTV11NETRootInfo@Base 4:4.3.4
 _ZTV11NETWinInfo2@Base 4:4.3.4
 _ZTV12KApplication@Base 4:4.3.4
 _ZTV12KArrowButton@Base 4:4.3.4
 _ZTV12KButtonGroup@Base 4:4.3.4
 _ZTV12KCapacityBar@Base 4:4.3.4
 _ZTV12KCodecAction@Base 4:4.3.4
 _ZTV12KColorButton@Base 4:4.3.4
 _ZTV12KColorDialog@Base 4:4.3.4
 _ZTV12KColorScheme@Base 4:4.3.4
 _ZTV12KEditListBox@Base 4:4.3.4
 _ZTV12KEditToolBar@Base 4:4.3.4
 _ZTV12KFontChooser@Base 4:4.3.4
 _ZTV12KGlobalAccel@Base 4:4.3.4
 _ZTV12KIntNumInput@Base 4:4.3.4
 _ZTV12KMultiTabBar@Base 4:4.3.4
 _ZTV12KPixmapCache@Base 4:4.3.4
 _ZTV12KStartupInfo@Base 4:4.3.4
 _ZTV12KSvgRenderer@Base 4:4.3.4
 _ZTV12KTextBrowser@Base 4:4.3.4
 _ZTV12KTitleWidget@Base 4:4.3.4
 _ZTV13KConfigDialog@Base 4:4.3.4
 _ZTV13KDateComboBox@Base 4:4.7.0
 _ZTV13KDateTimeEdit@Base 4:4.7.0
 _ZTV13KFontComboBox@Base 4:4.3.4
 _ZTV13KIntValidator@Base 4:4.3.4
 _ZTV13KNotification@Base 4:4.3.4
 _ZTV13KPassivePopup@Base 4:4.3.4
 _ZTV13KRatingWidget@Base 4:4.5.85
 _ZTV13KRichTextEdit@Base 4:4.3.4
 _ZTV13KSelectAction@Base 4:4.3.4
 _ZTV13KSplashScreen@Base 4:4.3.4
 _ZTV13KTimeComboBox@Base 4:4.7.0
 _ZTV13KToggleAction@Base 4:4.3.4
 _ZTV13KWindowSystem@Base 4:4.3.4
 _ZTV13KXMLGUIClient@Base 4:4.3.4
 _ZTV13KXmlGuiWindow@Base 4:4.3.4
 _ZTV14KCompletionBox@Base 4:4.3.4
 _ZTV14KDateValidator@Base 4:4.3.4
 _ZTV14KFontRequester@Base 4:4.3.4
 _ZTV14KMessageWidget@Base 4:4.7.0
 _ZTV14KReplaceDialog@Base 4:4.3.4
 _ZTV14KXMLGUIBuilder@Base 4:4.3.4
 _ZTV14KXMLGUIFactory@Base 4:4.3.4
 _ZTV15KActionCategory@Base 4:4.3.4
 _ZTV15KActionSelector@Base 4:4.3.4
 _ZTV15KAnimatedButton@Base 4:4.3.4
 _ZTV15KCategoryDrawer@Base 4:4.3.4
 _ZTV15KCompletionBase@Base 4:4.3.4
 _ZTV15KConfigSkeleton@Base 4:4.3.4
 _ZTV15KDateTimeWidget@Base 4:4.3.4
 _ZTV15KDoubleNumInput@Base 4:4.3.4
 _ZTV15KEditListWidget@Base 4:4.5.85
 _ZTV15KFloatValidator@Base 4:4.3.4
 _ZTV15KFontSizeAction@Base 4:4.3.4
 _ZTV15KGlobalSettings@Base 4:4.3.4
 _ZTV15KLanguageButton@Base 4:4.3.4
 _ZTV15KMessageHandler@Base 4:4.3.4
 _ZTV15KMultiTabBarTab@Base 4:4.3.4
 _ZTV15KPageWidgetItem@Base 4:4.3.4
 _ZTV15KPasswordDialog@Base 4:4.3.4
 _ZTV15KPixmapProvider@Base 4:4.3.4
 _ZTV15KProgressDialog@Base 4:4.3.4
 _ZTV15KRestrictedLine@Base 4:4.3.4
 _ZTV15KRichTextWidget@Base 4:4.3.4
 _ZTV15KSelectionOwner@Base 4:4.3.4
 _ZTV15KSessionManager@Base 4:4.3.4
 _ZTV15KShortcutWidget@Base 4:4.3.4
 _ZTV15KSystemTrayIcon@Base 4:4.3.4
 _ZTV15KTimeZoneWidget@Base 4:4.3.4
 _ZTV15KViewStateSaver@Base 4:4.4.95
 _ZTV15KdeUiProxyStyle@Base 4:4.3.4
 _ZTV16KAssistantDialog@Base 4:4.3.4
 _ZTV16KCategorizedView@Base 4:4.3.4
 _ZTV16KDialogButtonBox@Base 4:4.3.4
 _ZTV16KDoubleValidator@Base 4:4.3.4
 _ZTV16KHistoryComboBox@Base 4:4.3.4
 _ZTV16KModifierKeyInfo@Base 4:4.3.4
 _ZTV16KPageWidgetModel@Base 4:4.3.4
 _ZTV16KPasteTextAction@Base 4:4.3.4
 _ZTV16KShortcutsDialog@Base 4:4.3.4
 _ZTV16KShortcutsEditor@Base 4:4.3.4
 _ZTV17KActionCollection@Base 4:4.3.4
 _ZTV17KCategoryDrawerV2@Base 4:4.4.0
 _ZTV17KCategoryDrawerV3@Base 4:4.4.95
 _ZTV17KFadeWidgetEffect@Base 4:4.3.4
 _ZTV17KGradientSelector@Base 4:4.3.4
 _ZTV17KSelectionWatcher@Base 4:4.3.4
 _ZTV17KWidgetJobTracker@Base 4:4.3.4
 _ZTV18KKeySequenceWidget@Base 4:4.3.4
 _ZTV18KMimeTypeValidator@Base 4:4.3.4
 _ZTV18KMultiTabBarButton@Base 4:4.3.4
 _ZTV18KNewPasswordDialog@Base 4:4.3.4
 _ZTV18KPageDialogPrivate@Base 4:4.3.4
 _ZTV18KRecentFilesAction@Base 4:4.3.4
 _ZTV18KSqueezedTextLabel@Base 4:4.3.4
 _ZTV18KUniqueApplication@Base 4:4.3.4
 _ZTV19KColorValueSelector@Base 4:4.3.4
 _ZTV19KGlobalShortcutInfo@Base 4:4.3.4
 _ZTV19KIdentityProxyModel@Base 4:4.5.85
 _ZTV19KStatusNotifierItem@Base 4:4.4.0
 _ZTV19KToolBarLabelAction@Base 4:4.3.4
 _ZTV19KToolBarPopupAction@Base 4:4.3.4
 _ZTV19KUiServerJobTracker@Base 4:4.3.4
 _ZTV19KWidgetItemDelegate@Base 4:4.3.4
 _ZTV20KCheckableProxyModel@Base 4:4.5.85
 _ZTV20KConfigDialogManager@Base 4:4.3.4
 _ZTV20KDialogJobUiDelegate@Base 4:4.3.4
 _ZTV20KSelectionProxyModel@Base 4:4.4.0
 _ZTV20KStatusBarJobTracker@Base 4:4.3.4
 _ZTV20KStringListValidator@Base 4:4.3.4
 _ZTV20KToggleToolBarAction@Base 4:4.3.4
 _ZTV20KToolBarSpacerAction@Base 4:4.3.4
 _ZTV21KListWidgetSearchLine@Base 4:4.3.4
 _ZTV21KPixmapSequenceWidget@Base 4:4.4.0
 _ZTV21KTreeWidgetSearchLine@Base 4:4.3.4
 _ZTV22KClipboardSynchronizer@Base 4:4.3.4
 _ZTV22KDescendantsProxyModel@Base 4:4.5.85
 _ZTV22KFilterProxySearchLine@Base 4:4.3.4
 _ZTV22KHueSaturationSelector@Base 4:4.3.4
 _ZTV22KModelIndexProxyMapper@Base 4:4.4.95
 _ZTV23KAboutApplicationDialog@Base 4:4.3.4
 _ZTV23KExtendableItemDelegate@Base 4:4.3.4
 _ZTV23KLinkItemSelectionModel@Base 4:4.4.95
 _ZTV23KToggleFullScreenAction@Base 4:4.3.4
 _ZTV24KViewStateMaintainerBase@Base 4:4.5.85
 _ZTV25KAbstractWidgetJobTracker@Base 4:4.3.4
 _ZTV25KBreadcrumbSelectionModel@Base 4:4.4.95
 _ZTV25KMessageBoxMessageHandler@Base 4:4.3.4
 _ZTV25KNotificationRestrictions@Base 4:4.3.4
 _ZTV26KRecursiveFilterProxyModel@Base 4:4.4.95
 _ZTV27KPassivePopupMessageHandler@Base 4:4.3.4
 _ZTV27KPixmapRegionSelectorDialog@Base 4:4.3.4
 _ZTV27KPixmapRegionSelectorWidget@Base 4:4.3.4
 _ZTV27KTreeWidgetSearchLineWidget@Base 4:4.3.4
 _ZTV29KPixmapSequenceOverlayPainter@Base 4:4.4.0
 _ZTV32KCategorizedSortFilterProxyModel@Base 4:4.3.4
 _ZTV4KLed@Base 4:4.3.4
 _ZTV5KFind@Base 4:4.3.4
 _ZTV5KHBox@Base 4:4.3.4
 _ZTV5KMenu@Base 4:4.3.4
 _ZTV5KVBox@Base 4:4.3.4
 _ZTV6KRuler@Base 4:4.3.4
 _ZTV6KStyle@Base 4:4.3.4
 _ZTV7KAction@Base 4:4.3.4
 _ZTV7KDialog@Base 4:4.3.4
 _ZTV7KTabBar@Base 4:4.3.4
 _ZTV8KCModule@Base 4:4.3.4
 _ZTV8KMenuBar@Base 4:4.3.4
 _ZTV8KReplace@Base 4:4.3.4
 _ZTV8KToolBar@Base 4:4.3.4
 _ZTV9KComboBox@Base 4:4.3.4
 _ZTV9KHelpMenu@Base 4:4.3.4
 _ZTV9KLineEdit@Base 4:4.3.4
 _ZTV9KNumInput@Base 4:4.3.4
 _ZTV9KPageView@Base 4:4.3.4
 _ZTV9KSelector@Base 4:4.3.4
 _ZTV9KTextEdit@Base 4:4.3.4
 _ZTV9KUrlLabel@Base 4:4.3.4
 _ZTVN11KImageCache7PrivateE@Base 4:4.4.95
 _ZTVN11KPopupFrame18KPopupFramePrivate19OutsideClickCatcherE@Base 4:4.3.4
 _ZTVN12KEditListBox12CustomEditorE@Base 4:4.3.4
 _ZTVN15KConfigSkeleton8ItemFontE@Base 4:4.3.4
 _ZTVN15KConfigSkeleton9ItemColorE@Base 4:4.3.4
 _ZTVN15KEditListWidget12CustomEditorE@Base 4:4.5.85
 _ZTVN15KSelectionOwner7PrivateE@Base 4:4.3.4
 _ZTVN17KSelectionWatcher7PrivateE@Base 4:4.3.4
 _ZTVN17KWidgetJobTracker7Private14ProgressWidgetE@Base 4:4.3.4
 _ZTVN17KWidgetJobTracker7PrivateE@Base 4:4.3.4
 _ZTVN20KStatusBarJobTracker7Private14ProgressWidgetE@Base 4:4.3.4
 _ZTVN25KAbstractWidgetJobTracker7PrivateE@Base 4:4.3.4
 _ZTVN5KMenu12KMenuPrivateE@Base 4:4.5.85
 _ZTVN6KStyle10IconOptionE@Base 4:4.3.4
 _ZTVN6KStyle10OptionBaseINS_10IconOptionENS_6OptionEEE@Base 4:4.3.4
 _ZTVN6KStyle10OptionBaseINS_10TextOptionENS_11ColorOptionEEE@Base 4:4.3.4
 _ZTVN6KStyle10OptionBaseINS_11ColorOptionENS_6OptionEEE@Base 4:4.3.4
 _ZTVN6KStyle10OptionBaseINS_17TitleButtonOptionENS_6OptionEEE@Base 4:4.3.4
 _ZTVN6KStyle10OptionBaseINS_18DoubleButtonOptionENS_6OptionEEE@Base 4:4.3.4
 _ZTVN6KStyle10TextOptionE@Base 4:4.3.4
 _ZTVN6KStyle11ColorOptionE@Base 4:4.3.4
 _ZTVN6KStyle17TitleButtonOptionE@Base 4:4.3.4
 _ZTVN6KStyle18DoubleButtonOptionE@Base 4:4.3.4
 _ZTVN6KStyle6OptionE@Base 4:4.3.4
 _ZTVN6Sonnet11HighlighterE@Base 4:4.3.4
 _ZTVN6Sonnet12ConfigDialogE@Base 4:4.3.4
 _ZTVN6Sonnet12ConfigWidgetE@Base 4:4.3.4
 _ZTVN6Sonnet18DictionaryComboBoxE@Base 4:4.3.4
 _ZTVN6Sonnet6DialogE@Base 4:4.3.4
 _ZTVN7KWallet6WalletE@Base 4:4.3.4
 _ZThn20_N13KDateComboBoxD0Ev@Base 4:4.7.0
 _ZThn20_N13KDateComboBoxD1Ev@Base 4:4.7.0
 _ZThn20_N13KFontComboBoxD0Ev@Base 4:4.3.4
 _ZThn20_N13KFontComboBoxD1Ev@Base 4:4.3.4
 _ZThn20_N13KTimeComboBoxD0Ev@Base 4:4.7.0
 _ZThn20_N13KTimeComboBoxD1Ev@Base 4:4.7.0
 _ZThn20_N15KRestrictedLineD0Ev@Base 4:4.3.4
 _ZThn20_N15KRestrictedLineD1Ev@Base 4:4.3.4
 _ZThn20_N16KHistoryComboBoxD0Ev@Base 4:4.3.4
 _ZThn20_N16KHistoryComboBoxD1Ev@Base 4:4.3.4
 _ZThn20_N21KListWidgetSearchLineD0Ev@Base 4:4.3.4
 _ZThn20_N21KListWidgetSearchLineD1Ev@Base 4:4.3.4
 _ZThn20_N21KTreeWidgetSearchLineD0Ev@Base 4:4.3.4
 _ZThn20_N21KTreeWidgetSearchLineD1Ev@Base 4:4.3.4
 _ZThn20_N6Sonnet18DictionaryComboBoxD0Ev@Base 4:4.3.4
 _ZThn20_N6Sonnet18DictionaryComboBoxD1Ev@Base 4:4.3.4
 _ZThn20_N9KComboBox16setCompletedTextERK7QString@Base 4:4.3.4
 _ZThn20_N9KComboBox17setCompletedItemsERK11QStringListb@Base 4:4.3.4
 _ZThn20_N9KComboBoxD0Ev@Base 4:4.3.4
 _ZThn20_N9KComboBoxD1Ev@Base 4:4.3.4
 _ZThn20_N9KLineEdit16setCompletedTextERK7QString@Base 4:4.3.4
 _ZThn20_N9KLineEdit17setCompletedItemsERK11QStringListb@Base 4:4.3.4
 _ZThn20_N9KLineEdit17setCompletionModeEN15KGlobalSettings10CompletionE@Base 4:4.3.4
 _ZThn20_N9KLineEdit19setCompletionObjectEP11KCompletionb@Base 4:4.3.4
 _ZThn20_N9KLineEditD0Ev@Base 4:4.3.4
 _ZThn20_N9KLineEditD1Ev@Base 4:4.3.4
 _ZThn24_N13KXmlGuiWindow11finalizeGUIEP13KXMLGUIClient@Base 4:4.3.4
 _ZThn24_N13KXmlGuiWindowD0Ev@Base 4:4.3.4
 _ZThn24_N13KXmlGuiWindowD1Ev@Base 4:4.3.4
 _ZThn8_N10KBugReportD0Ev@Base 4:4.3.4
 _ZThn8_N10KBugReportD1Ev@Base 4:4.3.4
 _ZThn8_N10KDateTableD0Ev@Base 4:4.3.4
 _ZThn8_N10KDateTableD1Ev@Base 4:4.3.4
 _ZThn8_N10KSeparatorD0Ev@Base 4:4.7.2
 _ZThn8_N10KSeparatorD1Ev@Base 4:4.7.2
 _ZThn8_N10KStatusBarD0Ev@Base 4:4.3.4
 _ZThn8_N10KStatusBarD1Ev@Base 4:4.3.4
 _ZThn8_N10KTabWidgetD0Ev@Base 4:4.3.4
 _ZThn8_N10KTabWidgetD1Ev@Base 4:4.3.4
 _ZThn8_N10KTipDialogD0Ev@Base 4:4.3.4
 _ZThn8_N10KTipDialogD1Ev@Base 4:4.3.4
 _ZThn8_N10KXMessagesD0Ev@Base 4:4.3.4
 _ZThn8_N10KXMessagesD1Ev@Base 4:4.3.4
 _ZThn8_N11KCharSelectD0Ev@Base 4:4.3.4
 _ZThn8_N11KCharSelectD1Ev@Base 4:4.3.4
 _ZThn8_N11KColorCellsD0Ev@Base 4:4.3.4
 _ZThn8_N11KColorCellsD1Ev@Base 4:4.3.4
 _ZThn8_N11KColorComboD0Ev@Base 4:4.3.4
 _ZThn8_N11KColorComboD1Ev@Base 4:4.3.4
 _ZThn8_N11KColorPatchD0Ev@Base 4:4.3.4
 _ZThn8_N11KColorPatchD1Ev@Base 4:4.3.4
 _ZThn8_N11KDatePickerD0Ev@Base 4:4.3.4
 _ZThn8_N11KDatePickerD1Ev@Base 4:4.3.4
 _ZThn8_N11KDateWidgetD0Ev@Base 4:4.3.4
 _ZThn8_N11KDateWidgetD1Ev@Base 4:4.3.4
 _ZThn8_N11KFindDialogD0Ev@Base 4:4.3.4
 _ZThn8_N11KFindDialogD1Ev@Base 4:4.3.4
 _ZThn8_N11KFontDialogD0Ev@Base 4:4.3.4
 _ZThn8_N11KFontDialogD1Ev@Base 4:4.3.4
 _ZThn8_N11KIntSpinBoxD0Ev@Base 4:4.3.4
 _ZThn8_N11KIntSpinBoxD1Ev@Base 4:4.3.4
 _ZThn8_N11KListWidgetD0Ev@Base 4:4.3.4
 _ZThn8_N11KListWidgetD1Ev@Base 4:4.3.4
 _ZThn8_N11KMainWindowD0Ev@Base 4:4.3.4
 _ZThn8_N11KMainWindowD1Ev@Base 4:4.3.4
 _ZThn8_N11KPageDialogD0Ev@Base 4:4.3.4
 _ZThn8_N11KPageDialogD1Ev@Base 4:4.3.4
 _ZThn8_N11KPageWidgetD0Ev@Base 4:4.3.4
 _ZThn8_N11KPageWidgetD1Ev@Base 4:4.3.4
 _ZThn8_N11KPlotWidgetD0Ev@Base 4:4.3.4
 _ZThn8_N11KPlotWidgetD1Ev@Base 4:4.3.4
 _ZThn8_N11KPopupFrameD0Ev@Base 4:4.3.4
 _ZThn8_N11KPopupFrameD1Ev@Base 4:4.3.4
 _ZThn8_N11KPushButtonD0Ev@Base 4:4.3.4
 _ZThn8_N11KPushButtonD1Ev@Base 4:4.3.4
 _ZThn8_N11KXYSelectorD0Ev@Base 4:4.3.4
 _ZThn8_N11KXYSelectorD1Ev@Base 4:4.3.4
 _ZThn8_N12KArrowButtonD0Ev@Base 4:4.3.4
 _ZThn8_N12KArrowButtonD1Ev@Base 4:4.3.4
 _ZThn8_N12KButtonGroupD0Ev@Base 4:4.3.4
 _ZThn8_N12KButtonGroupD1Ev@Base 4:4.3.4
 _ZThn8_N12KCapacityBarD0Ev@Base 4:4.3.4
 _ZThn8_N12KCapacityBarD1Ev@Base 4:4.3.4
 _ZThn8_N12KColorButtonD0Ev@Base 4:4.3.4
 _ZThn8_N12KColorButtonD1Ev@Base 4:4.3.4
 _ZThn8_N12KColorDialogD0Ev@Base 4:4.3.4
 _ZThn8_N12KColorDialogD1Ev@Base 4:4.3.4
 _ZThn8_N12KEditListBoxD0Ev@Base 4:4.3.4
 _ZThn8_N12KEditListBoxD1Ev@Base 4:4.3.4
 _ZThn8_N12KEditToolBarD0Ev@Base 4:4.3.4
 _ZThn8_N12KEditToolBarD1Ev@Base 4:4.3.4
 _ZThn8_N12KFontChooserD0Ev@Base 4:4.3.4
 _ZThn8_N12KFontChooserD1Ev@Base 4:4.3.4
 _ZThn8_N12KIntNumInputD0Ev@Base 4:4.3.4
 _ZThn8_N12KIntNumInputD1Ev@Base 4:4.3.4
 _ZThn8_N12KMultiTabBarD0Ev@Base 4:4.3.4
 _ZThn8_N12KMultiTabBarD1Ev@Base 4:4.3.4
 _ZThn8_N12KTextBrowserD0Ev@Base 4:4.3.4
 _ZThn8_N12KTextBrowserD1Ev@Base 4:4.3.4
 _ZThn8_N12KTitleWidgetD0Ev@Base 4:4.3.4
 _ZThn8_N12KTitleWidgetD1Ev@Base 4:4.3.4
 _ZThn8_N13KConfigDialogD0Ev@Base 4:4.3.4
 _ZThn8_N13KConfigDialogD1Ev@Base 4:4.3.4
 _ZThn8_N13KDateComboBoxD0Ev@Base 4:4.7.0
 _ZThn8_N13KDateComboBoxD1Ev@Base 4:4.7.0
 _ZThn8_N13KDateTimeEditD0Ev@Base 4:4.7.0
 _ZThn8_N13KDateTimeEditD1Ev@Base 4:4.7.0
 _ZThn8_N13KFontComboBoxD0Ev@Base 4:4.3.4
 _ZThn8_N13KFontComboBoxD1Ev@Base 4:4.3.4
 _ZThn8_N13KPassivePopupD0Ev@Base 4:4.3.4
 _ZThn8_N13KPassivePopupD1Ev@Base 4:4.3.4
 _ZThn8_N13KRatingWidgetD0Ev@Base 4:4.5.85
 _ZThn8_N13KRatingWidgetD1Ev@Base 4:4.5.85
 _ZThn8_N13KRichTextEditD0Ev@Base 4:4.3.4
 _ZThn8_N13KRichTextEditD1Ev@Base 4:4.3.4
 _ZThn8_N13KSplashScreenD0Ev@Base 4:4.3.4
 _ZThn8_N13KSplashScreenD1Ev@Base 4:4.3.4
 _ZThn8_N13KTimeComboBoxD0Ev@Base 4:4.7.0
 _ZThn8_N13KTimeComboBoxD1Ev@Base 4:4.7.0
 _ZThn8_N13KXmlGuiWindowD0Ev@Base 4:4.3.4
 _ZThn8_N13KXmlGuiWindowD1Ev@Base 4:4.3.4
 _ZThn8_N14KCompletionBoxD0Ev@Base 4:4.3.4
 _ZThn8_N14KCompletionBoxD1Ev@Base 4:4.3.4
 _ZThn8_N14KFontRequesterD0Ev@Base 4:4.3.4
 _ZThn8_N14KFontRequesterD1Ev@Base 4:4.3.4
 _ZThn8_N14KMessageWidgetD0Ev@Base 4:4.7.0
 _ZThn8_N14KMessageWidgetD1Ev@Base 4:4.7.0
 _ZThn8_N14KReplaceDialogD0Ev@Base 4:4.3.4
 _ZThn8_N14KReplaceDialogD1Ev@Base 4:4.3.4
 _ZThn8_N15KActionSelectorD0Ev@Base 4:4.3.4
 _ZThn8_N15KActionSelectorD1Ev@Base 4:4.3.4
 _ZThn8_N15KAnimatedButtonD0Ev@Base 4:4.3.4
 _ZThn8_N15KAnimatedButtonD1Ev@Base 4:4.3.4
 _ZThn8_N15KDateTimeWidgetD0Ev@Base 4:4.3.4
 _ZThn8_N15KDateTimeWidgetD1Ev@Base 4:4.3.4
 _ZThn8_N15KDoubleNumInputD0Ev@Base 4:4.3.4
 _ZThn8_N15KDoubleNumInputD1Ev@Base 4:4.3.4
 _ZThn8_N15KEditListWidgetD0Ev@Base 4:4.5.85
 _ZThn8_N15KEditListWidgetD1Ev@Base 4:4.5.85
 _ZThn8_N15KLanguageButtonD0Ev@Base 4:4.3.4
 _ZThn8_N15KLanguageButtonD1Ev@Base 4:4.3.4
 _ZThn8_N15KMultiTabBarTabD0Ev@Base 4:4.3.4
 _ZThn8_N15KMultiTabBarTabD1Ev@Base 4:4.3.4
 _ZThn8_N15KPasswordDialogD0Ev@Base 4:4.3.4
 _ZThn8_N15KPasswordDialogD1Ev@Base 4:4.3.4
 _ZThn8_N15KProgressDialogD0Ev@Base 4:4.3.4
 _ZThn8_N15KProgressDialogD1Ev@Base 4:4.3.4
 _ZThn8_N15KRestrictedLineD0Ev@Base 4:4.3.4
 _ZThn8_N15KRestrictedLineD1Ev@Base 4:4.3.4
 _ZThn8_N15KRichTextWidgetD0Ev@Base 4:4.3.4
 _ZThn8_N15KRichTextWidgetD1Ev@Base 4:4.3.4
 _ZThn8_N15KSelectionOwner7PrivateD0Ev@Base 4:4.7.2
 _ZThn8_N15KSelectionOwner7PrivateD1Ev@Base 4:4.7.2
 _ZThn8_N15KShortcutWidgetD0Ev@Base 4:4.3.4
 _ZThn8_N15KShortcutWidgetD1Ev@Base 4:4.3.4
 _ZThn8_N15KTimeZoneWidgetD0Ev@Base 4:4.3.4
 _ZThn8_N15KTimeZoneWidgetD1Ev@Base 4:4.3.4
 _ZThn8_N16KAssistantDialogD0Ev@Base 4:4.3.4
 _ZThn8_N16KAssistantDialogD1Ev@Base 4:4.3.4
 _ZThn8_N16KCategorizedViewD0Ev@Base 4:4.3.4
 _ZThn8_N16KCategorizedViewD1Ev@Base 4:4.3.4
 _ZThn8_N16KDialogButtonBoxD0Ev@Base 4:4.3.4
 _ZThn8_N16KDialogButtonBoxD1Ev@Base 4:4.3.4
 _ZThn8_N16KHistoryComboBoxD0Ev@Base 4:4.3.4
 _ZThn8_N16KHistoryComboBoxD1Ev@Base 4:4.3.4
 _ZThn8_N16KShortcutsDialogD0Ev@Base 4:4.3.4
 _ZThn8_N16KShortcutsDialogD1Ev@Base 4:4.3.4
 _ZThn8_N16KShortcutsEditorD0Ev@Base 4:4.3.4
 _ZThn8_N16KShortcutsEditorD1Ev@Base 4:4.3.4
 _ZThn8_N17KCategoryDrawerV2D0Ev@Base 4:4.4.0
 _ZThn8_N17KCategoryDrawerV2D1Ev@Base 4:4.4.0
 _ZThn8_N17KCategoryDrawerV3D0Ev@Base 4:4.4.95
 _ZThn8_N17KCategoryDrawerV3D1Ev@Base 4:4.4.95
 _ZThn8_N17KFadeWidgetEffectD0Ev@Base 4:4.3.4
 _ZThn8_N17KFadeWidgetEffectD1Ev@Base 4:4.3.4
 _ZThn8_N17KGradientSelectorD0Ev@Base 4:4.3.4
 _ZThn8_N17KGradientSelectorD1Ev@Base 4:4.3.4
 _ZThn8_N17KSelectionWatcher7PrivateD0Ev@Base 4:4.7.2
 _ZThn8_N17KSelectionWatcher7PrivateD1Ev@Base 4:4.7.2
 _ZThn8_N18KKeySequenceWidgetD0Ev@Base 4:4.3.4
 _ZThn8_N18KKeySequenceWidgetD1Ev@Base 4:4.3.4
 _ZThn8_N18KMultiTabBarButtonD0Ev@Base 4:4.3.4
 _ZThn8_N18KMultiTabBarButtonD1Ev@Base 4:4.3.4
 _ZThn8_N18KNewPasswordDialogD0Ev@Base 4:4.3.4
 _ZThn8_N18KNewPasswordDialogD1Ev@Base 4:4.3.4
 _ZThn8_N18KSqueezedTextLabelD0Ev@Base 4:4.3.4
 _ZThn8_N18KSqueezedTextLabelD1Ev@Base 4:4.3.4
 _ZThn8_N19KColorValueSelectorD0Ev@Base 4:4.3.4
 _ZThn8_N19KColorValueSelectorD1Ev@Base 4:4.3.4
 _ZThn8_N21KListWidgetSearchLineD0Ev@Base 4:4.3.4
 _ZThn8_N21KListWidgetSearchLineD1Ev@Base 4:4.3.4
 _ZThn8_N21KPixmapSequenceWidgetD0Ev@Base 4:4.4.0
 _ZThn8_N21KPixmapSequenceWidgetD1Ev@Base 4:4.4.0
 _ZThn8_N21KTreeWidgetSearchLineD0Ev@Base 4:4.3.4
 _ZThn8_N21KTreeWidgetSearchLineD1Ev@Base 4:4.3.4
 _ZThn8_N22KFilterProxySearchLineD0Ev@Base 4:4.3.4
 _ZThn8_N22KFilterProxySearchLineD1Ev@Base 4:4.3.4
 _ZThn8_N22KHueSaturationSelectorD0Ev@Base 4:4.3.4
 _ZThn8_N22KHueSaturationSelectorD1Ev@Base 4:4.3.4
 _ZThn8_N23KAboutApplicationDialogD0Ev@Base 4:4.3.4
 _ZThn8_N23KAboutApplicationDialogD1Ev@Base 4:4.3.4
 _ZThn8_N25KMessageBoxMessageHandler7messageEN8KMessage11MessageTypeERK7QStringS4_@Base 4:4.3.4
 _ZThn8_N25KMessageBoxMessageHandlerD0Ev@Base 4:4.3.4
 _ZThn8_N25KMessageBoxMessageHandlerD1Ev@Base 4:4.3.4
 _ZThn8_N27KPassivePopupMessageHandler7messageEN8KMessage11MessageTypeERK7QStringS4_@Base 4:4.3.4
 _ZThn8_N27KPassivePopupMessageHandlerD0Ev@Base 4:4.7.2
 _ZThn8_N27KPassivePopupMessageHandlerD1Ev@Base 4:4.7.2
 _ZThn8_N27KPixmapRegionSelectorDialogD0Ev@Base 4:4.3.4
 _ZThn8_N27KPixmapRegionSelectorDialogD1Ev@Base 4:4.3.4
 _ZThn8_N27KPixmapRegionSelectorWidgetD0Ev@Base 4:4.3.4
 _ZThn8_N27KPixmapRegionSelectorWidgetD1Ev@Base 4:4.3.4
 _ZThn8_N27KTreeWidgetSearchLineWidgetD0Ev@Base 4:4.3.4
 _ZThn8_N27KTreeWidgetSearchLineWidgetD1Ev@Base 4:4.3.4
 _ZThn8_N4KLedD0Ev@Base 4:4.3.4
 _ZThn8_N4KLedD1Ev@Base 4:4.3.4
 _ZThn8_N5KHBoxD0Ev@Base 4:4.3.4
 _ZThn8_N5KHBoxD1Ev@Base 4:4.3.4
 _ZThn8_N5KMenuD0Ev@Base 4:4.3.4
 _ZThn8_N5KMenuD1Ev@Base 4:4.3.4
 _ZThn8_N5KVBoxD0Ev@Base 4:4.3.4
 _ZThn8_N5KVBoxD1Ev@Base 4:4.3.4
 _ZThn8_N6KRulerD0Ev@Base 4:4.3.4
 _ZThn8_N6KRulerD1Ev@Base 4:4.3.4
 _ZThn8_N6Sonnet12ConfigDialogD0Ev@Base 4:4.3.4
 _ZThn8_N6Sonnet12ConfigDialogD1Ev@Base 4:4.3.4
 _ZThn8_N6Sonnet12ConfigWidgetD0Ev@Base 4:4.3.4
 _ZThn8_N6Sonnet12ConfigWidgetD1Ev@Base 4:4.3.4
 _ZThn8_N6Sonnet18DictionaryComboBoxD0Ev@Base 4:4.3.4
 _ZThn8_N6Sonnet18DictionaryComboBoxD1Ev@Base 4:4.3.4
 _ZThn8_N6Sonnet6DialogD0Ev@Base 4:4.3.4
 _ZThn8_N6Sonnet6DialogD1Ev@Base 4:4.3.4
 _ZThn8_N7KDialogD0Ev@Base 4:4.3.4
 _ZThn8_N7KDialogD1Ev@Base 4:4.3.4
 _ZThn8_N7KTabBarD0Ev@Base 4:4.3.4
 _ZThn8_N7KTabBarD1Ev@Base 4:4.3.4
 _ZThn8_N8KCModuleD0Ev@Base 4:4.3.4
 _ZThn8_N8KCModuleD1Ev@Base 4:4.3.4
 _ZThn8_N8KMenuBarD0Ev@Base 4:4.3.4
 _ZThn8_N8KMenuBarD1Ev@Base 4:4.3.4
 _ZThn8_N8KToolBarD0Ev@Base 4:4.3.4
 _ZThn8_N8KToolBarD1Ev@Base 4:4.3.4
 _ZThn8_N9KComboBoxD0Ev@Base 4:4.3.4
 _ZThn8_N9KComboBoxD1Ev@Base 4:4.3.4
 _ZThn8_N9KLineEditD0Ev@Base 4:4.3.4
 _ZThn8_N9KLineEditD1Ev@Base 4:4.3.4
 _ZThn8_N9KNumInputD0Ev@Base 4:4.3.4
 _ZThn8_N9KNumInputD1Ev@Base 4:4.3.4
 _ZThn8_N9KPageViewD0Ev@Base 4:4.3.4
 _ZThn8_N9KPageViewD1Ev@Base 4:4.3.4
 _ZThn8_N9KSelectorD0Ev@Base 4:4.3.4
 _ZThn8_N9KSelectorD1Ev@Base 4:4.3.4
 _ZThn8_N9KTextEditD0Ev@Base 4:4.3.4
 _ZThn8_N9KTextEditD1Ev@Base 4:4.3.4
 _ZThn8_N9KUrlLabelD0Ev@Base 4:4.3.4
 _ZThn8_N9KUrlLabelD1Ev@Base 4:4.3.4
 _ZTv0_n12_N13KXmlGuiWindowD0Ev@Base 4:4.3.4
 _ZTv0_n12_N13KXmlGuiWindowD1Ev@Base 4:4.3.4
 _ZZN20KConfigDialogManager7Private9debugAreaEvE6s_area@Base 4:4.4.0
 _ZZN6KStyle10OptionBaseINS_10IconOptionENS_6OptionEE13defaultOptionEvE10theDefault@Base 4:4.3.4
 _ZZN6KStyle10OptionBaseINS_10TextOptionENS_11ColorOptionEE13defaultOptionEvE10theDefault@Base 4:4.3.4
 _ZZN6KStyle10OptionBaseINS_11ColorOptionENS_6OptionEE13defaultOptionEvE10theDefault@Base 4:4.3.4
 _ZZN6KStyle10OptionBaseINS_17TitleButtonOptionENS_6OptionEE13defaultOptionEvE10theDefault@Base 4:4.3.4
 _ZZN6KStyle10OptionBaseINS_18DoubleButtonOptionENS_6OptionEE13defaultOptionEvE10theDefault@Base 4:4.3.4
 _ZlsR13QDBusArgumentRK19KGlobalShortcutInfo@Base 4:4.3.4
 _ZrsRK13QDBusArgumentR19KGlobalShortcutInfo@Base 4:4.3.4
