libkdecore.so.5 libkdecore5 #MINVER#
| libkdecore5 #MINVER#, kde-runtime
* Build-Depends-Package: kdelibs5-dev
 KTraderParse_initFlex@Base 4:4.3.4
 KTraderParse_mainParse@Base 4:4.3.4
 KTraderParse_putSimplePositiveFloat@Base 4:4.7.1
 KTraderParse_putString@Base 4:4.3.4
 KTraderParse_putSymbol@Base 4:4.3.4
 KTraderParse_putSymbolInBrackets@Base 4:4.3.4
 _Z11kdeHasSocksv@Base 4:4.3.4
 _Z12kDebugStream9QtMsgTypeiPKciS1_@Base 4:4.3.4
 _Z13kAsciiToLowerPc@Base 4:4.3.4
 _Z13kAsciiToUpperPc@Base 4:4.3.4
 _Z13kDebugDevNullv@Base 4:4.3.4
 _Z13kasciistricmpPKcS0_@Base 4:4.3.4
 _Z14kRealBacktracei@Base 4:4.3.4
 _Z15kde_getaddrinfoPKcS0_PK8addrinfoPP12kde_addrinfo@Base 4:4.3.4
 _Z16kde_freeaddrinfoP12kde_addrinfo@Base 4:4.3.4
 _Z17kClearDebugConfigv@Base 4:4.3.4
 _Z22_allKsslCaCertificatesP22KSslCertificateManager@Base 4:4.5.85
 _Z25_setAllKsslCaCertificatesP22KSslCertificateManagerRK5QListI17KSslCaCertificateE@Base 4:4.5.85
 _Z5ki18nPKc@Base 4:4.3.4
 _Z5qHashRK11KPluginInfo@Base 4:4.3.4
 _Z5qHashRK4KUrl@Base 4:4.3.4
 _Z6ki18ncPKcS0_@Base 4:4.3.4
 _Z6ki18npPKcS0_@Base 4:4.3.4
 _Z6perror6QDebug9KDebugTag@Base 4:4.3.4
 _Z6urlcmpRK7QStringS1_@Base 4:4.3.4
 _Z6urlcmpRK7QStringS1_RK6QFlagsIN4KUrl12EqualsOptionEE@Base 4:4.3.4
 _Z7ki18ncpPKcS0_S0_@Base 4:4.3.4
 _ZGVZN6KSocks13KSocksPrivate9debugAreaEvE6s_area@Base 4:4.4.0
 _ZN10KAboutData10addLicenseENS_10LicenseKeyE@Base 4:4.3.4
 _ZN10KAboutData10setAppNameERK10QByteArray@Base 4:4.3.4
 _ZN10KAboutData10setLicenseENS_10LicenseKeyE@Base 4:4.3.4
 _ZN10KAboutData10setVersionERK10QByteArray@Base 4:4.3.4
 _ZN10KAboutData11setHomepageERK10QByteArray@Base 4:4.3.4
 _ZN10KAboutData12setOtherTextERK16KLocalizedString@Base 4:4.3.4
 _ZN10KAboutData13setBugAddressERK10QByteArray@Base 4:4.3.4
 _ZN10KAboutData13setTranslatorERK16KLocalizedStringS2_@Base 4:4.3.4
 _ZN10KAboutData14addLicenseTextERK16KLocalizedString@Base 4:4.3.4
 _ZN10KAboutData14setCatalogNameERK10QByteArray@Base 4:4.3.4
 _ZN10KAboutData14setLicenseTextERK16KLocalizedString@Base 4:4.3.4
 _ZN10KAboutData14setOcsProviderERK10QByteArray@Base 4:4.5.85
 _ZN10KAboutData14setProductNameERK10QByteArray@Base 4:4.3.4
 _ZN10KAboutData14setProgramLogoERK8QVariant@Base 4:4.3.4
 _ZN10KAboutData14setProgramNameERK16KLocalizedString@Base 4:4.3.4
 _ZN10KAboutData18addLicenseTextFileERK7QString@Base 4:4.3.4
 _ZN10KAboutData18setLicenseTextFileERK7QString@Base 4:4.3.4
 _ZN10KAboutData18setProgramIconNameERK7QString@Base 4:4.3.4
 _ZN10KAboutData19setCustomAuthorTextERK16KLocalizedStringS2_@Base 4:4.3.4
 _ZN10KAboutData19setShortDescriptionERK16KLocalizedString@Base 4:4.3.4
 _ZN10KAboutData20aboutTranslationTeamEv@Base 4:4.3.4
 _ZN10KAboutData21setCopyrightStatementERK16KLocalizedString@Base 4:4.3.4
 _ZN10KAboutData21setOrganizationDomainERK10QByteArray@Base 4:4.3.4
 _ZN10KAboutData21unsetCustomAuthorTextEv@Base 4:4.3.4
 _ZN10KAboutData9addAuthorERK16KLocalizedStringS2_RK10QByteArrayS5_@Base 4:4.3.4
 _ZN10KAboutData9addAuthorERK16KLocalizedStringS2_RK10QByteArrayS5_S5_@Base 4:4.5.85
 _ZN10KAboutData9addCreditERK16KLocalizedStringS2_RK10QByteArrayS5_@Base 4:4.3.4
 _ZN10KAboutData9addCreditERK16KLocalizedStringS2_RK10QByteArrayS5_S5_@Base 4:4.5.85
 _ZN10KAboutDataC1ERK10QByteArrayS2_RK16KLocalizedStringS2_S5_NS_10LicenseKeyES5_S5_S2_S2_@Base 4:4.3.4
 _ZN10KAboutDataC1ERKS_@Base 4:4.3.4
 _ZN10KAboutDataC2ERK10QByteArrayS2_RK16KLocalizedStringS2_S5_NS_10LicenseKeyES5_S5_S2_S2_@Base 4:4.3.4
 _ZN10KAboutDataC2ERKS_@Base 4:4.3.4
 _ZN10KAboutDataD1Ev@Base 4:4.3.4
 _ZN10KAboutDataD2Ev@Base 4:4.3.4
 _ZN10KAboutDataaSERKS_@Base 4:4.3.4
 _ZN10KAutostart10setCommandERK7QString@Base 4:4.3.4
 _ZN10KAutostart11qt_metacallEN11QMetaObject4CallEiPPv@Base 4:4.3.4
 _ZN10KAutostart11qt_metacastEPKc@Base 4:4.3.4
 _ZN10KAutostart13setAutostartsEb@Base 4:4.3.4
 _ZN10KAutostart13setStartPhaseENS_10StartPhaseE@Base 4:4.3.4
 _ZN10KAutostart14setVisibleNameERK7QString@Base 4:4.3.4
 _ZN10KAutostart16staticMetaObjectE@Base 4:4.3.4
 _ZN10KAutostart17setCommandToCheckERK7QString@Base 4:4.3.4
 _ZN10KAutostart19isServiceRegisteredERK7QString@Base 4:4.3.4
 _ZN10KAutostart22setAllowedEnvironmentsERK11QStringList@Base 4:4.3.4
 _ZN10KAutostart23setExcludedEnvironmentsERK11QStringList@Base 4:4.3.4
 _ZN10KAutostart24addToAllowedEnvironmentsERK7QString@Base 4:4.3.4
 _ZN10KAutostart25addToExcludedEnvironmentsERK7QString@Base 4:4.3.4
 _ZN10KAutostart29removeFromAllowedEnvironmentsERK7QString@Base 4:4.3.4
 _ZN10KAutostart30removeFromExcludedEnvironmentsERK7QString@Base 4:4.3.4
 _ZN10KAutostart7Private12copyIfNeededEv@Base 4:4.4.0
 _ZN10KAutostartC1ERK7QStringP7QObject@Base 4:4.3.4
 _ZN10KAutostartC2ERK7QStringP7QObject@Base 4:4.3.4
 _ZN10KAutostartD0Ev@Base 4:4.3.4
 _ZN10KAutostartD1Ev@Base 4:4.3.4
 _ZN10KAutostartD2Ev@Base 4:4.3.4
 _ZN10KDEDModule11qt_metacallEN11QMetaObject4CallEiPPv@Base 4:4.3.4
 _ZN10KDEDModule11qt_metacastEPKc@Base 4:4.3.4
 _ZN10KDEDModule13moduleDeletedEPS_@Base 4:4.3.4
 _ZN10KDEDModule13setModuleNameERK7QString@Base 4:4.3.4
 _ZN10KDEDModule16moduleRegisteredERK15QDBusObjectPath@Base 4:4.3.4
 _ZN10KDEDModule16staticMetaObjectE@Base 4:4.3.4
 _ZN10KDEDModule16windowRegisteredEx@Base 4:4.3.4
 _ZN10KDEDModule18windowUnregisteredEx@Base 4:4.3.4
 _ZN10KDEDModuleC1EP7QObject@Base 4:4.3.4
 _ZN10KDEDModuleC2EP7QObject@Base 4:4.3.4
 _ZN10KDEDModuleD0Ev@Base 4:4.3.4
 _ZN10KDEDModuleD1Ev@Base 4:4.3.4
 _ZN10KDEDModuleD2Ev@Base 4:4.3.4
 _ZN10KFilterDev13deviceForFileERK7QStringS2_b@Base 4:4.3.4
 _ZN10KFilterDev14setSkipHeadersEv@Base 4:4.3.4
 _ZN10KFilterDev15setOrigFileNameERK10QByteArray@Base 4:4.3.4
 _ZN10KFilterDev4openE6QFlagsIN9QIODevice12OpenModeFlagEE@Base 4:4.3.4
 _ZN10KFilterDev4seekEx@Base 4:4.3.4
 _ZN10KFilterDev5closeEv@Base 4:4.3.4
 _ZN10KFilterDev6deviceEP9QIODeviceRK7QStringb@Base 4:4.3.4
 _ZN10KFilterDev8readDataEPcx@Base 4:4.3.4
 _ZN10KFilterDev9writeDataEPKcx@Base 4:4.3.4
 _ZN10KFilterDevC1EP11KFilterBaseb@Base 4:4.3.4
 _ZN10KFilterDevC2EP11KFilterBaseb@Base 4:4.3.4
 _ZN10KFilterDevD0Ev@Base 4:4.3.4
 _ZN10KFilterDevD1Ev@Base 4:4.3.4
 _ZN10KFilterDevD2Ev@Base 4:4.3.4
 _ZN10KLibLoader11errorStringEi@Base 4:4.3.4
 _ZN10KLibLoader11findLibraryERK7QStringRK14KComponentData@Base 4:4.3.4
 _ZN10KLibLoader11qt_metacallEN11QMetaObject4CallEiPPv@Base 4:4.3.4
 _ZN10KLibLoader11qt_metacastEPKc@Base 4:4.3.4
 _ZN10KLibLoader13unloadLibraryERK7QString@Base 4:4.3.4
 _ZN10KLibLoader16staticMetaObjectE@Base 4:4.3.4
 _ZN10KLibLoader4selfEv@Base 4:4.3.4
 _ZN10KLibLoader7factoryERK7QString6QFlagsIN8QLibrary8LoadHintEE@Base 4:4.3.4
 _ZN10KLibLoader7libraryERK7QString6QFlagsIN8QLibrary8LoadHintEE@Base 4:4.3.4
 _ZN10KLibLoaderC1Ev@Base 4:4.3.4
 _ZN10KLibLoaderC2Ev@Base 4:4.3.4
 _ZN10KLibLoaderD0Ev@Base 4:4.3.4
 _ZN10KLibLoaderD1Ev@Base 4:4.3.4
 _ZN10KLibLoaderD2Ev@Base 4:4.3.4
 _ZN10KSslCipher16supportedCiphersEv@Base 4:4.3.4
 _ZN10KSslCipherC1ERK10QSslCipher@Base 4:4.3.4
 _ZN10KSslCipherC1ERKS_@Base 4:4.3.4
 _ZN10KSslCipherC1Ev@Base 4:4.3.4
 _ZN10KSslCipherC2ERK10QSslCipher@Base 4:4.3.4
 _ZN10KSslCipherC2ERKS_@Base 4:4.3.4
 _ZN10KSslCipherC2Ev@Base 4:4.3.4
 _ZN10KSslCipherD1Ev@Base 4:4.3.4
 _ZN10KSslCipherD2Ev@Base 4:4.3.4
 _ZN10KSslCipheraSERKS_@Base 4:4.3.4
 _ZN10KTcpSocket10setCiphersERK5QListI10KSslCipherE@Base 4:4.3.4
 _ZN10KTcpSocket11qt_metacallEN11QMetaObject4CallEiPPv@Base 4:4.3.4
 _ZN10KTcpSocket11qt_metacastEPKc@Base 4:4.3.4
 _ZN10KTcpSocket12disconnectedEv@Base 4:4.3.4
 _ZN10KTcpSocket12stateChangedENS_5StateE@Base 4:4.3.4
 _ZN10KTcpSocket13connectToHostERK12QHostAddresstNS_11ProxyPolicyE@Base 4:4.3.4
 _ZN10KTcpSocket13connectToHostERK4KUrlNS_11ProxyPolicyE@Base 4:4.3.4
 _ZN10KTcpSocket13connectToHostERK7QStringtNS_11ProxyPolicyE@Base 4:4.3.4
 _ZN10KTcpSocket13setPrivateKeyERK7KSslKey@Base 4:4.3.4
 _ZN10KTcpSocket13setPrivateKeyERK7QStringN7KSslKey9AlgorithmEN4QSsl14EncodingFormatERK10QByteArray@Base 4:4.3.4
 _ZN10KTcpSocket13showSslErrorsEv@Base 4:4.3.4
 _ZN10KTcpSocket15ignoreSslErrorsEv@Base 4:4.3.4
 _ZN10KTcpSocket15setSocketOptionEN15QAbstractSocket12SocketOptionERK8QVariant@Base 4:4.4.95
 _ZN10KTcpSocket16addCaCertificateERK15QSslCertificate@Base 4:4.3.4
 _ZN10KTcpSocket16staticMetaObjectE@Base 4:4.3.4
 _ZN10KTcpSocket16waitForConnectedEi@Base 4:4.3.4
 _ZN10KTcpSocket16waitForEncryptedEi@Base 4:4.3.4
 _ZN10KTcpSocket16waitForReadyReadEi@Base 4:4.3.4
 _ZN10KTcpSocket17addCaCertificatesERK5QListI15QSslCertificateE@Base 4:4.3.4
 _ZN10KTcpSocket17setCaCertificatesERK5QListI15QSslCertificateE@Base 4:4.3.4
 _ZN10KTcpSocket17setReadBufferSizeEx@Base 4:4.3.4
 _ZN10KTcpSocket18disconnectFromHostEv@Base 4:4.3.4
 _ZN10KTcpSocket19setLocalCertificateERK15QSslCertificate@Base 4:4.3.4
 _ZN10KTcpSocket19setLocalCertificateERK7QStringN4QSsl14EncodingFormatE@Base 4:4.3.4
 _ZN10KTcpSocket19setSslConfigurationERK17QSslConfiguration@Base 4:4.8.4
 _ZN10KTcpSocket19waitForBytesWrittenEi@Base 4:4.3.4
 _ZN10KTcpSocket19waitForDisconnectedEi@Base 4:4.3.4
 _ZN10KTcpSocket21encryptedBytesWrittenEx@Base 4:4.8.1
 _ZN10KTcpSocket21encryptionModeChangedENS_14EncryptionModeE@Base 4:4.3.4
 _ZN10KTcpSocket21startClientEncryptionEv@Base 4:4.3.4
 _ZN10KTcpSocket22connectToHostEncryptedERK7QStringt6QFlagsIN9QIODevice12OpenModeFlagEE@Base 4:4.3.4
 _ZN10KTcpSocket23setAdvertisedSslVersionENS_10SslVersionE@Base 4:4.3.4
 _ZN10KTcpSocket23setVerificationPeerNameERK7QString@Base 4:4.7.0
 _ZN10KTcpSocket27proxyAuthenticationRequiredERK13QNetworkProxyP14QAuthenticator@Base 4:4.3.4
 _ZN10KTcpSocket4openE6QFlagsIN9QIODevice12OpenModeFlagEE@Base 4:4.3.4
 _ZN10KTcpSocket5abortEv@Base 4:4.3.4
 _ZN10KTcpSocket5closeEv@Base 4:4.3.4
 _ZN10KTcpSocket5errorENS_5ErrorE@Base 4:4.3.4
 _ZN10KTcpSocket5flushEv@Base 4:4.3.4
 _ZN10KTcpSocket8readDataEPcx@Base 4:4.3.4
 _ZN10KTcpSocket8setProxyERK13QNetworkProxy@Base 4:4.3.4
 _ZN10KTcpSocket9connectedEv@Base 4:4.3.4
 _ZN10KTcpSocket9encryptedEv@Base 4:4.3.4
 _ZN10KTcpSocket9hostFoundEv@Base 4:4.3.4
 _ZN10KTcpSocket9sslErrorsERK5QListI9KSslErrorE@Base 4:4.3.4
 _ZN10KTcpSocket9writeDataEPKcx@Base 4:4.3.4
 _ZN10KTcpSocketC1EP7QObject@Base 4:4.3.4
 _ZN10KTcpSocketC2EP7QObject@Base 4:4.3.4
 _ZN10KTcpSocketD0Ev@Base 4:4.3.4
 _ZN10KTcpSocketD1Ev@Base 4:4.3.4
 _ZN10KTcpSocketD2Ev@Base 4:4.3.4
 _ZN10KTimeZones3addERK9KTimeZone@Base 4:4.3.4
 _ZN10KTimeZones5clearEv@Base 4:4.3.4
 _ZN10KTimeZones6removeERK7QString@Base 4:4.3.4
 _ZN10KTimeZones6removeERK9KTimeZone@Base 4:4.3.4
 _ZN10KTimeZonesC1Ev@Base 4:4.3.4
 _ZN10KTimeZonesC2Ev@Base 4:4.3.4
 _ZN10KTimeZonesD1Ev@Base 4:4.3.4
 _ZN10KTimeZonesD2Ev@Base 4:4.3.4
 _ZN10KUserGroup13allGroupNamesEv@Base 4:4.3.4
 _ZN10KUserGroup9allGroupsEv@Base 4:4.3.4
 _ZN10KUserGroupC1EN5KUser7UIDModeE@Base 4:4.3.4
 _ZN10KUserGroupC1EPK5group@Base 4:4.3.4
 _ZN10KUserGroupC1EPKc@Base 4:4.3.4
 _ZN10KUserGroupC1ERK7QString@Base 4:4.3.4
 _ZN10KUserGroupC1ERKS_@Base 4:4.3.4
 _ZN10KUserGroupC1Ej@Base 4:4.3.4
 _ZN10KUserGroupC2EN5KUser7UIDModeE@Base 4:4.3.4
 _ZN10KUserGroupC2EPK5group@Base 4:4.3.4
 _ZN10KUserGroupC2EPKc@Base 4:4.3.4
 _ZN10KUserGroupC2ERK7QString@Base 4:4.3.4
 _ZN10KUserGroupC2ERKS_@Base 4:4.3.4
 _ZN10KUserGroupC2Ej@Base 4:4.3.4
 _ZN10KUserGroupD1Ev@Base 4:4.3.4
 _ZN10KUserGroupD2Ev@Base 4:4.3.4
 _ZN10KUserGroupaSERKS_@Base 4:4.3.4
 _ZN11KAuthorized14allowUrlActionERK7QStringRK4KUrlS5_@Base 4:4.3.4
 _ZN11KAuthorized16authorizeKActionERK7QString@Base 4:4.3.4
 _ZN11KAuthorized18authorizeUrlActionERK7QStringRK4KUrlS5_@Base 4:4.3.4
 _ZN11KAuthorized22authorizeControlModuleERK7QString@Base 4:4.3.4
 _ZN11KAuthorized23authorizeControlModulesERK11QStringList@Base 4:4.3.4
 _ZN11KAuthorized9authorizeERK7QString@Base 4:4.3.4
 _ZN11KConfigBase11deleteGroupEPKc6QFlagsINS_15WriteConfigFlagEE@Base 4:4.3.4
 _ZN11KConfigBase11deleteGroupERK10QByteArray6QFlagsINS_15WriteConfigFlagEE@Base 4:4.3.4
 _ZN11KConfigBase11deleteGroupERK7QString6QFlagsINS_15WriteConfigFlagEE@Base 4:4.3.4
 _ZN11KConfigBase12virtual_hookEiPv@Base 4:4.3.4
 _ZN11KConfigBase5groupEPKc@Base 4:4.3.4
 _ZN11KConfigBase5groupERK10QByteArray@Base 4:4.3.4
 _ZN11KConfigBase5groupERK7QString@Base 4:4.3.4
 _ZN11KConfigBaseC1Ev@Base 4:4.3.4
 _ZN11KConfigBaseC2Ev@Base 4:4.3.4
 _ZN11KConfigBaseD0Ev@Base 4:4.3.4
 _ZN11KConfigBaseD1Ev@Base 4:4.3.4
 _ZN11KConfigBaseD2Ev@Base 4:4.3.4
 _ZN11KFilterBase12virtual_hookEiPv@Base 4:4.3.4
 _ZN11KFilterBase14setFilterFlagsENS_11FilterFlagsE@Base 4:4.3.4
 _ZN11KFilterBase20findFilterByFileNameERK7QString@Base 4:4.3.4
 _ZN11KFilterBase20findFilterByMimeTypeERK7QString@Base 4:4.3.4
 _ZN11KFilterBase5resetEv@Base 4:4.3.4
 _ZN11KFilterBase6deviceEv@Base 4:4.3.4
 _ZN11KFilterBase9setDeviceEP9QIODeviceb@Base 4:4.3.4
 _ZN11KFilterBase9terminateEv@Base 4:4.3.4
 _ZN11KFilterBaseC1Ev@Base 4:4.3.4
 _ZN11KFilterBaseC2Ev@Base 4:4.3.4
 _ZN11KFilterBaseD0Ev@Base 4:4.3.4
 _ZN11KFilterBaseD1Ev@Base 4:4.3.4
 _ZN11KFilterBaseD2Ev@Base 4:4.3.4
 _ZN11KGzipFilter10readHeaderEv@Base 4:4.3.4
 _ZN11KGzipFilter10uncompressEv@Base 4:4.3.4
 _ZN11KGzipFilter11setInBufferEPKcj@Base 4:4.3.4
 _ZN11KGzipFilter11writeFooterEv@Base 4:4.3.4
 _ZN11KGzipFilter11writeHeaderERK10QByteArray@Base 4:4.3.4
 _ZN11KGzipFilter12setOutBufferEPcj@Base 4:4.3.4
 _ZN11KGzipFilter15uncompress_noopEv@Base 4:4.3.4
 _ZN11KGzipFilter4initEi@Base 4:4.3.4
 _ZN11KGzipFilter4initEiNS_4FlagE@Base 4:4.3.4
 _ZN11KGzipFilter5resetEv@Base 4:4.3.4
 _ZN11KGzipFilter8compressEb@Base 4:4.3.4
 _ZN11KGzipFilter9terminateEv@Base 4:4.3.4
 _ZN11KGzipFilterC1Ev@Base 4:4.3.4
 _ZN11KGzipFilterC2Ev@Base 4:4.3.4
 _ZN11KGzipFilterD0Ev@Base 4:4.3.4
 _ZN11KGzipFilterD1Ev@Base 4:4.3.4
 _ZN11KGzipFilterD2Ev@Base 4:4.3.4
 _ZN11KJobPrivate15_k_speedTimeoutEv@Base 4:4.3.4
 _ZN11KJobPrivate25_k_kjobUnitEnumRegisteredE@Base 4:4.3.4
 _ZN11KJobPrivateC1Ev@Base 4:4.3.4
 _ZN11KJobPrivateC2Ev@Base 4:4.3.4
 _ZN11KJobPrivateD0Ev@Base 4:4.3.4
 _ZN11KJobPrivateD1Ev@Base 4:4.3.4
 _ZN11KJobPrivateD2Ev@Base 4:4.3.4
 _ZN11KMountPoint18currentMountPointsE6QFlagsINS_17DetailsNeededFlagEE@Base 4:4.4.95
 _ZN11KMountPoint19possibleMountPointsE6QFlagsINS_17DetailsNeededFlagEE@Base 4:4.4.95
 _ZN11KMountPoint4ListC1Ev@Base 4:4.4.95
 _ZN11KMountPoint4ListC2Ev@Base 4:4.4.95
 _ZN11KMountPoint7Private25finalizeCurrentMountPointE6QFlagsINS_17DetailsNeededFlagEE@Base 4:4.4.95
 _ZN11KMountPoint7Private26finalizePossibleMountPointE6QFlagsINS_17DetailsNeededFlagEE@Base 4:4.4.95
 _ZN11KMountPointC1Ev@Base 4:4.4.95
 _ZN11KMountPointC2Ev@Base 4:4.4.95
 _ZN11KMountPointD1Ev@Base 4:4.4.95
 _ZN11KMountPointD2Ev@Base 4:4.4.95
 _ZN11KPluginInfo12fromServicesERK5QListI10KSharedPtrI8KServiceEERK12KConfigGroup@Base 4:4.3.4
 _ZN11KPluginInfo16setPluginEnabledEb@Base 4:4.3.4
 _ZN11KPluginInfo22fromKPartsInstanceNameERK7QStringRK12KConfigGroup@Base 4:4.3.4
 _ZN11KPluginInfo4loadERK12KConfigGroup@Base 4:4.3.4
 _ZN11KPluginInfo4saveE12KConfigGroup@Base 4:4.3.4
 _ZN11KPluginInfo8defaultsEv@Base 4:4.3.4
 _ZN11KPluginInfo9fromFilesERK11QStringListRK12KConfigGroup@Base 4:4.3.4
 _ZN11KPluginInfo9setConfigERK12KConfigGroup@Base 4:4.3.4
 _ZN11KPluginInfoC1E10KSharedPtrI8KServiceE@Base 4:4.3.4
 _ZN11KPluginInfoC1ERK7QStringPKc@Base 4:4.3.4
 _ZN11KPluginInfoC1ERKS_@Base 4:4.3.4
 _ZN11KPluginInfoC1Ev@Base 4:4.3.4
 _ZN11KPluginInfoC2E10KSharedPtrI8KServiceE@Base 4:4.3.4
 _ZN11KPluginInfoC2ERK7QStringPKc@Base 4:4.3.4
 _ZN11KPluginInfoC2ERKS_@Base 4:4.3.4
 _ZN11KPluginInfoC2Ev@Base 4:4.3.4
 _ZN11KPluginInfoD1Ev@Base 4:4.3.4
 _ZN11KPluginInfoD2Ev@Base 4:4.3.4
 _ZN11KPluginInfoaSERKS_@Base 4:4.3.4
 _ZN11KSycocaDict3addERK7QStringRK10KSharedPtrI12KSycocaEntryE@Base 4:4.3.4
 _ZN11KSycocaDict4saveER11QDataStream@Base 4:4.3.4
 _ZN11KSycocaDict5clearEv@Base 4:4.3.4
 _ZN11KSycocaDict6removeERK7QString@Base 4:4.3.4
 _ZN11KSycocaDictC1EP11QDataStreami@Base 4:4.3.4
 _ZN11KSycocaDictC1Ev@Base 4:4.3.4
 _ZN11KSycocaDictC2EP11QDataStreami@Base 4:4.3.4
 _ZN11KSycocaDictC2Ev@Base 4:4.3.4
 _ZN11KSycocaDictD1Ev@Base 4:4.3.4
 _ZN11KSycocaDictD2Ev@Base 4:4.3.4
 _ZN12KAboutPersonC1ERK16KLocalizedStringS2_RK10QByteArrayS5_@Base 4:4.3.4
 _ZN12KAboutPersonC1ERK16KLocalizedStringS2_RK10QByteArrayS5_S5_@Base 4:4.5.85
 _ZN12KAboutPersonC1ERK7QStringS2_@Base 4:4.3.4
 _ZN12KAboutPersonC1ERKS_@Base 4:4.3.4
 _ZN12KAboutPersonC2ERK16KLocalizedStringS2_RK10QByteArrayS5_@Base 4:4.3.4
 _ZN12KAboutPersonC2ERK16KLocalizedStringS2_RK10QByteArrayS5_S5_@Base 4:4.5.85
 _ZN12KAboutPersonC2ERK7QStringS2_@Base 4:4.3.4
 _ZN12KAboutPersonC2ERKS_@Base 4:4.3.4
 _ZN12KAboutPersonD1Ev@Base 4:4.3.4
 _ZN12KAboutPersonD2Ev@Base 4:4.3.4
 _ZN12KAboutPersonaSERKS_@Base 4:4.3.4
 _ZN12KArchiveFile12virtual_hookEiPv@Base 4:4.4.95
 _ZN12KArchiveFile7setSizeEx@Base 4:4.4.95
 _ZN12KArchiveFileC1EP8KArchiveRK7QStringiiS4_S4_S4_xx@Base 4:4.4.95
 _ZN12KArchiveFileC2EP8KArchiveRK7QStringiiS4_S4_S4_xx@Base 4:4.4.95
 _ZN12KArchiveFileD0Ev@Base 4:4.4.95
 _ZN12KArchiveFileD1Ev@Base 4:4.4.95
 _ZN12KArchiveFileD2Ev@Base 4:4.4.95
 _ZN12KCmdLineArgs10initIgnoreEiPPcRK10QByteArray@Base 4:4.3.4
 _ZN12KCmdLineArgs10parsedArgsERK10QByteArray@Base 4:4.3.4
 _ZN12KCmdLineArgs10usageErrorERK7QString@Base 4:4.3.4
 _ZN12KCmdLineArgs11enable_i18nEv@Base 4:4.3.4
 _ZN12KCmdLineArgs11loadAppArgsER11QDataStream@Base 4:4.3.4
 _ZN12KCmdLineArgs11saveAppArgsER11QDataStream@Base 4:4.3.4
 _ZN12KCmdLineArgs12allArgumentsEv@Base 4:4.5.85
 _ZN12KCmdLineArgs13isTempFileSetEv@Base 4:4.3.4
 _ZN12KCmdLineArgs17addCmdLineOptionsERK15KCmdLineOptionsRK16KLocalizedStringRK10QByteArrayS8_@Base 4:4.3.4 1
 _ZN12KCmdLineArgs17addTempFileOptionEv@Base 4:4.3.4
 _ZN12KCmdLineArgs20addStdCmdLineOptionsE6QFlagsINS_13StdCmdLineArgEE@Base 4:4.3.4 1
 _ZN12KCmdLineArgs3cwdEv@Base 4:4.3.4
 _ZN12KCmdLineArgs4initEPK10KAboutData@Base 4:4.3.4 1
 _ZN12KCmdLineArgs4initEiPPcPK10KAboutData6QFlagsINS_13StdCmdLineArgEE@Base 4:4.3.4 1
 _ZN12KCmdLineArgs4initEiPPcRK10QByteArrayS4_RK16KLocalizedStringS4_S7_6QFlagsINS_13StdCmdLineArgEE@Base 4:4.3.4 1
 _ZN12KCmdLineArgs5clearEv@Base 4:4.3.4
 _ZN12KCmdLineArgs5resetEv@Base 4:4.3.4
 _ZN12KCmdLineArgs5usageERK10QByteArray@Base 4:4.3.4
 _ZN12KCmdLineArgs6qtArgcEv@Base 4:4.3.4
 _ZN12KCmdLineArgs6qtArgvEv@Base 4:4.3.4
 _ZN12KCmdLineArgs6setCwdERK10QByteArray@Base 4:4.3.4
 _ZN12KCmdLineArgs7appNameEv@Base 4:4.3.4
 _ZN12KCmdLineArgs7makeURLERK10QByteArray@Base 4:4.3.4
 _ZN12KCmdLineArgs9aboutDataEv@Base 4:4.3.4
 _ZN12KCmdLineArgsC1ERK15KCmdLineOptionsRK16KLocalizedStringRK10QByteArray@Base 4:4.3.4
 _ZN12KCmdLineArgsC2ERK15KCmdLineOptionsRK16KLocalizedStringRK10QByteArray@Base 4:4.3.4
 _ZN12KCmdLineArgsD1Ev@Base 4:4.3.4
 _ZN12KCmdLineArgsD2Ev@Base 4:4.3.4
 _ZN12KConfigGroup10writeEntryEPKcRK10QByteArray6QFlagsIN11KConfigBase15WriteConfigFlagEE@Base 4:4.3.4
 _ZN12KConfigGroup10writeEntryEPKcRK11QStringList6QFlagsIN11KConfigBase15WriteConfigFlagEE@Base 4:4.3.4
 _ZN12KConfigGroup10writeEntryEPKcRK5QListI8QVariantE6QFlagsIN11KConfigBase15WriteConfigFlagEE@Base 4:4.3.4
 _ZN12KConfigGroup10writeEntryEPKcRK7QString6QFlagsIN11KConfigBase15WriteConfigFlagEE@Base 4:4.3.4
 _ZN12KConfigGroup10writeEntryEPKcRK8QVariant6QFlagsIN11KConfigBase15WriteConfigFlagEE@Base 4:4.3.4
 _ZN12KConfigGroup10writeEntryEPKcS1_6QFlagsIN11KConfigBase15WriteConfigFlagEE@Base 4:4.3.4
 _ZN12KConfigGroup10writeEntryERK7QStringPKc6QFlagsIN11KConfigBase15WriteConfigFlagEE@Base 4:4.3.4
 _ZN12KConfigGroup10writeEntryERK7QStringRK10QByteArray6QFlagsIN11KConfigBase15WriteConfigFlagEE@Base 4:4.3.4
 _ZN12KConfigGroup10writeEntryERK7QStringRK11QStringList6QFlagsIN11KConfigBase15WriteConfigFlagEE@Base 4:4.3.4
 _ZN12KConfigGroup10writeEntryERK7QStringRK5QListI8QVariantE6QFlagsIN11KConfigBase15WriteConfigFlagEE@Base 4:4.3.4
 _ZN12KConfigGroup10writeEntryERK7QStringRK8QVariant6QFlagsIN11KConfigBase15WriteConfigFlagEE@Base 4:4.3.4
 _ZN12KConfigGroup10writeEntryERK7QStringS2_6QFlagsIN11KConfigBase15WriteConfigFlagEE@Base 4:4.3.4
 _ZN12KConfigGroup11changeGroupEPKc@Base 4:4.3.4
 _ZN12KConfigGroup11changeGroupERK7QString@Base 4:4.3.4
 _ZN12KConfigGroup11deleteEntryEPKc6QFlagsIN11KConfigBase15WriteConfigFlagEE@Base 4:4.3.4
 _ZN12KConfigGroup11deleteEntryERK7QString6QFlagsIN11KConfigBase15WriteConfigFlagEE@Base 4:4.3.4
 _ZN12KConfigGroup11deleteGroupE6QFlagsIN11KConfigBase15WriteConfigFlagEE@Base 4:4.3.4
 _ZN12KConfigGroup11markAsCleanEv@Base 4:4.3.4
 _ZN12KConfigGroup14writePathEntryEPKcRK11QStringList6QFlagsIN11KConfigBase15WriteConfigFlagEE@Base 4:4.3.4
 _ZN12KConfigGroup14writePathEntryEPKcRK7QString6QFlagsIN11KConfigBase15WriteConfigFlagEE@Base 4:4.3.4
 _ZN12KConfigGroup14writePathEntryERK7QStringRK11QStringList6QFlagsIN11KConfigBase15WriteConfigFlagEE@Base 4:4.3.4
 _ZN12KConfigGroup14writePathEntryERK7QStringS2_6QFlagsIN11KConfigBase15WriteConfigFlagEE@Base 4:4.3.4
 _ZN12KConfigGroup15deleteGroupImplERK10QByteArray6QFlagsIN11KConfigBase15WriteConfigFlagEE@Base 4:4.3.4
 _ZN12KConfigGroup15revertToDefaultEPKc@Base 4:4.3.4
 _ZN12KConfigGroup15revertToDefaultERK7QString@Base 4:4.3.4
 _ZN12KConfigGroup17convertToQVariantEPKcRK10QByteArrayRK8QVariant@Base 4:4.3.4
 _ZN12KConfigGroup17writeXdgListEntryEPKcRK11QStringList6QFlagsIN11KConfigBase15WriteConfigFlagEE@Base 4:4.3.4
 _ZN12KConfigGroup17writeXdgListEntryERK7QStringRK11QStringList6QFlagsIN11KConfigBase15WriteConfigFlagEE@Base 4:4.3.4
 _ZN12KConfigGroup4syncEv@Base 4:4.3.4
 _ZN12KConfigGroup6configEv@Base 4:4.3.4
 _ZN12KConfigGroup8reparentEP11KConfigBase6QFlagsINS0_15WriteConfigFlagEE@Base 4:4.3.4
 _ZN12KConfigGroup9groupImplERK10QByteArray@Base 4:4.3.4
 _ZN12KConfigGroupC1EP11KConfigBasePKc@Base 4:4.3.4
 _ZN12KConfigGroupC1EP11KConfigBaseRK7QString@Base 4:4.3.4
 _ZN12KConfigGroupC1EPK11KConfigBasePKc@Base 4:4.3.4
 _ZN12KConfigGroupC1EPK11KConfigBaseRK7QString@Base 4:4.3.4
 _ZN12KConfigGroupC1ERK10KSharedPtrI13KSharedConfigEPKc@Base 4:4.3.4
 _ZN12KConfigGroupC1ERK10KSharedPtrI13KSharedConfigERK7QString@Base 4:4.3.4
 _ZN12KConfigGroupC1ERKS_@Base 4:4.3.4
 _ZN12KConfigGroupC1Ev@Base 4:4.3.4
 _ZN12KConfigGroupC2EP11KConfigBasePKc@Base 4:4.3.4
 _ZN12KConfigGroupC2EP11KConfigBaseRK7QString@Base 4:4.3.4
 _ZN12KConfigGroupC2EPK11KConfigBasePKc@Base 4:4.3.4
 _ZN12KConfigGroupC2EPK11KConfigBaseRK7QString@Base 4:4.3.4
 _ZN12KConfigGroupC2ERK10KSharedPtrI13KSharedConfigEPKc@Base 4:4.3.4
 _ZN12KConfigGroupC2ERK10KSharedPtrI13KSharedConfigERK7QString@Base 4:4.3.4
 _ZN12KConfigGroupC2ERKS_@Base 4:4.3.4
 _ZN12KConfigGroupC2Ev@Base 4:4.3.4
 _ZN12KConfigGroupD0Ev@Base 4:4.3.4
 _ZN12KConfigGroupD1Ev@Base 4:4.3.4
 _ZN12KConfigGroupD2Ev@Base 4:4.3.4
 _ZN12KConfigGroupaSERKS_@Base 4:4.3.4
 _ZN12KDesktopFile11actionGroupERK7QString@Base 4:4.3.4
 _ZN12KDesktopFile11locateLocalERK7QString@Base 4:4.3.4
 _ZN12KDesktopFile13isDesktopFileERK7QString@Base 4:4.3.4
 _ZN12KDesktopFile23isAuthorizedDesktopFileERK7QString@Base 4:4.3.4
 _ZN12KDesktopFileC1EPKcRK7QString@Base 4:4.3.4
 _ZN12KDesktopFileC1ERK7QString@Base 4:4.3.4
 _ZN12KDesktopFileC2EPKcRK7QString@Base 4:4.3.4
 _ZN12KDesktopFileC2ERK7QString@Base 4:4.3.4
 _ZN12KDesktopFileD0Ev@Base 4:4.3.4
 _ZN12KDesktopFileD1Ev@Base 4:4.3.4
 _ZN12KDesktopFileD2Ev@Base 4:4.3.4
 _ZN12KLocalSocket11qt_metacallEN11QMetaObject4CallEiPPv@Base 4:4.3.4
 _ZN12KLocalSocket11qt_metacastEPKc@Base 4:4.3.4
 _ZN12KLocalSocket13connectToPathERK7QString6QFlagsIN9QIODevice12OpenModeFlagEE@Base 4:4.3.4
 _ZN12KLocalSocket13connectToPathERK7QStringNS_15LocalSocketTypeE6QFlagsIN9QIODevice12OpenModeFlagEE@Base 4:4.3.4
 _ZN12KLocalSocket16staticMetaObjectE@Base 4:4.3.4
 _ZN12KLocalSocket18disconnectFromPathEv@Base 4:4.3.4
 _ZN12KLocalSocket27connectToHostImplementationERK7QStringt6QFlagsIN9QIODevice12OpenModeFlagEE@Base 4:4.3.4
 _ZN12KLocalSocket32disconnectFromHostImplementationEv@Base 4:4.3.4
 _ZN12KLocalSocketC1EP7QObject@Base 4:4.3.4
 _ZN12KLocalSocketC2EP7QObject@Base 4:4.3.4
 _ZN12KLocalSocketD0Ev@Base 4:4.3.4
 _ZN12KLocalSocketD1Ev@Base 4:4.3.4
 _ZN12KLocalSocketD2Ev@Base 4:4.3.4
 _ZN12KServiceType10parentTypeEv@Base 4:4.3.4
 _ZN12KServiceType11serviceTypeERK7QString@Base 4:4.3.4
 _ZN12KServiceType15allServiceTypesEv@Base 4:4.3.4
 _ZN12KServiceType22setServiceOffersOffsetEi@Base 4:4.3.4
 _ZN12KServiceTypeC1EP12KDesktopFile@Base 4:4.3.4
 _ZN12KServiceTypeC1ER11QDataStreami@Base 4:4.3.4
 _ZN12KServiceTypeC1ER19KServiceTypePrivate@Base 4:4.3.4
 _ZN12KServiceTypeC1ER19KServiceTypePrivateRK7QStringS4_@Base 4:4.3.4
 _ZN12KServiceTypeC2EP12KDesktopFile@Base 4:4.3.4
 _ZN12KServiceTypeC2ER11QDataStreami@Base 4:4.3.4
 _ZN12KServiceTypeC2ER19KServiceTypePrivate@Base 4:4.3.4
 _ZN12KServiceTypeC2ER19KServiceTypePrivateRK7QStringS4_@Base 4:4.3.4
 _ZN12KServiceTypeD0Ev@Base 4:4.3.4
 _ZN12KServiceTypeD1Ev@Base 4:4.3.4
 _ZN12KServiceTypeD2Ev@Base 4:4.3.4
 _ZN12KSycocaEntry10setDeletedEb@Base 4:4.3.4
 _ZN12KSycocaEntry4readER11QDataStreamR11QStringList@Base 4:4.3.4
 _ZN12KSycocaEntry4readER11QDataStreamR7QString@Base 4:4.3.4
 _ZN12KSycocaEntry4saveER11QDataStream@Base 4:4.3.4
 _ZN12KSycocaEntryC1ER19KSycocaEntryPrivate@Base 4:4.3.4
 _ZN12KSycocaEntryC1Ev@Base 4:4.3.4
 _ZN12KSycocaEntryC2ER19KSycocaEntryPrivate@Base 4:4.3.4
 _ZN12KSycocaEntryC2Ev@Base 4:4.3.4
 _ZN12KSycocaEntryD0Ev@Base 4:4.3.4
 _ZN12KSycocaEntryD1Ev@Base 4:4.3.4
 _ZN12KSycocaEntryD2Ev@Base 4:4.3.4
 _ZN13KAboutLicense7PrivateC1EN10KAboutData10LicenseKeyEPKS1_@Base 4:4.3.4
 _ZN13KAboutLicense7PrivateC1ERK16KLocalizedStringPK10KAboutData@Base 4:4.3.4
 _ZN13KAboutLicense7PrivateC1ERK7QStringPK10KAboutData@Base 4:4.3.4
 _ZN13KAboutLicense7PrivateC1ERKS0_@Base 4:4.3.4
 _ZN13KAboutLicense7PrivateC2EN10KAboutData10LicenseKeyEPKS1_@Base 4:4.3.4
 _ZN13KAboutLicense7PrivateC2ERK16KLocalizedStringPK10KAboutData@Base 4:4.3.4
 _ZN13KAboutLicense7PrivateC2ERK7QStringPK10KAboutData@Base 4:4.3.4
 _ZN13KAboutLicense7PrivateC2ERKS0_@Base 4:4.3.4
 _ZN13KAboutLicense9byKeywordERK7QString@Base 4:4.3.4
 _ZN13KAboutLicenseC1EN10KAboutData10LicenseKeyEPKS0_@Base 4:4.3.4
 _ZN13KAboutLicenseC1ERK16KLocalizedStringPK10KAboutData@Base 4:4.3.4
 _ZN13KAboutLicenseC1ERK7QStringPK10KAboutData@Base 4:4.3.4
 _ZN13KAboutLicenseC1ERKS_@Base 4:4.3.4
 _ZN13KAboutLicenseC2EN10KAboutData10LicenseKeyEPKS0_@Base 4:4.3.4
 _ZN13KAboutLicenseC2ERK16KLocalizedStringPK10KAboutData@Base 4:4.3.4
 _ZN13KAboutLicenseC2ERK7QStringPK10KAboutData@Base 4:4.3.4
 _ZN13KAboutLicenseC2ERKS_@Base 4:4.3.4
 _ZN13KAboutLicenseD1Ev@Base 4:4.3.4
 _ZN13KAboutLicenseD2Ev@Base 4:4.3.4
 _ZN13KAboutLicenseaSERKS_@Base 4:4.3.4
 _ZN13KArchiveEntry12virtual_hookEiPv@Base 4:4.4.95
 _ZN13KArchiveEntryC1EP8KArchiveRK7QStringiiS4_S4_S4_@Base 4:4.4.95
 _ZN13KArchiveEntryC2EP8KArchiveRK7QStringiiS4_S4_S4_@Base 4:4.4.95
 _ZN13KArchiveEntryD0Ev@Base 4:4.4.95
 _ZN13KArchiveEntryD1Ev@Base 4:4.4.95
 _ZN13KArchiveEntryD2Ev@Base 4:4.4.95
 _ZN13KAutoSaveFile10staleFilesERK4KUrlRK7QString@Base 4:4.3.4
 _ZN13KAutoSaveFile11qt_metacallEN11QMetaObject4CallEiPPv@Base 4:4.3.4
 _ZN13KAutoSaveFile11qt_metacastEPKc@Base 4:4.3.4
 _ZN13KAutoSaveFile11releaseLockEv@Base 4:4.3.4
 _ZN13KAutoSaveFile13allStaleFilesERK7QString@Base 4:4.3.4
 _ZN13KAutoSaveFile14setManagedFileERK4KUrl@Base 4:4.3.4
 _ZN13KAutoSaveFile16staticMetaObjectE@Base 4:4.3.4
 _ZN13KAutoSaveFile4openE6QFlagsIN9QIODevice12OpenModeFlagEE@Base 4:4.3.4
 _ZN13KAutoSaveFileC1EP7QObject@Base 4:4.3.4
 _ZN13KAutoSaveFileC1ERK4KUrlP7QObject@Base 4:4.3.4
 _ZN13KAutoSaveFileC2EP7QObject@Base 4:4.3.4
 _ZN13KAutoSaveFileC2ERK4KUrlP7QObject@Base 4:4.3.4
 _ZN13KAutoSaveFileD0Ev@Base 4:4.3.4
 _ZN13KAutoSaveFileD1Ev@Base 4:4.3.4
 _ZN13KAutoSaveFileD2Ev@Base 4:4.3.4
 _ZN13KCompositeJob10hasSubjobsEv@Base 4:4.3.4
 _ZN13KCompositeJob10slotResultEP4KJob@Base 4:4.3.4
 _ZN13KCompositeJob11qt_metacallEN11QMetaObject4CallEiPPv@Base 4:4.3.4
 _ZN13KCompositeJob11qt_metacastEPKc@Base 4:4.3.4
 _ZN13KCompositeJob12clearSubjobsEv@Base 4:4.3.4
 _ZN13KCompositeJob12removeSubjobEP4KJob@Base 4:4.3.4
 _ZN13KCompositeJob15slotInfoMessageEP4KJobRK7QStringS4_@Base 4:4.3.4
 _ZN13KCompositeJob16staticMetaObjectE@Base 4:4.3.4
 _ZN13KCompositeJob9addSubjobEP4KJob@Base 4:4.3.4
 _ZN13KCompositeJobC1EP7QObject@Base 4:4.3.4
 _ZN13KCompositeJobC1ER20KCompositeJobPrivateP7QObject@Base 4:4.3.4
 _ZN13KCompositeJobC2EP7QObject@Base 4:4.3.4
 _ZN13KCompositeJobC2ER20KCompositeJobPrivateP7QObject@Base 4:4.3.4
 _ZN13KCompositeJobD0Ev@Base 4:4.3.4
 _ZN13KCompositeJobD1Ev@Base 4:4.3.4
 _ZN13KCompositeJobD2Ev@Base 4:4.3.4
 _ZN13KCurrencyCode18currencyCodeToNameERK7QStringS2_@Base 4:4.4.0
 _ZN13KCurrencyCode20allCurrencyCodesListE6QFlagsINS_14CurrencyStatusEE@Base 4:4.4.0
 _ZN13KCurrencyCode7isValidERK7QString6QFlagsINS_14CurrencyStatusEE@Base 4:4.4.0
 _ZN13KCurrencyCodeC1ERK7QStringS2_@Base 4:4.4.0
 _ZN13KCurrencyCodeC1ERK9QFileInfoRK7QString@Base 4:4.4.0
 _ZN13KCurrencyCodeC1ERKS_@Base 4:4.4.0
 _ZN13KCurrencyCodeC2ERK7QStringS2_@Base 4:4.4.0
 _ZN13KCurrencyCodeC2ERK9QFileInfoRK7QString@Base 4:4.4.0
 _ZN13KCurrencyCodeC2ERKS_@Base 4:4.4.0
 _ZN13KCurrencyCodeD0Ev@Base 4:4.4.0
 _ZN13KCurrencyCodeD1Ev@Base 4:4.4.0
 _ZN13KCurrencyCodeD2Ev@Base 4:4.4.0
 _ZN13KCurrencyCodeaSERKS_@Base 4:4.4.0
 _ZN13KPluginLoader11qt_metacallEN11QMetaObject4CallEiPPv@Base 4:4.4.4-2~
 _ZN13KPluginLoader11qt_metacastEPKc@Base 4:4.4.4-2~
 _ZN13KPluginLoader16staticMetaObjectE@Base 4:4.4.4-2~
 _ZN13KPluginLoader4loadEv@Base 4:4.4.4-2~
 _ZN13KPluginLoader7factoryEv@Base 4:4.4.4-2~
 _ZN13KPluginLoaderC1ERK7QStringRK14KComponentDataP7QObject@Base 4:4.4.4-2~
 _ZN13KPluginLoaderC1ERK8KServiceRK14KComponentDataP7QObject@Base 4:4.4.4-2~
 _ZN13KPluginLoaderC2ERK7QStringRK14KComponentDataP7QObject@Base 4:4.4.4-2~
 _ZN13KPluginLoaderC2ERK8KServiceRK14KComponentDataP7QObject@Base 4:4.4.4-2~
 _ZN13KPluginLoaderD0Ev@Base 4:4.4.4-2~
 _ZN13KPluginLoaderD1Ev@Base 4:4.4.4-2~
 _ZN13KPluginLoaderD2Ev@Base 4:4.4.4-2~
 _ZN13KProtocolInfo11extraFieldsERK4KUrl@Base 4:4.3.4
 _ZN13KProtocolInfo12capabilitiesERK7QString@Base 4:4.3.4
 _ZN13KProtocolInfo13protocolClassERK7QString@Base 4:4.3.4
 _ZN13KProtocolInfo15isKnownProtocolERK4KUrl@Base 4:4.3.4
 _ZN13KProtocolInfo15isKnownProtocolERK7QString@Base 4:4.3.4
 _ZN13KProtocolInfo15showFilePreviewERK7QString@Base 4:4.3.4
 _ZN13KProtocolInfo16isFilterProtocolERK4KUrl@Base 4:4.3.4
 _ZN13KProtocolInfo16isFilterProtocolERK7QString@Base 4:4.3.4
 _ZN13KProtocolInfo16isHelperProtocolERK4KUrl@Base 4:4.3.4
 _ZN13KProtocolInfo16isHelperProtocolERK7QString@Base 4:4.3.4
 _ZN13KProtocolInfo16maxSlavesPerHostERK7QString@Base 4:4.4.0
 _ZN13KProtocolInfo30determineMimetypeFromExtensionERK7QString@Base 4:4.3.4
 _ZN13KProtocolInfo4execERK7QString@Base 4:4.3.4
 _ZN13KProtocolInfo4iconERK7QString@Base 4:4.3.4
 _ZN13KProtocolInfo4loadER11QDataStream@Base 4:4.3.4
 _ZN13KProtocolInfo6configERK7QString@Base 4:4.3.4
 _ZN13KProtocolInfo7docPathERK7QString@Base 4:4.3.4
 _ZN13KProtocolInfo9maxSlavesERK7QString@Base 4:4.3.4
 _ZN13KProtocolInfo9protocolsEv@Base 4:4.3.4
 _ZN13KProtocolInfo9proxiedByERK7QString@Base 4:4.3.4
 _ZN13KProtocolInfoC1ER11QDataStreami@Base 4:4.3.4
 _ZN13KProtocolInfoC1ERK7QString@Base 4:4.3.4
 _ZN13KProtocolInfoC2ER11QDataStreami@Base 4:4.3.4
 _ZN13KProtocolInfoC2ERK7QString@Base 4:4.3.4
 _ZN13KProtocolInfoD0Ev@Base 4:4.3.4
 _ZN13KProtocolInfoD1Ev@Base 4:4.3.4
 _ZN13KProtocolInfoD2Ev@Base 4:4.3.4
 _ZN13KServiceGroup10childGroupERK7QString@Base 4:4.3.4
 _ZN13KServiceGroup12groupEntriesE6QFlagsINS_13EntriesOptionEE@Base 4:4.3.4
 _ZN13KServiceGroup13setLayoutInfoERK11QStringList@Base 4:4.3.4
 _ZN13KServiceGroup14serviceEntriesE6QFlagsINS_13EntriesOptionEE@Base 4:4.3.4
 _ZN13KServiceGroup14setAllowInlineEb@Base 4:4.3.4
 _ZN13KServiceGroup14setInlineAliasEb@Base 4:4.3.4
 _ZN13KServiceGroup14setInlineValueEi@Base 4:4.3.4
 _ZN13KServiceGroup16setShowEmptyMenuEb@Base 4:4.3.4
 _ZN13KServiceGroup19setShowInlineHeaderEb@Base 4:4.3.4
 _ZN13KServiceGroup4rootEv@Base 4:4.3.4
 _ZN13KServiceGroup5groupERK7QString@Base 4:4.3.4
 _ZN13KServiceGroup7entriesEb@Base 4:4.3.4
 _ZN13KServiceGroup7entriesEbb@Base 4:4.3.4
 _ZN13KServiceGroup7entriesEbbbb@Base 4:4.3.4
 _ZN13KServiceGroup8addEntryERK10KSharedPtrI12KSycocaEntryE@Base 4:4.3.4
 _ZN13KServiceGroup9baseGroupERK7QString@Base 4:4.3.4
 _ZN13KServiceGroupC1ER11QDataStreamib@Base 4:4.3.4
 _ZN13KServiceGroupC1ERK7QString@Base 4:4.3.4
 _ZN13KServiceGroupC1ERK7QStringS2_@Base 4:4.3.4
 _ZN13KServiceGroupC2ER11QDataStreamib@Base 4:4.3.4
 _ZN13KServiceGroupC2ERK7QString@Base 4:4.3.4
 _ZN13KServiceGroupC2ERK7QStringS2_@Base 4:4.3.4
 _ZN13KServiceGroupD0Ev@Base 4:4.3.4
 _ZN13KServiceGroupD1Ev@Base 4:4.3.4
 _ZN13KServiceGroupD2Ev@Base 4:4.3.4
 _ZN13KServiceOffer13setPreferenceEi@Base 4:4.3.4
 _ZN13KServiceOffer27setMimeTypeInheritanceLevelEi@Base 4:4.3.4
 _ZN13KServiceOfferC1ERK10KSharedPtrI8KServiceEiib@Base 4:4.3.4
 _ZN13KServiceOfferC1ERKS_@Base 4:4.3.4
 _ZN13KServiceOfferC1Ev@Base 4:4.3.4
 _ZN13KServiceOfferC2ERK10KSharedPtrI8KServiceEiib@Base 4:4.3.4
 _ZN13KServiceOfferC2ERKS_@Base 4:4.3.4
 _ZN13KServiceOfferC2Ev@Base 4:4.3.4
 _ZN13KServiceOfferD1Ev@Base 4:4.3.4
 _ZN13KServiceOfferD2Ev@Base 4:4.3.4
 _ZN13KServiceOfferaSERKS_@Base 4:4.3.4
 _ZN13KSharedConfig10openConfigERK14KComponentDataRK7QString6QFlagsIN7KConfig8OpenFlagEEPKc@Base 4:4.3.4
 _ZN13KSharedConfig10openConfigERK7QString6QFlagsIN7KConfig8OpenFlagEEPKc@Base 4:4.3.4
 _ZN13KSharedConfig9groupImplERK10QByteArray@Base 4:4.3.4
 _ZN13KSharedConfigC1ERK14KComponentDataRK7QString6QFlagsIN7KConfig8OpenFlagEEPKc@Base 4:4.3.4
 _ZN13KSharedConfigC2ERK14KComponentDataRK7QString6QFlagsIN7KConfig8OpenFlagEEPKc@Base 4:4.3.4
 _ZN13KSharedConfigD0Ev@Base 4:4.3.4
 _ZN13KSharedConfigD1Ev@Base 4:4.3.4
 _ZN13KSharedConfigD2Ev@Base 4:4.3.4
 _ZN13KStandardDirs10findAllExeER11QStringListRK7QStringS4_6QFlagsINS_12SearchOptionEE@Base 4:4.3.4
 _ZN13KStandardDirs11checkAccessERK7QStringi@Base 4:4.3.4
 _ZN13KStandardDirs11installPathEPKc@Base 4:4.3.4
 _ZN13KStandardDirs11kde_defaultEPKc@Base 4:4.3.4
 _ZN13KStandardDirs11locateLocalEPKcRK7QStringRK14KComponentData@Base 4:4.3.4
 _ZN13KStandardDirs11locateLocalEPKcRK7QStringbRK14KComponentData@Base 4:4.3.4
 _ZN13KStandardDirs11systemPathsERK7QString@Base 4:4.3.4
 _ZN13KStandardDirs12realFilePathERK7QString@Base 4:4.3.4
 _ZN13KStandardDirs13addCustomizedEP7KConfig@Base 4:4.3.4
 _ZN13KStandardDirs14addKDEDefaultsEv@Base 4:4.3.4
 _ZN13KStandardDirs14addResourceDirEPKcRK7QStringb@Base 4:4.3.4
 _ZN13KStandardDirs15addResourceTypeEPKcRK7QStringb@Base 4:4.3.4
 _ZN13KStandardDirs15addResourceTypeEPKcS1_RK7QStringb@Base 4:4.3.4
 _ZN13KStandardDirs16addXdgDataPrefixERK7QString@Base 4:4.3.4
 _ZN13KStandardDirs16addXdgDataPrefixERK7QStringb@Base 4:4.3.4
 _ZN13KStandardDirs16kfsstnd_prefixesEv@Base 4:4.3.4
 _ZN13KStandardDirs16relativeLocationEPKcRK7QString@Base 4:4.3.4
 _ZN13KStandardDirs18addXdgConfigPrefixERK7QString@Base 4:4.3.4
 _ZN13KStandardDirs18addXdgConfigPrefixERK7QStringb@Base 4:4.3.4
 _ZN13KStandardDirs20KStandardDirsPrivate12resourceDirsEPKcRK7QString@Base 4:4.3.4
 _ZN13KStandardDirs20KStandardDirsPrivate21createSpecialResourceEPKc@Base 4:4.3.4
 _ZN13KStandardDirs24addResourcesFrom_krcdirsEv@Base 4:4.3.4
 _ZN13KStandardDirs25kfsstnd_xdg_conf_prefixesEv@Base 4:4.3.4
 _ZN13KStandardDirs25kfsstnd_xdg_data_prefixesEv@Base 4:4.3.4
 _ZN13KStandardDirs6existsERK7QString@Base 4:4.3.4
 _ZN13KStandardDirs6locateEPKcRK7QStringRK14KComponentData@Base 4:4.3.4
 _ZN13KStandardDirs7findExeERK7QStringS2_6QFlagsINS_12SearchOptionEE@Base 4:4.3.4
 _ZN13KStandardDirs7makeDirERK7QStringi@Base 4:4.3.4
 _ZN13KStandardDirs8realPathERK7QString@Base 4:4.3.4
 _ZN13KStandardDirs9addPrefixERK7QString@Base 4:4.3.4
 _ZN13KStandardDirs9addPrefixERK7QStringb@Base 4:4.3.4
 _ZN13KStandardDirsC1Ev@Base 4:4.3.4
 _ZN13KStandardDirsC2Ev@Base 4:4.3.4
 _ZN13KStandardDirsD0Ev@Base 4:4.3.4
 _ZN13KStandardDirsD1Ev@Base 4:4.3.4
 _ZN13KStandardDirsD2Ev@Base 4:4.3.4
 _ZN13KTimeZoneData14setTransitionsERK5QListIN9KTimeZone10TransitionEE@Base 4:4.3.4
 _ZN13KTimeZoneData20setLeapSecondChangesERK5QListIN9KTimeZone11LeapSecondsEE@Base 4:4.3.4
 _ZN13KTimeZoneData9setPhasesERK5QListIN9KTimeZone5PhaseEERKS2_@Base 4:4.8.3
 _ZN13KTimeZoneData9setPhasesERK5QListIN9KTimeZone5PhaseEEi@Base 4:4.3.4
 _ZN13KTimeZoneDataC1ERKS_@Base 4:4.3.4
 _ZN13KTimeZoneDataC1Ev@Base 4:4.3.4
 _ZN13KTimeZoneDataC2ERKS_@Base 4:4.3.4
 _ZN13KTimeZoneDataC2Ev@Base 4:4.3.4
 _ZN13KTimeZoneDataD0Ev@Base 4:4.3.4
 _ZN13KTimeZoneDataD1Ev@Base 4:4.3.4
 _ZN13KTimeZoneDataD2Ev@Base 4:4.3.4
 _ZN13KTimeZoneDataaSERKS_@Base 4:4.3.4
 _ZN13KZipFileEntry14setHeaderStartEx@Base 4:4.4.95
 _ZN13KZipFileEntry17setCompressedSizeEx@Base 4:4.4.95
 _ZN13KZipFileEntry8setCRC32Em@Base 4:4.4.95
 _ZN13KZipFileEntryC1EP4KZipRK7QStringiiS4_S4_S4_S4_xxix@Base 4:4.4.95
 _ZN13KZipFileEntryC2EP4KZipRK7QStringiiS4_S4_S4_S4_xxix@Base 4:4.4.95
 _ZN13KZipFileEntryD0Ev@Base 4:4.4.95
 _ZN13KZipFileEntryD1Ev@Base 4:4.4.95
 _ZN13KZipFileEntryD2Ev@Base 4:4.4.95
 _ZN14KCatalogLoaderC1ERK7QString@Base 4:4.6.2
 _ZN14KCatalogLoaderC2ERK7QString@Base 4:4.6.2
 _ZN14KComponentData12setAboutDataERK10KAboutData@Base 4:4.4.95
 _ZN14KComponentData12virtual_hookEiPv@Base 4:4.3.4
 _ZN14KComponentData13setConfigNameERK7QString@Base 4:4.3.4
 _ZN14KComponentDataC1EPK10KAboutDataNS_25MainComponentRegistrationE@Base 4:4.3.4
 _ZN14KComponentDataC1ERK10KAboutDataNS_25MainComponentRegistrationE@Base 4:4.3.4
 _ZN14KComponentDataC1ERK10QByteArrayS2_NS_25MainComponentRegistrationE@Base 4:4.3.4
 _ZN14KComponentDataC1ERKS_@Base 4:4.3.4
 _ZN14KComponentDataC1Ev@Base 4:4.3.4
 _ZN14KComponentDataC2EPK10KAboutDataNS_25MainComponentRegistrationE@Base 4:4.3.4
 _ZN14KComponentDataC2ERK10KAboutDataNS_25MainComponentRegistrationE@Base 4:4.3.4
 _ZN14KComponentDataC2ERK10QByteArrayS2_NS_25MainComponentRegistrationE@Base 4:4.3.4
 _ZN14KComponentDataC2ERKS_@Base 4:4.3.4
 _ZN14KComponentDataC2Ev@Base 4:4.3.4
 _ZN14KComponentDataD0Ev@Base 4:4.3.4
 _ZN14KComponentDataD1Ev@Base 4:4.3.4
 _ZN14KComponentDataD2Ev@Base 4:4.3.4
 _ZN14KComponentDataaSERKS_@Base 4:4.3.4
 _ZN14KConfigBackend11qt_metacallEN11QMetaObject4CallEiPPv@Base 4:4.3.4
 _ZN14KConfigBackend11qt_metacastEPKc@Base 4:4.3.4
 _ZN14KConfigBackend15setLastModifiedERK9QDateTime@Base 4:4.3.4
 _ZN14KConfigBackend16registerMappingsERK9KEntryMap@Base 4:4.3.4
 _ZN14KConfigBackend16setLocalFilePathERK7QString@Base 4:4.3.4
 _ZN14KConfigBackend16staticMetaObjectE@Base 4:4.3.4
 _ZN14KConfigBackend6createERK14KComponentDataRK7QStringS5_@Base 4:4.3.4
 _ZN14KConfigBackend7setSizeEx@Base 4:4.3.4
 _ZN14KConfigBackendC1Ev@Base 4:4.3.4
 _ZN14KConfigBackendC2Ev@Base 4:4.3.4
 _ZN14KConfigBackendD0Ev@Base 4:4.3.4
 _ZN14KConfigBackendD1Ev@Base 4:4.3.4
 _ZN14KConfigBackendD2Ev@Base 4:4.3.4
 _ZN14KJobUiDelegate10connectJobEP4KJob@Base 4:4.3.4
 _ZN14KJobUiDelegate11qt_metacallEN11QMetaObject4CallEiPPv@Base 4:4.3.4
 _ZN14KJobUiDelegate11qt_metacastEPKc@Base 4:4.3.4
 _ZN14KJobUiDelegate11slotWarningEP4KJobRK7QStringS4_@Base 4:4.3.4
 _ZN14KJobUiDelegate16showErrorMessageEv@Base 4:4.3.4
 _ZN14KJobUiDelegate16staticMetaObjectE@Base 4:4.3.4
 _ZN14KJobUiDelegate27setAutoErrorHandlingEnabledEb@Base 4:4.3.4
 _ZN14KJobUiDelegate29setAutoWarningHandlingEnabledEb@Base 4:4.3.4
 _ZN14KJobUiDelegate3jobEv@Base 4:4.3.4
 _ZN14KJobUiDelegate6setJobEP4KJob@Base 4:4.3.4
 _ZN14KJobUiDelegate7Private9_k_resultEP4KJob@Base 4:4.3.4
 _ZN14KJobUiDelegateC1Ev@Base 4:4.3.4
 _ZN14KJobUiDelegateC2Ev@Base 4:4.3.4
 _ZN14KJobUiDelegateD0Ev@Base 4:4.3.4
 _ZN14KJobUiDelegateD1Ev@Base 4:4.3.4
 _ZN14KJobUiDelegateD2Ev@Base 4:4.3.4
 _ZN14KLocalizedDate10addYearsToEi@Base 4:4.5.85
 _ZN14KLocalizedDate11addMonthsToEi@Base 4:4.5.85
 _ZN14KLocalizedDate11currentDateEv@Base 4:4.5.85
 _ZN14KLocalizedDate13fromJulianDayEi@Base 4:4.5.85
 _ZN14KLocalizedDate14calendarSystemEv@Base 4:4.5.85
 _ZN14KLocalizedDate14setCurrentDateEv@Base 4:4.5.85
 _ZN14KLocalizedDate17setCalendarSystemEN7KLocale14CalendarSystemE@Base 4:4.5.85
 _ZN14KLocalizedDate7setDateE7QStringiii@Base 4:4.5.85
 _ZN14KLocalizedDate7setDateEN7KLocale16WeekNumberSystemEiii@Base 4:4.5.85
 _ZN14KLocalizedDate7setDateERK5QDate@Base 4:4.5.85
 _ZN14KLocalizedDate7setDateEii@Base 4:4.5.85
 _ZN14KLocalizedDate7setDateEiii@Base 4:4.5.85
 _ZN14KLocalizedDate8fromDateERK5QDate@Base 4:4.5.85
 _ZN14KLocalizedDate8readDateERK7QStringN7KLocale13ReadDateFlagsENS3_17DateTimeParseModeEPK15KCalendarSystem@Base 4:4.5.85
 _ZN14KLocalizedDate8readDateERK7QStringN7KLocale17DateTimeParseModeEPK15KCalendarSystem@Base 4:4.5.85
 _ZN14KLocalizedDate8readDateERK7QStringS2_N7KLocale17DateTimeParseModeENS3_22DateTimeFormatStandardEPK15KCalendarSystem@Base 4:4.5.85
 _ZN14KLocalizedDate9addDaysToEi@Base 4:4.5.85
 _ZN14KLocalizedDateC1ERK5QDatePK15KCalendarSystem@Base 4:4.5.85
 _ZN14KLocalizedDateC1ERKS_@Base 4:4.5.85
 _ZN14KLocalizedDateC1EiiiPK15KCalendarSystem@Base 4:4.5.85
 _ZN14KLocalizedDateC2ERK5QDatePK15KCalendarSystem@Base 4:4.5.85
 _ZN14KLocalizedDateC2ERKS_@Base 4:4.5.85
 _ZN14KLocalizedDateC2EiiiPK15KCalendarSystem@Base 4:4.5.85
 _ZN14KLocalizedDateD1Ev@Base 4:4.5.85
 _ZN14KLocalizedDateD2Ev@Base 4:4.5.85
 _ZN14KLocalizedDateaSERK5QDate@Base 4:4.5.85
 _ZN14KLocalizedDateaSERKS_@Base 4:4.5.85
 _ZN14KMacroExpander12expandMacrosERK7QStringRK5QHashI5QChar11QStringListES4_@Base 4:4.3.4
 _ZN14KMacroExpander12expandMacrosERK7QStringRK5QHashI5QCharS0_ES4_@Base 4:4.3.4
 _ZN14KMacroExpander12expandMacrosERK7QStringRK5QHashIS0_11QStringListE5QChar@Base 4:4.3.4
 _ZN14KMacroExpander12expandMacrosERK7QStringRK5QHashIS0_S0_E5QChar@Base 4:4.3.4
 _ZN14KMacroExpander22expandMacrosShellQuoteERK7QStringRK5QHashI5QChar11QStringListES4_@Base 4:4.3.4
 _ZN14KMacroExpander22expandMacrosShellQuoteERK7QStringRK5QHashI5QCharS0_ES4_@Base 4:4.3.4
 _ZN14KMacroExpander22expandMacrosShellQuoteERK7QStringRK5QHashIS0_11QStringListE5QChar@Base 4:4.3.4
 _ZN14KMacroExpander22expandMacrosShellQuoteERK7QStringRK5QHashIS0_S0_E5QChar@Base 4:4.3.4
 _ZN14KPluginFactory11qt_metacallEN11QMetaObject4CallEiPPv@Base 4:4.3.4
 _ZN14KPluginFactory11qt_metacastEPKc@Base 4:4.3.4
 _ZN14KPluginFactory12createObjectEP7QObjectPKcRK11QStringList@Base 4:4.3.4
 _ZN14KPluginFactory13objectCreatedEP7QObject@Base 4:4.3.4
 _ZN14KPluginFactory14registerPluginERK7QStringPK11QMetaObjectPFP7QObjectP7QWidgetS7_RK5QListI8QVariantEE@Base 4:4.3.4
 _ZN14KPluginFactory16createPartObjectEP7QWidgetP7QObjectPKcRK11QStringList@Base 4:4.3.4
 _ZN14KPluginFactory16setComponentDataERK14KComponentData@Base 4:4.3.4
 _ZN14KPluginFactory16staticMetaObjectE@Base 4:4.3.4
 _ZN14KPluginFactory17setupTranslationsEv@Base 4:4.3.4
 _ZN14KPluginFactory23stringListToVariantListERK11QStringList@Base 4:4.3.4
 _ZN14KPluginFactory23variantListToStringListERK5QListI8QVariantE@Base 4:4.3.4
 _ZN14KPluginFactory6createEPKcP7QWidgetP7QObjectRK5QListI8QVariantERK7QString@Base 4:4.3.4
 _ZN14KPluginFactoryC1EP7QObject@Base 4:4.3.4
 _ZN14KPluginFactoryC1EPK10KAboutDataP7QObject@Base 4:4.3.4
 _ZN14KPluginFactoryC1EPKcS1_P7QObject@Base 4:4.3.4
 _ZN14KPluginFactoryC1ER21KPluginFactoryPrivateP7QObject@Base 4:4.3.4
 _ZN14KPluginFactoryC1ERK10KAboutDataP7QObject@Base 4:4.3.4
 _ZN14KPluginFactoryC2EP7QObject@Base 4:4.3.4
 _ZN14KPluginFactoryC2EPK10KAboutDataP7QObject@Base 4:4.3.4
 _ZN14KPluginFactoryC2EPKcS1_P7QObject@Base 4:4.3.4
 _ZN14KPluginFactoryC2ER21KPluginFactoryPrivateP7QObject@Base 4:4.3.4
 _ZN14KPluginFactoryC2ERK10KAboutDataP7QObject@Base 4:4.3.4
 _ZN14KPluginFactoryD0Ev@Base 4:4.3.4
 _ZN14KPluginFactoryD1Ev@Base 4:4.3.4
 _ZN14KPluginFactoryD2Ev@Base 4:4.3.4
 _ZN14KServiceAction7setDataERK8QVariant@Base 4:4.3.4
 _ZN14KServiceActionC1ERK7QStringS2_S2_S2_b@Base 4:4.3.4
 _ZN14KServiceActionC1ERKS_@Base 4:4.3.4
 _ZN14KServiceActionC1Ev@Base 4:4.3.4
 _ZN14KServiceActionC2ERK7QStringS2_S2_S2_b@Base 4:4.3.4
 _ZN14KServiceActionC2ERKS_@Base 4:4.3.4
 _ZN14KServiceActionC2Ev@Base 4:4.3.4
 _ZN14KServiceActionD1Ev@Base 4:4.3.4
 _ZN14KServiceActionD2Ev@Base 4:4.3.4
 _ZN14KServiceActionaSERKS_@Base 4:4.3.4
 _ZN14KSocketFactory13connectToHostEP10QTcpSocketRK4QUrl@Base 4:4.3.4
 _ZN14KSocketFactory13connectToHostEP10QTcpSocketRK7QStringS4_t@Base 4:4.3.4
 _ZN14KSocketFactory13connectToHostERK4QUrlP7QObject@Base 4:4.3.4
 _ZN14KSocketFactory13connectToHostERK7QStringS2_tP7QObject@Base 4:4.3.4
 _ZN14KSocketFactory14datagramSocketERK7QStringS2_P7QObject@Base 4:4.3.4
 _ZN14KSocketFactory16proxyForDatagramERK7QStringS2_@Base 4:4.3.4
 _ZN14KSocketFactory17proxyForListeningERK7QString@Base 4:4.3.4
 _ZN14KSocketFactory18proxyForConnectionERK7QStringS2_@Base 4:4.3.4
 _ZN14KSocketFactory24synchronousConnectToHostEP10QTcpSocketRK4QUrli@Base 4:4.3.4
 _ZN14KSocketFactory24synchronousConnectToHostEP10QTcpSocketRK7QStringS4_ti@Base 4:4.3.4
 _ZN14KSocketFactory24synchronousConnectToHostERK4QUrliP7QObject@Base 4:4.3.4
 _ZN14KSocketFactory24synchronousConnectToHostERK7QStringS2_tiP7QObject@Base 4:4.3.4
 _ZN14KSocketFactory6listenERK7QStringRK12QHostAddresstP7QObject@Base 4:4.3.4
 _ZN14KStringHandler14naturalCompareERK7QStringS2_N2Qt15CaseSensitivityE@Base 4:4.3.4
 _ZN14KStringHandler14preProcessWrapERK7QString@Base 4:4.4.0
 _ZN14KStringHandler6isUtf8EPKc@Base 4:4.3.4
 _ZN14KStringHandler7obscureERK7QString@Base 4:4.3.4
 _ZN14KStringHandler7tagUrlsERK7QString@Base 4:4.3.4
 _ZN14KStringHandler8capwordsERK11QStringList@Base 4:4.3.4
 _ZN14KStringHandler8capwordsERK7QString@Base 4:4.3.4
 _ZN14KStringHandler8csqueezeERK7QStringi@Base 4:4.3.4
 _ZN14KStringHandler8from8BitEPKc@Base 4:4.3.4
 _ZN14KStringHandler8lsqueezeERK7QStringi@Base 4:4.3.4
 _ZN14KStringHandler8rsqueezeERK7QStringi@Base 4:4.3.4
 _ZN14KStringHandler9perlSplitERK5QCharRK7QStringi@Base 4:4.3.4
 _ZN14KStringHandler9perlSplitERK7QRegExpRK7QStringi@Base 4:4.3.4
 _ZN14KStringHandler9perlSplitERK7QStringS2_i@Base 4:4.3.4
 _ZN14KSycocaFactory10saveHeaderER11QDataStream@Base 4:4.3.4
 _ZN14KSycocaFactory11removeEntryERK7QString@Base 4:4.3.4
 _ZN14KSycocaFactory12virtual_hookEiPv@Base 4:4.3.4
 _ZN14KSycocaFactory4saveER11QDataStream@Base 4:4.3.4
 _ZN14KSycocaFactory8addEntryERK10KSharedPtrI12KSycocaEntryE@Base 4:4.3.4
 _ZN14KSycocaFactoryC1E16KSycocaFactoryId@Base 4:4.3.4
 _ZN14KSycocaFactoryC2E16KSycocaFactoryId@Base 4:4.3.4
 _ZN14KSycocaFactoryD0Ev@Base 4:4.3.4
 _ZN14KSycocaFactoryD1Ev@Base 4:4.3.4
 _ZN14KSycocaFactoryD2Ev@Base 4:4.3.4
 _ZN14KTemporaryFile9setPrefixERK7QString@Base 4:4.3.4
 _ZN14KTemporaryFile9setSuffixERK7QString@Base 4:4.3.4
 _ZN14KTemporaryFileC1ERK14KComponentData@Base 4:4.3.4
 _ZN14KTemporaryFileC2ERK14KComponentData@Base 4:4.3.4
 _ZN14KTemporaryFileD0Ev@Base 4:4.3.4
 _ZN14KTemporaryFileD1Ev@Base 4:4.3.4
 _ZN14KTemporaryFileD2Ev@Base 4:4.3.4
 _ZN14KZoneAllocator10deallocateEPv@Base 4:4.3.4
 _ZN14KZoneAllocator10free_sinceEPv@Base 4:4.3.4
 _ZN14KZoneAllocator10insertHashEPNS_8MemBlockE@Base 4:4.3.4
 _ZN14KZoneAllocator8addBlockEPNS_8MemBlockE@Base 4:4.3.4
 _ZN14KZoneAllocator8allocateEj@Base 4:4.3.4
 _ZN14KZoneAllocator8delBlockEPNS_8MemBlockE@Base 4:4.3.4
 _ZN14KZoneAllocator8initHashEv@Base 4:4.3.4
 _ZN14KZoneAllocatorC1Em@Base 4:4.3.4
 _ZN14KZoneAllocatorC2Em@Base 4:4.3.4
 _ZN14KZoneAllocatorD1Ev@Base 4:4.3.4
 _ZN14KZoneAllocatorD2Ev@Base 4:4.3.4
 _ZN15KCalendarSystem11setHasYear0Eb@Base 4:4.4.0
 _ZN15KCalendarSystem12calendarTypeEN7KLocale14CalendarSystemE@Base 4:4.7.0
 _ZN15KCalendarSystem13calendarLabelEN7KLocale14CalendarSystemEPKS0_@Base 4:4.5.85
 _ZN15KCalendarSystem13calendarLabelERK7QString@Base 4:4.3.4
 _ZN15KCalendarSystem14calendarSystemERK7QString@Base 4:4.7.0
 _ZN15KCalendarSystem15calendarSystemsEv@Base 4:4.3.4
 _ZN15KCalendarSystem16setMaxDaysInWeekEi@Base 4:4.4.0
 _ZN15KCalendarSystem18setMaxMonthsInYearEi@Base 4:4.4.0
 _ZN15KCalendarSystem19calendarSystemsListEv@Base 4:4.5.85
 _ZN15KCalendarSystem29calendarSystemForCalendarTypeERK7QString@Base 4:4.5.85
 _ZN15KCalendarSystem6createEN7KLocale14CalendarSystemE10KSharedPtrI13KSharedConfigEPKS0_@Base 4:4.5.85
 _ZN15KCalendarSystem6createEN7KLocale14CalendarSystemEPKS0_@Base 4:4.5.85
 _ZN15KCalendarSystem6createERK7QString10KSharedPtrI13KSharedConfigEPK7KLocale@Base 4:4.4.95
 _ZN15KCalendarSystem6createERK7QStringPK7KLocale@Base 4:4.3.4
 _ZN15KCalendarSystemC1E10KSharedPtrI13KSharedConfigEPK7KLocale@Base 4:4.4.95
 _ZN15KCalendarSystemC1EPK7KLocale@Base 4:4.3.4
 _ZN15KCalendarSystemC1ER22KCalendarSystemPrivate10KSharedPtrI13KSharedConfigEPK7KLocale@Base 4:4.4.95
 _ZN15KCalendarSystemC2E10KSharedPtrI13KSharedConfigEPK7KLocale@Base 4:4.4.95
 _ZN15KCalendarSystemC2EPK7KLocale@Base 4:4.3.4
 _ZN15KCalendarSystemC2ER22KCalendarSystemPrivate10KSharedPtrI13KSharedConfigEPK7KLocale@Base 4:4.4.95
 _ZN15KCalendarSystemD0Ev@Base 4:4.3.4
 _ZN15KCalendarSystemD1Ev@Base 4:4.3.4
 _ZN15KCalendarSystemD2Ev@Base 4:4.3.4
 _ZN15KCmdLineOptions3addERK10QByteArrayRK16KLocalizedStringS2_@Base 4:4.3.4
 _ZN15KCmdLineOptions3addERKS_@Base 4:4.3.4
 _ZN15KCmdLineOptionsC1ERKS_@Base 4:4.3.4
 _ZN15KCmdLineOptionsC1Ev@Base 4:4.3.4
 _ZN15KCmdLineOptionsC2ERKS_@Base 4:4.3.4
 _ZN15KCmdLineOptionsC2Ev@Base 4:4.3.4
 _ZN15KCmdLineOptionsD1Ev@Base 4:4.3.4
 _ZN15KCmdLineOptionsD2Ev@Base 4:4.3.4
 _ZN15KCmdLineOptionsaSERKS_@Base 4:4.3.4
 _ZN15KEncodingProber13setProberTypeENS_10ProberTypeE@Base 4:4.3.4
 _ZN15KEncodingProber17nameForProberTypeENS_10ProberTypeE@Base 4:4.3.4
 _ZN15KEncodingProber17proberTypeForNameERK7QString@Base 4:4.3.4
 _ZN15KEncodingProber4feedEPKci@Base 4:4.3.4
 _ZN15KEncodingProber4feedERK10QByteArray@Base 4:4.3.4
 _ZN15KEncodingProber5resetEv@Base 4:4.3.4
 _ZN15KEncodingProberC1ENS_10ProberTypeE@Base 4:4.3.4
 _ZN15KEncodingProberC2ENS_10ProberTypeE@Base 4:4.3.4
 _ZN15KEncodingProberD1Ev@Base 4:4.3.4
 _ZN15KEncodingProberD2Ev@Base 4:4.3.4
 _ZN15KFileSystemType14fileSystemTypeERK7QString@Base 4:4.7.4
 _ZN15KFolderMimeTypeC1ER11QDataStreami@Base 4:4.3.4
 _ZN15KFolderMimeTypeC1ERK7QStringS2_S2_@Base 4:4.3.4
 _ZN15KFolderMimeTypeC2ER11QDataStreami@Base 4:4.3.4
 _ZN15KFolderMimeTypeC2ERK7QStringS2_S2_@Base 4:4.3.4
 _ZN15KFolderMimeTypeD0Ev@Base 4:4.3.4
 _ZN15KFolderMimeTypeD1Ev@Base 4:4.3.4
 _ZN15KFolderMimeTypeD2Ev@Base 4:4.3.4
 _ZN15KMimeTypeTrader16preferredServiceERK7QStringS2_@Base 4:4.3.4
 _ZN15KMimeTypeTrader4selfEv@Base 4:4.3.4
 _ZN15KMimeTypeTraderC1Ev@Base 4:4.3.4
 _ZN15KMimeTypeTraderC2Ev@Base 4:4.3.4
 _ZN15KMimeTypeTraderD1Ev@Base 4:4.3.4
 _ZN15KMimeTypeTraderD2Ev@Base 4:4.3.4
 _ZN15KRandomSequence7Private4drawEv@Base 4:4.3.4
 _ZN15KRandomSequence7getBoolEv@Base 4:4.3.4
 _ZN15KRandomSequence7getLongEm@Base 4:4.3.4
 _ZN15KRandomSequence7setSeedEl@Base 4:4.3.4
 _ZN15KRandomSequence8modulateEi@Base 4:4.3.4
 _ZN15KRandomSequence9getDoubleEv@Base 4:4.3.4
 _ZN15KRandomSequenceC1ERKS_@Base 4:4.3.4
 _ZN15KRandomSequenceC1El@Base 4:4.3.4
 _ZN15KRandomSequenceC2ERKS_@Base 4:4.3.4
 _ZN15KRandomSequenceC2El@Base 4:4.3.4
 _ZN15KRandomSequenceD0Ev@Base 4:4.3.4
 _ZN15KRandomSequenceD1Ev@Base 4:4.3.4
 _ZN15KRandomSequenceD2Ev@Base 4:4.3.4
 _ZN15KRandomSequenceaSERKS_@Base 4:4.3.4
 _ZN15KServiceFactory11allServicesEv@Base 4:4.3.4
 _ZN15KServiceFactory12virtual_hookEiPv@Base 4:4.3.4
 _ZN15KServiceFactory13serviceOffersEii@Base 4:4.3.4
 _ZN15KServiceFactory15serviceFromPathERK7QString@Base 4:4.3.4
 _ZN15KServiceFactory17findServiceByNameERK7QString@Base 4:4.3.4
 _ZN15KServiceFactory19findServiceByMenuIdERK7QString@Base 4:4.3.4
 _ZN15KServiceFactory24findServiceByDesktopNameERK7QString@Base 4:4.3.4
 _ZN15KServiceFactory24findServiceByDesktopPathERK7QString@Base 4:4.3.4
 _ZN15KServiceFactory4selfEv@Base 4:4.3.4
 _ZN15KServiceFactory6offersEii@Base 4:4.3.4
 _ZN15KServiceFactory8hasOfferEiii@Base 4:4.3.4
 _ZN15KServiceFactoryC1Ev@Base 4:4.3.4
 _ZN15KServiceFactoryC2Ev@Base 4:4.3.4
 _ZN15KServiceFactoryD0Ev@Base 4:4.3.4
 _ZN15KServiceFactoryD1Ev@Base 4:4.3.4
 _ZN15KServiceFactoryD2Ev@Base 4:4.3.4
 _ZN15KSslErrorUiDataC1EPK10KTcpSocket@Base 4:4.3.4
 _ZN15KSslErrorUiDataC1EPK10QSslSocket@Base 4:4.8.1
 _ZN15KSslErrorUiDataC1ERKS_@Base 4:4.3.4
 _ZN15KSslErrorUiDataC1Ev@Base 4:4.3.4
 _ZN15KSslErrorUiDataC2EPK10KTcpSocket@Base 4:4.3.4
 _ZN15KSslErrorUiDataC2EPK10QSslSocket@Base 4:4.8.1
 _ZN15KSslErrorUiDataC2ERKS_@Base 4:4.3.4
 _ZN15KSslErrorUiDataC2Ev@Base 4:4.3.4
 _ZN15KSslErrorUiDataD1Ev@Base 4:4.7.0
 _ZN15KSslErrorUiDataD2Ev@Base 4:4.7.0
 _ZN15KSslErrorUiDataaSERKS_@Base 4:4.3.4
 _ZN15KSystemTimeZoneC1EP21KSystemTimeZoneSourceRK7QStringS4_ffS4_@Base 4:4.3.4
 _ZN15KSystemTimeZoneC2EP21KSystemTimeZoneSourceRK7QStringS4_ffS4_@Base 4:4.3.4
 _ZN15KSystemTimeZoneD0Ev@Base 4:4.3.4
 _ZN15KSystemTimeZoneD1Ev@Base 4:4.3.4
 _ZN15KSystemTimeZoneD2Ev@Base 4:4.3.4
 _ZN15KTimeZoneSourceC1Eb@Base 4:4.3.4
 _ZN15KTimeZoneSourceC1Ev@Base 4:4.3.4
 _ZN15KTimeZoneSourceC2Eb@Base 4:4.3.4
 _ZN15KTimeZoneSourceC2Ev@Base 4:4.3.4
 _ZN15KTimeZoneSourceD0Ev@Base 4:4.3.4
 _ZN15KTimeZoneSourceD1Ev@Base 4:4.3.4
 _ZN15KTimeZoneSourceD2Ev@Base 4:4.3.4
 _ZN15KToolInvocation10invokeHelpERK7QStringS2_RK10QByteArray@Base 4:4.3.4
 _ZN15KToolInvocation11kdeinitExecERK7QStringRK11QStringListPS0_PiRK10QByteArray@Base 4:4.3.4
 _ZN15KToolInvocation11qt_metacallEN11QMetaObject4CallEiPPv@Base 4:4.3.4
 _ZN15KToolInvocation11qt_metacastEPKc@Base 4:4.3.4
 _ZN15KToolInvocation12invokeMailerERK4KUrlRK10QByteArrayb@Base 4:4.3.4
 _ZN15KToolInvocation12invokeMailerERK7QStringS2_RK10QByteArray@Base 4:4.3.4
 _ZN15KToolInvocation12invokeMailerERK7QStringS2_S2_S2_S2_S2_RK11QStringListRK10QByteArray@Base 4:4.3.4
 _ZN15KToolInvocation12startKdeinitEv@Base 4:4.3.4
 _ZN15KToolInvocation13invokeBrowserERK7QStringRK10QByteArray@Base 4:4.3.4
 _ZN15KToolInvocation14invokeTerminalERK7QStringS2_RK10QByteArray@Base 4:4.3.4
 _ZN15KToolInvocation15kdeinitExecWaitERK7QStringRK11QStringListPS0_PiRK10QByteArray@Base 4:4.3.4
 _ZN15KToolInvocation16staticMetaObjectE@Base 4:4.3.4
 _ZN15KToolInvocation17kapplication_hookER11QStringListR10QByteArray@Base 4:4.3.4
 _ZN15KToolInvocation18isMainThreadActiveEP7QString@Base 4:4.3.4
 _ZN15KToolInvocation18startServiceByNameERK7QStringRK11QStringListPS0_S6_PiRK10QByteArrayb@Base 4:4.3.4
 _ZN15KToolInvocation18startServiceByNameERK7QStringS2_PS0_S3_PiRK10QByteArrayb@Base 4:4.3.4
 _ZN15KToolInvocation20startServiceInternalEPKcRK7QStringRK11QStringListPS2_S8_PiRK10QByteArraybS4_@Base 4:4.3.4
 _ZN15KToolInvocation25startServiceByDesktopNameERK7QStringRK11QStringListPS0_S6_PiRK10QByteArrayb@Base 4:4.3.4
 _ZN15KToolInvocation25startServiceByDesktopNameERK7QStringS2_PS0_S3_PiRK10QByteArrayb@Base 4:4.3.4
 _ZN15KToolInvocation25startServiceByDesktopPathERK7QStringRK11QStringListPS0_S6_PiRK10QByteArrayb@Base 4:4.3.4
 _ZN15KToolInvocation25startServiceByDesktopPathERK7QStringS2_PS0_S3_PiRK10QByteArrayb@Base 4:4.3.4
 _ZN15KToolInvocation4selfEv@Base 4:4.3.4
 _ZN15KToolInvocation9klauncherEv@Base 4:4.3.4
 _ZN15KToolInvocationC1Ev@Base 4:4.3.4
 _ZN15KToolInvocationC2Ev@Base 4:4.3.4
 _ZN15KToolInvocationD0Ev@Base 4:4.3.4
 _ZN15KToolInvocationD1Ev@Base 4:4.3.4
 _ZN15KToolInvocationD2Ev@Base 4:4.3.4
 _ZN15KTzfileTimeZoneC1EP21KTzfileTimeZoneSourceRK7QStringS4_ffS4_@Base 4:4.3.4
 _ZN15KTzfileTimeZoneC2EP21KTzfileTimeZoneSourceRK7QStringS4_ffS4_@Base 4:4.3.4
 _ZN15KTzfileTimeZoneD0Ev@Base 4:4.3.4
 _ZN15KTzfileTimeZoneD1Ev@Base 4:4.3.4
 _ZN15KTzfileTimeZoneD2Ev@Base 4:4.3.4
 _ZN16KLocalizedString21notifyCatalogsUpdatedERK11QStringListRK5QListI12KCatalogNameE@Base 4:4.3.4
 _ZN16KLocalizedStringC1EPKcS1_S1_@Base 4:4.3.4
 _ZN16KLocalizedStringC1ERKS_@Base 4:4.3.4
 _ZN16KLocalizedStringC1Ev@Base 4:4.3.4
 _ZN16KLocalizedStringC2EPKcS1_S1_@Base 4:4.3.4
 _ZN16KLocalizedStringC2ERKS_@Base 4:4.3.4
 _ZN16KLocalizedStringC2Ev@Base 4:4.3.4
 _ZN16KLocalizedStringD1Ev@Base 4:4.3.4
 _ZN16KLocalizedStringD2Ev@Base 4:4.3.4
 _ZN16KLocalizedStringaSERKS_@Base 4:4.3.4
 _ZN16KMimeTypeFactory11entryOffsetERK7QString@Base 4:4.5.85
 _ZN16KMimeTypeFactory12allMimeTypesEv@Base 4:4.3.4
 _ZN16KMimeTypeFactory13MimeTypeEntry22setServiceOffersOffsetEi@Base 4:4.5.85
 _ZN16KMimeTypeFactory13MimeTypeEntryC1ER11QDataStreami@Base 4:4.5.85
 _ZN16KMimeTypeFactory13MimeTypeEntryC1ERK7QStringS3_@Base 4:4.5.85
 _ZN16KMimeTypeFactory13MimeTypeEntryC2ER11QDataStreami@Base 4:4.5.85
 _ZN16KMimeTypeFactory13MimeTypeEntryC2ERK7QStringS3_@Base 4:4.5.85
 _ZN16KMimeTypeFactory13MimeTypeEntryD0Ev@Base 4:4.7.4
 _ZN16KMimeTypeFactory13MimeTypeEntryD1Ev@Base 4:4.7.4
 _ZN16KMimeTypeFactory13MimeTypeEntryD2Ev@Base 4:4.7.4
 _ZN16KMimeTypeFactory19serviceOffersOffsetERK7QString@Base 4:4.5.85
 _ZN16KMimeTypeFactory20MimeTypeEntryPrivateD0Ev@Base 4:4.7.4
 _ZN16KMimeTypeFactory20MimeTypeEntryPrivateD1Ev@Base 4:4.7.4
 _ZN16KMimeTypeFactory20MimeTypeEntryPrivateD2Ev@Base 4:4.7.4
 _ZN16KMimeTypeFactory4selfEv@Base 4:4.3.4
 _ZN16KMimeTypeFactoryC1Ev@Base 4:4.3.4
 _ZN16KMimeTypeFactoryC2Ev@Base 4:4.3.4
 _ZN16KMimeTypeFactoryD0Ev@Base 4:4.3.4
 _ZN16KMimeTypeFactoryD1Ev@Base 4:4.3.4
 _ZN16KMimeTypeFactoryD2Ev@Base 4:4.3.4
 _ZN16KSharedDataCache11deleteCacheERK7QString@Base 4:4.4.95
 _ZN16KSharedDataCache12setTimestampEj@Base 4:4.5.85
 _ZN16KSharedDataCache17setEvictionPolicyENS_14EvictionPolicyE@Base 4:4.4.95
 _ZN16KSharedDataCache5clearEv@Base 4:4.4.95
 _ZN16KSharedDataCache6insertERK7QStringRK10QByteArray@Base 4:4.4.95
 _ZN16KSharedDataCacheC1ERK7QStringjj@Base 4:4.4.95
 _ZN16KSharedDataCacheC2ERK7QStringjj@Base 4:4.4.95
 _ZN16KSharedDataCacheD1Ev@Base 4:4.4.95
 _ZN16KSharedDataCacheD2Ev@Base 4:4.4.95
 _ZN16KSystemTimeZones11isSimulatedEv@Base 4:4.3.4
 _ZN16KSystemTimeZones11qt_metacallEN11QMetaObject4CallEiPPv@Base 4:4.3.4
 _ZN16KSystemTimeZones11qt_metacastEPKc@Base 4:4.3.4
 _ZN16KSystemTimeZones11zoneinfoDirEv@Base 4:4.3.4
 _ZN16KSystemTimeZones12setLocalZoneERK9KTimeZone@Base 4:4.3.4
 _ZN16KSystemTimeZones13configChangedEv@Base 4:4.3.4
 _ZN16KSystemTimeZones13realLocalZoneEv@Base 4:4.3.4
 _ZN16KSystemTimeZones14zonetabChangedERK7QString@Base 4:4.3.4
 _ZN16KSystemTimeZones16staticMetaObjectE@Base 4:4.3.4
 _ZN16KSystemTimeZones21zoneDefinitionChangedERK7QString@Base 4:4.3.4
 _ZN16KSystemTimeZones25isTimeZoneDaemonAvailableEv@Base 4:4.5.85
 _ZN16KSystemTimeZones4zoneERK7QString@Base 4:4.3.4
 _ZN16KSystemTimeZones5localEv@Base 4:4.3.4
 _ZN16KSystemTimeZones5zonesEv@Base 4:4.3.4
 _ZN16KSystemTimeZones8readZoneERK7QString@Base 4:4.3.4
 _ZN16KSystemTimeZones9timeZonesEv@Base 4:4.3.4
 _ZN16KSystemTimeZonesC1Ev@Base 4:4.3.4
 _ZN16KSystemTimeZonesC2Ev@Base 4:4.3.4
 _ZN16KSystemTimeZonesD0Ev@Base 4:4.3.4
 _ZN16KSystemTimeZonesD1Ev@Base 4:4.3.4
 _ZN16KSystemTimeZonesD2Ev@Base 4:4.3.4
 _ZN16KTimeZoneBackendC1EP15KTimeZoneSourceRK7QStringS4_ffS4_@Base 4:4.3.4
 _ZN16KTimeZoneBackendC1ERK7QString@Base 4:4.3.4
 _ZN16KTimeZoneBackendC1ERKS_@Base 4:4.3.4
 _ZN16KTimeZoneBackendC1Ev@Base 4:4.3.4
 _ZN16KTimeZoneBackendC2EP15KTimeZoneSourceRK7QStringS4_ffS4_@Base 4:4.3.4
 _ZN16KTimeZoneBackendC2ERK7QString@Base 4:4.3.4
 _ZN16KTimeZoneBackendC2ERKS_@Base 4:4.3.4
 _ZN16KTimeZoneBackendC2Ev@Base 4:4.3.4
 _ZN16KTimeZoneBackendD0Ev@Base 4:4.3.4
 _ZN16KTimeZoneBackendD1Ev@Base 4:4.3.4
 _ZN16KTimeZoneBackendD2Ev@Base 4:4.3.4
 _ZN16KTimeZoneBackendaSERKS_@Base 4:4.3.4
 _ZN17KArchiveDirectory12virtual_hookEiPv@Base 4:4.4.95
 _ZN17KArchiveDirectory8addEntryEP13KArchiveEntry@Base 4:4.4.95
 _ZN17KArchiveDirectoryC1EP8KArchiveRK7QStringiiS4_S4_S4_@Base 4:4.4.95
 _ZN17KArchiveDirectoryC2EP8KArchiveRK7QStringiiS4_S4_S4_@Base 4:4.4.95
 _ZN17KArchiveDirectoryD0Ev@Base 4:4.4.95
 _ZN17KArchiveDirectoryD1Ev@Base 4:4.4.95
 _ZN17KArchiveDirectoryD2Ev@Base 4:4.4.95
 _ZN17KEncodingDetector11processNullEPci@Base 4:4.3.4
 _ZN17KEncodingDetector11setEncodingEPKcNS_20EncodingChoiceSourceE@Base 4:4.3.4
 _ZN17KEncodingDetector12errorsIfUtf8EPKci@Base 4:4.3.4
 _ZN17KEncodingDetector12resetDecoderEv@Base 4:4.3.4
 _ZN17KEncodingDetector13nameForScriptENS_16AutoDetectScriptE@Base 4:4.3.4
 _ZN17KEncodingDetector13scriptForNameERK7QString@Base 4:4.3.4
 _ZN17KEncodingDetector19decodeWithBufferingEPKci@Base 4:4.3.4
 _ZN17KEncodingDetector21setAutoDetectLanguageENS_16AutoDetectScriptE@Base 4:4.3.4
 _ZN17KEncodingDetector25hasAutoDetectionForScriptENS_16AutoDetectScriptE@Base 4:4.3.4
 _ZN17KEncodingDetector5flushEv@Base 4:4.3.4
 _ZN17KEncodingDetector6decodeEPKci@Base 4:4.3.4
 _ZN17KEncodingDetector6decodeERK10QByteArray@Base 4:4.3.4
 _ZN17KEncodingDetector7analyzeEPKci@Base 4:4.3.4
 _ZN17KEncodingDetector7decoderEv@Base 4:4.3.4
 _ZN17KEncodingDetectorC1EP10QTextCodecNS_20EncodingChoiceSourceENS_16AutoDetectScriptE@Base 4:4.3.4
 _ZN17KEncodingDetectorC1Ev@Base 4:4.3.4
 _ZN17KEncodingDetectorC2EP10QTextCodecNS_20EncodingChoiceSourceENS_16AutoDetectScriptE@Base 4:4.3.4
 _ZN17KEncodingDetectorC2Ev@Base 4:4.3.4
 _ZN17KEncodingDetectorD1Ev@Base 4:4.3.4
 _ZN17KEncodingDetectorD2Ev@Base 4:4.3.4
 _ZN18KCharMacroExpander16expandPlainMacroERK7QStringiR11QStringList@Base 4:4.3.4
 _ZN18KCharMacroExpander18expandEscapedMacroERK7QStringiR11QStringList@Base 4:4.3.4
 _ZN18KCharMacroExpanderD0Ev@Base 4:4.7.4
 _ZN18KCharMacroExpanderD1Ev@Base 4:4.7.4
 _ZN18KCharMacroExpanderD2Ev@Base 4:4.7.4
 _ZN18KLocalSocketServer11qt_metacallEN11QMetaObject4CallEiPPv@Base 4:4.3.4
 _ZN18KLocalSocketServer11qt_metacastEPKc@Base 4:4.3.4
 _ZN18KLocalSocketServer13newConnectionEv@Base 4:4.3.4
 _ZN18KLocalSocketServer16staticMetaObjectE@Base 4:4.3.4
 _ZN18KLocalSocketServer18incomingConnectionEi@Base 4:4.3.4
 _ZN18KLocalSocketServer20waitForNewConnectionEiPb@Base 4:4.3.4
 _ZN18KLocalSocketServer21nextPendingConnectionEv@Base 4:4.3.4
 _ZN18KLocalSocketServer24setMaxPendingConnectionsEi@Base 4:4.3.4
 _ZN18KLocalSocketServer5closeEv@Base 4:4.3.4
 _ZN18KLocalSocketServer6listenERK7QStringN12KLocalSocket15LocalSocketTypeE@Base 4:4.3.4
 _ZN18KLocalSocketServerC1EP7QObject@Base 4:4.3.4
 _ZN18KLocalSocketServerC2EP7QObject@Base 4:4.3.4
 _ZN18KLocalSocketServerD0Ev@Base 4:4.3.4
 _ZN18KLocalSocketServerD1Ev@Base 4:4.3.4
 _ZN18KLocalSocketServerD2Ev@Base 4:4.3.4
 _ZN18KMacroExpanderBase12expandMacrosER7QString@Base 4:4.3.4
 _ZN18KMacroExpanderBase13setEscapeCharE5QChar@Base 4:4.3.4
 _ZN18KMacroExpanderBase16expandPlainMacroERK7QStringiR11QStringList@Base 4:4.3.4
 _ZN18KMacroExpanderBase18expandEscapedMacroERK7QStringiR11QStringList@Base 4:4.3.4
 _ZN18KMacroExpanderBase22expandMacrosShellQuoteER7QString@Base 4:4.3.4
 _ZN18KMacroExpanderBase22expandMacrosShellQuoteER7QStringRi@Base 4:4.3.4
 _ZN18KMacroExpanderBaseC1E5QChar@Base 4:4.3.4
 _ZN18KMacroExpanderBaseC2E5QChar@Base 4:4.3.4
 _ZN18KMacroExpanderBaseD0Ev@Base 4:4.3.4
 _ZN18KMacroExpanderBaseD1Ev@Base 4:4.3.4
 _ZN18KMacroExpanderBaseD2Ev@Base 4:4.3.4
 _ZN18KServiceTypeTrader16applyConstraintsER5QListI10KSharedPtrI8KServiceEERK7QString@Base 4:4.3.4
 _ZN18KServiceTypeTrader4selfEv@Base 4:4.3.4
 _ZN18KServiceTypeTraderC1Ev@Base 4:4.3.4
 _ZN18KServiceTypeTraderC2Ev@Base 4:4.3.4
 _ZN18KServiceTypeTraderD1Ev@Base 4:4.3.4
 _ZN18KServiceTypeTraderD2Ev@Base 4:4.3.4
 _ZN18KWordMacroExpander16expandPlainMacroERK7QStringiR11QStringList@Base 4:4.3.4
 _ZN18KWordMacroExpander18expandEscapedMacroERK7QStringiR11QStringList@Base 4:4.3.4
 _ZN18KWordMacroExpanderD0Ev@Base 4:4.7.4
 _ZN18KWordMacroExpanderD1Ev@Base 4:4.7.4
 _ZN18KWordMacroExpanderD2Ev@Base 4:4.7.4
 _ZN19KConfigSkeletonItem10setToolTipERK7QString@Base 4:4.3.4
 _ZN19KConfigSkeletonItem12setWhatsThisERK7QString@Base 4:4.3.4
 _ZN19KConfigSkeletonItem16readImmutabilityERK12KConfigGroup@Base 4:4.3.4
 _ZN19KConfigSkeletonItem6setKeyERK7QString@Base 4:4.3.4
 _ZN19KConfigSkeletonItem7setNameERK7QString@Base 4:4.3.4
 _ZN19KConfigSkeletonItem8setGroupERK7QString@Base 4:4.3.4
 _ZN19KConfigSkeletonItem8setLabelERK7QString@Base 4:4.3.4
 _ZN19KConfigSkeletonItemC1ERK7QStringS2_@Base 4:4.3.4
 _ZN19KConfigSkeletonItemC2ERK7QStringS2_@Base 4:4.3.4
 _ZN19KConfigSkeletonItemD0Ev@Base 4:4.3.4
 _ZN19KConfigSkeletonItemD1Ev@Base 4:4.3.4
 _ZN19KConfigSkeletonItemD2Ev@Base 4:4.3.4
 _ZN19KCoreConfigSkeleton10ItemDouble10readConfigEP7KConfig@Base 4:4.3.4
 _ZN19KCoreConfigSkeleton10ItemDouble11setMaxValueEd@Base 4:4.3.4
 _ZN19KCoreConfigSkeleton10ItemDouble11setMinValueEd@Base 4:4.3.4
 _ZN19KCoreConfigSkeleton10ItemDouble11setPropertyERK8QVariant@Base 4:4.3.4
 _ZN19KCoreConfigSkeleton10ItemDoubleC1ERK7QStringS3_Rdd@Base 4:4.3.4
 _ZN19KCoreConfigSkeleton10ItemDoubleC2ERK7QStringS3_Rdd@Base 4:4.3.4
 _ZN19KCoreConfigSkeleton10ItemDoubleD0Ev@Base 4:4.7.4
 _ZN19KCoreConfigSkeleton10ItemDoubleD1Ev@Base 4:4.7.4
 _ZN19KCoreConfigSkeleton10ItemDoubleD2Ev@Base 4:4.7.4
 _ZN19KCoreConfigSkeleton10ItemString10readConfigEP7KConfig@Base 4:4.3.4
 _ZN19KCoreConfigSkeleton10ItemString11setPropertyERK8QVariant@Base 4:4.3.4
 _ZN19KCoreConfigSkeleton10ItemString11writeConfigEP7KConfig@Base 4:4.3.4
 _ZN19KCoreConfigSkeleton10ItemStringC1ERK7QStringS3_RS1_S3_NS0_4TypeE@Base 4:4.3.4
 _ZN19KCoreConfigSkeleton10ItemStringC2ERK7QStringS3_RS1_S3_NS0_4TypeE@Base 4:4.3.4
 _ZN19KCoreConfigSkeleton10ItemStringD0Ev@Base 4:4.7.4
 _ZN19KCoreConfigSkeleton10ItemStringD1Ev@Base 4:4.7.4
 _ZN19KCoreConfigSkeleton10ItemStringD2Ev@Base 4:4.7.4
 _ZN19KCoreConfigSkeleton10addItemIntERK7QStringRiiS2_@Base 4:4.3.4
 _ZN19KCoreConfigSkeleton10readConfigEv@Base 4:4.3.4
 _ZN19KCoreConfigSkeleton11ItemIntList10readConfigEP7KConfig@Base 4:4.3.4
 _ZN19KCoreConfigSkeleton11ItemIntList11setPropertyERK8QVariant@Base 4:4.3.4
 _ZN19KCoreConfigSkeleton11ItemIntListC1ERK7QStringS3_R5QListIiERKS5_@Base 4:4.3.4
 _ZN19KCoreConfigSkeleton11ItemIntListC2ERK7QStringS3_R5QListIiERKS5_@Base 4:4.3.4
 _ZN19KCoreConfigSkeleton11ItemIntListD0Ev@Base 4:4.7.4
 _ZN19KCoreConfigSkeleton11ItemIntListD1Ev@Base 4:4.7.4
 _ZN19KCoreConfigSkeleton11ItemIntListD2Ev@Base 4:4.7.4
 _ZN19KCoreConfigSkeleton11ItemUrlList10readConfigEP7KConfig@Base 4:4.3.4
 _ZN19KCoreConfigSkeleton11ItemUrlList11setPropertyERK8QVariant@Base 4:4.3.4
 _ZN19KCoreConfigSkeleton11ItemUrlList11writeConfigEP7KConfig@Base 4:4.3.4
 _ZN19KCoreConfigSkeleton11ItemUrlListC1ERK7QStringS3_RN4KUrl4ListERKS5_@Base 4:4.3.4
 _ZN19KCoreConfigSkeleton11ItemUrlListC2ERK7QStringS3_RN4KUrl4ListERKS5_@Base 4:4.3.4
 _ZN19KCoreConfigSkeleton11ItemUrlListD0Ev@Base 4:4.7.4
 _ZN19KCoreConfigSkeleton11ItemUrlListD1Ev@Base 4:4.7.4
 _ZN19KCoreConfigSkeleton11ItemUrlListD2Ev@Base 4:4.7.4
 _ZN19KCoreConfigSkeleton11addItemBoolERK7QStringRbbS2_@Base 4:4.3.4
 _ZN19KCoreConfigSkeleton11addItemPathERK7QStringRS0_S2_S2_@Base 4:4.3.4
 _ZN19KCoreConfigSkeleton11addItemRectERK7QStringR5QRectRKS3_S2_@Base 4:4.3.4
 _ZN19KCoreConfigSkeleton11addItemSizeERK7QStringR5QSizeRKS3_S2_@Base 4:4.3.4
 _ZN19KCoreConfigSkeleton11addItemUIntERK7QStringRjjS2_@Base 4:4.3.4
 _ZN19KCoreConfigSkeleton11isImmutableERK7QString@Base 4:4.3.4
 _ZN19KCoreConfigSkeleton11qt_metacallEN11QMetaObject4CallEiPPv@Base 4:4.3.4
 _ZN19KCoreConfigSkeleton11qt_metacastEPKc@Base 4:4.3.4
 _ZN19KCoreConfigSkeleton11setDefaultsEv@Base 4:4.3.4
 _ZN19KCoreConfigSkeleton11useDefaultsEb@Base 4:4.3.4
 _ZN19KCoreConfigSkeleton11writeConfigEv@Base 4:4.3.4
 _ZN19KCoreConfigSkeleton12ItemDateTime10readConfigEP7KConfig@Base 4:4.3.4
 _ZN19KCoreConfigSkeleton12ItemDateTime11setPropertyERK8QVariant@Base 4:4.3.4
 _ZN19KCoreConfigSkeleton12ItemDateTimeC1ERK7QStringS3_R9QDateTimeRKS4_@Base 4:4.3.4
 _ZN19KCoreConfigSkeleton12ItemDateTimeC2ERK7QStringS3_R9QDateTimeRKS4_@Base 4:4.3.4
 _ZN19KCoreConfigSkeleton12ItemDateTimeD0Ev@Base 4:4.7.4
 _ZN19KCoreConfigSkeleton12ItemDateTimeD1Ev@Base 4:4.7.4
 _ZN19KCoreConfigSkeleton12ItemDateTimeD2Ev@Base 4:4.7.4
 _ZN19KCoreConfigSkeleton12ItemLongLong10readConfigEP7KConfig@Base 4:4.3.4
 _ZN19KCoreConfigSkeleton12ItemLongLong11setMaxValueEx@Base 4:4.3.4
 _ZN19KCoreConfigSkeleton12ItemLongLong11setMinValueEx@Base 4:4.3.4
 _ZN19KCoreConfigSkeleton12ItemLongLong11setPropertyERK8QVariant@Base 4:4.3.4
 _ZN19KCoreConfigSkeleton12ItemLongLongC1ERK7QStringS3_Rxx@Base 4:4.3.4
 _ZN19KCoreConfigSkeleton12ItemLongLongC2ERK7QStringS3_Rxx@Base 4:4.3.4
 _ZN19KCoreConfigSkeleton12ItemLongLongD0Ev@Base 4:4.7.4
 _ZN19KCoreConfigSkeleton12ItemLongLongD1Ev@Base 4:4.7.4
 _ZN19KCoreConfigSkeleton12ItemLongLongD2Ev@Base 4:4.7.4
 _ZN19KCoreConfigSkeleton12ItemPasswordC1ERK7QStringS3_RS1_S3_@Base 4:4.3.4
 _ZN19KCoreConfigSkeleton12ItemPasswordC2ERK7QStringS3_RS1_S3_@Base 4:4.3.4
 _ZN19KCoreConfigSkeleton12ItemPasswordD0Ev@Base 4:4.7.4
 _ZN19KCoreConfigSkeleton12ItemPasswordD1Ev@Base 4:4.7.4
 _ZN19KCoreConfigSkeleton12ItemPasswordD2Ev@Base 4:4.7.4
 _ZN19KCoreConfigSkeleton12ItemPathList10readConfigEP7KConfig@Base 4:4.3.4
 _ZN19KCoreConfigSkeleton12ItemPathList11writeConfigEP7KConfig@Base 4:4.3.4
 _ZN19KCoreConfigSkeleton12ItemPathListC1ERK7QStringS3_R11QStringListRKS4_@Base 4:4.3.4
 _ZN19KCoreConfigSkeleton12ItemPathListC2ERK7QStringS3_R11QStringListRKS4_@Base 4:4.3.4
 _ZN19KCoreConfigSkeleton12ItemPathListD0Ev@Base 4:4.7.4
 _ZN19KCoreConfigSkeleton12ItemPathListD1Ev@Base 4:4.7.4
 _ZN19KCoreConfigSkeleton12ItemPathListD2Ev@Base 4:4.7.4
 _ZN19KCoreConfigSkeleton12ItemProperty10readConfigEP7KConfig@Base 4:4.3.4
 _ZN19KCoreConfigSkeleton12ItemProperty11setPropertyERK8QVariant@Base 4:4.3.4
 _ZN19KCoreConfigSkeleton12ItemPropertyC1ERK7QStringS3_R8QVariantRKS4_@Base 4:4.3.4
 _ZN19KCoreConfigSkeleton12ItemPropertyC2ERK7QStringS3_R8QVariantRKS4_@Base 4:4.3.4
 _ZN19KCoreConfigSkeleton12ItemPropertyD0Ev@Base 4:4.7.4
 _ZN19KCoreConfigSkeleton12ItemPropertyD1Ev@Base 4:4.7.4
 _ZN19KCoreConfigSkeleton12ItemPropertyD2Ev@Base 4:4.7.4
 _ZN19KCoreConfigSkeleton12addItemInt64ERK7QStringRxxS2_@Base 4:4.3.4
 _ZN19KCoreConfigSkeleton12addItemPointERK7QStringR6QPointRKS3_S2_@Base 4:4.3.4
 _ZN19KCoreConfigSkeleton13ItemULongLong10readConfigEP7KConfig@Base 4:4.3.4
 _ZN19KCoreConfigSkeleton13ItemULongLong11setMaxValueEy@Base 4:4.3.4
 _ZN19KCoreConfigSkeleton13ItemULongLong11setMinValueEy@Base 4:4.3.4
 _ZN19KCoreConfigSkeleton13ItemULongLong11setPropertyERK8QVariant@Base 4:4.3.4
 _ZN19KCoreConfigSkeleton13ItemULongLongC1ERK7QStringS3_Ryy@Base 4:4.3.4
 _ZN19KCoreConfigSkeleton13ItemULongLongC2ERK7QStringS3_Ryy@Base 4:4.3.4
 _ZN19KCoreConfigSkeleton13ItemULongLongD0Ev@Base 4:4.7.4
 _ZN19KCoreConfigSkeleton13ItemULongLongD1Ev@Base 4:4.7.4
 _ZN19KCoreConfigSkeleton13ItemULongLongD2Ev@Base 4:4.7.4
 _ZN19KCoreConfigSkeleton13addItemDoubleERK7QStringRddS2_@Base 4:4.3.4
 _ZN19KCoreConfigSkeleton13addItemStringERK7QStringRS0_S2_S2_@Base 4:4.3.4
 _ZN19KCoreConfigSkeleton13addItemUInt64ERK7QStringRyyS2_@Base 4:4.3.4
 _ZN19KCoreConfigSkeleton13configChangedEv@Base 4:4.3.4
 _ZN19KCoreConfigSkeleton13usrReadConfigEv@Base 4:4.3.4
 _ZN19KCoreConfigSkeleton14ItemStringList10readConfigEP7KConfig@Base 4:4.3.4
 _ZN19KCoreConfigSkeleton14ItemStringList11setPropertyERK8QVariant@Base 4:4.3.4
 _ZN19KCoreConfigSkeleton14ItemStringListC1ERK7QStringS3_R11QStringListRKS4_@Base 4:4.3.4
 _ZN19KCoreConfigSkeleton14ItemStringListC2ERK7QStringS3_R11QStringListRKS4_@Base 4:4.3.4
 _ZN19KCoreConfigSkeleton14ItemStringListD0Ev@Base 4:4.7.4
 _ZN19KCoreConfigSkeleton14ItemStringListD1Ev@Base 4:4.7.4
 _ZN19KCoreConfigSkeleton14ItemStringListD2Ev@Base 4:4.7.4
 _ZN19KCoreConfigSkeleton14addItemIntListERK7QStringR5QListIiERKS4_S2_@Base 4:4.3.4
 _ZN19KCoreConfigSkeleton14usrSetDefaultsEv@Base 4:4.3.4
 _ZN19KCoreConfigSkeleton14usrUseDefaultsEb@Base 4:4.3.4
 _ZN19KCoreConfigSkeleton14usrWriteConfigEv@Base 4:4.3.4
 _ZN19KCoreConfigSkeleton15addItemDateTimeERK7QStringR9QDateTimeRKS3_S2_@Base 4:4.3.4
 _ZN19KCoreConfigSkeleton15addItemLongLongERK7QStringRxxS2_@Base 4:4.3.4
 _ZN19KCoreConfigSkeleton15addItemPasswordERK7QStringRS0_S2_S2_@Base 4:4.3.4
 _ZN19KCoreConfigSkeleton15addItemPropertyERK7QStringR8QVariantRKS3_S2_@Base 4:4.3.4
 _ZN19KCoreConfigSkeleton15setCurrentGroupERK7QString@Base 4:4.3.4
 _ZN19KCoreConfigSkeleton15setSharedConfigE10KSharedPtrI13KSharedConfigE@Base 4:4.3.4
 _ZN19KCoreConfigSkeleton16addItemULongLongERK7QStringRyyS2_@Base 4:4.3.4
 _ZN19KCoreConfigSkeleton16staticMetaObjectE@Base 4:4.3.4
 _ZN19KCoreConfigSkeleton17addItemStringListERK7QStringR11QStringListRKS3_S2_@Base 4:4.3.4
 _ZN19KCoreConfigSkeleton6configEv@Base 4:4.3.4
 _ZN19KCoreConfigSkeleton7ItemInt10readConfigEP7KConfig@Base 4:4.3.4
 _ZN19KCoreConfigSkeleton7ItemInt11setMaxValueEi@Base 4:4.3.4
 _ZN19KCoreConfigSkeleton7ItemInt11setMinValueEi@Base 4:4.3.4
 _ZN19KCoreConfigSkeleton7ItemInt11setPropertyERK8QVariant@Base 4:4.3.4
 _ZN19KCoreConfigSkeleton7ItemIntC1ERK7QStringS3_Rii@Base 4:4.3.4
 _ZN19KCoreConfigSkeleton7ItemIntC2ERK7QStringS3_Rii@Base 4:4.3.4
 _ZN19KCoreConfigSkeleton7ItemIntD0Ev@Base 4:4.7.4
 _ZN19KCoreConfigSkeleton7ItemIntD1Ev@Base 4:4.7.4
 _ZN19KCoreConfigSkeleton7ItemIntD2Ev@Base 4:4.7.4
 _ZN19KCoreConfigSkeleton7ItemUrl10readConfigEP7KConfig@Base 4:4.3.4
 _ZN19KCoreConfigSkeleton7ItemUrl11setPropertyERK8QVariant@Base 4:4.3.4
 _ZN19KCoreConfigSkeleton7ItemUrl11writeConfigEP7KConfig@Base 4:4.3.4
 _ZN19KCoreConfigSkeleton7ItemUrlC1ERK7QStringS3_R4KUrlRKS4_@Base 4:4.3.4
 _ZN19KCoreConfigSkeleton7ItemUrlC2ERK7QStringS3_R4KUrlRKS4_@Base 4:4.3.4
 _ZN19KCoreConfigSkeleton7ItemUrlD0Ev@Base 4:4.7.4
 _ZN19KCoreConfigSkeleton7ItemUrlD1Ev@Base 4:4.7.4
 _ZN19KCoreConfigSkeleton7ItemUrlD2Ev@Base 4:4.7.4
 _ZN19KCoreConfigSkeleton7addItemEP19KConfigSkeletonItemRK7QString@Base 4:4.3.4
 _ZN19KCoreConfigSkeleton8ItemBool10readConfigEP7KConfig@Base 4:4.3.4
 _ZN19KCoreConfigSkeleton8ItemBool11setPropertyERK8QVariant@Base 4:4.3.4
 _ZN19KCoreConfigSkeleton8ItemBoolC1ERK7QStringS3_Rbb@Base 4:4.3.4
 _ZN19KCoreConfigSkeleton8ItemBoolC2ERK7QStringS3_Rbb@Base 4:4.3.4
 _ZN19KCoreConfigSkeleton8ItemBoolD0Ev@Base 4:4.7.4
 _ZN19KCoreConfigSkeleton8ItemBoolD1Ev@Base 4:4.7.4
 _ZN19KCoreConfigSkeleton8ItemBoolD2Ev@Base 4:4.7.4
 _ZN19KCoreConfigSkeleton8ItemEnum10readConfigEP7KConfig@Base 4:4.3.4
 _ZN19KCoreConfigSkeleton8ItemEnum11writeConfigEP7KConfig@Base 4:4.3.4
 _ZN19KCoreConfigSkeleton8ItemEnumC1ERK7QStringS3_RiRK5QListINS0_6ChoiceEEi@Base 4:4.3.4
 _ZN19KCoreConfigSkeleton8ItemEnumC1ERK7QStringS3_RiRK5QListINS0_7Choice2EEi@Base 4:4.3.4
 _ZN19KCoreConfigSkeleton8ItemEnumC2ERK7QStringS3_RiRK5QListINS0_6ChoiceEEi@Base 4:4.3.4
 _ZN19KCoreConfigSkeleton8ItemEnumC2ERK7QStringS3_RiRK5QListINS0_7Choice2EEi@Base 4:4.3.4
 _ZN19KCoreConfigSkeleton8ItemEnumD0Ev@Base 4:4.7.4
 _ZN19KCoreConfigSkeleton8ItemEnumD1Ev@Base 4:4.7.4
 _ZN19KCoreConfigSkeleton8ItemEnumD2Ev@Base 4:4.7.4
 _ZN19KCoreConfigSkeleton8ItemPathC1ERK7QStringS3_RS1_S3_@Base 4:4.3.4
 _ZN19KCoreConfigSkeleton8ItemPathC2ERK7QStringS3_RS1_S3_@Base 4:4.3.4
 _ZN19KCoreConfigSkeleton8ItemPathD0Ev@Base 4:4.7.4
 _ZN19KCoreConfigSkeleton8ItemPathD1Ev@Base 4:4.7.4
 _ZN19KCoreConfigSkeleton8ItemPathD2Ev@Base 4:4.7.4
 _ZN19KCoreConfigSkeleton8ItemRect10readConfigEP7KConfig@Base 4:4.3.4
 _ZN19KCoreConfigSkeleton8ItemRect11setPropertyERK8QVariant@Base 4:4.3.4
 _ZN19KCoreConfigSkeleton8ItemRectC1ERK7QStringS3_R5QRectRKS4_@Base 4:4.3.4
 _ZN19KCoreConfigSkeleton8ItemRectC2ERK7QStringS3_R5QRectRKS4_@Base 4:4.3.4
 _ZN19KCoreConfigSkeleton8ItemRectD0Ev@Base 4:4.7.4
 _ZN19KCoreConfigSkeleton8ItemRectD1Ev@Base 4:4.7.4
 _ZN19KCoreConfigSkeleton8ItemRectD2Ev@Base 4:4.7.4
 _ZN19KCoreConfigSkeleton8ItemSize10readConfigEP7KConfig@Base 4:4.3.4
 _ZN19KCoreConfigSkeleton8ItemSize11setPropertyERK8QVariant@Base 4:4.3.4
 _ZN19KCoreConfigSkeleton8ItemSizeC1ERK7QStringS3_R5QSizeRKS4_@Base 4:4.3.4
 _ZN19KCoreConfigSkeleton8ItemSizeC2ERK7QStringS3_R5QSizeRKS4_@Base 4:4.3.4
 _ZN19KCoreConfigSkeleton8ItemSizeD0Ev@Base 4:4.7.4
 _ZN19KCoreConfigSkeleton8ItemSizeD1Ev@Base 4:4.7.4
 _ZN19KCoreConfigSkeleton8ItemSizeD2Ev@Base 4:4.7.4
 _ZN19KCoreConfigSkeleton8ItemUInt10readConfigEP7KConfig@Base 4:4.3.4
 _ZN19KCoreConfigSkeleton8ItemUInt11setMaxValueEj@Base 4:4.3.4
 _ZN19KCoreConfigSkeleton8ItemUInt11setMinValueEj@Base 4:4.3.4
 _ZN19KCoreConfigSkeleton8ItemUInt11setPropertyERK8QVariant@Base 4:4.3.4
 _ZN19KCoreConfigSkeleton8ItemUIntC1ERK7QStringS3_Rjj@Base 4:4.3.4
 _ZN19KCoreConfigSkeleton8ItemUIntC2ERK7QStringS3_Rjj@Base 4:4.3.4
 _ZN19KCoreConfigSkeleton8ItemUIntD0Ev@Base 4:4.7.4
 _ZN19KCoreConfigSkeleton8ItemUIntD1Ev@Base 4:4.7.4
 _ZN19KCoreConfigSkeleton8ItemUIntD2Ev@Base 4:4.7.4
 _ZN19KCoreConfigSkeleton8findItemERK7QString@Base 4:4.3.4
 _ZN19KCoreConfigSkeleton9ItemPoint10readConfigEP7KConfig@Base 4:4.3.4
 _ZN19KCoreConfigSkeleton9ItemPoint11setPropertyERK8QVariant@Base 4:4.3.4
 _ZN19KCoreConfigSkeleton9ItemPointC1ERK7QStringS3_R6QPointRKS4_@Base 4:4.3.4
 _ZN19KCoreConfigSkeleton9ItemPointC2ERK7QStringS3_R6QPointRKS4_@Base 4:4.3.4
 _ZN19KCoreConfigSkeleton9ItemPointD0Ev@Base 4:4.7.4
 _ZN19KCoreConfigSkeleton9ItemPointD1Ev@Base 4:4.7.4
 _ZN19KCoreConfigSkeleton9ItemPointD2Ev@Base 4:4.7.4
 _ZN19KCoreConfigSkeletonC1E10KSharedPtrI13KSharedConfigEP7QObject@Base 4:4.3.4
 _ZN19KCoreConfigSkeletonC1ERK7QStringP7QObject@Base 4:4.3.4
 _ZN19KCoreConfigSkeletonC2E10KSharedPtrI13KSharedConfigEP7QObject@Base 4:4.3.4
 _ZN19KCoreConfigSkeletonC2ERK7QStringP7QObject@Base 4:4.3.4
 _ZN19KCoreConfigSkeletonD0Ev@Base 4:4.3.4
 _ZN19KCoreConfigSkeletonD1Ev@Base 4:4.3.4
 _ZN19KCoreConfigSkeletonD2Ev@Base 4:4.3.4
 _ZN19KMimeTypeRepository10parseGlobsEv@Base 4:4.5.85
 _ZN19KMimeTypeRepository10parseMagicEv@Base 4:4.5.85
 _ZN19KMimeTypeRepository11useFavIconsEv@Base 4:4.5.85
 _ZN19KMimeTypeRepository12resolveAliasERK7QString@Base 4:4.5.85
 _ZN19KMimeTypeRepository13canonicalNameERK7QString@Base 4:4.5.85
 _ZN19KMimeTypeRepository13matchFileNameERK7QStringS2_@Base 4:4.5.85
 _ZN19KMimeTypeRepository14checkMimeTypesEv@Base 4:4.5.85
 _ZN19KMimeTypeRepository15findFromContentEP9QIODevicePiR10QByteArray@Base 4:4.5.85
 _ZN19KMimeTypeRepository16findFromFileNameERK7QStringPS0_@Base 4:4.5.85
 _ZN19KMimeTypeRepository18defaultMimeTypePtrEv@Base 4:4.5.85
 _ZN19KMimeTypeRepository18findMimeTypeByNameERK7QStringN9KMimeType16FindByNameOptionE@Base 4:4.5.85
 _ZN19KMimeTypeRepository19patternsForMimetypeERK7QString@Base 4:4.5.85
 _ZN19KMimeTypeRepository21sharedMimeInfoVersionEv@Base 4:4.5.85
 _ZN19KMimeTypeRepository23checkEssentialMimeTypesEv@Base 4:4.5.85
 _ZN19KMimeTypeRepository24findFromOtherPatternListER11QStringListRK7QStringRS2_b@Base 4:4.5.85
 _ZN19KMimeTypeRepository4selfEv@Base 4:4.5.85
 _ZN19KMimeTypeRepository7aliasesEv@Base 4:4.5.85
 _ZN19KMimeTypeRepository7parentsERK7QString@Base 4:4.5.85
 _ZN19KMimeTypeRepositoryC1Ev@Base 4:4.5.85
 _ZN19KMimeTypeRepositoryC2Ev@Base 4:4.5.85
 _ZN19KMimeTypeRepositoryD1Ev@Base 4:4.5.85
 _ZN19KMimeTypeRepositoryD2Ev@Base 4:4.5.85
 _ZN19KServiceTypeFactory12virtual_hookEiPv@Base 4:4.3.4
 _ZN19KServiceTypeFactory15allServiceTypesEv@Base 4:4.3.4
 _ZN19KServiceTypeFactory21findServiceTypeByNameERK7QString@Base 4:4.3.4
 _ZN19KServiceTypeFactory22findPropertyTypeByNameERK7QString@Base 4:4.3.4
 _ZN19KServiceTypeFactory4selfEv@Base 4:4.3.4
 _ZN19KServiceTypeFactoryC1Ev@Base 4:4.3.4
 _ZN19KServiceTypeFactoryC2Ev@Base 4:4.3.4
 _ZN19KServiceTypeFactoryD0Ev@Base 4:4.3.4
 _ZN19KServiceTypeFactoryD1Ev@Base 4:4.3.4
 _ZN19KServiceTypeFactoryD2Ev@Base 4:4.3.4
 _ZN19KServiceTypeProfile10hasProfileERK7QString@Base 4:4.3.4
 _ZN19KServiceTypeProfile17configurationModeEv@Base 4:4.3.4
 _ZN19KServiceTypeProfile20setConfigurationModeEv@Base 4:4.3.4
 _ZN19KServiceTypeProfile23writeServiceTypeProfileERK7QStringRK5QListI10KSharedPtrI8KServiceEES9_@Base 4:4.3.4
 _ZN19KServiceTypeProfile24deleteServiceTypeProfileERK7QString@Base 4:4.3.4
 _ZN19KSslCertificateRule11setRejectedEb@Base 4:4.3.4
 _ZN19KSslCertificateRule16setIgnoredErrorsERK5QListI9KSslErrorE@Base 4:4.3.4
 _ZN19KSslCertificateRule16setIgnoredErrorsERK5QListIN9KSslError5ErrorEE@Base 4:4.3.4
 _ZN19KSslCertificateRule17setExpiryDateTimeERK9QDateTime@Base 4:4.3.4
 _ZN19KSslCertificateRuleC1ERK15QSslCertificateRK7QString@Base 4:4.3.4
 _ZN19KSslCertificateRuleC1ERKS_@Base 4:4.3.4
 _ZN19KSslCertificateRuleC2ERK15QSslCertificateRK7QString@Base 4:4.3.4
 _ZN19KSslCertificateRuleC2ERKS_@Base 4:4.3.4
 _ZN19KSslCertificateRuleD1Ev@Base 4:4.3.4
 _ZN19KSslCertificateRuleD2Ev@Base 4:4.3.4
 _ZN19KSslCertificateRuleaSERKS_@Base 4:4.3.4
 _ZN20KCompositeJobPrivateC1Ev@Base 4:4.3.4
 _ZN20KCompositeJobPrivateC2Ev@Base 4:4.3.4
 _ZN20KCompositeJobPrivateD0Ev@Base 4:4.3.4
 _ZN20KCompositeJobPrivateD1Ev@Base 4:4.3.4
 _ZN20KCompositeJobPrivateD2Ev@Base 4:4.3.4
 _ZN20KJobTrackerInterface11descriptionEP4KJobRK7QStringRK5QPairIS2_S2_ES8_@Base 4:4.3.4
 _ZN20KJobTrackerInterface11infoMessageEP4KJobRK7QStringS4_@Base 4:4.3.4
 _ZN20KJobTrackerInterface11qt_metacallEN11QMetaObject4CallEiPPv@Base 4:4.3.4
 _ZN20KJobTrackerInterface11qt_metacastEPKc@Base 4:4.3.4
 _ZN20KJobTrackerInterface11registerJobEP4KJob@Base 4:4.3.4
 _ZN20KJobTrackerInterface11totalAmountEP4KJobNS0_4UnitEy@Base 4:4.3.4
 _ZN20KJobTrackerInterface13unregisterJobEP4KJob@Base 4:4.3.4
 _ZN20KJobTrackerInterface15processedAmountEP4KJobNS0_4UnitEy@Base 4:4.3.4
 _ZN20KJobTrackerInterface16staticMetaObjectE@Base 4:4.3.4
 _ZN20KJobTrackerInterface5speedEP4KJobm@Base 4:4.3.4
 _ZN20KJobTrackerInterface7percentEP4KJobm@Base 4:4.3.4
 _ZN20KJobTrackerInterface7resumedEP4KJob@Base 4:4.3.4
 _ZN20KJobTrackerInterface7warningEP4KJobRK7QStringS4_@Base 4:4.3.4
 _ZN20KJobTrackerInterface8finishedEP4KJob@Base 4:4.3.4
 _ZN20KJobTrackerInterface9suspendedEP4KJob@Base 4:4.3.4
 _ZN20KJobTrackerInterfaceC1EP7QObject@Base 4:4.3.4
 _ZN20KJobTrackerInterfaceC2EP7QObject@Base 4:4.3.4
 _ZN20KJobTrackerInterfaceD0Ev@Base 4:4.3.4
 _ZN20KJobTrackerInterfaceD1Ev@Base 4:4.3.4
 _ZN20KJobTrackerInterfaceD2Ev@Base 4:4.3.4
 _ZN20KProtocolInfoFactory12findProtocolERK7QString@Base 4:4.3.4
 _ZN20KProtocolInfoFactory12virtual_hookEiPv@Base 4:4.3.4
 _ZN20KProtocolInfoFactory4selfEv@Base 4:4.3.4
 _ZN20KProtocolInfoFactoryC1Ev@Base 4:4.3.4
 _ZN20KProtocolInfoFactoryC2Ev@Base 4:4.3.4
 _ZN20KProtocolInfoFactoryD0Ev@Base 4:4.3.4
 _ZN20KProtocolInfoFactoryD1Ev@Base 4:4.3.4
 _ZN20KProtocolInfoFactoryD2Ev@Base 4:4.3.4
 _ZN20KServiceGroupFactory12virtual_hookEiPv@Base 4:4.3.4
 _ZN20KServiceGroupFactory13findBaseGroupERK7QStringb@Base 4:4.3.4
 _ZN20KServiceGroupFactory22findGroupByDesktopPathERK7QStringb@Base 4:4.3.4
 _ZN20KServiceGroupFactory4selfEv@Base 4:4.3.4
 _ZN20KServiceGroupFactoryC1Ev@Base 4:4.3.4
 _ZN20KServiceGroupFactoryC2Ev@Base 4:4.3.4
 _ZN20KServiceGroupFactoryD0Ev@Base 4:4.3.4
 _ZN20KServiceGroupFactoryD1Ev@Base 4:4.3.4
 _ZN20KServiceGroupFactoryD2Ev@Base 4:4.3.4
 _ZN21KSystemTimeZoneSource13endParseBlockEv@Base 4:4.3.4
 _ZN21KSystemTimeZoneSource15startParseBlockEv@Base 4:4.3.4
 _ZN21KSystemTimeZoneSourceC1Ev@Base 4:4.3.4
 _ZN21KSystemTimeZoneSourceC2Ev@Base 4:4.3.4
 _ZN21KSystemTimeZoneSourceD0Ev@Base 4:4.3.4
 _ZN21KSystemTimeZoneSourceD1Ev@Base 4:4.3.4
 _ZN21KSystemTimeZoneSourceD2Ev@Base 4:4.3.4
 _ZN21KTzfileTimeZoneSourceC1ERK7QString@Base 4:4.3.4
 _ZN21KTzfileTimeZoneSourceC2ERK7QString@Base 4:4.3.4
 _ZN21KTzfileTimeZoneSourceD0Ev@Base 4:4.3.4
 _ZN21KTzfileTimeZoneSourceD1Ev@Base 4:4.3.4
 _ZN21KTzfileTimeZoneSourceD2Ev@Base 4:4.3.4
 _ZN22KSslCertificateManager18nonIgnorableErrorsERK5QListI9KSslErrorE@Base 4:4.3.4
 _ZN22KSslCertificateManager18nonIgnorableErrorsERK5QListIN9KSslError5ErrorEE@Base 4:4.3.4
 _ZN22KSslCertificateManager4selfEv@Base 4:4.3.4
 _ZN22KSslCertificateManager7setRuleERK19KSslCertificateRule@Base 4:4.3.4
 _ZN22KSslCertificateManager9clearRuleERK15QSslCertificateRK7QString@Base 4:4.3.4
 _ZN22KSslCertificateManager9clearRuleERK19KSslCertificateRule@Base 4:4.3.4
 _ZN22KSslCertificateManagerC1Ev@Base 4:4.3.4
 _ZN22KSslCertificateManagerC2Ev@Base 4:4.3.4
 _ZN22KSslCertificateManagerD1Ev@Base 4:4.3.4
 _ZN22KSslCertificateManagerD2Ev@Base 4:4.3.4
 _ZN22KSystemTimeZoneBackendC1EP21KSystemTimeZoneSourceRK7QStringS4_ffS4_@Base 4:4.3.4
 _ZN22KSystemTimeZoneBackendC2EP21KSystemTimeZoneSourceRK7QStringS4_ffS4_@Base 4:4.3.4
 _ZN22KSystemTimeZoneBackendD0Ev@Base 4:4.3.4
 _ZN22KSystemTimeZoneBackendD1Ev@Base 4:4.3.4
 _ZN22KSystemTimeZoneBackendD2Ev@Base 4:4.3.4
 _ZN22KTzfileTimeZoneBackendC1EP21KTzfileTimeZoneSourceRK7QStringS4_ffS4_@Base 4:4.3.4
 _ZN22KTzfileTimeZoneBackendC2EP21KTzfileTimeZoneSourceRK7QStringS4_ffS4_@Base 4:4.3.4
 _ZN22KTzfileTimeZoneBackendD0Ev@Base 4:4.3.4
 _ZN22KTzfileTimeZoneBackendD1Ev@Base 4:4.3.4
 _ZN22KTzfileTimeZoneBackendD2Ev@Base 4:4.3.4
 _ZN24OrgKdeKLauncherInterface11qt_metacallEN11QMetaObject4CallEiPPv@Base 4:4.3.4
 _ZN24OrgKdeKLauncherInterface11qt_metacastEPKc@Base 4:4.3.4
 _ZN24OrgKdeKLauncherInterface14autoStart0DoneEv@Base 4:4.3.4
 _ZN24OrgKdeKLauncherInterface14autoStart1DoneEv@Base 4:4.3.4
 _ZN24OrgKdeKLauncherInterface14autoStart2DoneEv@Base 4:4.3.4
 _ZN24OrgKdeKLauncherInterface16staticMetaObjectE@Base 4:4.3.4
 _ZN24OrgKdeKLauncherInterfaceC1ERK7QStringS2_RK15QDBusConnectionP7QObject@Base 4:4.3.4
 _ZN24OrgKdeKLauncherInterfaceC2ERK7QStringS2_RK15QDBusConnectionP7QObject@Base 4:4.3.4
 _ZN24OrgKdeKLauncherInterfaceD0Ev@Base 4:4.3.4
 _ZN24OrgKdeKLauncherInterfaceD1Ev@Base 4:4.3.4
 _ZN24OrgKdeKLauncherInterfaceD2Ev@Base 4:4.3.4
 _ZN3KAr10doWriteDirERK7QStringS2_S2_jlll@Base 4:4.4.95
 _ZN3KAr11openArchiveE6QFlagsIN9QIODevice12OpenModeFlagEE@Base 4:4.4.95
 _ZN3KAr12closeArchiveEv@Base 4:4.4.95
 _ZN3KAr12virtual_hookEiPv@Base 4:4.4.95
 _ZN3KAr14doWriteSymLinkERK7QStringS2_S2_S2_jlll@Base 4:4.4.95
 _ZN3KAr15doFinishWritingEx@Base 4:4.4.95
 _ZN3KAr16doPrepareWritingERK7QStringS2_S2_xjlll@Base 4:4.4.95
 _ZN3KArC1EP9QIODevice@Base 4:4.4.95
 _ZN3KArC1ERK7QString@Base 4:4.4.95
 _ZN3KArC2EP9QIODevice@Base 4:4.4.95
 _ZN3KArC2ERK7QString@Base 4:4.4.95
 _ZN3KArD0Ev@Base 4:4.4.95
 _ZN3KArD1Ev@Base 4:4.4.95
 _ZN3KArD2Ev@Base 4:4.4.95
 _ZN3KDE12versionMajorEv@Base 4:4.3.4
 _ZN3KDE12versionMinorEv@Base 4:4.3.4
 _ZN3KDE13versionStringEv@Base 4:4.3.4
 _ZN3KDE14versionReleaseEv@Base 4:4.3.4
 _ZN3KDE7versionEv@Base 4:4.3.4
 _ZN4KJob10emitResultEv@Base 4:4.3.4
 _ZN4KJob10setPercentEm@Base 4:4.3.4
 _ZN4KJob11descriptionEPS_RK7QStringRK5QPairIS1_S1_ES7_@Base 4:4.3.4
 _ZN4KJob11emitPercentEyy@Base 4:4.3.4
 _ZN4KJob11infoMessageEPS_RK7QStringS3_@Base 4:4.3.4
 _ZN4KJob11qt_metacallEN11QMetaObject4CallEiPPv@Base 4:4.3.4
 _ZN4KJob11qt_metacastEPKc@Base 4:4.3.4
 _ZN4KJob11totalAmountEPS_NS_4UnitEy@Base 4:4.3.4
 _ZN4KJob12setErrorTextERK7QString@Base 4:4.3.4
 _ZN4KJob13processedSizeEPS_y@Base 4:4.3.4
 _ZN4KJob13setAutoDeleteEb@Base 4:4.3.4
 _ZN4KJob13setUiDelegateEP14KJobUiDelegate@Base 4:4.3.4
 _ZN4KJob14setTotalAmountENS_4UnitEy@Base 4:4.3.4
 _ZN4KJob15processedAmountEPS_NS_4UnitEy@Base 4:4.3.4
 _ZN4KJob15setCapabilitiesE6QFlagsINS_10CapabilityEE@Base 4:4.3.4
 _ZN4KJob16staticMetaObjectE@Base 4:4.3.4
 _ZN4KJob18setProcessedAmountENS_4UnitEy@Base 4:4.3.4
 _ZN4KJob4execEv@Base 4:4.3.4
 _ZN4KJob4killENS_13KillVerbosityE@Base 4:4.3.4
 _ZN4KJob5speedEPS_m@Base 4:4.3.4
 _ZN4KJob6doKillEv@Base 4:4.3.4
 _ZN4KJob6resultEPS_@Base 4:4.3.4
 _ZN4KJob6resumeEv@Base 4:4.3.4
 _ZN4KJob7percentEPS_m@Base 4:4.3.4
 _ZN4KJob7resumedEPS_@Base 4:4.3.4
 _ZN4KJob7suspendEv@Base 4:4.3.4
 _ZN4KJob7warningEPS_RK7QStringS3_@Base 4:4.3.4
 _ZN4KJob8doResumeEv@Base 4:4.3.4
 _ZN4KJob8finishedEPS_@Base 4:4.3.4
 _ZN4KJob8setErrorEi@Base 4:4.3.4
 _ZN4KJob9doSuspendEv@Base 4:4.3.4
 _ZN4KJob9emitSpeedEm@Base 4:4.3.4
 _ZN4KJob9suspendedEPS_@Base 4:4.3.4
 _ZN4KJob9totalSizeEPS_y@Base 4:4.3.4
 _ZN4KJobC1EP7QObject@Base 4:4.3.4
 _ZN4KJobC1ER11KJobPrivateP7QObject@Base 4:4.3.4
 _ZN4KJobC2EP7QObject@Base 4:4.3.4
 _ZN4KJobC2ER11KJobPrivateP7QObject@Base 4:4.3.4
 _ZN4KJobD0Ev@Base 4:4.3.4
 _ZN4KJobD1Ev@Base 4:4.3.4
 _ZN4KJobD2Ev@Base 4:4.3.4
 _ZN4KMD512base64DigestEv@Base 4:4.3.4
 _ZN4KMD52FFERjjjjjjj@Base 4:4.3.4
 _ZN4KMD52GGERjjjjjjj@Base 4:4.3.4
 _ZN4KMD52HHERjjjjjjj@Base 4:4.3.4
 _ZN4KMD52IIERjjjjjjj@Base 4:4.3.4
 _ZN4KMD54initEv@Base 4:4.3.4
 _ZN4KMD55resetEv@Base 4:4.3.4
 _ZN4KMD56decodeEPjPKhj@Base 4:4.3.4
 _ZN4KMD56encodeEPhPjj@Base 4:4.3.4
 _ZN4KMD56updateEPKci@Base 4:4.3.4
 _ZN4KMD56updateEPKhi@Base 4:4.3.4
 _ZN4KMD56updateER9QIODevice@Base 4:4.3.4
 _ZN4KMD56updateERK10QByteArray@Base 4:4.3.4
 _ZN4KMD56verifyERA16_Kh@Base 4:4.3.4
 _ZN4KMD56verifyERK10QByteArray@Base 4:4.3.4
 _ZN4KMD58finalizeEv@Base 4:4.3.4
 _ZN4KMD59hexDigestER10QByteArray@Base 4:4.3.4
 _ZN4KMD59hexDigestEv@Base 4:4.3.4
 _ZN4KMD59rawDigestERA16_h@Base 4:4.3.4
 _ZN4KMD59rawDigestEv@Base 4:4.3.4
 _ZN4KMD59transformEPKh@Base 4:4.3.4
 _ZN4KMD5C1EPKci@Base 4:4.3.4
 _ZN4KMD5C1ERK10QByteArray@Base 4:4.3.4
 _ZN4KMD5C1Ev@Base 4:4.3.4
 _ZN4KMD5C2EPKci@Base 4:4.3.4
 _ZN4KMD5C2ERK10QByteArray@Base 4:4.3.4
 _ZN4KMD5C2Ev@Base 4:4.3.4
 _ZN4KMD5D1Ev@Base 4:4.3.4
 _ZN4KMD5D2Ev@Base 4:4.3.4
 _ZN4KTar10doWriteDirERK7QStringS2_S2_jlll@Base 4:4.4.95
 _ZN4KTar11KTarPrivate10fillBufferEPcPKcxlcS3_S3_@Base 4:4.4.95
 _ZN4KTar11KTarPrivate10readHeaderEPcR7QStringS3_@Base 4:4.4.95
 _ZN4KTar11KTarPrivate12fillTempFileERK7QString@Base 4:4.4.95
 _ZN4KTar11KTarPrivate12readLonglinkEPcR10QByteArray@Base 4:4.4.95
 _ZN4KTar11KTarPrivate13readRawHeaderEPc@Base 4:4.4.95
 _ZN4KTar11KTarPrivate13writeLonglinkEPcRK10QByteArraycPKcS6_@Base 4:4.4.95
 _ZN4KTar11KTarPrivate17writeBackTempFileERK7QString@Base 4:4.4.95
 _ZN4KTar11openArchiveE6QFlagsIN9QIODevice12OpenModeFlagEE@Base 4:4.4.95
 _ZN4KTar12closeArchiveEv@Base 4:4.4.95
 _ZN4KTar12createDeviceE6QFlagsIN9QIODevice12OpenModeFlagEE@Base 4:4.4.95
 _ZN4KTar12virtual_hookEiPv@Base 4:4.4.95
 _ZN4KTar14doWriteSymLinkERK7QStringS2_S2_S2_jlll@Base 4:4.4.95
 _ZN4KTar15doFinishWritingEx@Base 4:4.4.95
 _ZN4KTar15setOrigFileNameERK10QByteArray@Base 4:4.4.95
 _ZN4KTar16doPrepareWritingERK7QStringS2_S2_xjlll@Base 4:4.4.95
 _ZN4KTarC1EP9QIODevice@Base 4:4.4.95
 _ZN4KTarC1ERK7QStringS2_@Base 4:4.4.95
 _ZN4KTarC2EP9QIODevice@Base 4:4.4.95
 _ZN4KTarC2ERK7QStringS2_@Base 4:4.4.95
 _ZN4KTarD0Ev@Base 4:4.4.95
 _ZN4KTarD1Ev@Base 4:4.4.95
 _ZN4KTarD2Ev@Base 4:4.4.95
 _ZN4KUrl10adjustPathENS_16AdjustPathOptionE@Base 4:4.3.4
 _ZN4KUrl10setHTMLRefERK7QString@Base 4:4.3.4
 _ZN4KUrl11relativeUrlERKS_S1_@Base 4:4.3.4
 _ZN4KUrl11setFileNameERK7QString@Base 4:4.3.4
 _ZN4KUrl11setProtocolERK7QString@Base 4:4.3.4
 _ZN4KUrl12addQueryItemERK7QStringS2_@Base 4:4.3.4
 _ZN4KUrl12relativePathERK7QStringS2_Pb@Base 4:4.3.4
 _ZN4KUrl12setDirectoryERK7QString@Base 4:4.3.4
 _ZN4KUrl13fromPathOrUrlERK7QString@Base 4:4.3.4
 _ZN4KUrl13isRelativeUrlERK7QString@Base 4:4.3.4
 _ZN4KUrl14_setEncodedUrlERK10QByteArray@Base 4:4.3.4
 _ZN4KUrl15setFileEncodingERK7QString@Base 4:4.3.4
 _ZN4KUrl21fromMimeDataByteArrayERK10QByteArray@Base 4:4.3.4
 _ZN4KUrl22setEncodedPathAndQueryERK7QString@Base 4:4.3.4
 _ZN4KUrl2cdERK7QString@Base 4:4.3.4
 _ZN4KUrl4List12fromMimeDataEPK9QMimeDataNS0_13DecodeOptionsEP4QMapI7QStringS6_E@Base 4:4.3.4
 _ZN4KUrl4List12fromMimeDataEPK9QMimeDataP4QMapI7QStringS5_E@Base 4:4.3.4
 _ZN4KUrl4List13mimeDataTypesEv@Base 4:4.3.4
 _ZN4KUrl4List9canDecodeEPK9QMimeData@Base 4:4.3.4
 _ZN4KUrl4ListC1ERK11QStringList@Base 4:4.3.4
 _ZN4KUrl4ListC1ERK5QListI4QUrlE@Base 4:4.7.1
 _ZN4KUrl4ListC1ERK5QListIS_E@Base 4:4.3.4
 _ZN4KUrl4ListC1ERKS_@Base 4:4.3.4
 _ZN4KUrl4ListC2ERK11QStringList@Base 4:4.3.4
 _ZN4KUrl4ListC2ERK5QListI4QUrlE@Base 4:4.7.1
 _ZN4KUrl4ListC2ERK5QListIS_E@Base 4:4.3.4
 _ZN4KUrl4ListC2ERKS_@Base 4:4.3.4
 _ZN4KUrl4joinERKNS_4ListE@Base 4:4.3.4
 _ZN4KUrl5splitERK7QString@Base 4:4.3.4
 _ZN4KUrl5splitERKS_@Base 4:4.3.4
 _ZN4KUrl6setRefERK7QString@Base 4:4.3.4
 _ZN4KUrl7addPathERK7QString@Base 4:4.3.4
 _ZN4KUrl7setPassERK7QString@Base 4:4.3.4
 _ZN4KUrl7setPathERK7QString@Base 4:4.3.4
 _ZN4KUrl7setUserERK7QString@Base 4:4.3.4
 _ZN4KUrl8fromPathERK7QString@Base 4:4.3.4
 _ZN4KUrl8setQueryERK7QString@Base 4:4.3.4
 _ZN4KUrl9_setQueryERK7QString@Base 4:4.3.4
 _ZN4KUrl9cleanPathERKNS_15CleanPathOptionE@Base 4:4.3.4
 _ZN4KUrlC1EPKc@Base 4:4.3.4
 _ZN4KUrlC1ERK10QByteArray@Base 4:4.3.4
 _ZN4KUrlC1ERK4QUrl@Base 4:4.3.4
 _ZN4KUrlC1ERK7QString@Base 4:4.3.4
 _ZN4KUrlC1ERKS_@Base 4:4.3.4
 _ZN4KUrlC1ERKS_RK7QString@Base 4:4.3.4
 _ZN4KUrlC1Ev@Base 4:4.3.4
 _ZN4KUrlC2EPKc@Base 4:4.3.4
 _ZN4KUrlC2ERK10QByteArray@Base 4:4.3.4
 _ZN4KUrlC2ERK4QUrl@Base 4:4.3.4
 _ZN4KUrlC2ERK7QString@Base 4:4.3.4
 _ZN4KUrlC2ERKS_@Base 4:4.3.4
 _ZN4KUrlC2ERKS_RK7QString@Base 4:4.3.4
 _ZN4KUrlC2Ev@Base 4:4.3.4
 _ZN4KUrlD1Ev@Base 4:4.3.4
 _ZN4KUrlD2Ev@Base 4:4.3.4
 _ZN4KUrlaSERKS_@Base 4:4.3.4
 _ZN4KZip10doWriteDirERK7QStringS2_S2_jlll@Base 4:4.4.95
 _ZN4KZip11openArchiveE6QFlagsIN9QIODevice12OpenModeFlagEE@Base 4:4.4.95
 _ZN4KZip12closeArchiveEv@Base 4:4.4.95
 _ZN4KZip12virtual_hookEiPv@Base 4:4.4.95
 _ZN4KZip13setExtraFieldENS_10ExtraFieldE@Base 4:4.4.95
 _ZN4KZip14doWriteSymLinkERK7QStringS2_S2_S2_jlll@Base 4:4.4.95
 _ZN4KZip14setCompressionENS_11CompressionE@Base 4:4.4.95
 _ZN4KZip15doFinishWritingEx@Base 4:4.4.95
 _ZN4KZip16doPrepareWritingERK7QStringS2_S2_xjlll@Base 4:4.4.95
 _ZN4KZip9writeDataEPKcx@Base 4:4.4.95
 _ZN4KZipC1EP9QIODevice@Base 4:4.4.95
 _ZN4KZipC1ERK7QString@Base 4:4.4.95
 _ZN4KZipC2EP9QIODevice@Base 4:4.4.95
 _ZN4KZipC2ERK7QString@Base 4:4.4.95
 _ZN4KZipD0Ev@Base 4:4.4.95
 _ZN4KZipD1Ev@Base 4:4.4.95
 _ZN4KZipD2Ev@Base 4:4.4.95
 _ZN5KAuth11ActionReply11deserializeERK10QByteArray@Base 4:4.4.0
 _ZN5KAuth11ActionReply12SuccessReplyE@Base 4:4.4.0
 _ZN5KAuth11ActionReply12setErrorCodeEi@Base 4:4.4.0
 _ZN5KAuth11ActionReply14DBusErrorReplyE@Base 4:4.4.0
 _ZN5KAuth11ActionReply15HelperBusyReplyE@Base 4:4.4.0
 _ZN5KAuth11ActionReply16HelperErrorReplyE@Base 4:4.4.0
 _ZN5KAuth11ActionReply16NoResponderReplyE@Base 4:4.4.0
 _ZN5KAuth11ActionReply17NoSuchActionReplyE@Base 4:4.4.0
 _ZN5KAuth11ActionReply18InvalidActionReplyE@Base 4:4.4.0
 _ZN5KAuth11ActionReply18UserCancelledReplyE@Base 4:4.4.0
 _ZN5KAuth11ActionReply19setErrorDescriptionERK7QString@Base 4:4.4.0
 _ZN5KAuth11ActionReply24AuthorizationDeniedReplyE@Base 4:4.4.0
 _ZN5KAuth11ActionReply7addDataERK7QStringRK8QVariant@Base 4:4.4.0
 _ZN5KAuth11ActionReply7setDataERK4QMapI7QString8QVariantE@Base 4:4.4.0
 _ZN5KAuth11ActionReplyC1ENS0_4TypeE@Base 4:4.4.0
 _ZN5KAuth11ActionReplyC1ERKS0_@Base 4:4.4.0
 _ZN5KAuth11ActionReplyC1Ei@Base 4:4.4.0
 _ZN5KAuth11ActionReplyC1Ev@Base 4:4.4.0
 _ZN5KAuth11ActionReplyC2ENS0_4TypeE@Base 4:4.4.0
 _ZN5KAuth11ActionReplyC2ERKS0_@Base 4:4.4.0
 _ZN5KAuth11ActionReplyC2Ei@Base 4:4.4.0
 _ZN5KAuth11ActionReplyC2Ev@Base 4:4.4.0
 _ZN5KAuth11ActionReplyD0Ev@Base 4:4.4.0
 _ZN5KAuth11ActionReplyD1Ev@Base 4:4.4.0
 _ZN5KAuth11ActionReplyD2Ev@Base 4:4.4.0
 _ZN5KAuth11ActionReplyaSERKS0_@Base 4:4.4.0
 _ZN5KAuth13ActionWatcher11qt_metacallEN11QMetaObject4CallEiPPv@Base 4:4.4.0
 _ZN5KAuth13ActionWatcher11qt_metacastEPKc@Base 4:4.4.0
 _ZN5KAuth13ActionWatcher12progressStepERK4QMapI7QString8QVariantE@Base 4:4.4.0
 _ZN5KAuth13ActionWatcher12progressStepEi@Base 4:4.4.0
 _ZN5KAuth13ActionWatcher13actionStartedEv@Base 4:4.4.0
 _ZN5KAuth13ActionWatcher13statusChangedEi@Base 4:4.4.0
 _ZN5KAuth13ActionWatcher15actionPerformedERKNS_11ActionReplyE@Base 4:4.4.0
 _ZN5KAuth13ActionWatcher16staticMetaObjectE@Base 4:4.4.0
 _ZN5KAuth13ActionWatcher7Private16progressStepSlotERK7QStringRK4QMapIS2_8QVariantE@Base 4:4.4.0
 _ZN5KAuth13ActionWatcher7Private16progressStepSlotERK7QStringi@Base 4:4.4.0
 _ZN5KAuth13ActionWatcher7Private17actionStartedSlotERK7QString@Base 4:4.4.0
 _ZN5KAuth13ActionWatcher7Private17statusChangedSlotERK7QStringNS_6Action10AuthStatusE@Base 4:4.4.0
 _ZN5KAuth13ActionWatcher7Private19actionPerformedSlotERK7QStringRKNS_11ActionReplyE@Base 4:4.4.0
 _ZN5KAuth13ActionWatcher7watcherERK7QString@Base 4:4.4.0
 _ZN5KAuth13ActionWatcherC1ERK7QString@Base 4:4.4.0
 _ZN5KAuth13ActionWatcherC2ERK7QString@Base 4:4.4.0
 _ZN5KAuth13ActionWatcherD0Ev@Base 4:4.4.0
 _ZN5KAuth13ActionWatcherD1Ev@Base 4:4.4.0
 _ZN5KAuth13ActionWatcherD2Ev@Base 4:4.4.0
 _ZN5KAuth13HelperSupport10helperMainEiPPcPKcP7QObject@Base 4:4.4.0
 _ZN5KAuth13HelperSupport12progressStepERK4QMapI7QString8QVariantE@Base 4:4.4.0
 _ZN5KAuth13HelperSupport12progressStepEi@Base 4:4.4.0
 _ZN5KAuth13HelperSupport9isStoppedEv@Base 4:4.4.0
 _ZN5KAuth15BackendsManager11authBackendEv@Base 4:4.4.2
 _ZN5KAuth15BackendsManager11helperProxyEv@Base 4:4.4.2
 _ZN5KAuth15BackendsManager19retrieveInstancesInERK7QString@Base 4:4.4.2
 _ZN5KAuth15BackendsManager4authE@Base 4:4.4.2
 _ZN5KAuth15BackendsManager4initEv@Base 4:4.4.2
 _ZN5KAuth15BackendsManager6helperE@Base 4:4.4.2
 _ZN5KAuth15BackendsManagerC1Ev@Base 4:4.4.2
 _ZN5KAuth15BackendsManagerC2Ev@Base 4:4.4.2
 _ZN5KAuth6Action10setDetailsERK7QString@Base 4:4.4.0
 _ZN5KAuth6Action11addArgumentERK7QStringRK8QVariant@Base 4:4.4.0
 _ZN5KAuth6Action11setHelperIDERK7QString@Base 4:4.4.0
 _ZN5KAuth6Action12setArgumentsERK4QMapI7QString8QVariantE@Base 4:4.4.0
 _ZN5KAuth6Action14executeActionsERK5QListIS0_EPS2_RK7QString@Base 4:4.4.0
 _ZN5KAuth6Action14executeActionsERK5QListIS0_EPS2_RK7QStringP7QWidget@Base 4:4.5.85
 _ZN5KAuth6Action15setParentWidgetEP7QWidget@Base 4:4.5.85
 _ZN5KAuth6Action16setExecutesAsyncEb@Base 4:4.4.0
 _ZN5KAuth6Action4stopERK7QString@Base 4:4.4.0
 _ZN5KAuth6Action4stopEv@Base 4:4.4.0
 _ZN5KAuth6Action7setNameERK7QString@Base 4:4.4.0
 _ZN5KAuth6Action7watcherEv@Base 4:4.4.0
 _ZN5KAuth6ActionC1ERK7QString@Base 4:4.4.0
 _ZN5KAuth6ActionC1ERK7QStringS3_@Base 4:4.4.0
 _ZN5KAuth6ActionC1ERKS0_@Base 4:4.4.0
 _ZN5KAuth6ActionC1Ev@Base 4:4.4.0
 _ZN5KAuth6ActionC2ERK7QString@Base 4:4.4.0
 _ZN5KAuth6ActionC2ERK7QStringS3_@Base 4:4.4.0
 _ZN5KAuth6ActionC2ERKS0_@Base 4:4.4.0
 _ZN5KAuth6ActionC2Ev@Base 4:4.4.0
 _ZN5KAuth6ActionD1Ev@Base 4:4.4.0
 _ZN5KAuth6ActionD2Ev@Base 4:4.4.0
 _ZN5KAuth6ActionaSERKS0_@Base 4:4.4.0
 _ZN5KUser12allUserNamesEv@Base 4:4.3.4
 _ZN5KUser8allUsersEv@Base 4:4.3.4
 _ZN5KUserC1ENS_7UIDModeE@Base 4:4.3.4
 _ZN5KUserC1EPK6passwd@Base 4:4.3.4
 _ZN5KUserC1EPKc@Base 4:4.3.4
 _ZN5KUserC1ERK7QString@Base 4:4.3.4
 _ZN5KUserC1ERKS_@Base 4:4.3.4
 _ZN5KUserC1Ej@Base 4:4.3.4
 _ZN5KUserC2ENS_7UIDModeE@Base 4:4.3.4
 _ZN5KUserC2EPK6passwd@Base 4:4.3.4
 _ZN5KUserC2EPKc@Base 4:4.3.4
 _ZN5KUserC2ERK7QString@Base 4:4.3.4
 _ZN5KUserC2ERKS_@Base 4:4.3.4
 _ZN5KUserC2Ej@Base 4:4.3.4
 _ZN5KUserD1Ev@Base 4:4.3.4
 _ZN5KUserD2Ev@Base 4:4.3.4
 _ZN5KUseraSERKS_@Base 4:4.3.4
 _ZN5QTest14kWaitForSignalEP7QObjectPKci@Base 4:4.3.4
 _ZN6KDebug12registerAreaERK10QByteArrayb@Base 4:4.4.0
 _ZN6KDebug13hasNullOutputE9QtMsgTypebib@Base 4:4.4.0
 _ZN6KDebug5BlockC1EPKci@Base 4:4.5.85
 _ZN6KDebug5BlockC2EPKci@Base 4:4.5.85
 _ZN6KDebug5BlockD1Ev@Base 4:4.5.85
 _ZN6KDebug5BlockD2Ev@Base 4:4.5.85
 _ZN6KShell11tildeExpandERK7QString@Base 4:4.3.4
 _ZN6KShell8joinArgsERK11QStringList@Base 4:4.3.4
 _ZN6KShell8quoteArgERK7QString@Base 4:4.3.4
 _ZN6KShell9splitArgsERK7QString6QFlagsINS_6OptionEEPNS_6ErrorsE@Base 4:4.3.4
 _ZN6KSocks10usingSocksEv@Base 4:4.3.4
 _ZN6KSocks11enableSocksEv@Base 4:4.3.4
 _ZN6KSocks11getpeernameEiP8sockaddrPj@Base 4:4.3.4
 _ZN6KSocks11getsocknameEiP8sockaddrPj@Base 4:4.3.4
 _ZN6KSocks12disableSocksEv@Base 4:4.3.4
 _ZN6KSocks22hasWorkingAsyncConnectEv@Base 4:4.3.4
 _ZN6KSocks3_meE@Base 4:4.3.4
 _ZN6KSocks3dieEv@Base 4:4.3.4
 _ZN6KSocks4bindEiP8sockaddrj@Base 4:4.3.4
 _ZN6KSocks4bindEiPK8sockaddrj@Base 4:4.3.4
 _ZN6KSocks4readEiPvm@Base 4:4.3.4
 _ZN6KSocks4recvEiPvmi@Base 4:4.3.4
 _ZN6KSocks4selfEv@Base 4:4.3.4
 _ZN6KSocks4sendEiPKvmi@Base 4:4.3.4
 _ZN6KSocks5writeEiPKvm@Base 4:4.3.4
 _ZN6KSocks6acceptEiP8sockaddrPj@Base 4:4.3.4
 _ZN6KSocks6listenEii@Base 4:4.3.4
 _ZN6KSocks6selectEiP6fd_setS1_S1_P7timeval@Base 4:4.3.4
 _ZN6KSocks6sendtoEiPKvmiPK8sockaddrj@Base 4:4.3.4
 _ZN6KSocks7connectEiPK8sockaddrj@Base 4:4.3.4
 _ZN6KSocks7disableEv@Base 4:4.3.4
 _ZN6KSocks8hasSocksEv@Base 4:4.3.4
 _ZN6KSocks8recvfromEiPvmiP8sockaddrPj@Base 4:4.3.4
 _ZN6KSocks9_disabledE@Base 4:4.3.4
 _ZN6KSocks9activatedEv@Base 4:4.3.4
 _ZN6KSocks9setConfigEPK12KConfigGroup@Base 4:4.3.4
 _ZN6KSocks9stopSocksEv@Base 4:4.3.4
 _ZN6KSocksC1EPK12KConfigGroup@Base 4:4.3.4
 _ZN6KSocksC2EPK12KConfigGroup@Base 4:4.3.4
 _ZN6KSocksD1Ev@Base 4:4.3.4
 _ZN6KSocksD2Ev@Base 4:4.3.4
 _ZN6Sonnet13SpellerPluginC1ERK7QString@Base 4:4.3.4
 _ZN6Sonnet13SpellerPluginC2ERK7QString@Base 4:4.3.4
 _ZN6Sonnet13SpellerPluginD0Ev@Base 4:4.3.4
 _ZN6Sonnet13SpellerPluginD1Ev@Base 4:4.3.4
 _ZN6Sonnet13SpellerPluginD2Ev@Base 4:4.3.4
 _ZN6Sonnet14detectLanguageERK7QString@Base 4:4.3.4
 _ZN6Sonnet17BackgroundChecker10setSpellerERKNS_7SpellerE@Base 4:4.3.4
 _ZN6Sonnet17BackgroundChecker11misspellingERK7QStringi@Base 4:4.3.4
 _ZN6Sonnet17BackgroundChecker11qt_metacallEN11QMetaObject4CallEiPPv@Base 4:4.3.4
 _ZN6Sonnet17BackgroundChecker11qt_metacastEPKc@Base 4:4.3.4
 _ZN6Sonnet17BackgroundChecker13fetchMoreTextEv@Base 4:4.3.4
 _ZN6Sonnet17BackgroundChecker14changeLanguageERK7QString@Base 4:4.3.4
 _ZN6Sonnet17BackgroundChecker14slotEngineDoneEv@Base 4:4.3.4
 _ZN6Sonnet17BackgroundChecker16continueCheckingEv@Base 4:4.3.4
 _ZN6Sonnet17BackgroundChecker16staticMetaObjectE@Base 4:4.3.4
 _ZN6Sonnet17BackgroundChecker17addWordToPersonalERK7QString@Base 4:4.3.4
 _ZN6Sonnet17BackgroundChecker19finishedCurrentFeedEv@Base 4:4.3.4
 _ZN6Sonnet17BackgroundChecker4doneEv@Base 4:4.3.4
 _ZN6Sonnet17BackgroundChecker4stopEv@Base 4:4.3.4
 _ZN6Sonnet17BackgroundChecker5startEv@Base 4:4.3.4
 _ZN6Sonnet17BackgroundChecker7replaceEiRK7QStringS3_@Base 4:4.3.4
 _ZN6Sonnet17BackgroundChecker7restoreEP7KConfig@Base 4:4.5.2
 _ZN6Sonnet17BackgroundChecker7setTextERK7QString@Base 4:4.3.4
 _ZN6Sonnet17BackgroundChecker9checkWordERK7QString@Base 4:4.3.4
 _ZN6Sonnet17BackgroundCheckerC1EP7QObject@Base 4:4.3.4
 _ZN6Sonnet17BackgroundCheckerC1ERKNS_7SpellerEP7QObject@Base 4:4.3.4
 _ZN6Sonnet17BackgroundCheckerC2EP7QObject@Base 4:4.3.4
 _ZN6Sonnet17BackgroundCheckerC2ERKNS_7SpellerEP7QObject@Base 4:4.3.4
 _ZN6Sonnet17BackgroundCheckerD0Ev@Base 4:4.3.4
 _ZN6Sonnet17BackgroundCheckerD1Ev@Base 4:4.3.4
 _ZN6Sonnet17BackgroundCheckerD2Ev@Base 4:4.3.4
 _ZN6Sonnet19defaultLanguageNameEv@Base 4:4.3.4
 _ZN6Sonnet4WordD1Ev@Base 4:4.7.4
 _ZN6Sonnet4WordD2Ev@Base 4:4.7.4
 _ZN6Sonnet6Client11qt_metacallEN11QMetaObject4CallEiPPv@Base 4:4.3.4
 _ZN6Sonnet6Client11qt_metacastEPKc@Base 4:4.3.4
 _ZN6Sonnet6Client16staticMetaObjectE@Base 4:4.3.4
 _ZN6Sonnet6ClientC1EP7QObject@Base 4:4.3.4
 _ZN6Sonnet6ClientC2EP7QObject@Base 4:4.3.4
 _ZN6Sonnet6ClientD0Ev@Base 4:4.7.4
 _ZN6Sonnet6ClientD1Ev@Base 4:4.7.4
 _ZN6Sonnet6ClientD2Ev@Base 4:4.7.4
 _ZN6Sonnet6Filter11setSettingsEPNS_8SettingsE@Base 4:4.3.4
 _ZN6Sonnet6Filter13defaultFilterEv@Base 4:4.3.4
 _ZN6Sonnet6Filter18setCurrentPositionEi@Base 4:4.3.4
 _ZN6Sonnet6Filter3endEv@Base 4:4.3.4
 _ZN6Sonnet6Filter7replaceERKNS_4WordERK7QString@Base 4:4.3.4
 _ZN6Sonnet6Filter7restartEv@Base 4:4.3.4
 _ZN6Sonnet6Filter9setBufferERK7QString@Base 4:4.3.4
 _ZN6Sonnet6FilterC1Ev@Base 4:4.3.4
 _ZN6Sonnet6FilterC2Ev@Base 4:4.3.4
 _ZN6Sonnet6FilterD0Ev@Base 4:4.3.4
 _ZN6Sonnet6FilterD1Ev@Base 4:4.3.4
 _ZN6Sonnet6FilterD2Ev@Base 4:4.3.4
 _ZN6Sonnet6Loader10loadPluginERK10KSharedPtrI8KServiceE@Base 4:4.3.4
 _ZN6Sonnet6Loader10openLoaderEv@Base 4:4.3.4
 _ZN6Sonnet6Loader11loadPluginsEv@Base 4:4.3.4
 _ZN6Sonnet6Loader11qt_metacallEN11QMetaObject4CallEiPPv@Base 4:4.3.4
 _ZN6Sonnet6Loader11qt_metacastEPKc@Base 4:4.3.4
 _ZN6Sonnet6Loader16staticMetaObjectE@Base 4:4.3.4
 _ZN6Sonnet6Loader20configurationChangedEv@Base 4:4.3.4
 _ZN6Sonnet6Loader7changedEv@Base 4:4.3.4
 _ZN6Sonnet6LoaderC1Ev@Base 4:4.3.4
 _ZN6Sonnet6LoaderC2Ev@Base 4:4.3.4
 _ZN6Sonnet6LoaderD0Ev@Base 4:4.3.4
 _ZN6Sonnet6LoaderD1Ev@Base 4:4.3.4
 _ZN6Sonnet6LoaderD2Ev@Base 4:4.3.4
 _ZN6Sonnet7Speller11setLanguageERK7QString@Base 4:4.3.4
 _ZN6Sonnet7Speller12addToSessionERK7QString@Base 4:4.3.4
 _ZN6Sonnet7Speller12setAttributeENS0_9AttributeEb@Base 4:4.3.4
 _ZN6Sonnet7Speller13addToPersonalERK7QString@Base 4:4.3.4
 _ZN6Sonnet7Speller16setDefaultClientERK7QString@Base 4:4.3.4
 _ZN6Sonnet7Speller16storeReplacementERK7QStringS3_@Base 4:4.3.4
 _ZN6Sonnet7Speller18setDefaultLanguageERK7QString@Base 4:4.3.4
 _ZN6Sonnet7Speller4saveEP7KConfig@Base 4:4.3.4
 _ZN6Sonnet7Speller7restoreEP7KConfig@Base 4:4.3.4
 _ZN6Sonnet7SpellerC1ERK7QString@Base 4:4.3.4
 _ZN6Sonnet7SpellerC1ERKS0_@Base 4:4.3.4
 _ZN6Sonnet7SpellerC2ERK7QString@Base 4:4.3.4
 _ZN6Sonnet7SpellerC2ERKS0_@Base 4:4.3.4
 _ZN6Sonnet7SpellerD1Ev@Base 4:4.3.4
 _ZN6Sonnet7SpellerD2Ev@Base 4:4.3.4
 _ZN6Sonnet7SpelleraSERKS0_@Base 4:4.3.4
 _ZN6Sonnet8Settings11setModifiedEb@Base 4:4.3.4
 _ZN6Sonnet8Settings14readIgnoreListEP7KConfig@Base 4:4.3.4
 _ZN6Sonnet8Settings15addWordToIgnoreERK7QString@Base 4:4.3.4
 _ZN6Sonnet8Settings16setDefaultClientERK7QString@Base 4:4.3.4
 _ZN6Sonnet8Settings17setCheckUppercaseEb@Base 4:4.3.4
 _ZN6Sonnet8Settings18setDefaultLanguageERK7QString@Base 4:4.3.4
 _ZN6Sonnet8Settings18setQuietIgnoreListERK11QStringList@Base 4:4.3.4
 _ZN6Sonnet8Settings18setSkipRunTogetherEb@Base 4:4.3.4
 _ZN6Sonnet8Settings20setCurrentIgnoreListERK11QStringList@Base 4:4.3.4
 _ZN6Sonnet8Settings26setCheckerEnabledByDefaultEb@Base 4:4.4.0
 _ZN6Sonnet8Settings27setBackgroundCheckerEnabledEb@Base 4:4.3.4
 _ZN6Sonnet8Settings4saveEP7KConfig@Base 4:4.3.4
 _ZN6Sonnet8Settings6ignoreERK7QString@Base 4:4.3.4
 _ZN6Sonnet8Settings7restoreEP7KConfig@Base 4:4.3.4
 _ZN6Sonnet8SettingsC1EPNS_6LoaderE@Base 4:4.3.4
 _ZN6Sonnet8SettingsC2EPNS_6LoaderE@Base 4:4.3.4
 _ZN6Sonnet8SettingsD1Ev@Base 4:4.3.4
 _ZN6Sonnet8SettingsD2Ev@Base 4:4.3.4
 _ZN7KCodecs12base64DecodeERK10QByteArray@Base 4:4.3.4
 _ZN7KCodecs12base64DecodeERK10QByteArrayRS0_@Base 4:4.3.4
 _ZN7KCodecs12base64EncodeERK10QByteArrayRS0_b@Base 4:4.3.4
 _ZN7KCodecs12base64EncodeERK10QByteArrayb@Base 4:4.3.4
 _ZN7KCodecs19decodeRFC2047StringERK7QString@Base 4:4.3.4
 _ZN7KCodecs21quotedPrintableDecodeERK10QByteArray@Base 4:4.3.4
 _ZN7KCodecs21quotedPrintableDecodeERK10QByteArrayRS0_@Base 4:4.3.4
 _ZN7KCodecs21quotedPrintableEncodeERK10QByteArrayRS0_b@Base 4:4.3.4
 _ZN7KCodecs21quotedPrintableEncodeERK10QByteArrayb@Base 4:4.3.4
 _ZN7KCodecs8uudecodeERK10QByteArray@Base 4:4.3.4
 _ZN7KCodecs8uudecodeERK10QByteArrayRS0_@Base 4:4.3.4
 _ZN7KCodecs8uuencodeERK10QByteArray@Base 4:4.3.4
 _ZN7KCodecs8uuencodeERK10QByteArrayRS0_@Base 4:4.3.4
 _ZN7KConfig11checkUpdateERK7QStringS2_@Base 4:4.3.4
 _ZN7KConfig11markAsCleanEv@Base 4:4.3.4
 _ZN7KConfig12virtual_hookEiPv@Base 4:4.3.4
 _ZN7KConfig14setForceGlobalEb@Base 4:4.3.4
 _ZN7KConfig15deleteGroupImplERK10QByteArray6QFlagsIN11KConfigBase15WriteConfigFlagEE@Base 4:4.3.4
 _ZN7KConfig15setReadDefaultsEb@Base 4:4.3.4
 _ZN7KConfig16addConfigSourcesERK11QStringList@Base 4:4.3.4
 _ZN7KConfig16isConfigWritableEb@Base 4:4.3.4
 _ZN7KConfig20reparseConfigurationEv@Base 4:4.3.4
 _ZN7KConfig4syncEv@Base 4:4.3.4
 _ZN7KConfig9groupImplERK10QByteArray@Base 4:4.3.4
 _ZN7KConfig9setLocaleERK7QString@Base 4:4.3.4
 _ZN7KConfigC1ER14KConfigPrivate@Base 4:4.3.4
 _ZN7KConfigC1ERK14KComponentDataRK7QString6QFlagsINS_8OpenFlagEEPKc@Base 4:4.3.4
 _ZN7KConfigC1ERK7QString6QFlagsINS_8OpenFlagEEPKc@Base 4:4.3.4
 _ZN7KConfigC1ERK7QStringS2_PKc@Base 4:4.3.4
 _ZN7KConfigC2ER14KConfigPrivate@Base 4:4.3.4
 _ZN7KConfigC2ERK14KComponentDataRK7QString6QFlagsINS_8OpenFlagEEPKc@Base 4:4.3.4
 _ZN7KConfigC2ERK7QString6QFlagsINS_8OpenFlagEEPKc@Base 4:4.3.4
 _ZN7KConfigC2ERK7QStringS2_PKc@Base 4:4.3.4
 _ZN7KConfigD0Ev@Base 4:4.3.4
 _ZN7KConfigD1Ev@Base 4:4.3.4
 _ZN7KConfigD2Ev@Base 4:4.3.4
 _ZN7KGlobal12setAllowQuitEb@Base 4:4.3.4
 _ZN7KGlobal13insertCatalogERK7QString@Base 4:4.5.85
 _ZN7KGlobal13mainComponentEv@Base 4:4.3.4
 _ZN7KGlobal13staticQStringEPKc@Base 4:4.3.4
 _ZN7KGlobal13staticQStringERK7QString@Base 4:4.3.4
 _ZN7KGlobal15activeComponentEv@Base 4:4.3.4
 _ZN7KGlobal16hasMainComponentEv@Base 4:4.3.4
 _ZN7KGlobal18setActiveComponentERK14KComponentData@Base 4:4.3.4
 _ZN7KGlobal22findDirectChild_helperEPK7QObjectRK11QMetaObject@Base 4:4.4.0
 _ZN7KGlobal3refEv@Base 4:4.3.4
 _ZN7KGlobal4dirsEv@Base 4:4.3.4
 _ZN7KGlobal5derefEv@Base 4:4.3.4
 _ZN7KGlobal5umaskEv@Base 4:4.3.4
 _ZN7KGlobal6configEv@Base 4:4.3.4
 _ZN7KGlobal6localeEv@Base 4:4.3.4
 _ZN7KGlobal7captionEv@Base 4:4.3.4
 _ZN7KGlobal8charsetsEv@Base 4:4.3.4
 _ZN7KGlobal9hasLocaleEv@Base 4:4.3.4
 _ZN7KGlobal9setLocaleEP7KLocaleNS_12CopyCatalogsE@Base 4:4.3.4
 _ZN7KLocale10langLookupERK7QStringPKc@Base 4:4.3.4
 _ZN7KLocale10setCountryERK7QStringP7KConfig@Base 4:4.3.4
 _ZN7KLocale11setCalendarERK7QString@Base 4:4.3.4
 _ZN7KLocale11setDigitSetENS_8DigitSetE@Base 4:4.3.4
 _ZN7KLocale11setEncodingEi@Base 4:4.3.4
 _ZN7KLocale11setLanguageERK11QStringList@Base 4:4.3.4
 _ZN7KLocale11setLanguageERK7QStringP7KConfig@Base 4:4.3.4
 _ZN7KLocale11setPageSizeEi@Base 4:4.3.4
 _ZN7KLocale11splitLocaleERK7QStringRS0_S3_S3_S3_@Base 4:4.3.4
 _ZN7KLocale13insertCatalogERK7QString@Base 4:4.3.4
 _ZN7KLocale13removeCatalogERK7QString@Base 4:4.3.4
 _ZN7KLocale13setDateFormatERK7QString@Base 4:4.3.4
 _ZN7KLocale13setFracDigitsEi@Base 4:4.3.4
 _ZN7KLocale13setTimeFormatERK7QString@Base 4:4.3.4
 _ZN7KLocale14copyCatalogsToEPS_@Base 4:4.3.4
 _ZN7KLocale14defaultCountryEv@Base 4:4.3.4
 _ZN7KLocale14setMainCatalogEPKc@Base 4:4.3.4
 _ZN7KLocale15defaultLanguageEv@Base 4:4.3.4
 _ZN7KLocale15setCurrencyCodeERK7QString@Base 4:4.4.0
 _ZN7KLocale15setNegativeSignERK7QString@Base 4:4.3.4
 _ZN7KLocale15setPositiveSignERK7QString@Base 4:4.3.4
 _ZN7KLocale15setWeekStartDayEi@Base 4:4.3.4
 _ZN7KLocale16setActiveCatalogERK7QString@Base 4:4.3.4
 _ZN7KLocale16setDecimalPlacesEi@Base 4:4.4.0
 _ZN7KLocale16setDecimalSymbolERK7QString@Base 4:4.3.4
 _ZN7KLocale16setMeasureSystemENS_13MeasureSystemE@Base 4:4.3.4
 _ZN7KLocale16setWeekDayOfPrayEi@Base 4:4.3.4
 _ZN7KLocale16weekNumberSystemEv@Base 4:4.5.85
 _ZN7KLocale17setCalendarSystemENS_14CalendarSystemE@Base 4:4.5.85
 _ZN7KLocale17setCurrencySymbolERK7QString@Base 4:4.3.4
 _ZN7KLocale18setDateFormatShortERK7QString@Base 4:4.3.4
 _ZN7KLocale19defaultCurrencyCodeEv@Base 4:4.4.0
 _ZN7KLocale19setDateTimeDigitSetENS_8DigitSetE@Base 4:4.3.4
 _ZN7KLocale19setMonetaryDigitSetENS_8DigitSetE@Base 4:4.3.4
 _ZN7KLocale19setWeekNumberSystemENS_16WeekNumberSystemE@Base 4:4.5.85
 _ZN7KLocale20reparseConfigurationEv@Base 4:4.8.1
 _ZN7KLocale20setBinaryUnitDialectENS_17BinaryUnitDialectE@Base 4:4.4.0
 _ZN7KLocale20setWorkingWeekEndDayEi@Base 4:4.3.4
 _ZN7KLocale21setThousandsSeparatorERK7QString@Base 4:4.3.4
 _ZN7KLocale22setCountryDivisionCodeERK7QString@Base 4:4.5.85
 _ZN7KLocale22setWorkingWeekStartDayEi@Base 4:4.3.4
 _ZN7KLocale24setMonetaryDecimalPlacesEi@Base 4:4.4.0
 _ZN7KLocale24setMonetaryDecimalSymbolERK7QString@Base 4:4.3.4
 _ZN7KLocale26setDateMonthNamePossessiveEb@Base 4:4.3.4
 _ZN7KLocale27isApplicationTranslatedIntoERK7QString@Base 4:4.3.4
 _ZN7KLocale29setMonetaryThousandsSeparatorERK7QString@Base 4:4.3.4
 _ZN7KLocale31setNegativeMonetarySignPositionENS_12SignPositionE@Base 4:4.3.4
 _ZN7KLocale31setNegativePrefixCurrencySymbolEb@Base 4:4.3.4
 _ZN7KLocale31setPositiveMonetarySignPositionENS_12SignPositionE@Base 4:4.3.4
 _ZN7KLocale31setPositivePrefixCurrencySymbolEb@Base 4:4.3.4
 _ZN7KLocaleC1ERK7QString10KSharedPtrI13KSharedConfigE@Base 4:4.3.4
 _ZN7KLocaleC1ERK7QStringS2_S2_P7KConfig@Base 4:4.3.4
 _ZN7KLocaleC1ERKS_@Base 4:4.3.4
 _ZN7KLocaleC2ERK7QString10KSharedPtrI13KSharedConfigE@Base 4:4.3.4
 _ZN7KLocaleC2ERK7QStringS2_S2_P7KConfig@Base 4:4.3.4
 _ZN7KLocaleC2ERKS_@Base 4:4.3.4
 _ZN7KLocaleD0Ev@Base 4:4.3.4
 _ZN7KLocaleD1Ev@Base 4:4.3.4
 _ZN7KLocaleD2Ev@Base 4:4.3.4
 _ZN7KLocaleaSERKS_@Base 4:4.3.4
 _ZN7KRandom12randomStringEi@Base 4:4.3.4
 _ZN7KRandom6randomEv@Base 4:4.3.4
 _ZN7KSslKeyC1ERK7QSslKey@Base 4:4.3.4
 _ZN7KSslKeyC1ERKS_@Base 4:4.3.4
 _ZN7KSslKeyC1Ev@Base 4:4.3.4
 _ZN7KSslKeyC2ERK7QSslKey@Base 4:4.3.4
 _ZN7KSslKeyC2ERKS_@Base 4:4.3.4
 _ZN7KSslKeyC2Ev@Base 4:4.3.4
 _ZN7KSslKeyD1Ev@Base 4:4.3.4
 _ZN7KSslKeyD2Ev@Base 4:4.3.4
 _ZN7KSslKeyaSERKS_@Base 4:4.3.4
 _ZN7KSycoca10addFactoryEP14KSycocaFactory@Base 4:4.3.4
 _ZN7KSycoca10isBuildingEv@Base 4:4.3.4
 _ZN7KSycoca11clearCachesEv@Base 4:4.3.4
 _ZN7KSycoca11findFactoryE16KSycocaFactoryId@Base 4:4.3.4
 _ZN7KSycoca11isAvailableEv@Base 4:4.3.4
 _ZN7KSycoca11qt_metacallEN11QMetaObject4CallEiPPv@Base 4:4.3.4
 _ZN7KSycoca11qt_metacastEPKc@Base 4:4.3.4
 _ZN7KSycoca15allResourceDirsEv@Base 4:4.3.4
 _ZN7KSycoca15databaseChangedERK11QStringList@Base 4:4.3.4
 _ZN7KSycoca15databaseChangedEv@Base 4:4.3.4
 _ZN7KSycoca15updateSignatureEv@Base 4:4.3.4
 _ZN7KSycoca16absoluteFilePathENS_12DatabaseTypeE@Base 4:4.3.4
 _ZN7KSycoca16kfsstnd_prefixesEv@Base 4:4.3.4
 _ZN7KSycoca16staticMetaObjectE@Base 4:4.3.4
 _ZN7KSycoca18disableAutoRebuildEv@Base 4:4.3.4
 _ZN7KSycoca21notifyDatabaseChangedERK11QStringList@Base 4:4.3.4
 _ZN7KSycoca4selfEv@Base 4:4.3.4
 _ZN7KSycoca6streamEv@Base 4:4.3.4
 _ZN7KSycoca7versionEv@Base 4:4.3.4
 _ZN7KSycoca8languageEv@Base 4:4.3.4
 _ZN7KSycoca9factoriesEv@Base 4:4.3.4
 _ZN7KSycoca9findEntryEiR11KSycocaType@Base 4:4.3.4
 _ZN7KSycoca9flagErrorEv@Base 4:4.3.4
 _ZN7KSycoca9isChangedEPKc@Base 4:4.3.4
 _ZN7KSycoca9readErrorEv@Base 4:4.3.4
 _ZN7KSycoca9timeStampEv@Base 4:4.3.4
 _ZN7KSycocaC1Eb@Base 4:4.3.4
 _ZN7KSycocaC1Ev@Base 4:4.3.4
 _ZN7KSycocaC2Eb@Base 4:4.3.4
 _ZN7KSycocaC2Ev@Base 4:4.3.4
 _ZN7KSycocaD0Ev@Base 4:4.3.4
 _ZN7KSycocaD1Ev@Base 4:4.3.4
 _ZN7KSycocaD2Ev@Base 4:4.3.4
 _ZN8KArchive10setRootDirEP17KArchiveDirectory@Base 4:4.4.95
 _ZN8KArchive12addLocalFileERK7QStringS2_@Base 4:4.4.95
 _ZN8KArchive12createDeviceE6QFlagsIN9QIODevice12OpenModeFlagEE@Base 4:4.4.95
 _ZN8KArchive12findOrCreateERK7QString@Base 4:4.4.95
 _ZN8KArchive12virtual_hookEiPv@Base 4:4.4.95
 _ZN8KArchive12writeSymLinkERK7QStringS2_S2_S2_jlll@Base 4:4.4.95
 _ZN8KArchive13finishWritingEx@Base 4:4.4.95
 _ZN8KArchive14prepareWritingERK7QStringS2_S2_xjlll@Base 4:4.4.95
 _ZN8KArchive17addLocalDirectoryERK7QStringS2_@Base 4:4.4.95
 _ZN8KArchive4openE6QFlagsIN9QIODevice12OpenModeFlagEE@Base 4:4.4.95
 _ZN8KArchive5closeEv@Base 4:4.4.95
 _ZN8KArchive7rootDirEv@Base 4:4.4.95
 _ZN8KArchive8writeDirERK7QStringS2_S2_jlll@Base 4:4.4.95
 _ZN8KArchive9setDeviceEP9QIODevice@Base 4:4.4.95
 _ZN8KArchive9writeDataEPKcx@Base 4:4.4.95
 _ZN8KArchive9writeFileERK7QStringS2_S2_PKcxjlll@Base 4:4.4.95
 _ZN8KArchiveC1EP9QIODevice@Base 4:4.4.95
 _ZN8KArchiveC1ERK7QString@Base 4:4.4.95
 _ZN8KArchiveC2EP9QIODevice@Base 4:4.4.95
 _ZN8KArchiveC2ERK7QString@Base 4:4.4.95
 _ZN8KArchiveD0Ev@Base 4:4.4.95
 _ZN8KArchiveD1Ev@Base 4:4.4.95
 _ZN8KArchiveD2Ev@Base 4:4.4.95
 _ZN8KLibrary11qt_metacallEN11QMetaObject4CallEiPPv@Base 4:4.3.4
 _ZN8KLibrary11qt_metacastEPKc@Base 4:4.3.4
 _ZN8KLibrary11setFileNameERK7QStringRK14KComponentData@Base 4:4.3.4
 _ZN8KLibrary13resolveSymbolEPKc@Base 4:4.3.4
 _ZN8KLibrary15resolveFunctionEPKc@Base 4:4.3.4
 _ZN8KLibrary16staticMetaObjectE@Base 4:4.3.4
 _ZN8KLibrary7factoryEPKc@Base 4:4.3.4
 _ZN8KLibraryC1EP7QObject@Base 4:4.3.4
 _ZN8KLibraryC1ERK7QStringRK14KComponentDataP7QObject@Base 4:4.3.4
 _ZN8KLibraryC1ERK7QStringiRK14KComponentDataP7QObject@Base 4:4.3.4
 _ZN8KLibraryC2EP7QObject@Base 4:4.3.4
 _ZN8KLibraryC2ERK7QStringRK14KComponentDataP7QObject@Base 4:4.3.4
 _ZN8KLibraryC2ERK7QStringiRK14KComponentDataP7QObject@Base 4:4.3.4
 _ZN8KLibraryD0Ev@Base 4:4.3.4
 _ZN8KLibraryD1Ev@Base 4:4.3.4
 _ZN8KLibraryD2Ev@Base 4:4.3.4
 _ZN8KMemFile19fileContentsChangedERK7QString@Base 4:4.3.4
 _ZN8KMemFile4openE6QFlagsIN9QIODevice12OpenModeFlagEE@Base 4:4.3.4
 _ZN8KMemFile4seekEx@Base 4:4.3.4
 _ZN8KMemFile5closeEv@Base 4:4.3.4
 _ZN8KMemFile7Private20loadContentsFromFileEv@Base 4:4.3.4
 _ZN8KMemFile7Private5closeEv@Base 4:4.3.4
 _ZN8KMemFile7Private9getShmKeyERK7QStringi@Base 4:4.3.4
 _ZN8KMemFile7Private9getShmKeyEi@Base 4:4.3.4
 _ZN8KMemFile8readDataEPcx@Base 4:4.3.4
 _ZN8KMemFile9writeDataEPKcx@Base 4:4.3.4
 _ZN8KMemFileC1ERK7QStringP7QObject@Base 4:4.3.4
 _ZN8KMemFileC2ERK7QStringP7QObject@Base 4:4.3.4
 _ZN8KMemFileD0Ev@Base 4:4.3.4
 _ZN8KMemFileD1Ev@Base 4:4.3.4
 _ZN8KMemFileD2Ev@Base 4:4.3.4
 _ZN8KMessage17setMessageHandlerEP15KMessageHandler@Base 4:4.3.4
 _ZN8KMessage7messageENS_11MessageTypeERK7QStringS3_@Base 4:4.3.4
 _ZN8KNetwork10KIpAddress10setAddressEPKc@Base 4:4.3.4
 _ZN8KNetwork10KIpAddress10setAddressEPKvi@Base 4:4.3.4
 _ZN8KNetwork10KIpAddress10setAddressERK7QString@Base 4:4.3.4
 _ZN8KNetwork10KIpAddress11localhostV4E@Base 4:4.3.4
 _ZN8KNetwork10KIpAddress11localhostV6E@Base 4:4.3.4
 _ZN8KNetwork10KIpAddress9anyhostV4E@Base 4:4.3.4
 _ZN8KNetwork10KIpAddress9anyhostV6E@Base 4:4.3.4
 _ZN8KNetwork10KIpAddressaSERKS0_@Base 4:4.3.4
 _ZN8KNetwork11KSocketBase10resetErrorEv@Base 4:4.3.4
 _ZN8KNetwork11KSocketBase10setNoDelayEb@Base 4:4.3.4
 _ZN8KNetwork11KSocketBase11errorStringENS0_11SocketErrorE@Base 4:4.3.4
 _ZN8KNetwork11KSocketBase11setBlockingEb@Base 4:4.3.4
 _ZN8KNetwork11KSocketBase11setIPv6OnlyEb@Base 4:4.3.4
 _ZN8KNetwork11KSocketBase12isFatalErrorEi@Base 4:4.3.4
 _ZN8KNetwork11KSocketBase12setBroadcastEb@Base 4:4.3.4
 _ZN8KNetwork11KSocketBase15setSocketDeviceEPNS_13KSocketDeviceE@Base 4:4.3.4
 _ZN8KNetwork11KSocketBase16setSocketOptionsEi@Base 4:4.3.4
 _ZN8KNetwork11KSocketBase17unsetSocketDeviceEv@Base 4:4.3.4
 _ZN8KNetwork11KSocketBase19setAddressReuseableEb@Base 4:4.3.4
 _ZN8KNetwork11KSocketBase24setRequestedCapabilitiesEii@Base 4:4.3.4
 _ZN8KNetwork11KSocketBase8setErrorENS0_11SocketErrorE@Base 4:4.3.4
 _ZN8KNetwork11KSocketBaseC1Ev@Base 4:4.3.4
 _ZN8KNetwork11KSocketBaseC2Ev@Base 4:4.3.4
 _ZN8KNetwork11KSocketBaseD0Ev@Base 4:4.3.4
 _ZN8KNetwork11KSocketBaseD1Ev@Base 4:4.3.4
 _ZN8KNetwork11KSocketBaseD2Ev@Base 4:4.3.4
 _ZN8KNetwork13KServerSocket10setAddressERK7QString@Base 4:4.3.4
 _ZN8KNetwork13KServerSocket10setAddressERK7QStringS3_@Base 4:4.3.4
 _ZN8KNetwork13KServerSocket10setTimeoutEi@Base 4:4.3.4
 _ZN8KNetwork13KServerSocket11qt_metacallEN11QMetaObject4CallEiPPv@Base 4:4.3.4
 _ZN8KNetwork13KServerSocket11qt_metacastEPKc@Base 4:4.3.4
 _ZN8KNetwork13KServerSocket11readyAcceptEv@Base 4:4.3.4
 _ZN8KNetwork13KServerSocket16setSocketOptionsEi@Base 4:4.3.4
 _ZN8KNetwork13KServerSocket16staticMetaObjectE@Base 4:4.3.4
 _ZN8KNetwork13KServerSocket17setAcceptBufferedEb@Base 4:4.3.4
 _ZN8KNetwork13KServerSocket18lookupFinishedSlotEv@Base 4:4.3.4
 _ZN8KNetwork13KServerSocket20setResolutionEnabledEb@Base 4:4.3.4
 _ZN8KNetwork13KServerSocket4bindERK7QString@Base 4:4.3.4
 _ZN8KNetwork13KServerSocket4bindERK7QStringS3_@Base 4:4.3.4
 _ZN8KNetwork13KServerSocket4bindERKNS_14KResolverEntryE@Base 4:4.3.4
 _ZN8KNetwork13KServerSocket4bindEv@Base 4:4.3.4
 _ZN8KNetwork13KServerSocket5boundERKNS_14KResolverEntryE@Base 4:4.3.4
 _ZN8KNetwork13KServerSocket5closeEv@Base 4:4.3.4
 _ZN8KNetwork13KServerSocket6acceptEv@Base 4:4.3.4
 _ZN8KNetwork13KServerSocket6closedEv@Base 4:4.3.4
 _ZN8KNetwork13KServerSocket6doBindEv@Base 4:4.3.4
 _ZN8KNetwork13KServerSocket6listenEi@Base 4:4.3.4
 _ZN8KNetwork13KServerSocket6lookupEv@Base 4:4.3.4
 _ZN8KNetwork13KServerSocket8doListenEv@Base 4:4.3.4
 _ZN8KNetwork13KServerSocket8gotErrorEi@Base 4:4.3.4
 _ZN8KNetwork13KServerSocket9copyErrorEv@Base 4:4.3.4
 _ZN8KNetwork13KServerSocket9hostFoundEv@Base 4:4.3.4
 _ZN8KNetwork13KServerSocket9setFamilyEi@Base 4:4.3.4
 _ZN8KNetwork13KServerSocketC1EP7QObject@Base 4:4.3.4
 _ZN8KNetwork13KServerSocketC1ERK7QStringP7QObject@Base 4:4.3.4
 _ZN8KNetwork13KServerSocketC1ERK7QStringS3_P7QObject@Base 4:4.3.4
 _ZN8KNetwork13KServerSocketC2EP7QObject@Base 4:4.3.4
 _ZN8KNetwork13KServerSocketC2ERK7QStringP7QObject@Base 4:4.3.4
 _ZN8KNetwork13KServerSocketC2ERK7QStringS3_P7QObject@Base 4:4.3.4
 _ZN8KNetwork13KServerSocketD0Ev@Base 4:4.3.4
 _ZN8KNetwork13KServerSocketD1Ev@Base 4:4.3.4
 _ZN8KNetwork13KServerSocketD2Ev@Base 4:4.3.4
 _ZN8KNetwork13KSocketDevice10addNewImplEPNS_24KSocketDeviceFactoryBaseEi@Base 4:4.3.4
 _ZN8KNetwork13KSocketDevice10disconnectEv@Base 4:4.3.4
 _ZN8KNetwork13KSocketDevice11waitForMoreEiPb@Base 4:4.3.4
 _ZN8KNetwork13KSocketDevice13createDefaultEPNS_11KSocketBaseE@Base 4:4.3.4
 _ZN8KNetwork13KSocketDevice13createDefaultEPNS_11KSocketBaseEi@Base 4:4.3.4
 _ZN8KNetwork13KSocketDevice14setDefaultImplEPNS_24KSocketDeviceFactoryBaseE@Base 4:4.3.4
 _ZN8KNetwork13KSocketDevice16setSocketOptionsEi@Base 4:4.3.4
 _ZN8KNetwork13KSocketDevice4bindERKNS_14KResolverEntryE@Base 4:4.3.4
 _ZN8KNetwork13KSocketDevice4pollEPbS1_S1_iS1_@Base 4:4.3.4
 _ZN8KNetwork13KSocketDevice4pollEiPb@Base 4:4.3.4
 _ZN8KNetwork13KSocketDevice5closeEv@Base 4:4.3.4
 _ZN8KNetwork13KSocketDevice5flushEv@Base 4:4.3.4
 _ZN8KNetwork13KSocketDevice6acceptEv@Base 4:4.3.4
 _ZN8KNetwork13KSocketDevice6createERKNS_14KResolverEntryE@Base 4:4.3.4
 _ZN8KNetwork13KSocketDevice6createEiii@Base 4:4.3.4
 _ZN8KNetwork13KSocketDevice6listenEi@Base 4:4.3.4
 _ZN8KNetwork13KSocketDevice7connectERKNS_14KResolverEntryE6QFlagsIN9QIODevice12OpenModeFlagEE@Base 4:4.3.4
 _ZN8KNetwork13KSocketDevice8peekDataEPcxPNS_14KSocketAddressE@Base 4:4.3.4
 _ZN8KNetwork13KSocketDevice8readDataEPcxPNS_14KSocketAddressE@Base 4:4.3.4
 _ZN8KNetwork13KSocketDevice9writeDataEPKcxPKNS_14KSocketAddressE@Base 4:4.3.4
 _ZN8KNetwork13KSocketDeviceC1EP7QObject@Base 4:4.3.4
 _ZN8KNetwork13KSocketDeviceC1EPKNS_11KSocketBaseEP7QObject@Base 4:4.3.4
 _ZN8KNetwork13KSocketDeviceC1EbPKNS_11KSocketBaseE@Base 4:4.3.4
 _ZN8KNetwork13KSocketDeviceC1Ei6QFlagsIN9QIODevice12OpenModeFlagEE@Base 4:4.3.4
 _ZN8KNetwork13KSocketDeviceC2EP7QObject@Base 4:4.3.4
 _ZN8KNetwork13KSocketDeviceC2EPKNS_11KSocketBaseEP7QObject@Base 4:4.3.4
 _ZN8KNetwork13KSocketDeviceC2EbPKNS_11KSocketBaseE@Base 4:4.3.4
 _ZN8KNetwork13KSocketDeviceC2Ei6QFlagsIN9QIODevice12OpenModeFlagEE@Base 4:4.3.4
 _ZN8KNetwork13KSocketDeviceD0Ev@Base 4:4.3.4
 _ZN8KNetwork13KSocketDeviceD1Ev@Base 4:4.3.4
 _ZN8KNetwork13KSocketDeviceD2Ev@Base 4:4.3.4
 _ZN8KNetwork13KStreamSocket10setTimeoutEi@Base 4:4.3.4
 _ZN8KNetwork13KStreamSocket11qt_metacallEN11QMetaObject4CallEiPPv@Base 4:4.3.4
 _ZN8KNetwork13KStreamSocket11qt_metacastEPKc@Base 4:4.3.4
 _ZN8KNetwork13KStreamSocket11timeoutSlotEv@Base 4:4.3.4
 _ZN8KNetwork13KStreamSocket13hostFoundSlotEv@Base 4:4.3.4
 _ZN8KNetwork13KStreamSocket14bindLocallyForERKNS_14KResolverEntryE@Base 4:4.3.4
 _ZN8KNetwork13KStreamSocket15connectionEventEv@Base 4:4.3.4
 _ZN8KNetwork13KStreamSocket16staticMetaObjectE@Base 4:4.3.4
 _ZN8KNetwork13KStreamSocket19connectionSucceededERKNS_14KResolverEntryE@Base 4:4.3.4
 _ZN8KNetwork13KStreamSocket4bindERK7QStringS3_@Base 4:4.3.4
 _ZN8KNetwork13KStreamSocket4bindERKNS_14KResolverEntryE@Base 4:4.3.4
 _ZN8KNetwork13KStreamSocket7connectERK7QStringS3_6QFlagsIN9QIODevice12OpenModeFlagEE@Base 4:4.3.4
 _ZN8KNetwork13KStreamSocket7connectERKNS_14KResolverEntryE6QFlagsIN9QIODevice12OpenModeFlagEE@Base 4:4.3.4
 _ZN8KNetwork13KStreamSocket8timedOutEv@Base 4:4.3.4
 _ZN8KNetwork13KStreamSocketC1ERK7QStringS3_P7QObject@Base 4:4.3.4
 _ZN8KNetwork13KStreamSocketC2ERK7QStringS3_P7QObject@Base 4:4.3.4
 _ZN8KNetwork13KStreamSocketD0Ev@Base 4:4.3.4
 _ZN8KNetwork13KStreamSocketD1Ev@Base 4:4.3.4
 _ZN8KNetwork13KStreamSocketD2Ev@Base 4:4.3.4
 _ZN8KNetwork14KResolverEntryC1EPK8sockaddrtiiRK7QStringRK10QByteArray@Base 4:4.3.4
 _ZN8KNetwork14KResolverEntryC1ERKNS_14KSocketAddressEiiRK7QStringRK10QByteArray@Base 4:4.3.4
 _ZN8KNetwork14KResolverEntryC1ERKS0_@Base 4:4.3.4
 _ZN8KNetwork14KResolverEntryC1Ev@Base 4:4.3.4
 _ZN8KNetwork14KResolverEntryC2EPK8sockaddrtiiRK7QStringRK10QByteArray@Base 4:4.3.4
 _ZN8KNetwork14KResolverEntryC2ERKNS_14KSocketAddressEiiRK7QStringRK10QByteArray@Base 4:4.3.4
 _ZN8KNetwork14KResolverEntryC2ERKS0_@Base 4:4.3.4
 _ZN8KNetwork14KResolverEntryC2Ev@Base 4:4.3.4
 _ZN8KNetwork14KResolverEntryD1Ev@Base 4:4.3.4
 _ZN8KNetwork14KResolverEntryD2Ev@Base 4:4.3.4
 _ZN8KNetwork14KResolverEntryaSERKS0_@Base 4:4.3.4
 _ZN8KNetwork14KSocketAddress10ianaFamilyEi@Base 4:4.3.4
 _ZN8KNetwork14KSocketAddress10setAddressEPK8sockaddrt@Base 4:4.3.4
 _ZN8KNetwork14KSocketAddress14fromIanaFamilyEi@Base 4:4.3.4
 _ZN8KNetwork14KSocketAddress6asInetEv@Base 4:4.3.4
 _ZN8KNetwork14KSocketAddress6asUnixEv@Base 4:4.3.4
 _ZN8KNetwork14KSocketAddress7addressEv@Base 4:4.3.4
 _ZN8KNetwork14KSocketAddress9setFamilyEi@Base 4:4.3.4
 _ZN8KNetwork14KSocketAddress9setLengthEt@Base 4:4.3.4
 _ZN8KNetwork14KSocketAddressC1EPK8sockaddrt@Base 4:4.3.4
 _ZN8KNetwork14KSocketAddressC1EPNS_18KSocketAddressDataE@Base 4:4.3.4
 _ZN8KNetwork14KSocketAddressC1ERKS0_@Base 4:4.3.4
 _ZN8KNetwork14KSocketAddressC1Ev@Base 4:4.3.4
 _ZN8KNetwork14KSocketAddressC2EPK8sockaddrt@Base 4:4.3.4
 _ZN8KNetwork14KSocketAddressC2EPNS_18KSocketAddressDataE@Base 4:4.3.4
 _ZN8KNetwork14KSocketAddressC2ERKS0_@Base 4:4.3.4
 _ZN8KNetwork14KSocketAddressC2Ev@Base 4:4.3.4
 _ZN8KNetwork14KSocketAddressD0Ev@Base 4:4.3.4
 _ZN8KNetwork14KSocketAddressD1Ev@Base 4:4.3.4
 _ZN8KNetwork14KSocketAddressD2Ev@Base 4:4.3.4
 _ZN8KNetwork14KSocketAddressaSERKS0_@Base 4:4.3.4
 _ZN8KNetwork15KBufferedSocket10enableReadEb@Base 4:4.3.4
 _ZN8KNetwork15KBufferedSocket11enableWriteEb@Base 4:4.3.4
 _ZN8KNetwork15KBufferedSocket11qt_metacallEN11QMetaObject4CallEiPPv@Base 4:4.3.4
 _ZN8KNetwork15KBufferedSocket11qt_metacastEPKc@Base 4:4.3.4
 _ZN8KNetwork15KBufferedSocket11waitForMoreEiPb@Base 4:4.3.4
 _ZN8KNetwork15KBufferedSocket12readLineDataEPcx@Base 4:4.3.4
 _ZN8KNetwork15KBufferedSocket13stateChangingENS_17KClientSocketBase11SocketStateE@Base 4:4.3.4
 _ZN8KNetwork15KBufferedSocket14waitForConnectEv@Base 4:4.3.4
 _ZN8KNetwork15KBufferedSocket15setSocketDeviceEPNS_13KSocketDeviceE@Base 4:4.3.4
 _ZN8KNetwork15KBufferedSocket16setSocketOptionsEi@Base 4:4.3.4
 _ZN8KNetwork15KBufferedSocket16slotReadActivityEv@Base 4:4.3.4
 _ZN8KNetwork15KBufferedSocket16staticMetaObjectE@Base 4:4.3.4
 _ZN8KNetwork15KBufferedSocket17setInputBufferingEb@Base 4:4.3.4
 _ZN8KNetwork15KBufferedSocket17slotWriteActivityEv@Base 4:4.3.4
 _ZN8KNetwork15KBufferedSocket18setOutputBufferingEb@Base 4:4.3.4
 _ZN8KNetwork15KBufferedSocket5closeEv@Base 4:4.3.4
 _ZN8KNetwork15KBufferedSocket8closeNowEv@Base 4:4.3.4
 _ZN8KNetwork15KBufferedSocket8peekDataEPcxPNS_14KSocketAddressE@Base 4:4.3.4
 _ZN8KNetwork15KBufferedSocket8readDataEPcxPNS_14KSocketAddressE@Base 4:4.3.4
 _ZN8KNetwork15KBufferedSocket9writeDataEPKcxPKNS_14KSocketAddressE@Base 4:4.3.4
 _ZN8KNetwork15KBufferedSocketC1ERK7QStringS3_P7QObject@Base 4:4.3.4
 _ZN8KNetwork15KBufferedSocketC2ERK7QStringS3_P7QObject@Base 4:4.3.4
 _ZN8KNetwork15KBufferedSocketD0Ev@Base 4:4.3.4
 _ZN8KNetwork15KBufferedSocketD1Ev@Base 4:4.3.4
 _ZN8KNetwork15KBufferedSocketD2Ev@Base 4:4.3.4
 _ZN8KNetwork15KDatagramSocket11qt_metacallEN11QMetaObject4CallEiPPv@Base 4:4.3.4
 _ZN8KNetwork15KDatagramSocket11qt_metacastEPKc@Base 4:4.3.4
 _ZN8KNetwork15KDatagramSocket12setupSignalsEv@Base 4:4.3.4
 _ZN8KNetwork15KDatagramSocket16staticMetaObjectE@Base 4:4.3.4
 _ZN8KNetwork15KDatagramSocket18lookupFinishedPeerEv@Base 4:4.3.4
 _ZN8KNetwork15KDatagramSocket19lookupFinishedLocalEv@Base 4:4.3.4
 _ZN8KNetwork15KDatagramSocket4bindERK7QStringS3_@Base 4:4.3.4
 _ZN8KNetwork15KDatagramSocket4bindERKNS_14KResolverEntryE@Base 4:4.3.4
 _ZN8KNetwork15KDatagramSocket4sendERKNS_15KDatagramPacketE@Base 4:4.3.4
 _ZN8KNetwork15KDatagramSocket6doBindEv@Base 4:4.3.4
 _ZN8KNetwork15KDatagramSocket7connectERK7QStringS3_6QFlagsIN9QIODevice12OpenModeFlagEE@Base 4:4.3.4
 _ZN8KNetwork15KDatagramSocket7connectERKNS_14KResolverEntryE6QFlagsIN9QIODevice12OpenModeFlagEE@Base 4:4.3.4
 _ZN8KNetwork15KDatagramSocket7receiveEv@Base 4:4.3.4
 _ZN8KNetwork15KDatagramSocket9writeDataEPKcxPKNS_14KSocketAddressE@Base 4:4.3.4
 _ZN8KNetwork15KDatagramSocketC1EP7QObject@Base 4:4.3.4
 _ZN8KNetwork15KDatagramSocketC2EP7QObject@Base 4:4.3.4
 _ZN8KNetwork15KDatagramSocketD0Ev@Base 4:4.3.4
 _ZN8KNetwork15KDatagramSocketD1Ev@Base 4:4.3.4
 _ZN8KNetwork15KDatagramSocketD2Ev@Base 4:4.3.4
 _ZN8KNetwork16KResolverResults10setAddressERK7QStringS3_@Base 4:4.3.4
 _ZN8KNetwork16KResolverResults12virtual_hookEiPv@Base 4:4.3.4
 _ZN8KNetwork16KResolverResults8setErrorEii@Base 4:4.3.4
 _ZN8KNetwork16KResolverResultsC1ERKS0_@Base 4:4.3.4
 _ZN8KNetwork16KResolverResultsC1Ev@Base 4:4.3.4
 _ZN8KNetwork16KResolverResultsC2ERKS0_@Base 4:4.3.4
 _ZN8KNetwork16KResolverResultsC2Ev@Base 4:4.3.4
 _ZN8KNetwork16KResolverResultsD0Ev@Base 4:4.3.4
 _ZN8KNetwork16KResolverResultsD1Ev@Base 4:4.3.4
 _ZN8KNetwork16KResolverResultsD2Ev@Base 4:4.3.4
 _ZN8KNetwork16KResolverResultsaSERKS0_@Base 4:4.3.4
 _ZN8KNetwork16KReverseResolver11qt_metacallEN11QMetaObject4CallEiPPv@Base 4:4.3.4
 _ZN8KNetwork16KReverseResolver11qt_metacastEPKc@Base 4:4.3.4
 _ZN8KNetwork16KReverseResolver16staticMetaObjectE@Base 4:4.3.4
 _ZN8KNetwork16KReverseResolver5eventEP6QEvent@Base 4:4.3.4
 _ZN8KNetwork16KReverseResolver5startEv@Base 4:4.3.4
 _ZN8KNetwork16KReverseResolver7resolveEPK8sockaddrtR7QStringS5_i@Base 4:4.3.4
 _ZN8KNetwork16KReverseResolver7resolveERKNS_14KSocketAddressER7QStringS5_i@Base 4:4.3.4
 _ZN8KNetwork16KReverseResolver8finishedERKS0_@Base 4:4.3.4
 _ZN8KNetwork16KReverseResolverC1ERKNS_14KSocketAddressEiP7QObject@Base 4:4.3.4
 _ZN8KNetwork16KReverseResolverC2ERKNS_14KSocketAddressEiP7QObject@Base 4:4.3.4
 _ZN8KNetwork16KReverseResolverD0Ev@Base 4:4.3.4
 _ZN8KNetwork16KReverseResolverD1Ev@Base 4:4.3.4
 _ZN8KNetwork16KReverseResolverD2Ev@Base 4:4.3.4
 _ZN8KNetwork17KActiveSocketBase10resetErrorEv@Base 4:4.3.4
 _ZN8KNetwork17KActiveSocketBase11qt_metacallEN11QMetaObject4CallEiPPv@Base 4:4.3.4
 _ZN8KNetwork17KActiveSocketBase11qt_metacastEPKc@Base 4:4.3.4
 _ZN8KNetwork17KActiveSocketBase15setSocketDeviceEPNS_13KSocketDeviceE@Base 4:4.3.4
 _ZN8KNetwork17KActiveSocketBase16staticMetaObjectE@Base 4:4.3.4
 _ZN8KNetwork17KActiveSocketBase4openE6QFlagsIN9QIODevice12OpenModeFlagEE@Base 4:4.3.4
 _ZN8KNetwork17KActiveSocketBase4peekEPcx@Base 4:4.3.4
 _ZN8KNetwork17KActiveSocketBase4peekEPcxRNS_14KSocketAddressE@Base 4:4.3.4
 _ZN8KNetwork17KActiveSocketBase4readEPcx@Base 4:4.3.4
 _ZN8KNetwork17KActiveSocketBase4readEPcxRNS_14KSocketAddressE@Base 4:4.3.4
 _ZN8KNetwork17KActiveSocketBase4readEx@Base 4:4.3.4
 _ZN8KNetwork17KActiveSocketBase4seekEx@Base 4:4.3.4
 _ZN8KNetwork17KActiveSocketBase5writeEPKcx@Base 4:4.3.4
 _ZN8KNetwork17KActiveSocketBase5writeEPKcxRKNS_14KSocketAddressE@Base 4:4.3.4
 _ZN8KNetwork17KActiveSocketBase5writeERK10QByteArray@Base 4:4.3.4
 _ZN8KNetwork17KActiveSocketBase8readDataEPcx@Base 4:4.3.4
 _ZN8KNetwork17KActiveSocketBase8setErrorENS_11KSocketBase11SocketErrorE@Base 4:4.3.4
 _ZN8KNetwork17KActiveSocketBase9ungetCharEc@Base 4:4.3.4
 _ZN8KNetwork17KActiveSocketBase9writeDataEPKcx@Base 4:4.3.4
 _ZN8KNetwork17KActiveSocketBaseC1EP7QObject@Base 4:4.3.4
 _ZN8KNetwork17KActiveSocketBaseC2EP7QObject@Base 4:4.3.4
 _ZN8KNetwork17KActiveSocketBaseD0Ev@Base 4:4.3.4
 _ZN8KNetwork17KActiveSocketBaseD1Ev@Base 4:4.3.4
 _ZN8KNetwork17KActiveSocketBaseD2Ev@Base 4:4.3.4
 _ZN8KNetwork17KClientSocketBase10disconnectEv@Base 4:4.3.4
 _ZN8KNetwork17KClientSocketBase10enableReadEb@Base 4:4.3.4
 _ZN8KNetwork17KClientSocketBase10readyWriteEv@Base 4:4.3.4
 _ZN8KNetwork17KClientSocketBase11enableWriteEb@Base 4:4.3.4
 _ZN8KNetwork17KClientSocketBase11qt_metacallEN11QMetaObject4CallEiPPv@Base 4:4.3.4
 _ZN8KNetwork17KClientSocketBase11qt_metacastEPKc@Base 4:4.3.4
 _ZN8KNetwork17KClientSocketBase11waitForMoreEiPb@Base 4:4.3.4
 _ZN8KNetwork17KClientSocketBase12stateChangedEi@Base 4:4.3.4
 _ZN8KNetwork17KClientSocketBase13stateChangingENS0_11SocketStateE@Base 4:4.3.4
 _ZN8KNetwork17KClientSocketBase14aboutToConnectERKNS_14KResolverEntryERb@Base 4:4.3.4
 _ZN8KNetwork17KClientSocketBase16setSocketOptionsEi@Base 4:4.3.4
 _ZN8KNetwork17KClientSocketBase16slotReadActivityEv@Base 4:4.3.4
 _ZN8KNetwork17KClientSocketBase16staticMetaObjectE@Base 4:4.3.4
 _ZN8KNetwork17KClientSocketBase17slotWriteActivityEv@Base 4:4.3.4
 _ZN8KNetwork17KClientSocketBase18lookupFinishedSlotEv@Base 4:4.3.4
 _ZN8KNetwork17KClientSocketBase20setResolutionEnabledEb@Base 4:4.3.4
 _ZN8KNetwork17KClientSocketBase4bindERKNS_14KResolverEntryE@Base 4:4.3.4
 _ZN8KNetwork17KClientSocketBase4openE6QFlagsIN9QIODevice12OpenModeFlagEE@Base 4:4.3.4
 _ZN8KNetwork17KClientSocketBase5boundERKNS_14KResolverEntryE@Base 4:4.3.4
 _ZN8KNetwork17KClientSocketBase5closeEv@Base 4:4.3.4
 _ZN8KNetwork17KClientSocketBase5flushEv@Base 4:4.3.4
 _ZN8KNetwork17KClientSocketBase6closedEv@Base 4:4.3.4
 _ZN8KNetwork17KClientSocketBase6lookupEv@Base 4:4.3.4
 _ZN8KNetwork17KClientSocketBase7connectERKNS_14KResolverEntryE6QFlagsIN9QIODevice12OpenModeFlagEE@Base 4:4.3.4
 _ZN8KNetwork17KClientSocketBase8gotErrorEi@Base 4:4.3.4
 _ZN8KNetwork17KClientSocketBase8peekDataEPcxPNS_14KSocketAddressE@Base 4:4.3.4
 _ZN8KNetwork17KClientSocketBase8readDataEPcxPNS_14KSocketAddressE@Base 4:4.3.4
 _ZN8KNetwork17KClientSocketBase8setStateENS0_11SocketStateE@Base 4:4.3.4
 _ZN8KNetwork17KClientSocketBase9connectedERKNS_14KResolverEntryE@Base 4:4.3.4
 _ZN8KNetwork17KClientSocketBase9copyErrorEv@Base 4:4.3.4
 _ZN8KNetwork17KClientSocketBase9hostFoundEv@Base 4:4.3.4
 _ZN8KNetwork17KClientSocketBase9setFamilyEi@Base 4:4.3.4
 _ZN8KNetwork17KClientSocketBase9writeDataEPKcxPKNS_14KSocketAddressE@Base 4:4.3.4
 _ZN8KNetwork17KClientSocketBaseC1EP7QObject@Base 4:4.3.4
 _ZN8KNetwork17KClientSocketBaseC2EP7QObject@Base 4:4.3.4
 _ZN8KNetwork17KClientSocketBaseD0Ev@Base 4:4.3.4
 _ZN8KNetwork17KClientSocketBaseD1Ev@Base 4:4.3.4
 _ZN8KNetwork17KClientSocketBaseD2Ev@Base 4:4.3.4
 _ZN8KNetwork18KInetSocketAddress10setScopeIdEi@Base 4:4.3.4
 _ZN8KNetwork18KInetSocketAddress11setFlowinfoEj@Base 4:4.3.4
 _ZN8KNetwork18KInetSocketAddress6updateEv@Base 4:4.3.4
 _ZN8KNetwork18KInetSocketAddress7setHostERKNS_10KIpAddressE@Base 4:4.3.4
 _ZN8KNetwork18KInetSocketAddress7setPortEt@Base 4:4.3.4
 _ZN8KNetwork18KInetSocketAddress8makeIPv4Ev@Base 4:4.3.4
 _ZN8KNetwork18KInetSocketAddress8makeIPv6Ev@Base 4:4.3.4
 _ZN8KNetwork18KInetSocketAddressC1EPK8sockaddrt@Base 4:4.3.4
 _ZN8KNetwork18KInetSocketAddressC1EPNS_18KSocketAddressDataE@Base 4:4.3.4
 _ZN8KNetwork18KInetSocketAddressC1ERKNS_10KIpAddressEt@Base 4:4.3.4
 _ZN8KNetwork18KInetSocketAddressC1ERKNS_14KSocketAddressE@Base 4:4.3.4
 _ZN8KNetwork18KInetSocketAddressC1ERKS0_@Base 4:4.3.4
 _ZN8KNetwork18KInetSocketAddressC1Ev@Base 4:4.3.4
 _ZN8KNetwork18KInetSocketAddressC2EPK8sockaddrt@Base 4:4.3.4
 _ZN8KNetwork18KInetSocketAddressC2EPNS_18KSocketAddressDataE@Base 4:4.3.4
 _ZN8KNetwork18KInetSocketAddressC2ERKNS_10KIpAddressEt@Base 4:4.3.4
 _ZN8KNetwork18KInetSocketAddressC2ERKNS_14KSocketAddressE@Base 4:4.3.4
 _ZN8KNetwork18KInetSocketAddressC2ERKS0_@Base 4:4.3.4
 _ZN8KNetwork18KInetSocketAddressC2Ev@Base 4:4.3.4
 _ZN8KNetwork18KInetSocketAddressD0Ev@Base 4:4.3.4
 _ZN8KNetwork18KInetSocketAddressD1Ev@Base 4:4.3.4
 _ZN8KNetwork18KInetSocketAddressD2Ev@Base 4:4.3.4
 _ZN8KNetwork18KInetSocketAddressaSERKS0_@Base 4:4.3.4
 _ZN8KNetwork18KPassiveSocketBaseC1Ev@Base 4:4.3.4
 _ZN8KNetwork18KPassiveSocketBaseC2Ev@Base 4:4.3.4
 _ZN8KNetwork18KPassiveSocketBaseD0Ev@Base 4:4.3.4
 _ZN8KNetwork18KPassiveSocketBaseD1Ev@Base 4:4.3.4
 _ZN8KNetwork18KPassiveSocketBaseD2Ev@Base 4:4.3.4
 _ZN8KNetwork18KSocksSocketDevice10writeBlockEPKcy@Base 4:4.3.4
 _ZN8KNetwork18KSocksSocketDevice10writeBlockEPKcyRKNS_14KSocketAddressE@Base 4:4.3.4
 _ZN8KNetwork18KSocksSocketDevice4bindERKNS_14KResolverEntryE@Base 4:4.3.4
 _ZN8KNetwork18KSocksSocketDevice4pollEPbS1_S1_iS1_@Base 4:4.3.4
 _ZN8KNetwork18KSocksSocketDevice6acceptEv@Base 4:4.3.4
 _ZN8KNetwork18KSocksSocketDevice6listenEi@Base 4:4.3.4
 _ZN8KNetwork18KSocksSocketDevice7connectERKNS_14KResolverEntryE@Base 4:4.3.4
 _ZN8KNetwork18KSocksSocketDevice9initSocksEv@Base 4:4.3.4
 _ZN8KNetwork18KSocksSocketDevice9peekBlockEPcy@Base 4:4.3.4
 _ZN8KNetwork18KSocksSocketDevice9peekBlockEPcyRNS_14KSocketAddressE@Base 4:4.3.4
 _ZN8KNetwork18KSocksSocketDevice9readBlockEPcy@Base 4:4.3.4
 _ZN8KNetwork18KSocksSocketDevice9readBlockEPcyRNS_14KSocketAddressE@Base 4:4.3.4
 _ZN8KNetwork18KSocksSocketDeviceC1EPKNS_11KSocketBaseE@Base 4:4.3.4
 _ZN8KNetwork18KSocksSocketDeviceC1Ei@Base 4:4.3.4
 _ZN8KNetwork18KSocksSocketDeviceC2EPKNS_11KSocketBaseE@Base 4:4.3.4
 _ZN8KNetwork18KSocksSocketDeviceC2Ei@Base 4:4.3.4
 _ZN8KNetwork18KSocksSocketDeviceD0Ev@Base 4:4.3.4
 _ZN8KNetwork18KSocksSocketDeviceD1Ev@Base 4:4.3.4
 _ZN8KNetwork18KSocksSocketDeviceD2Ev@Base 4:4.3.4
 _ZN8KNetwork18KUnixSocketAddress11setPathnameERK7QString@Base 4:4.3.4
 _ZN8KNetwork18KUnixSocketAddressC1EPK8sockaddrt@Base 4:4.3.4
 _ZN8KNetwork18KUnixSocketAddressC1EPNS_18KSocketAddressDataE@Base 4:4.3.4
 _ZN8KNetwork18KUnixSocketAddressC1ERK7QString@Base 4:4.3.4
 _ZN8KNetwork18KUnixSocketAddressC1ERKS0_@Base 4:4.3.4
 _ZN8KNetwork18KUnixSocketAddressC1Ev@Base 4:4.3.4
 _ZN8KNetwork18KUnixSocketAddressC2EPK8sockaddrt@Base 4:4.3.4
 _ZN8KNetwork18KUnixSocketAddressC2EPNS_18KSocketAddressDataE@Base 4:4.3.4
 _ZN8KNetwork18KUnixSocketAddressC2ERK7QString@Base 4:4.3.4
 _ZN8KNetwork18KUnixSocketAddressC2ERKS0_@Base 4:4.3.4
 _ZN8KNetwork18KUnixSocketAddressC2Ev@Base 4:4.3.4
 _ZN8KNetwork18KUnixSocketAddressD0Ev@Base 4:4.3.4
 _ZN8KNetwork18KUnixSocketAddressD1Ev@Base 4:4.3.4
 _ZN8KNetwork18KUnixSocketAddressD2Ev@Base 4:4.3.4
 _ZN8KNetwork18KUnixSocketAddressaSERKS0_@Base 4:4.3.4
 _ZN8KNetwork22KHttpProxySocketDevice12defaultProxyE@Base 4:4.3.4
 _ZN8KNetwork22KHttpProxySocketDevice14setProxyServerERKNS_14KResolverEntryE@Base 4:4.3.4
 _ZN8KNetwork22KHttpProxySocketDevice16parseServerReplyEv@Base 4:4.3.4
 _ZN8KNetwork22KHttpProxySocketDevice5closeEv@Base 4:4.3.4
 _ZN8KNetwork22KHttpProxySocketDevice7connectERK7QStringS3_@Base 4:4.3.4
 _ZN8KNetwork22KHttpProxySocketDevice7connectERKNS_14KResolverEntryE@Base 4:4.3.4
 _ZN8KNetwork22KHttpProxySocketDeviceC1EPKNS_11KSocketBaseE@Base 4:4.3.4
 _ZN8KNetwork22KHttpProxySocketDeviceC1ERKNS_14KResolverEntryE@Base 4:4.3.4
 _ZN8KNetwork22KHttpProxySocketDeviceC2EPKNS_11KSocketBaseE@Base 4:4.3.4
 _ZN8KNetwork22KHttpProxySocketDeviceC2ERKNS_14KResolverEntryE@Base 4:4.3.4
 _ZN8KNetwork22KHttpProxySocketDeviceD0Ev@Base 4:4.3.4
 _ZN8KNetwork22KHttpProxySocketDeviceD1Ev@Base 4:4.3.4
 _ZN8KNetwork22KHttpProxySocketDeviceD2Ev@Base 4:4.3.4
 _ZN8KNetwork9KResolver10setAddressERK7QStringS3_@Base 4:4.3.4
 _ZN8KNetwork9KResolver11errorStringEii@Base 4:4.3.4
 _ZN8KNetwork9KResolver11qt_metacallEN11QMetaObject4CallEiPPv@Base 4:4.3.4
 _ZN8KNetwork9KResolver11qt_metacastEPKc@Base 4:4.3.4
 _ZN8KNetwork9KResolver11serviceNameEPKcS2_@Base 4:4.3.4
 _ZN8KNetwork9KResolver11serviceNameEiPKc@Base 4:4.3.4
 _ZN8KNetwork9KResolver11servicePortEPKcS2_@Base 4:4.3.4
 _ZN8KNetwork9KResolver11setNodeNameERK7QString@Base 4:4.3.4
 _ZN8KNetwork9KResolver11setProtocolEiPKc@Base 4:4.3.4
 _ZN8KNetwork9KResolver12emitFinishedEv@Base 4:4.3.4
 _ZN8KNetwork9KResolver12protocolNameEPKc@Base 4:4.3.4
 _ZN8KNetwork9KResolver12protocolNameEi@Base 4:4.3.4
 _ZN8KNetwork9KResolver12resolveAsyncEP7QObjectPKcRK7QStringS7_ii@Base 4:4.3.4
 _ZN8KNetwork9KResolver12virtual_hookEiPv@Base 4:4.3.4
 _ZN8KNetwork9KResolver13domainToAsciiERK7QString@Base 4:4.3.4
 _ZN8KNetwork9KResolver13localHostNameEv@Base 4:4.3.4
 _ZN8KNetwork9KResolver13setSocketTypeEi@Base 4:4.3.4
 _ZN8KNetwork9KResolver14protocolNumberEPKc@Base 4:4.3.4
 _ZN8KNetwork9KResolver14setServiceNameERK7QString@Base 4:4.3.4
 _ZN8KNetwork9KResolver15domainToUnicodeERK10QByteArray@Base 4:4.3.4
 _ZN8KNetwork9KResolver15domainToUnicodeERK7QString@Base 4:4.3.4
 _ZN8KNetwork9KResolver15normalizeDomainERK7QString@Base 4:4.3.4
 _ZN8KNetwork9KResolver16staticMetaObjectE@Base 4:4.3.4
 _ZN8KNetwork9KResolver4waitEi@Base 4:4.3.4
 _ZN8KNetwork9KResolver5eventEP6QEvent@Base 4:4.3.4
 _ZN8KNetwork9KResolver5startEv@Base 4:4.3.4
 _ZN8KNetwork9KResolver6cancelEb@Base 4:4.3.4
 _ZN8KNetwork9KResolver7resolveERK7QStringS3_ii@Base 4:4.3.4
 _ZN8KNetwork9KResolver8finishedERKNS_16KResolverResultsE@Base 4:4.3.4
 _ZN8KNetwork9KResolver8setFlagsEi@Base 4:4.3.4
 _ZN8KNetwork9KResolver9setFamilyEi@Base 4:4.3.4
 _ZN8KNetwork9KResolverC1EP7QObject@Base 4:4.3.4
 _ZN8KNetwork9KResolverC1ERK7QStringS3_P7QObject@Base 4:4.3.4
 _ZN8KNetwork9KResolverC2EP7QObject@Base 4:4.3.4
 _ZN8KNetwork9KResolverC2ERK7QStringS3_P7QObject@Base 4:4.3.4
 _ZN8KNetwork9KResolverD0Ev@Base 4:4.3.4
 _ZN8KNetwork9KResolverD1Ev@Base 4:4.3.4
 _ZN8KNetwork9KResolverD2Ev@Base 4:4.3.4
 _ZN8KProcess10setProgramERK11QStringList@Base 4:4.3.4
 _ZN8KProcess10setProgramERK7QStringRK11QStringList@Base 4:4.3.4
 _ZN8KProcess11qt_metacallEN11QMetaObject4CallEiPPv@Base 4:4.3.4
 _ZN8KProcess11qt_metacastEPKc@Base 4:4.3.4
 _ZN8KProcess12clearProgramEv@Base 4:4.3.4
 _ZN8KProcess13startDetachedERK11QStringList@Base 4:4.3.4
 _ZN8KProcess13startDetachedERK7QStringRK11QStringList@Base 4:4.3.4
 _ZN8KProcess13startDetachedEv@Base 4:4.3.4
 _ZN8KProcess15setNextOpenModeE6QFlagsIN9QIODevice12OpenModeFlagEE@Base 4:4.3.4
 _ZN8KProcess15setShellCommandERK7QString@Base 4:4.3.4
 _ZN8KProcess16clearEnvironmentEv@Base 4:4.3.4
 _ZN8KProcess16staticMetaObjectE@Base 4:4.3.4
 _ZN8KProcess20setOutputChannelModeENS_17OutputChannelModeE@Base 4:4.3.4
 _ZN8KProcess5startEv@Base 4:4.3.4
 _ZN8KProcess6setEnvERK7QStringS2_b@Base 4:4.3.4
 _ZN8KProcess7executeERK11QStringListi@Base 4:4.3.4
 _ZN8KProcess7executeERK7QStringRK11QStringListi@Base 4:4.3.4
 _ZN8KProcess7executeEi@Base 4:4.3.4
 _ZN8KProcess8unsetEnvERK7QString@Base 4:4.3.4
 _ZN8KProcessC1EP15KProcessPrivateP7QObject@Base 4:4.3.4
 _ZN8KProcessC1EP7QObject@Base 4:4.3.4
 _ZN8KProcessC2EP15KProcessPrivateP7QObject@Base 4:4.3.4
 _ZN8KProcessC2EP7QObject@Base 4:4.3.4
 _ZN8KProcessD0Ev@Base 4:4.3.4
 _ZN8KProcessD1Ev@Base 4:4.3.4
 _ZN8KProcessD2Ev@Base 4:4.3.4
 _ZN8KProcesslsERK11QStringList@Base 4:4.3.4
 _ZN8KProcesslsERK7QString@Base 4:4.3.4
 _ZN8KService11allServicesEv@Base 4:4.3.4
 _ZN8KService11setTerminalEb@Base 4:4.3.4
 _ZN8KService13serviceByNameERK7QString@Base 4:4.3.4
 _ZN8KService14newServicePathEbRK7QStringPS0_PK11QStringList@Base 4:4.3.4
 _ZN8KService15serviceByMenuIdERK7QString@Base 4:4.3.4
 _ZN8KService18serviceByStorageIdERK7QString@Base 4:4.3.4
 _ZN8KService18setTerminalOptionsERK7QString@Base 4:4.3.4
 _ZN8KService20serviceByDesktopNameERK7QString@Base 4:4.3.4
 _ZN8KService20serviceByDesktopPathERK7QString@Base 4:4.3.4
 _ZN8KService21_k_accessServiceTypesEv@Base 4:4.3.4
 _ZN8KService9setMenuIdERK7QString@Base 4:4.3.4
 _ZN8KServiceC1EPK12KDesktopFile@Base 4:4.3.4
 _ZN8KServiceC1ER11QDataStreami@Base 4:4.3.4
 _ZN8KServiceC1ERK7QString@Base 4:4.3.4
 _ZN8KServiceC1ERK7QStringS2_S2_@Base 4:4.3.4
 _ZN8KServiceC2EPK12KDesktopFile@Base 4:4.3.4
 _ZN8KServiceC2ER11QDataStreami@Base 4:4.3.4
 _ZN8KServiceC2ERK7QString@Base 4:4.3.4
 _ZN8KServiceC2ERK7QStringS2_S2_@Base 4:4.3.4
 _ZN8KServiceD0Ev@Base 4:4.3.4
 _ZN8KServiceD1Ev@Base 4:4.3.4
 _ZN8KServiceD2Ev@Base 4:4.3.4
 _ZN8KTempDir13setAutoRemoveEb@Base 4:4.3.4
 _ZN8KTempDir6createERK7QStringi@Base 4:4.3.4
 _ZN8KTempDir6unlinkEv@Base 4:4.3.4
 _ZN8KTempDir9removeDirERK7QString@Base 4:4.3.4
 _ZN8KTempDirC1ERK7QStringi@Base 4:4.3.4
 _ZN8KTempDirC2ERK7QStringi@Base 4:4.3.4
 _ZN8KTempDirD1Ev@Base 4:4.3.4
 _ZN8KTempDirD2Ev@Base 4:4.3.4
 _ZN9KCharsets10fromEntityERK7QString@Base 4:4.3.4
 _ZN9KCharsets10fromEntityERK7QStringRi@Base 4:4.3.4
 _ZN9KCharsets15resolveEntitiesERK7QString@Base 4:4.3.4
 _ZN9KCharsets8toEntityERK5QChar@Base 4:4.3.4
 _ZN9KCharsetsC1Ev@Base 4:4.3.4
 _ZN9KCharsetsC2Ev@Base 4:4.3.4
 _ZN9KCharsetsD0Ev@Base 4:4.3.4
 _ZN9KCharsetsD1Ev@Base 4:4.3.4
 _ZN9KCharsetsD2Ev@Base 4:4.3.4
 _ZN9KDateTime10fromStringERK7QStringNS_10TimeFormatEPb@Base 4:4.3.4
 _ZN9KDateTime10fromStringERK7QStringS2_PK10KTimeZonesb@Base 4:4.3.4
 _ZN9KDateTime11setDateOnlyEb@Base 4:4.3.4
 _ZN9KDateTime11setDateTimeERK9QDateTime@Base 4:4.3.4
 _ZN9KDateTime11setTimeSpecERKNS_4SpecE@Base 4:4.3.4
 _ZN9KDateTime15currentDateTimeERKNS_4SpecE@Base 4:4.3.4
 _ZN9KDateTime16currentLocalDateEv@Base 4:4.3.4
 _ZN9KDateTime16currentLocalTimeEv@Base 4:4.3.4
 _ZN9KDateTime18currentUtcDateTimeEv@Base 4:4.3.4
 _ZN9KDateTime19setSecondOccurrenceEb@Base 4:4.3.4
 _ZN9KDateTime20currentLocalDateTimeEv@Base 4:4.3.4
 _ZN9KDateTime20setFromStringDefaultERKNS_4SpecE@Base 4:4.3.4
 _ZN9KDateTime22setSimulatedSystemTimeERKS_@Base 4:4.3.4
 _ZN9KDateTime24realCurrentLocalDateTimeEv@Base 4:4.3.4
 _ZN9KDateTime4Spec13OffsetFromUTCEi@Base 4:4.3.4
 _ZN9KDateTime4Spec3UTCEv@Base 4:4.3.4
 _ZN9KDateTime4Spec7setTypeENS_8SpecTypeEi@Base 4:4.3.4
 _ZN9KDateTime4Spec7setTypeERK9KTimeZone@Base 4:4.3.4
 _ZN9KDateTime4Spec9ClockTimeEv@Base 4:4.3.4
 _ZN9KDateTime4Spec9LocalZoneEv@Base 4:4.3.4
 _ZN9KDateTime4SpecC1ENS_8SpecTypeEi@Base 4:4.3.4
 _ZN9KDateTime4SpecC1ERK9KTimeZone@Base 4:4.3.4
 _ZN9KDateTime4SpecC1ERKS0_@Base 4:4.3.4
 _ZN9KDateTime4SpecC1Ev@Base 4:4.3.4
 _ZN9KDateTime4SpecC2ENS_8SpecTypeEi@Base 4:4.3.4
 _ZN9KDateTime4SpecC2ERK9KTimeZone@Base 4:4.3.4
 _ZN9KDateTime4SpecC2ERKS0_@Base 4:4.3.4
 _ZN9KDateTime4SpecC2Ev@Base 4:4.3.4
 _ZN9KDateTime4SpecD1Ev@Base 4:4.3.4
 _ZN9KDateTime4SpecD2Ev@Base 4:4.3.4
 _ZN9KDateTime4SpecaSERKS0_@Base 4:4.3.4
 _ZN9KDateTime6detachEv@Base 4:4.3.4
 _ZN9KDateTime7setDateERK5QDate@Base 4:4.3.4
 _ZN9KDateTime7setTimeERK5QTime@Base 4:4.3.4
 _ZN9KDateTime9setTime_tEx@Base 4:4.3.4
 _ZN9KDateTimeC1ERK5QDateRK5QTimeRKNS_4SpecE@Base 4:4.3.4
 _ZN9KDateTimeC1ERK5QDateRKNS_4SpecE@Base 4:4.3.4
 _ZN9KDateTimeC1ERK9QDateTime@Base 4:4.3.4
 _ZN9KDateTimeC1ERK9QDateTimeRKNS_4SpecE@Base 4:4.3.4
 _ZN9KDateTimeC1ERKS_@Base 4:4.3.4
 _ZN9KDateTimeC1Ev@Base 4:4.3.4
 _ZN9KDateTimeC2ERK5QDateRK5QTimeRKNS_4SpecE@Base 4:4.3.4
 _ZN9KDateTimeC2ERK5QDateRKNS_4SpecE@Base 4:4.3.4
 _ZN9KDateTimeC2ERK9QDateTime@Base 4:4.3.4
 _ZN9KDateTimeC2ERK9QDateTimeRKNS_4SpecE@Base 4:4.3.4
 _ZN9KDateTimeC2ERKS_@Base 4:4.3.4
 _ZN9KDateTimeC2Ev@Base 4:4.3.4
 _ZN9KDateTimeD1Ev@Base 4:4.3.4
 _ZN9KDateTimeD2Ev@Base 4:4.3.4
 _ZN9KDateTimeaSERKS_@Base 4:4.3.4
 _ZN9KDirWatch10removeFileERK7QString@Base 4:4.4.95
 _ZN9KDirWatch10setCreatedERK7QString@Base 4:4.4.95
 _ZN9KDirWatch10setDeletedERK7QString@Base 4:4.4.95
 _ZN9KDirWatch10statisticsEv@Base 4:4.4.95
 _ZN9KDirWatch11qt_metacallEN11QMetaObject4CallEiPPv@Base 4:4.4.95
 _ZN9KDirWatch11qt_metacastEPKc@Base 4:4.4.95
 _ZN9KDirWatch11stopDirScanERK7QString@Base 4:4.4.95
 _ZN9KDirWatch14internalMethodEv@Base 4:4.4.95
 _ZN9KDirWatch14restartDirScanERK7QString@Base 4:4.4.95
 _ZN9KDirWatch16deleteQFSWatcherEv@Base 4:4.7.0
 _ZN9KDirWatch16staticMetaObjectE@Base 4:4.4.95
 _ZN9KDirWatch4selfEv@Base 4:4.4.95
 _ZN9KDirWatch5dirtyERK7QString@Base 4:4.4.95
 _ZN9KDirWatch6addDirERK7QString6QFlagsINS_9WatchModeEE@Base 4:4.4.95
 _ZN9KDirWatch6existsEv@Base 4:4.4.95
 _ZN9KDirWatch7addFileERK7QString@Base 4:4.4.95
 _ZN9KDirWatch7createdERK7QString@Base 4:4.4.95
 _ZN9KDirWatch7deletedERK7QString@Base 4:4.4.95
 _ZN9KDirWatch8setDirtyERK7QString@Base 4:4.4.95
 _ZN9KDirWatch8stopScanEv@Base 4:4.4.95
 _ZN9KDirWatch9isStoppedEv@Base 4:4.4.95
 _ZN9KDirWatch9removeDirERK7QString@Base 4:4.4.95
 _ZN9KDirWatch9startScanEbb@Base 4:4.4.95
 _ZN9KDirWatchC1EP7QObject@Base 4:4.4.95
 _ZN9KDirWatchC2EP7QObject@Base 4:4.4.95
 _ZN9KDirWatchD0Ev@Base 4:4.4.95
 _ZN9KDirWatchD1Ev@Base 4:4.4.95
 _ZN9KDirWatchD2Ev@Base 4:4.4.95
 _ZN9KLockFile11getLockInfoERiR7QStringS2_@Base 4:4.3.4
 _ZN9KLockFile12setStaleTimeEi@Base 4:4.3.4
 _ZN9KLockFile4lockE6QFlagsINS_8LockFlagEE@Base 4:4.3.4
 _ZN9KLockFile6unlockEv@Base 4:4.3.4
 _ZN9KLockFile7Private12readLockFileEv@Base 4:4.7.1
 _ZN9KLockFile7Private13lockFileOExclER4stat@Base 4:4.7.1
 _ZN9KLockFile7Private15deleteStaleLockEv@Base 4:4.7.1
 _ZN9KLockFile7Private16lockFileWithLinkER4stat@Base 4:4.7.1
 _ZN9KLockFile7Private17writeIntoLockFileER5QFileRK14KComponentData@Base 4:4.7.1
 _ZN9KLockFile7Private23deleteStaleLockWithLinkEv@Base 4:4.7.1
 _ZN9KLockFile7Private8lockFileER4stat@Base 4:4.7.1
 _ZN9KLockFileC1ERK7QStringRK14KComponentData@Base 4:4.3.4
 _ZN9KLockFileC2ERK7QStringRK14KComponentData@Base 4:4.3.4
 _ZN9KLockFileD1Ev@Base 4:4.3.4
 _ZN9KLockFileD2Ev@Base 4:4.3.4
 _ZN9KMimeType10findByPathERK7QStringjbPi@Base 4:4.3.4
 _ZN9KMimeType12allMimeTypesEv@Base 4:4.3.4
 _ZN9KMimeType12isBinaryDataERK7QString@Base 4:4.3.4
 _ZN9KMimeType13favIconForUrlERK4KUrl@Base 4:4.3.4
 _ZN9KMimeType13findByContentEP9QIODevicePi@Base 4:4.4.0
 _ZN9KMimeType13findByContentERK10QByteArrayPi@Base 4:4.3.4
 _ZN9KMimeType13matchFileNameERK7QStringS2_@Base 4:4.6.1
 _ZN9KMimeType14iconNameForUrlERK4KUrlj@Base 4:4.3.4
 _ZN9KMimeType15defaultMimeTypeEv@Base 4:4.3.4
 _ZN9KMimeType15findByUrlHelperERK4KUrljbP9QIODevicePi@Base 4:4.3.4
 _ZN9KMimeType17findByFileContentERK7QStringPi@Base 4:4.3.4
 _ZN9KMimeType18defaultMimeTypePtrEv@Base 4:4.3.4
 _ZN9KMimeType18isBufferBinaryDataERK10QByteArray@Base 4:4.3.4
 _ZN9KMimeType20findByNameAndContentERK7QStringP9QIODevicejPi@Base 4:4.4.2
 _ZN9KMimeType20findByNameAndContentERK7QStringRK10QByteArrayjPi@Base 4:4.3.4
 _ZN9KMimeType21extractKnownExtensionERK7QString@Base 4:4.3.4
 _ZN9KMimeType21sharedMimeInfoVersionEv@Base 4:4.3.4
 _ZN9KMimeType23checkEssentialMimeTypesEv@Base 4:4.3.4
 _ZN9KMimeType8mimeTypeERK7QStringNS_16FindByNameOptionE@Base 4:4.3.4
 _ZN9KMimeType9findByUrlERK4KUrljbbPi@Base 4:4.3.4
 _ZN9KMimeTypeC1ER11QDataStreami@Base 4:4.3.4
 _ZN9KMimeTypeC1ER16KMimeTypePrivate@Base 4:4.3.4
 _ZN9KMimeTypeC1ER16KMimeTypePrivateRK7QStringS4_@Base 4:4.3.4
 _ZN9KMimeTypeC1ERK7QStringS2_S2_@Base 4:4.3.4
 _ZN9KMimeTypeC2ER11QDataStreami@Base 4:4.3.4
 _ZN9KMimeTypeC2ER16KMimeTypePrivate@Base 4:4.3.4
 _ZN9KMimeTypeC2ER16KMimeTypePrivateRK7QStringS4_@Base 4:4.3.4
 _ZN9KMimeTypeC2ERK7QStringS2_S2_@Base 4:4.3.4
 _ZN9KMimeTypeD0Ev@Base 4:4.3.4
 _ZN9KMimeTypeD1Ev@Base 4:4.3.4
 _ZN9KMimeTypeD2Ev@Base 4:4.3.4
 _ZN9KSaveFile10backupFileERK7QStringS2_@Base 4:4.3.4
 _ZN9KSaveFile11setFileNameERK7QString@Base 4:4.3.4
 _ZN9KSaveFile13rcsBackupFileERK7QStringS2_S2_@Base 4:4.3.4
 _ZN9KSaveFile16simpleBackupFileERK7QStringS2_S2_@Base 4:4.3.4
 _ZN9KSaveFile18numberedBackupFileERK7QStringS2_S2_j@Base 4:4.3.4
 _ZN9KSaveFile4openE6QFlagsIN9QIODevice12OpenModeFlagEE@Base 4:4.3.4
 _ZN9KSaveFile5abortEv@Base 4:4.3.4
 _ZN9KSaveFile8finalizeEv@Base 4:4.3.4
 _ZN9KSaveFileC1ERK7QStringRK14KComponentData@Base 4:4.3.4
 _ZN9KSaveFileC1Ev@Base 4:4.3.4
 _ZN9KSaveFileC2ERK7QStringRK14KComponentData@Base 4:4.3.4
 _ZN9KSaveFileC2Ev@Base 4:4.3.4
 _ZN9KSaveFileD0Ev@Base 4:4.3.4
 _ZN9KSaveFileD1Ev@Base 4:4.3.4
 _ZN9KSaveFileD2Ev@Base 4:4.3.4
 _ZN9KSslErrorC1ENS_5ErrorERK15QSslCertificate@Base 4:4.3.4
 _ZN9KSslErrorC1ERK9QSslError@Base 4:4.3.4
 _ZN9KSslErrorC1ERKS_@Base 4:4.3.4
 _ZN9KSslErrorC2ENS_5ErrorERK15QSslCertificate@Base 4:4.3.4
 _ZN9KSslErrorC2ERK9QSslError@Base 4:4.3.4
 _ZN9KSslErrorC2ERKS_@Base 4:4.3.4
 _ZN9KSslErrorD1Ev@Base 4:4.3.4
 _ZN9KSslErrorD2Ev@Base 4:4.3.4
 _ZN9KSslErroraSERKS_@Base 4:4.3.4
 _ZN9KTimeZone10TransitionC1ERK9QDateTimeRKNS_5PhaseE@Base 4:4.3.4
 _ZN9KTimeZone10TransitionC1ERKS0_@Base 4:4.3.4
 _ZN9KTimeZone10TransitionC1Ev@Base 4:4.3.4
 _ZN9KTimeZone10TransitionC2ERK9QDateTimeRKNS_5PhaseE@Base 4:4.3.4
 _ZN9KTimeZone10TransitionC2ERKS0_@Base 4:4.3.4
 _ZN9KTimeZone10TransitionC2Ev@Base 4:4.3.4
 _ZN9KTimeZone10TransitionD1Ev@Base 4:4.3.4
 _ZN9KTimeZone10TransitionD2Ev@Base 4:4.3.4
 _ZN9KTimeZone10TransitionaSERKS0_@Base 4:4.3.4
 _ZN9KTimeZone10fromTime_tEl@Base 4:4.3.4
 _ZN9KTimeZone10updateBaseERKS_@Base 4:4.3.4
 _ZN9KTimeZone11LeapSecondsC1ERK9QDateTimeiRK7QString@Base 4:4.3.4
 _ZN9KTimeZone11LeapSecondsC1ERKS0_@Base 4:4.3.4
 _ZN9KTimeZone11LeapSecondsC1Ev@Base 4:4.3.4
 _ZN9KTimeZone11LeapSecondsC2ERK9QDateTimeiRK7QString@Base 4:4.3.4
 _ZN9KTimeZone11LeapSecondsC2ERKS0_@Base 4:4.3.4
 _ZN9KTimeZone11LeapSecondsC2Ev@Base 4:4.3.4
 _ZN9KTimeZone11LeapSecondsD1Ev@Base 4:4.3.4
 _ZN9KTimeZone11LeapSecondsD2Ev@Base 4:4.3.4
 _ZN9KTimeZone11LeapSecondsaSERKS0_@Base 4:4.3.4
 _ZN9KTimeZone13InvalidOffsetE@Base 4:4.3.4
 _ZN9KTimeZone13InvalidTime_tE@Base 4:4.3.4
 _ZN9KTimeZone3utcEv@Base 4:4.3.4
 _ZN9KTimeZone5PhaseC1ERKS0_@Base 4:4.3.4
 _ZN9KTimeZone5PhaseC1EiRK10QByteArraybRK7QString@Base 4:4.3.4
 _ZN9KTimeZone5PhaseC1EiRK5QListI10QByteArrayEbRK7QString@Base 4:4.3.4
 _ZN9KTimeZone5PhaseC1Ev@Base 4:4.3.4
 _ZN9KTimeZone5PhaseC2ERKS0_@Base 4:4.3.4
 _ZN9KTimeZone5PhaseC2EiRK10QByteArraybRK7QString@Base 4:4.3.4
 _ZN9KTimeZone5PhaseC2EiRK5QListI10QByteArrayEbRK7QString@Base 4:4.3.4
 _ZN9KTimeZone5PhaseC2Ev@Base 4:4.3.4
 _ZN9KTimeZone5PhaseD1Ev@Base 4:4.3.4
 _ZN9KTimeZone5PhaseD2Ev@Base 4:4.3.4
 _ZN9KTimeZone5PhaseaSERKS0_@Base 4:4.3.4
 _ZN9KTimeZone7UNKNOWNE@Base 4:4.3.4
 _ZN9KTimeZone7setDataEP13KTimeZoneDataP15KTimeZoneSource@Base 4:4.3.4
 _ZN9KTimeZone8toTime_tERK9QDateTime@Base 4:4.3.4
 _ZN9KTimeZoneC1EP16KTimeZoneBackend@Base 4:4.3.4
 _ZN9KTimeZoneC1ERK7QString@Base 4:4.3.4
 _ZN9KTimeZoneC1ERKS_@Base 4:4.3.4
 _ZN9KTimeZoneC1Ev@Base 4:4.3.4
 _ZN9KTimeZoneC2EP16KTimeZoneBackend@Base 4:4.3.4
 _ZN9KTimeZoneC2ERK7QString@Base 4:4.3.4
 _ZN9KTimeZoneC2ERKS_@Base 4:4.3.4
 _ZN9KTimeZoneC2Ev@Base 4:4.3.4
 _ZN9KTimeZoneD0Ev@Base 4:4.3.4
 _ZN9KTimeZoneD1Ev@Base 4:4.3.4
 _ZN9KTimeZoneD2Ev@Base 4:4.3.4
 _ZN9KTimeZoneaSERKS_@Base 4:4.3.4
 _ZNK10KAboutData10bugAddressEv@Base 4:4.3.4
 _ZNK10KAboutData11catalogNameEv@Base 4:4.3.4
 _ZNK10KAboutData11licenseNameENS_10NameFormatE@Base 4:4.3.4
 _ZNK10KAboutData11productNameEv@Base 4:4.3.4
 _ZNK10KAboutData11programLogoEv@Base 4:4.3.4
 _ZNK10KAboutData11programNameEv@Base 4:4.3.4
 _ZNK10KAboutData11translatorsEv@Base 4:4.3.4
 _ZNK10KAboutData14ocsProviderUrlEv@Base 4:4.5.85
 _ZNK10KAboutData15internalVersionEv@Base 4:4.3.4
 _ZNK10KAboutData15programIconNameEv@Base 4:4.3.4
 _ZNK10KAboutData16shortDescriptionEv@Base 4:4.3.4
 _ZNK10KAboutData18copyrightStatementEv@Base 4:4.3.4
 _ZNK10KAboutData18internalBugAddressEv@Base 4:4.3.4
 _ZNK10KAboutData18organizationDomainEv@Base 4:4.3.4
 _ZNK10KAboutData19internalProgramNameEv@Base 4:4.3.4
 _ZNK10KAboutData20customAuthorRichTextEv@Base 4:4.3.4
 _ZNK10KAboutData21customAuthorPlainTextEv@Base 4:4.3.4
 _ZNK10KAboutData23customAuthorTextEnabledEv@Base 4:4.3.4
 _ZNK10KAboutData28translateInternalProgramNameEv@Base 4:4.3.4
 _ZNK10KAboutData7appNameEv@Base 4:4.3.4
 _ZNK10KAboutData7authorsEv@Base 4:4.3.4
 _ZNK10KAboutData7creditsEv@Base 4:4.3.4
 _ZNK10KAboutData7licenseEv@Base 4:4.3.4
 _ZNK10KAboutData7versionEv@Base 4:4.3.4
 _ZNK10KAboutData8homepageEv@Base 4:4.3.4
 _ZNK10KAboutData8licensesEv@Base 4:4.3.4
 _ZNK10KAboutData9otherTextEv@Base 4:4.3.4
 _ZNK10KAutostart10autostartsERK7QString6QFlagsINS_9ConditionEE@Base 4:4.3.4
 _ZNK10KAutostart10metaObjectEv@Base 4:4.3.4
 _ZNK10KAutostart10startAfterEv@Base 4:4.3.4
 _ZNK10KAutostart10startPhaseEv@Base 4:4.3.4
 _ZNK10KAutostart11visibleNameEv@Base 4:4.3.4
 _ZNK10KAutostart14commandToCheckEv@Base 4:4.3.4
 _ZNK10KAutostart19allowedEnvironmentsEv@Base 4:4.3.4
 _ZNK10KAutostart19checkStartConditionEv@Base 4:4.3.4
 _ZNK10KAutostart20excludedEnvironmentsEv@Base 4:4.3.4
 _ZNK10KAutostart23checkAllowedEnvironmentERK7QString@Base 4:4.3.4
 _ZNK10KAutostart7commandEv@Base 4:4.3.4
 _ZNK10KDEDModule10metaObjectEv@Base 4:4.3.4
 _ZNK10KDEDModule10moduleNameEv@Base 4:4.3.4
 _ZNK10KFilterDev5atEndEv@Base 4:4.3.4
 _ZNK10KLibLoader10metaObjectEv@Base 4:4.3.4
 _ZNK10KLibLoader16lastErrorMessageEv@Base 4:4.3.4
 _ZNK10KSslCipher12digestMethodEv@Base 4:4.3.4
 _ZNK10KSslCipher13supportedBitsEv@Base 4:4.3.4
 _ZNK10KSslCipher16encryptionMethodEv@Base 4:4.3.4
 _ZNK10KSslCipher17keyExchangeMethodEv@Base 4:4.3.4
 _ZNK10KSslCipher20authenticationMethodEv@Base 4:4.3.4
 _ZNK10KSslCipher4nameEv@Base 4:4.3.4
 _ZNK10KSslCipher6isNullEv@Base 4:4.3.4
 _ZNK10KSslCipher8usedBitsEv@Base 4:4.3.4
 _ZNK10KTcpSocket10metaObjectEv@Base 4:4.3.4
 _ZNK10KTcpSocket10privateKeyEv@Base 4:4.3.4
 _ZNK10KTcpSocket11canReadLineEv@Base 4:4.3.4
 _ZNK10KTcpSocket11peerAddressEv@Base 4:4.3.4
 _ZNK10KTcpSocket12bytesToWriteEv@Base 4:4.3.4
 _ZNK10KTcpSocket12isSequentialEv@Base 4:4.3.4
 _ZNK10KTcpSocket12localAddressEv@Base 4:4.3.4
 _ZNK10KTcpSocket12socketOptionEN15QAbstractSocket12SocketOptionE@Base 4:4.4.95
 _ZNK10KTcpSocket13sessionCipherEv@Base 4:4.3.4
 _ZNK10KTcpSocket14bytesAvailableEv@Base 4:4.3.4
 _ZNK10KTcpSocket14caCertificatesEv@Base 4:4.3.4
 _ZNK10KTcpSocket14encryptionModeEv@Base 4:4.3.4
 _ZNK10KTcpSocket14readBufferSizeEv@Base 4:4.3.4
 _ZNK10KTcpSocket16localCertificateEv@Base 4:4.3.4
 _ZNK10KTcpSocket16sslConfigurationEv@Base 4:4.8.4
 _ZNK10KTcpSocket20advertisedSslVersionEv@Base 4:4.3.4
 _ZNK10KTcpSocket20negotiatedSslVersionEv@Base 4:4.3.4
 _ZNK10KTcpSocket20peerCertificateChainEv@Base 4:4.3.4
 _ZNK10KTcpSocket24negotiatedSslVersionNameEv@Base 4:4.3.4
 _ZNK10KTcpSocket5atEndEv@Base 4:4.3.4
 _ZNK10KTcpSocket5errorEv@Base 4:4.3.4
 _ZNK10KTcpSocket5proxyEv@Base 4:4.3.4
 _ZNK10KTcpSocket5stateEv@Base 4:4.3.4
 _ZNK10KTcpSocket7ciphersEv@Base 4:4.3.4
 _ZNK10KTcpSocket7isValidEv@Base 4:4.3.4
 _ZNK10KTcpSocket8peerNameEv@Base 4:4.3.4
 _ZNK10KTcpSocket8peerPortEv@Base 4:4.3.4
 _ZNK10KTcpSocket9sslErrorsEv@Base 4:4.3.4
 _ZNK10KTimeZones4zoneERK7QString@Base 4:4.3.4
 _ZNK10KTimeZones5zonesEv@Base 4:4.3.4
 _ZNK10KUserGroup3gidEv@Base 4:4.3.4
 _ZNK10KUserGroup4nameEv@Base 4:4.3.4
 _ZNK10KUserGroup5usersEv@Base 4:4.3.4
 _ZNK10KUserGroup7isValidEv@Base 4:4.3.4
 _ZNK10KUserGroup9userNamesEv@Base 4:4.3.4
 _ZNK10KUserGroupeqERKS_@Base 4:4.3.4
 _ZNK10KUserGroupneERKS_@Base 4:4.3.4
 _ZNK11KConfigBase16isGroupImmutableEPKc@Base 4:4.3.4
 _ZNK11KConfigBase16isGroupImmutableERK10QByteArray@Base 4:4.3.4
 _ZNK11KConfigBase16isGroupImmutableERK7QString@Base 4:4.3.4
 _ZNK11KConfigBase5groupEPKc@Base 4:4.3.4
 _ZNK11KConfigBase5groupERK10QByteArray@Base 4:4.3.4
 _ZNK11KConfigBase5groupERK7QString@Base 4:4.3.4
 _ZNK11KConfigBase8hasGroupEPKc@Base 4:4.3.4
 _ZNK11KConfigBase8hasGroupERK10QByteArray@Base 4:4.3.4
 _ZNK11KConfigBase8hasGroupERK7QString@Base 4:4.3.4
 _ZNK11KFilterBase11filterFlagsEv@Base 4:4.3.4
 _ZNK11KFilterBase13inBufferEmptyEv@Base 4:4.3.4
 _ZNK11KFilterBase13outBufferFullEv@Base 4:4.3.4
 _ZNK11KGzipFilter17inBufferAvailableEv@Base 4:4.3.4
 _ZNK11KGzipFilter18outBufferAvailableEv@Base 4:4.3.4
 _ZNK11KGzipFilter4modeEv@Base 4:4.3.4
 _ZNK11KMountPoint10mountPointEv@Base 4:4.4.95
 _ZNK11KMountPoint11mountedFromEv@Base 4:4.4.95
 _ZNK11KMountPoint12mountOptionsEv@Base 4:4.4.95
 _ZNK11KMountPoint12probablySlowEv@Base 4:4.4.95
 _ZNK11KMountPoint14realDeviceNameEv@Base 4:4.4.95
 _ZNK11KMountPoint18testFileSystemFlagENS_14FileSystemFlagE@Base 4:4.4.95
 _ZNK11KMountPoint4List10findByPathERK7QString@Base 4:4.4.95
 _ZNK11KMountPoint4List12findByDeviceERK7QString@Base 4:4.4.95
 _ZNK11KMountPoint9mountTypeEv@Base 4:4.4.95
 _ZNK11KPluginInfo10pluginNameEv@Base 4:4.3.4
 _ZNK11KPluginInfo11fullLicenseEv@Base 4:4.3.4
 _ZNK11KPluginInfo11kcmServicesEv@Base 4:4.3.4
 _ZNK11KPluginInfo12dependenciesEv@Base 4:4.3.4
 _ZNK11KPluginInfo15isPluginEnabledEv@Base 4:4.3.4
 _ZNK11KPluginInfo24isPluginEnabledByDefaultEv@Base 4:4.3.4
 _ZNK11KPluginInfo4iconEv@Base 4:4.3.4
 _ZNK11KPluginInfo4nameEv@Base 4:4.3.4
 _ZNK11KPluginInfo5emailEv@Base 4:4.3.4
 _ZNK11KPluginInfo6authorEv@Base 4:4.3.4
 _ZNK11KPluginInfo6configEv@Base 4:4.3.4
 _ZNK11KPluginInfo7commentEv@Base 4:4.3.4
 _ZNK11KPluginInfo7isValidEv@Base 4:4.3.4
 _ZNK11KPluginInfo7licenseEv@Base 4:4.3.4
 _ZNK11KPluginInfo7serviceEv@Base 4:4.3.4
 _ZNK11KPluginInfo7versionEv@Base 4:4.3.4
 _ZNK11KPluginInfo7websiteEv@Base 4:4.3.4
 _ZNK11KPluginInfo8categoryEv@Base 4:4.3.4
 _ZNK11KPluginInfo8isHiddenEv@Base 4:4.3.4
 _ZNK11KPluginInfo8propertyERK7QString@Base 4:4.3.4
 _ZNK11KPluginInfo9entryPathEv@Base 4:4.3.4
 _ZNK11KPluginInfoeqERKS_@Base 4:4.3.4
 _ZNK11KPluginInfogtERKS_@Base 4:4.3.4
 _ZNK11KPluginInfoltERKS_@Base 4:4.3.4
 _ZNK11KPluginInfoneERKS_@Base 4:4.3.4
 _ZNK11KSycocaDict11find_stringERK7QString@Base 4:4.3.4
 _ZNK11KSycocaDict15findMultiStringERK7QString@Base 4:4.3.4
 _ZNK11KSycocaDict5countEv@Base 4:4.3.4
 _ZNK11KSycocaDict7Private12offsetForKeyERK7QString@Base 4:4.3.4
 _ZNK11KSycocaDict7Private7hashKeyERK7QString@Base 4:4.3.4
 _ZNK12KAboutPerson10webAddressEv@Base 4:4.3.4
 _ZNK12KAboutPerson11ocsUsernameEv@Base 4:4.5.85
 _ZNK12KAboutPerson12emailAddressEv@Base 4:4.3.4
 _ZNK12KAboutPerson4nameEv@Base 4:4.3.4
 _ZNK12KAboutPerson4taskEv@Base 4:4.3.4
 _ZNK12KArchiveFile12createDeviceEv@Base 4:4.4.95
 _ZNK12KArchiveFile4dataEv@Base 4:4.4.95
 _ZNK12KArchiveFile4sizeEv@Base 4:4.4.95
 _ZNK12KArchiveFile6copyToERK7QString@Base 4:4.4.95
 _ZNK12KArchiveFile6isFileEv@Base 4:4.4.95
 _ZNK12KArchiveFile8positionEv@Base 4:4.4.95
 _ZNK12KCmdLineArgs13getOptionListERK10QByteArray@Base 4:4.3.4
 _ZNK12KCmdLineArgs3argEi@Base 4:4.3.4
 _ZNK12KCmdLineArgs3urlEi@Base 4:4.3.4
 _ZNK12KCmdLineArgs5countEv@Base 4:4.3.4
 _ZNK12KCmdLineArgs5isSetERK10QByteArray@Base 4:4.3.4
 _ZNK12KCmdLineArgs9getOptionERK10QByteArray@Base 4:4.3.4
 _ZNK12KConfigGroup10accessModeEv@Base 4:4.3.4
 _ZNK12KConfigGroup10hasDefaultEPKc@Base 4:4.3.4
 _ZNK12KConfigGroup10hasDefaultERK7QString@Base 4:4.3.4
 _ZNK12KConfigGroup11isImmutableEv@Base 4:4.3.4
 _ZNK12KConfigGroup12hasGroupImplERK10QByteArray@Base 4:4.3.4
 _ZNK12KConfigGroup13readPathEntryEPKcRK11QStringList@Base 4:4.3.4
 _ZNK12KConfigGroup13readPathEntryEPKcRK7QString@Base 4:4.3.4
 _ZNK12KConfigGroup13readPathEntryERK7QStringRK11QStringList@Base 4:4.3.4
 _ZNK12KConfigGroup13readPathEntryERK7QStringS2_@Base 4:4.3.4
 _ZNK12KConfigGroup16isEntryImmutableEPKc@Base 4:4.3.4
 _ZNK12KConfigGroup16isEntryImmutableERK7QString@Base 4:4.3.4
 _ZNK12KConfigGroup16readXdgListEntryEPKcRK11QStringList@Base 4:4.3.4
 _ZNK12KConfigGroup16readXdgListEntryERK7QStringRK11QStringList@Base 4:4.3.4
 _ZNK12KConfigGroup20isGroupImmutableImplERK10QByteArray@Base 4:4.3.4
 _ZNK12KConfigGroup21readEntryUntranslatedEPKcRK7QString@Base 4:4.3.4
 _ZNK12KConfigGroup21readEntryUntranslatedERK7QStringS2_@Base 4:4.3.4
 _ZNK12KConfigGroup4nameEv@Base 4:4.3.4
 _ZNK12KConfigGroup6configEv@Base 4:4.3.4
 _ZNK12KConfigGroup6copyToEP11KConfigBase6QFlagsINS0_15WriteConfigFlagEE@Base 4:4.3.4
 _ZNK12KConfigGroup6existsEv@Base 4:4.3.4
 _ZNK12KConfigGroup6hasKeyEPKc@Base 4:4.3.4
 _ZNK12KConfigGroup6hasKeyERK7QString@Base 4:4.3.4
 _ZNK12KConfigGroup6parentEv@Base 4:4.3.4
 _ZNK12KConfigGroup7isValidEv@Base 4:4.3.4
 _ZNK12KConfigGroup7keyListEv@Base 4:4.3.4
 _ZNK12KConfigGroup8entryMapEv@Base 4:4.3.4
 _ZNK12KConfigGroup9groupImplERK10QByteArray@Base 4:4.3.4
 _ZNK12KConfigGroup9groupListEv@Base 4:4.3.4
 _ZNK12KConfigGroup9readCheckIbEET_PKcRKS1_@Base 4:4.7.4
 _ZNK12KConfigGroup9readCheckIiEET_PKcRKS1_@Base 4:4.6.2
 _ZNK12KConfigGroup9readEntryEPKcRK11QStringList@Base 4:4.3.4
 _ZNK12KConfigGroup9readEntryEPKcRK5QListI8QVariantE@Base 4:4.3.4
 _ZNK12KConfigGroup9readEntryEPKcRK7QString@Base 4:4.3.4
 _ZNK12KConfigGroup9readEntryEPKcRK8QVariant@Base 4:4.3.4
 _ZNK12KConfigGroup9readEntryEPKcS1_@Base 4:4.3.4
 _ZNK12KConfigGroup9readEntryERK7QStringPKc@Base 4:4.3.4
 _ZNK12KConfigGroup9readEntryERK7QStringRK11QStringList@Base 4:4.3.4
 _ZNK12KConfigGroup9readEntryERK7QStringRK5QListI8QVariantE@Base 4:4.3.4
 _ZNK12KConfigGroup9readEntryERK7QStringRK8QVariant@Base 4:4.3.4
 _ZNK12KConfigGroup9readEntryERK7QStringS2_@Base 4:4.3.4
 _ZNK12KDesktopFile10readDeviceEv@Base 4:4.3.4
 _ZNK12KDesktopFile11actionGroupERK7QString@Base 4:4.3.4
 _ZNK12KDesktopFile11hasLinkTypeEv@Base 4:4.3.4
 _ZNK12KDesktopFile11readActionsEv@Base 4:4.3.4
 _ZNK12KDesktopFile11readCommentEv@Base 4:4.3.4
 _ZNK12KDesktopFile11readDocPathEv@Base 4:4.3.4
 _ZNK12KDesktopFile12desktopGroupEv@Base 4:4.3.4
 _ZNK12KDesktopFile13hasDeviceTypeEv@Base 4:4.3.4
 _ZNK12KDesktopFile14hasActionGroupERK7QString@Base 4:4.3.4
 _ZNK12KDesktopFile15hasMimeTypeTypeEv@Base 4:4.3.4
 _ZNK12KDesktopFile15readGenericNameEv@Base 4:4.3.4
 _ZNK12KDesktopFile18hasApplicationTypeEv@Base 4:4.3.4
 _ZNK12KDesktopFile6copyToERK7QString@Base 4:4.3.4
 _ZNK12KDesktopFile7readUrlEv@Base 4:4.3.4
 _ZNK12KDesktopFile7tryExecEv@Base 4:4.3.4
 _ZNK12KDesktopFile8fileNameEv@Base 4:4.3.4
 _ZNK12KDesktopFile8readIconEv@Base 4:4.3.4
 _ZNK12KDesktopFile8readNameEv@Base 4:4.3.4
 _ZNK12KDesktopFile8readPathEv@Base 4:4.3.4
 _ZNK12KDesktopFile8readTypeEv@Base 4:4.3.4
 _ZNK12KDesktopFile8resourceEv@Base 4:4.3.4
 _ZNK12KDesktopFile9noDisplayEv@Base 4:4.3.4
 _ZNK12KDesktopFile9sortOrderEv@Base 4:4.3.4
 _ZNK12KLocalSocket10metaObjectEv@Base 4:4.3.4
 _ZNK12KLocalSocket15localSocketTypeEv@Base 4:4.3.4
 _ZNK12KLocalSocket8peerPathEv@Base 4:4.3.4
 _ZNK12KLocalSocket9localPathEv@Base 4:4.3.4
 _ZNK12KServiceType11propertyDefERK7QString@Base 4:4.3.4
 _ZNK12KServiceType12propertyDefsEv@Base 4:4.3.4
 _ZNK12KServiceType16desktopEntryPathEv@Base 4:4.3.4
 _ZNK12KServiceType16propertyDefNamesEv@Base 4:4.3.4
 _ZNK12KServiceType17parentServiceTypeEv@Base 4:4.3.4
 _ZNK12KServiceType19serviceOffersOffsetEv@Base 4:4.3.4
 _ZNK12KServiceType7commentEv@Base 4:4.3.4
 _ZNK12KServiceType8inheritsERK7QString@Base 4:4.3.4
 _ZNK12KServiceType9isDerivedEv@Base 4:4.3.4
 _ZNK12KSycocaEntry10sycocaTypeEv@Base 4:4.3.4
 _ZNK12KSycocaEntry11isSeparatorEv@Base 4:4.3.4
 _ZNK12KSycocaEntry13propertyNamesEv@Base 4:4.3.4
 _ZNK12KSycocaEntry4nameEv@Base 4:4.3.4
 _ZNK12KSycocaEntry6isTypeE11KSycocaType@Base 4:4.3.4
 _ZNK12KSycocaEntry6offsetEv@Base 4:4.3.4
 _ZNK12KSycocaEntry7isValidEv@Base 4:4.3.4
 _ZNK12KSycocaEntry8propertyERK7QString@Base 4:4.3.4
 _ZNK12KSycocaEntry9entryPathEv@Base 4:4.3.4
 _ZNK12KSycocaEntry9isDeletedEv@Base 4:4.3.4
 _ZNK12KSycocaEntry9storageIdEv@Base 4:4.3.4
 _ZNK13KAboutLicense3keyEv@Base 4:4.3.4
 _ZNK13KAboutLicense4nameEN10KAboutData10NameFormatE@Base 4:4.3.4
 _ZNK13KAboutLicense4textEv@Base 4:4.3.4
 _ZNK13KArchiveEntry11isDirectoryEv@Base 4:4.4.95
 _ZNK13KArchiveEntry11permissionsEv@Base 4:4.4.95
 _ZNK13KArchiveEntry13symLinkTargetEv@Base 4:4.4.95
 _ZNK13KArchiveEntry4dateEv@Base 4:4.4.95
 _ZNK13KArchiveEntry4nameEv@Base 4:4.4.95
 _ZNK13KArchiveEntry4userEv@Base 4:4.4.95
 _ZNK13KArchiveEntry5groupEv@Base 4:4.4.95
 _ZNK13KArchiveEntry6isFileEv@Base 4:4.4.95
 _ZNK13KArchiveEntry7archiveEv@Base 4:4.4.95
 _ZNK13KArchiveEntry8datetimeEv@Base 4:4.4.95
 _ZNK13KAutoSaveFile10metaObjectEv@Base 4:4.3.4
 _ZNK13KAutoSaveFile11managedFileEv@Base 4:4.3.4
 _ZNK13KCompositeJob10metaObjectEv@Base 4:4.3.4
 _ZNK13KCompositeJob7subjobsEv@Base 4:4.3.4
 _ZNK13KCurrencyCode10symbolListEv@Base 4:4.4.0
 _ZNK13KCurrencyCode11hasSubunitsEv@Base 4:4.4.0
 _ZNK13KCurrencyCode13dateSuspendedEv@Base 4:4.4.0
 _ZNK13KCurrencyCode13dateWithdrawnEv@Base 4:4.4.0
 _ZNK13KCurrencyCode13decimalPlacesEv@Base 4:4.4.0
 _ZNK13KCurrencyCode13defaultSymbolEv@Base 4:4.4.0
 _ZNK13KCurrencyCode13subunitSymbolEv@Base 4:4.4.0
 _ZNK13KCurrencyCode14dateIntroducedEv@Base 4:4.4.0
 _ZNK13KCurrencyCode15isoCurrencyCodeEv@Base 4:4.4.0
 _ZNK13KCurrencyCode15subunitsPerUnitEv@Base 4:4.4.0
 _ZNK13KCurrencyCode17unambiguousSymbolEv@Base 4:4.4.0
 _ZNK13KCurrencyCode22countriesUsingCurrencyEv@Base 4:4.4.0
 _ZNK13KCurrencyCode22isoCurrencyCodeNumericEv@Base 4:4.4.0
 _ZNK13KCurrencyCode24hasSubunitsInCirculationEv@Base 4:4.4.0
 _ZNK13KCurrencyCode4nameEv@Base 4:4.4.0
 _ZNK13KCurrencyCode6statusEv@Base 4:4.4.0
 _ZNK13KCurrencyCode7isValidEv@Base 4:4.4.0
 _ZNK13KCurrencyCode7isoNameEv@Base 4:4.4.0
 _ZNK13KPluginLoader10metaObjectEv@Base 4:4.4.4-2~
 _ZNK13KPluginLoader10pluginNameEv@Base 4:4.4.4-2~
 _ZNK13KPluginLoader11errorStringEv@Base 4:4.4.4-2~
 _ZNK13KPluginLoader13pluginVersionEv@Base 4:4.4.4-2~
 _ZNK13KPluginLoader8isLoadedEv@Base 4:4.4.4-2~
 _ZNK13KProtocolInfo15canRenameToFileEv@Base 4:4.3.4
 _ZNK13KProtocolInfo15defaultMimeTypeEv@Base 4:4.3.4
 _ZNK13KProtocolInfo15supportsListingEv@Base 4:4.3.4
 _ZNK13KProtocolInfo16archiveMimeTypesEv@Base 4:4.3.4
 _ZNK13KProtocolInfo17canRenameFromFileEv@Base 4:4.3.4
 _ZNK13KProtocolInfo18canDeleteRecursiveEv@Base 4:4.3.4
 _ZNK13KProtocolInfo22fileNameUsedForCopyingEv@Base 4:4.3.4
 _ZNK13KServiceGroup10childCountEv@Base 4:4.3.4
 _ZNK13KServiceGroup10layoutInfoEv@Base 4:4.3.4
 _ZNK13KServiceGroup11allowInlineEv@Base 4:4.3.4
 _ZNK13KServiceGroup11inlineAliasEv@Base 4:4.3.4
 _ZNK13KServiceGroup11inlineValueEv@Base 4:4.3.4
 _ZNK13KServiceGroup13baseGroupNameEv@Base 4:4.3.4
 _ZNK13KServiceGroup13showEmptyMenuEv@Base 4:4.3.4
 _ZNK13KServiceGroup16showInlineHeaderEv@Base 4:4.3.4
 _ZNK13KServiceGroup18directoryEntryPathEv@Base 4:4.3.4
 _ZNK13KServiceGroup20suppressGenericNamesEv@Base 4:4.3.4
 _ZNK13KServiceGroup4iconEv@Base 4:4.3.4
 _ZNK13KServiceGroup7captionEv@Base 4:4.3.4
 _ZNK13KServiceGroup7commentEv@Base 4:4.3.4
 _ZNK13KServiceGroup7relPathEv@Base 4:4.3.4
 _ZNK13KServiceGroup9noDisplayEv@Base 4:4.3.4
 _ZNK13KServiceOffer10preferenceEv@Base 4:4.3.4
 _ZNK13KServiceOffer14allowAsDefaultEv@Base 4:4.3.4
 _ZNK13KServiceOffer24mimeTypeInheritanceLevelEv@Base 4:4.3.4
 _ZNK13KServiceOffer7isValidEv@Base 4:4.3.4
 _ZNK13KServiceOffer7serviceEv@Base 4:4.3.4
 _ZNK13KServiceOfferltERKS_@Base 4:4.3.4
 _ZNK13KSharedConfig9groupImplERK10QByteArray@Base 4:4.3.4
 _ZNK13KStandardDirs11localkdedirEv@Base 4:4.3.4
 _ZNK13KStandardDirs12findResourceEPKcRK7QString@Base 4:4.3.4
 _ZNK13KStandardDirs12resourceDirsEPKc@Base 4:4.3.4
 _ZNK13KStandardDirs12saveLocationEPKcRK7QStringb@Base 4:4.3.4
 _ZNK13KStandardDirs15findResourceDirEPKcRK7QString@Base 4:4.3.4
 _ZNK13KStandardDirs15localxdgconfdirEv@Base 4:4.3.4
 _ZNK13KStandardDirs15localxdgdatadirEv@Base 4:4.3.4
 _ZNK13KStandardDirs16calcResourceHashEPKcRK7QString6QFlagsINS_12SearchOptionEE@Base 4:4.3.4
 _ZNK13KStandardDirs16findAllResourcesEPKcRK7QString6QFlagsINS_12SearchOptionEE@Base 4:4.3.4
 _ZNK13KStandardDirs16findAllResourcesEPKcRK7QString6QFlagsINS_12SearchOptionEER11QStringList@Base 4:4.3.4
 _ZNK13KStandardDirs20KStandardDirsPrivate19hasDataRestrictionsERK7QString@Base 4:4.3.4
 _ZNK13KStandardDirs20isRestrictedResourceEPKcRK7QString@Base 4:4.3.4
 _ZNK13KStandardDirs8allTypesEv@Base 4:4.3.4
 _ZNK13KStandardDirs8findDirsEPKcRK7QString@Base 4:4.3.4
 _ZNK13KTimeZoneData10transitionERK9QDateTimePPKN9KTimeZone10TransitionEPb@Base 4:4.3.4
 _ZNK13KTimeZoneData10utcOffsetsEv@Base 4:4.3.4
 _ZNK13KTimeZoneData11transitionsERK9QDateTimeS2_@Base 4:4.3.4
 _ZNK13KTimeZoneData12abbreviationERK9QDateTime@Base 4:4.3.4
 _ZNK13KTimeZoneData13abbreviationsEv@Base 4:4.3.4
 _ZNK13KTimeZoneData14hasTransitionsEv@Base 4:4.3.4
 _ZNK13KTimeZoneData15transitionIndexERK9QDateTimePiPb@Base 4:4.3.4
 _ZNK13KTimeZoneData15transitionTimesERKN9KTimeZone5PhaseERK9QDateTimeS6_@Base 4:4.3.4
 _ZNK13KTimeZoneData16leapSecondChangeERK9QDateTime@Base 4:4.3.4
 _ZNK13KTimeZoneData17leapSecondChangesEv@Base 4:4.3.4
 _ZNK13KTimeZoneData17previousUtcOffsetEv@Base 4:4.3.4
 _ZNK13KTimeZoneData5cloneEv@Base 4:4.3.4
 _ZNK13KTimeZoneData6phasesEv@Base 4:4.3.4
 _ZNK13KZipFileEntry11headerStartEv@Base 4:4.4.95
 _ZNK13KZipFileEntry12createDeviceEv@Base 4:4.4.95
 _ZNK13KZipFileEntry14compressedSizeEv@Base 4:4.4.95
 _ZNK13KZipFileEntry4dataEv@Base 4:4.4.95
 _ZNK13KZipFileEntry4pathEv@Base 4:4.4.95
 _ZNK13KZipFileEntry5crc32Ev@Base 4:4.4.95
 _ZNK13KZipFileEntry8encodingEv@Base 4:4.4.95
 _ZNK14KComponentData11catalogNameEv@Base 4:4.3.4
 _ZNK14KComponentData13componentNameEv@Base 4:4.3.4
 _ZNK14KComponentData4dirsEv@Base 4:4.3.4
 _ZNK14KComponentData6configEv@Base 4:4.3.4
 _ZNK14KComponentData7isValidEv@Base 4:4.3.4
 _ZNK14KComponentData9aboutDataEv@Base 4:4.3.4
 _ZNK14KComponentDataeqERKS_@Base 4:4.3.4
 _ZNK14KConfigBackend10metaObjectEv@Base 4:4.3.4
 _ZNK14KConfigBackend12lastModifiedEv@Base 4:4.3.4
 _ZNK14KConfigBackend4sizeEv@Base 4:4.3.4
 _ZNK14KConfigBackend8filePathEv@Base 4:4.3.4
 _ZNK14KJobUiDelegate10metaObjectEv@Base 4:4.3.4
 _ZNK14KJobUiDelegate26isAutoErrorHandlingEnabledEv@Base 4:4.3.4
 _ZNK14KJobUiDelegate28isAutoWarningHandlingEnabledEv@Base 4:4.3.4
 _ZNK14KLocalizedDate10daysInWeekEv@Base 4:4.5.85
 _ZNK14KLocalizedDate10daysInYearEv@Base 4:4.5.85
 _ZNK14KLocalizedDate10formatDateEN7KLocale10DateFormatE@Base 4:4.5.85
 _ZNK14KLocalizedDate10formatDateEN7KLocale17DateTimeComponentENS0_23DateTimeComponentFormatENS0_16WeekNumberSystemE@Base 4:4.5.86
 _ZNK14KLocalizedDate10formatDateERK7QStringN7KLocale22DateTimeFormatStandardE@Base 4:4.5.85
 _ZNK14KLocalizedDate10isLeapYearEv@Base 4:4.5.85
 _ZNK14KLocalizedDate11daysInMonthEv@Base 4:4.5.85
 _ZNK14KLocalizedDate11toJulianDayEv@Base 4:4.5.85
 _ZNK14KLocalizedDate11weeksInYearEN7KLocale16WeekNumberSystemE@Base 4:4.5.85
 _ZNK14KLocalizedDate11weeksInYearEv@Base 4:4.5.85
 _ZNK14KLocalizedDate12monthsInYearEv@Base 4:4.5.85
 _ZNK14KLocalizedDate13lastDayOfYearEv@Base 4:4.5.85
 _ZNK14KLocalizedDate14dateDifferenceERK5QDatePiS3_S3_S3_@Base 4:4.5.85
 _ZNK14KLocalizedDate14dateDifferenceERKS_PiS2_S2_S2_@Base 4:4.5.85
 _ZNK14KLocalizedDate14daysDifferenceERK5QDate@Base 4:4.5.85
 _ZNK14KLocalizedDate14daysDifferenceERKS_@Base 4:4.5.85
 _ZNK14KLocalizedDate14firstDayOfYearEv@Base 4:4.5.85
 _ZNK14KLocalizedDate14lastDayOfMonthEv@Base 4:4.5.85
 _ZNK14KLocalizedDate15firstDayOfMonthEv@Base 4:4.5.85
 _ZNK14KLocalizedDate15yearsDifferenceERK5QDate@Base 4:4.5.85
 _ZNK14KLocalizedDate15yearsDifferenceERKS_@Base 4:4.5.85
 _ZNK14KLocalizedDate16monthsDifferenceERK5QDate@Base 4:4.5.85
 _ZNK14KLocalizedDate16monthsDifferenceERKS_@Base 4:4.5.85
 _ZNK14KLocalizedDate3dayEv@Base 4:4.5.85
 _ZNK14KLocalizedDate4dateEv@Base 4:4.5.85
 _ZNK14KLocalizedDate4weekEN7KLocale16WeekNumberSystemEPi@Base 4:4.5.85
 _ZNK14KLocalizedDate4weekEPi@Base 4:4.5.85
 _ZNK14KLocalizedDate4yearEv@Base 4:4.5.85
 _ZNK14KLocalizedDate5monthEv@Base 4:4.5.85
 _ZNK14KLocalizedDate6isNullEv@Base 4:4.5.85
 _ZNK14KLocalizedDate7addDaysEi@Base 4:4.5.85
 _ZNK14KLocalizedDate7eraNameEv@Base 4:4.5.85
 _ZNK14KLocalizedDate7eraYearEv@Base 4:4.5.85
 _ZNK14KLocalizedDate7getDateEPiS0_S0_@Base 4:4.5.85
 _ZNK14KLocalizedDate7isValidEv@Base 4:4.5.85
 _ZNK14KLocalizedDate8addYearsEi@Base 4:4.5.85
 _ZNK14KLocalizedDate8calendarEv@Base 4:4.5.85
 _ZNK14KLocalizedDate9addMonthsEi@Base 4:4.5.85
 _ZNK14KLocalizedDate9dayOfWeekEv@Base 4:4.5.85
 _ZNK14KLocalizedDate9dayOfYearEv@Base 4:4.5.85
 _ZNK14KLocalizedDate9yearInEraEv@Base 4:4.5.85
 _ZNK14KLocalizedDateeqERK5QDate@Base 4:4.5.85
 _ZNK14KLocalizedDateeqERKS_@Base 4:4.5.85
 _ZNK14KLocalizedDategeERK5QDate@Base 4:4.5.85
 _ZNK14KLocalizedDategeERKS_@Base 4:4.5.85
 _ZNK14KLocalizedDategtERK5QDate@Base 4:4.5.85
 _ZNK14KLocalizedDategtERKS_@Base 4:4.5.85
 _ZNK14KLocalizedDateleERK5QDate@Base 4:4.5.85
 _ZNK14KLocalizedDateleERKS_@Base 4:4.5.85
 _ZNK14KLocalizedDateltERK5QDate@Base 4:4.5.85
 _ZNK14KLocalizedDateltERKS_@Base 4:4.5.85
 _ZNK14KLocalizedDateneERK5QDate@Base 4:4.5.85
 _ZNK14KLocalizedDateneERKS_@Base 4:4.5.85
 _ZNK14KPluginFactory10metaObjectEv@Base 4:4.3.4
 _ZNK14KPluginFactory13componentDataEv@Base 4:4.3.4
 _ZNK14KServiceAction11isSeparatorEv@Base 4:4.3.4
 _ZNK14KServiceAction4dataEv@Base 4:4.3.4
 _ZNK14KServiceAction4execEv@Base 4:4.3.4
 _ZNK14KServiceAction4iconEv@Base 4:4.3.4
 _ZNK14KServiceAction4nameEv@Base 4:4.3.4
 _ZNK14KServiceAction4textEv@Base 4:4.3.4
 _ZNK14KServiceAction9noDisplayEv@Base 4:4.3.4
 _ZNK14KSycocaFactory10allEntriesEv@Base 4:4.3.4
 _ZNK14KSycocaFactory10sycocaDictEv@Base 4:4.3.4
 _ZNK14KSycocaFactory12resourceListEv@Base 4:4.3.4
 _ZNK14KSycocaFactory6offsetEv@Base 4:4.3.4
 _ZNK14KSycocaFactory6streamEv@Base 4:4.3.4
 _ZNK14KSycocaFactory7isEmptyEv@Base 4:4.3.4
 _ZNK15KCalendarSystem10daysInWeekERK5QDate@Base 4:4.3.4
 _ZNK15KCalendarSystem10daysInYearERK5QDate@Base 4:4.3.4
 _ZNK15KCalendarSystem10daysInYearEi@Base 4:4.4.95
 _ZNK15KCalendarSystem10formatDateERK5QDateN7KLocale10DateFormatE@Base 4:4.3.4
 _ZNK15KCalendarSystem10formatDateERK5QDateN7KLocale17DateTimeComponentENS3_23DateTimeComponentFormatENS3_16WeekNumberSystemE@Base 4:4.5.86
 _ZNK15KCalendarSystem10formatDateERK5QDateRK7QStringN7KLocale22DateTimeFormatStandardE@Base 4:4.4.0
 _ZNK15KCalendarSystem10formatDateERK5QDateRK7QStringN7KLocale8DigitSetENS6_22DateTimeFormatStandardE@Base 4:4.4.0
 _ZNK15KCalendarSystem10isLeapYearERK5QDate@Base 4:4.3.4
 _ZNK15KCalendarSystem10isLeapYearEi@Base 4:4.3.4
 _ZNK15KCalendarSystem10weekNumberERK5QDatePi@Base 4:4.3.4
 _ZNK15KCalendarSystem10yearStringERK5QDateNS_12StringFormatE@Base 4:4.3.4
 _ZNK15KCalendarSystem11daysInMonthERK5QDate@Base 4:4.3.4
 _ZNK15KCalendarSystem11daysInMonthEii@Base 4:4.4.95
 _ZNK15KCalendarSystem11monthStringERK5QDateNS_12StringFormatE@Base 4:4.3.4
 _ZNK15KCalendarSystem11weekDayNameERK5QDateNS_17WeekDayNameFormatE@Base 4:4.3.4
 _ZNK15KCalendarSystem11weekDayNameEiNS_17WeekDayNameFormatE@Base 4:4.7.0
 _ZNK15KCalendarSystem11weeksInYearERK5QDate@Base 4:4.3.4
 _ZNK15KCalendarSystem11weeksInYearERK5QDateN7KLocale16WeekNumberSystemE@Base 4:4.7.0
 _ZNK15KCalendarSystem11weeksInYearEi@Base 4:4.3.4
 _ZNK15KCalendarSystem11weeksInYearEiN7KLocale16WeekNumberSystemE@Base 4:4.7.0
 _ZNK15KCalendarSystem12monthsInYearERK5QDate@Base 4:4.3.4
 _ZNK15KCalendarSystem12monthsInYearEi@Base 4:4.4.95
 _ZNK15KCalendarSystem12weekStartDayEv@Base 4:4.3.4
 _ZNK15KCalendarSystem13calendarLabelEv@Base 4:4.5.85
 _ZNK15KCalendarSystem13lastDayOfYearERK5QDate@Base 4:4.5.85
 _ZNK15KCalendarSystem13lastDayOfYearEi@Base 4:4.5.85
 _ZNK15KCalendarSystem14calendarSystemEv@Base 4:4.5.85
 _ZNK15KCalendarSystem14dateDifferenceERK5QDateS2_PiS3_S3_S3_@Base 4:4.4.95
 _ZNK15KCalendarSystem14daysDifferenceERK5QDateS2_@Base 4:4.4.95
 _ZNK15KCalendarSystem14firstDayOfYearERK5QDate@Base 4:4.5.85
 _ZNK15KCalendarSystem14firstDayOfYearEi@Base 4:4.5.85
 _ZNK15KCalendarSystem14lastDayOfMonthERK5QDate@Base 4:4.5.85
 _ZNK15KCalendarSystem14lastDayOfMonthEii@Base 4:4.5.85
 _ZNK15KCalendarSystem14setDateIsoWeekER5QDateiii@Base 4:4.4.0
 _ZNK15KCalendarSystem15dateToJulianDayEiiiRi@Base 4:4.3.4
 _ZNK15KCalendarSystem15dayOfWeekStringERK5QDate@Base 4:4.4.0
 _ZNK15KCalendarSystem15dayOfYearStringERK5QDateNS_12StringFormatE@Base 4:4.4.0
 _ZNK15KCalendarSystem15firstDayOfMonthERK5QDate@Base 4:4.5.85
 _ZNK15KCalendarSystem15firstDayOfMonthEii@Base 4:4.5.85
 _ZNK15KCalendarSystem15julianDayToDateEiRiS0_S0_@Base 4:4.3.4
 _ZNK15KCalendarSystem15latestValidDateEv@Base 4:4.3.4
 _ZNK15KCalendarSystem15yearInEraStringERK5QDateNS_12StringFormatE@Base 4:4.4.95
 _ZNK15KCalendarSystem15yearsDifferenceERK5QDateS2_@Base 4:4.4.95
 _ZNK15KCalendarSystem16daysInWeekStringERK5QDate@Base 4:4.4.0
 _ZNK15KCalendarSystem16daysInYearStringERK5QDateNS_12StringFormatE@Base 4:4.4.0
 _ZNK15KCalendarSystem16monthsDifferenceERK5QDateS2_@Base 4:4.4.95
 _ZNK15KCalendarSystem16weekNumberStringERK5QDateNS_12StringFormatE@Base 4:4.4.0
 _ZNK15KCalendarSystem17daysInMonthStringERK5QDateNS_12StringFormatE@Base 4:4.4.0
 _ZNK15KCalendarSystem17earliestValidDateEv@Base 4:4.3.4
 _ZNK15KCalendarSystem17weeksInYearStringERK5QDateNS_12StringFormatE@Base 4:4.4.0
 _ZNK15KCalendarSystem18dayStringToIntegerERK7QStringRi@Base 4:4.3.4
 _ZNK15KCalendarSystem18isValidIsoWeekDateEiii@Base 4:4.4.0
 _ZNK15KCalendarSystem18monthsInYearStringERK5QDateNS_12StringFormatE@Base 4:4.4.0
 _ZNK15KCalendarSystem19yearStringToIntegerERK7QStringRi@Base 4:4.3.4
 _ZNK15KCalendarSystem20applyShortYearWindowEi@Base 4:4.5.85
 _ZNK15KCalendarSystem20monthStringToIntegerERK7QStringRi@Base 4:4.3.4
 _ZNK15KCalendarSystem24shortYearWindowStartYearEv@Base 4:4.5.85
 _ZNK15KCalendarSystem3dayERK5QDate@Base 4:4.3.4
 _ZNK15KCalendarSystem3eraERK5QDate@Base 4:4.5.85
 _ZNK15KCalendarSystem3eraERK7QStringi@Base 4:4.5.85
 _ZNK15KCalendarSystem4weekERK5QDateN7KLocale16WeekNumberSystemEPi@Base 4:4.7.0
 _ZNK15KCalendarSystem4weekERK5QDatePi@Base 4:4.7.0
 _ZNK15KCalendarSystem4yearERK5QDate@Base 4:4.3.4
 _ZNK15KCalendarSystem5epochEv@Base 4:4.3.4
 _ZNK15KCalendarSystem5monthERK5QDate@Base 4:4.3.4
 _ZNK15KCalendarSystem6localeEv@Base 4:4.3.4
 _ZNK15KCalendarSystem6setYMDER5QDateiii@Base 4:4.3.4
 _ZNK15KCalendarSystem7addDaysERK5QDatei@Base 4:4.3.4
 _ZNK15KCalendarSystem7eraListEv@Base 4:4.5.85
 _ZNK15KCalendarSystem7eraNameERK5QDateNS_12StringFormatE@Base 4:4.4.95
 _ZNK15KCalendarSystem7eraYearERK5QDateNS_12StringFormatE@Base 4:4.4.95
 _ZNK15KCalendarSystem7getDateE5QDatePiS1_S1_@Base 4:4.4.95
 _ZNK15KCalendarSystem7isValidERK5QDate@Base 4:4.3.4
 _ZNK15KCalendarSystem7isValidERK7QStringiii@Base 4:4.4.95
 _ZNK15KCalendarSystem7isValidEii@Base 4:4.4.0
 _ZNK15KCalendarSystem7isValidEiii@Base 4:4.3.4
 _ZNK15KCalendarSystem7setDateER5QDate7QStringiii@Base 4:4.4.95
 _ZNK15KCalendarSystem7setDateER5QDateii@Base 4:4.4.0
 _ZNK15KCalendarSystem7setDateER5QDateiii@Base 4:4.3.4
 _ZNK15KCalendarSystem8addYearsERK5QDatei@Base 4:4.3.4
 _ZNK15KCalendarSystem8readDateERK7QStringN7KLocale13ReadDateFlagsEPb@Base 4:4.3.4
 _ZNK15KCalendarSystem8readDateERK7QStringPb@Base 4:4.3.4
 _ZNK15KCalendarSystem8readDateERK7QStringS2_Pb@Base 4:4.3.4
 _ZNK15KCalendarSystem8readDateERK7QStringS2_PbN7KLocale22DateTimeFormatStandardE@Base 4:4.4.95
 _ZNK15KCalendarSystem9addMonthsERK5QDatei@Base 4:4.3.4
 _ZNK15KCalendarSystem9dayOfWeekERK5QDate@Base 4:4.3.4
 _ZNK15KCalendarSystem9dayOfYearERK5QDate@Base 4:4.3.4
 _ZNK15KCalendarSystem9dayStringERK5QDateNS_12StringFormatE@Base 4:4.3.4
 _ZNK15KCalendarSystem9monthNameERK5QDateNS_15MonthNameFormatE@Base 4:4.3.4
 _ZNK15KCalendarSystem9monthNameEiiNS_15MonthNameFormatE@Base 4:4.7.0
 _ZNK15KCalendarSystem9yearInEraERK5QDate@Base 4:4.4.95
 _ZNK15KEncodingProber10confidenceEv@Base 4:4.3.4
 _ZNK15KEncodingProber10proberTypeEv@Base 4:4.3.4
 _ZNK15KEncodingProber12encodingNameEv@Base 4:4.3.4
 _ZNK15KEncodingProber5stateEv@Base 4:4.3.4
 _ZNK15KEncodingProber8encodingEv@Base 4:4.3.4
 _ZNK15KMimeTypeTrader5queryERK7QStringS2_S2_@Base 4:4.3.4
 _ZNK15KServiceFactory11createEntryEi@Base 4:4.3.4
 _ZNK15KTimeZoneSource12useZoneParseEv@Base 4:4.3.4
 _ZNK15KTimeZoneSource5parseERK9KTimeZone@Base 4:4.3.4
 _ZNK15KToolInvocation10metaObjectEv@Base 4:4.3.4
 _ZNK16KLocalizedString4subsE5QChariRKS0_@Base 4:4.3.4
 _ZNK16KLocalizedString4subsERK7QStringiRK5QChar@Base 4:4.3.4
 _ZNK16KLocalizedString4subsEdiciRK5QChar@Base 4:4.3.4
 _ZNK16KLocalizedString4subsEiiiRK5QChar@Base 4:4.3.4
 _ZNK16KLocalizedString4subsEjiiRK5QChar@Base 4:4.3.4
 _ZNK16KLocalizedString4subsEliiRK5QChar@Base 4:4.3.4
 _ZNK16KLocalizedString4subsEmiiRK5QChar@Base 4:4.3.4
 _ZNK16KLocalizedString4subsExiiRK5QChar@Base 4:4.3.4
 _ZNK16KLocalizedString4subsEyiiRK5QChar@Base 4:4.3.4
 _ZNK16KLocalizedString7isEmptyEv@Base 4:4.3.4
 _ZNK16KLocalizedString8toStringEPK7KLocale@Base 4:4.3.4
 _ZNK16KLocalizedString8toStringEPK7KLocaleRK7QString@Base 4:4.4.95
 _ZNK16KLocalizedString8toStringERK7QString@Base 4:4.4.95
 _ZNK16KLocalizedString8toStringEv@Base 4:4.3.4
 _ZNK16KLocalizedString9inContextERK7QStringS2_@Base 4:4.3.4
 _ZNK16KMimeTypeFactory11createEntryEi@Base 4:4.3.4
 _ZNK16KMimeTypeFactory13MimeTypeEntry19serviceOffersOffsetEv@Base 4:4.5.85
 _ZNK16KSharedDataCache14evictionPolicyEv@Base 4:4.4.95
 _ZNK16KSharedDataCache4findERK7QStringP10QByteArray@Base 4:4.4.95
 _ZNK16KSharedDataCache8containsERK7QString@Base 4:4.4.95
 _ZNK16KSharedDataCache8freeSizeEv@Base 4:4.4.95
 _ZNK16KSharedDataCache9timestampEv@Base 4:4.5.85
 _ZNK16KSharedDataCache9totalSizeEv@Base 4:4.4.95
 _ZNK16KSystemTimeZones10metaObjectEv@Base 4:4.3.4
 _ZNK16KTimeZoneBackend10isDstAtUtcEPK9KTimeZoneRK9QDateTime@Base 4:4.3.4
 _ZNK16KTimeZoneBackend11offsetAtUtcEPK9KTimeZoneRK9QDateTime@Base 4:4.3.4
 _ZNK16KTimeZoneBackend14hasTransitionsEPK9KTimeZone@Base 4:4.3.4
 _ZNK16KTimeZoneBackend16offsetAtZoneTimeEPK9KTimeZoneRK9QDateTimePi@Base 4:4.3.4
 _ZNK16KTimeZoneBackend4typeEv@Base 4:4.3.4
 _ZNK16KTimeZoneBackend5cloneEv@Base 4:4.3.4
 _ZNK16KTimeZoneBackend5isDstEPK9KTimeZonel@Base 4:4.3.4
 _ZNK16KTimeZoneBackend6offsetEPK9KTimeZonel@Base 4:4.3.4
 _ZNK17KArchiveDirectory11isDirectoryEv@Base 4:4.4.95
 _ZNK17KArchiveDirectory5entryERK7QString@Base 4:4.4.95
 _ZNK17KArchiveDirectory6copyToERK7QStringb@Base 4:4.4.95
 _ZNK17KArchiveDirectory7entriesEv@Base 4:4.4.95
 _ZNK17KEncodingDetector15visuallyOrderedEv@Base 4:4.3.4
 _ZNK17KEncodingDetector18autoDetectLanguageEv@Base 4:4.3.4
 _ZNK17KEncodingDetector20encodingChoiceSourceEv@Base 4:4.3.4
 _ZNK17KEncodingDetector24decodedInvalidCharactersEv@Base 4:4.3.4
 _ZNK17KEncodingDetector8encodingEv@Base 4:4.3.4
 _ZNK18KLocalSocketServer10metaObjectEv@Base 4:4.3.4
 _ZNK18KLocalSocketServer11errorStringEv@Base 4:4.3.4
 _ZNK18KLocalSocketServer11isListeningEv@Base 4:4.3.4
 _ZNK18KLocalSocketServer11serverErrorEv@Base 4:4.3.4
 _ZNK18KLocalSocketServer15localSocketTypeEv@Base 4:4.3.4
 _ZNK18KLocalSocketServer21hasPendingConnectionsEv@Base 4:4.3.4
 _ZNK18KLocalSocketServer21maxPendingConnectionsEv@Base 4:4.3.4
 _ZNK18KLocalSocketServer9localPathEv@Base 4:4.3.4
 _ZNK18KMacroExpanderBase10escapeCharEv@Base 4:4.3.4
 _ZNK18KServiceTypeTrader13defaultOffersERK7QStringS2_@Base 4:4.3.4
 _ZNK18KServiceTypeTrader16preferredServiceERK7QString@Base 4:4.3.4
 _ZNK18KServiceTypeTrader5queryERK7QStringS2_@Base 4:4.3.4
 _ZNK19KConfigSkeletonItem11isImmutableEv@Base 4:4.3.4
 _ZNK19KConfigSkeletonItem3keyEv@Base 4:4.3.4
 _ZNK19KConfigSkeletonItem4nameEv@Base 4:4.3.4
 _ZNK19KConfigSkeletonItem5groupEv@Base 4:4.3.4
 _ZNK19KConfigSkeletonItem5labelEv@Base 4:4.3.4
 _ZNK19KConfigSkeletonItem7toolTipEv@Base 4:4.3.4
 _ZNK19KConfigSkeletonItem8maxValueEv@Base 4:4.3.4
 _ZNK19KConfigSkeletonItem8minValueEv@Base 4:4.3.4
 _ZNK19KConfigSkeletonItem9whatsThisEv@Base 4:4.3.4
 _ZNK19KCoreConfigSkeleton10ItemDouble7isEqualERK8QVariant@Base 4:4.3.4
 _ZNK19KCoreConfigSkeleton10ItemDouble8maxValueEv@Base 4:4.3.4
 _ZNK19KCoreConfigSkeleton10ItemDouble8minValueEv@Base 4:4.3.4
 _ZNK19KCoreConfigSkeleton10ItemDouble8propertyEv@Base 4:4.3.4
 _ZNK19KCoreConfigSkeleton10ItemString7isEqualERK8QVariant@Base 4:4.3.4
 _ZNK19KCoreConfigSkeleton10ItemString8propertyEv@Base 4:4.3.4
 _ZNK19KCoreConfigSkeleton10metaObjectEv@Base 4:4.3.4
 _ZNK19KCoreConfigSkeleton11ItemIntList7isEqualERK8QVariant@Base 4:4.3.4
 _ZNK19KCoreConfigSkeleton11ItemIntList8propertyEv@Base 4:4.3.4
 _ZNK19KCoreConfigSkeleton11ItemUrlList7isEqualERK8QVariant@Base 4:4.3.4
 _ZNK19KCoreConfigSkeleton11ItemUrlList8propertyEv@Base 4:4.3.4
 _ZNK19KCoreConfigSkeleton11isImmutableERK7QString@Base 4:4.4.0
 _ZNK19KCoreConfigSkeleton12ItemDateTime7isEqualERK8QVariant@Base 4:4.3.4
 _ZNK19KCoreConfigSkeleton12ItemDateTime8propertyEv@Base 4:4.3.4
 _ZNK19KCoreConfigSkeleton12ItemLongLong7isEqualERK8QVariant@Base 4:4.3.4
 _ZNK19KCoreConfigSkeleton12ItemLongLong8maxValueEv@Base 4:4.3.4
 _ZNK19KCoreConfigSkeleton12ItemLongLong8minValueEv@Base 4:4.3.4
 _ZNK19KCoreConfigSkeleton12ItemLongLong8propertyEv@Base 4:4.3.4
 _ZNK19KCoreConfigSkeleton12ItemProperty7isEqualERK8QVariant@Base 4:4.3.4
 _ZNK19KCoreConfigSkeleton12ItemProperty8propertyEv@Base 4:4.3.4
 _ZNK19KCoreConfigSkeleton12currentGroupEv@Base 4:4.3.4
 _ZNK19KCoreConfigSkeleton13ItemULongLong7isEqualERK8QVariant@Base 4:4.3.4
 _ZNK19KCoreConfigSkeleton13ItemULongLong8maxValueEv@Base 4:4.3.4
 _ZNK19KCoreConfigSkeleton13ItemULongLong8minValueEv@Base 4:4.3.4
 _ZNK19KCoreConfigSkeleton13ItemULongLong8propertyEv@Base 4:4.3.4
 _ZNK19KCoreConfigSkeleton14ItemStringList7isEqualERK8QVariant@Base 4:4.3.4
 _ZNK19KCoreConfigSkeleton14ItemStringList8propertyEv@Base 4:4.3.4
 _ZNK19KCoreConfigSkeleton5itemsEv@Base 4:4.3.4
 _ZNK19KCoreConfigSkeleton6configEv@Base 4:4.3.4
 _ZNK19KCoreConfigSkeleton7ItemInt7isEqualERK8QVariant@Base 4:4.3.4
 _ZNK19KCoreConfigSkeleton7ItemInt8maxValueEv@Base 4:4.3.4
 _ZNK19KCoreConfigSkeleton7ItemInt8minValueEv@Base 4:4.3.4
 _ZNK19KCoreConfigSkeleton7ItemInt8propertyEv@Base 4:4.3.4
 _ZNK19KCoreConfigSkeleton7ItemUrl7isEqualERK8QVariant@Base 4:4.3.4
 _ZNK19KCoreConfigSkeleton7ItemUrl8propertyEv@Base 4:4.3.4
 _ZNK19KCoreConfigSkeleton8ItemBool7isEqualERK8QVariant@Base 4:4.3.4
 _ZNK19KCoreConfigSkeleton8ItemBool8propertyEv@Base 4:4.3.4
 _ZNK19KCoreConfigSkeleton8ItemEnum7choicesEv@Base 4:4.3.4
 _ZNK19KCoreConfigSkeleton8ItemEnum8choices2Ev@Base 4:4.3.4
 _ZNK19KCoreConfigSkeleton8ItemRect7isEqualERK8QVariant@Base 4:4.3.4
 _ZNK19KCoreConfigSkeleton8ItemRect8propertyEv@Base 4:4.3.4
 _ZNK19KCoreConfigSkeleton8ItemSize7isEqualERK8QVariant@Base 4:4.3.4
 _ZNK19KCoreConfigSkeleton8ItemSize8propertyEv@Base 4:4.3.4
 _ZNK19KCoreConfigSkeleton8ItemUInt7isEqualERK8QVariant@Base 4:4.3.4
 _ZNK19KCoreConfigSkeleton8ItemUInt8maxValueEv@Base 4:4.3.4
 _ZNK19KCoreConfigSkeleton8ItemUInt8minValueEv@Base 4:4.3.4
 _ZNK19KCoreConfigSkeleton8ItemUInt8propertyEv@Base 4:4.3.4
 _ZNK19KCoreConfigSkeleton8findItemERK7QString@Base 4:4.4.0
 _ZNK19KCoreConfigSkeleton9ItemPoint7isEqualERK8QVariant@Base 4:4.3.4
 _ZNK19KCoreConfigSkeleton9ItemPoint8propertyEv@Base 4:4.3.4
 _ZNK19KMimeTypeRepository14parseMagicFileEP9QIODeviceRK7QString@Base 4:4.5.85
 _ZNK19KServiceTypeFactory11createEntryEi@Base 4:4.3.4
 _ZNK19KSslCertificateRule10isRejectedEv@Base 4:4.3.4
 _ZNK19KSslCertificateRule11certificateEv@Base 4:4.3.4
 _ZNK19KSslCertificateRule12filterErrorsERK5QListI9KSslErrorE@Base 4:4.3.4
 _ZNK19KSslCertificateRule12filterErrorsERK5QListIN9KSslError5ErrorEE@Base 4:4.3.4
 _ZNK19KSslCertificateRule13ignoredErrorsEv@Base 4:4.3.4
 _ZNK19KSslCertificateRule14expiryDateTimeEv@Base 4:4.3.4
 _ZNK19KSslCertificateRule14isErrorIgnoredEN9KSslError5ErrorE@Base 4:4.3.4
 _ZNK19KSslCertificateRule8hostNameEv@Base 4:4.3.4
 _ZNK20KJobTrackerInterface10metaObjectEv@Base 4:4.3.4
 _ZNK20KProtocolInfoFactory11createEntryEi@Base 4:4.3.4
 _ZNK20KProtocolInfoFactory12allProtocolsEv@Base 4:4.3.4
 _ZNK20KProtocolInfoFactory9protocolsEv@Base 4:4.3.4
 _ZNK20KServiceGroupFactory11createEntryEi@Base 4:4.3.4
 _ZNK20KServiceGroupFactory11createGroupEib@Base 4:4.3.4
 _ZNK21KSystemTimeZoneSource5parseERK9KTimeZone@Base 4:4.3.4
 _ZNK21KTzfileTimeZoneSource5parseERK9KTimeZone@Base 4:4.3.4
 _ZNK21KTzfileTimeZoneSource8locationEv@Base 4:4.3.4
 _ZNK22KSslCertificateManager14caCertificatesEv@Base 4:4.5.85
 _ZNK22KSslCertificateManager4ruleERK15QSslCertificateRK7QString@Base 4:4.3.4
 _ZNK22KSystemTimeZoneBackend10isDstAtUtcEPK9KTimeZoneRK9QDateTime@Base 4:4.3.4
 _ZNK22KSystemTimeZoneBackend11offsetAtUtcEPK9KTimeZoneRK9QDateTime@Base 4:4.3.4
 _ZNK22KSystemTimeZoneBackend16offsetAtZoneTimeEPK9KTimeZoneRK9QDateTimePi@Base 4:4.3.4
 _ZNK22KSystemTimeZoneBackend4typeEv@Base 4:4.3.4
 _ZNK22KSystemTimeZoneBackend5cloneEv@Base 4:4.3.4
 _ZNK22KSystemTimeZoneBackend5isDstEPK9KTimeZonel@Base 4:4.3.4
 _ZNK22KSystemTimeZoneBackend6offsetEPK9KTimeZonel@Base 4:4.3.4
 _ZNK22KTzfileTimeZoneBackend14hasTransitionsEPK9KTimeZone@Base 4:4.3.4
 _ZNK22KTzfileTimeZoneBackend4typeEv@Base 4:4.3.4
 _ZNK22KTzfileTimeZoneBackend5cloneEv@Base 4:4.3.4
 _ZNK24OrgKdeKLauncherInterface10metaObjectEv@Base 4:4.3.4
 _ZNK4KJob10metaObjectEv@Base 4:4.3.4
 _ZNK4KJob10uiDelegateEv@Base 4:4.3.4
 _ZNK4KJob11errorStringEv@Base 4:4.3.4
 _ZNK4KJob11isSuspendedEv@Base 4:4.3.4
 _ZNK4KJob11totalAmountENS_4UnitE@Base 4:4.3.4
 _ZNK4KJob12capabilitiesEv@Base 4:4.3.4
 _ZNK4KJob12isAutoDeleteEv@Base 4:4.3.4
 _ZNK4KJob15processedAmountENS_4UnitE@Base 4:4.3.4
 _ZNK4KJob5errorEv@Base 4:4.3.4
 _ZNK4KJob7percentEv@Base 4:4.3.4
 _ZNK4KJob9errorTextEv@Base 4:4.3.4
 _ZNK4KUrl10hasHTMLRefEv@Base 4:4.3.4
 _ZNK4KUrl10isParentOfERKS_@Base 4:4.3.4
 _ZNK4KUrl10queryItemsERK6QFlagsINS_16QueryItemsOptionEE@Base 4:4.3.4
 _ZNK4KUrl11isLocalFileEv@Base 4:4.3.4
 _ZNK4KUrl11toLocalFileENS_16AdjustPathOptionE@Base 4:4.3.4
 _ZNK4KUrl12fileEncodingEv@Base 4:4.3.4
 _ZNK4KUrl14encodedHtmlRefEv@Base 4:4.3.4
 _ZNK4KUrl16populateMimeDataEP9QMimeDataRK4QMapI7QStringS3_ENS_13MimeDataFlagsE@Base 4:4.3.4
 _ZNK4KUrl16toMimeDataStringEv@Base 4:4.3.4
 _ZNK4KUrl19encodedPathAndQueryENS_16AdjustPathOptionERK6QFlagsINS_25EncodedPathAndQueryOptionEE@Base 4:4.3.4
 _ZNK4KUrl3cmpERKS_b@Base 4:4.3.4
 _ZNK4KUrl3refEv@Base 4:4.3.4
 _ZNK4KUrl3urlENS_16AdjustPathOptionE@Base 4:4.3.4
 _ZNK4KUrl4List12toStringListENS_16AdjustPathOptionE@Base 4:4.5.85
 _ZNK4KUrl4List12toStringListEv@Base 4:4.3.4
 _ZNK4KUrl4List16populateMimeDataEP9QMimeDataRK4QMapI7QStringS4_ENS_13MimeDataFlagsE@Base 4:4.3.4
 _ZNK4KUrl4List16populateMimeDataERKS0_P9QMimeDataRK4QMapI7QStringS6_ENS_13MimeDataFlagsE@Base 4:4.3.4
 _ZNK4KUrl4Listcv5QListI4QUrlEEv@Base 4:4.7.1
 _ZNK4KUrl4Listcv8QVariantEv@Base 4:4.3.4
 _ZNK4KUrl4passEv@Base 4:4.3.4
 _ZNK4KUrl4pathENS_16AdjustPathOptionE@Base 4:4.3.4
 _ZNK4KUrl4userEv@Base 4:4.3.4
 _ZNK4KUrl5queryEv@Base 4:4.3.4
 _ZNK4KUrl5upUrlEv@Base 4:4.3.4
 _ZNK4KUrl6equalsERKS_RK6QFlagsINS_12EqualsOptionEE@Base 4:4.3.4
 _ZNK4KUrl6hasRefEv@Base 4:4.3.4
 _ZNK4KUrl7hasHostEv@Base 4:4.3.4
 _ZNK4KUrl7hasPassEv@Base 4:4.3.4
 _ZNK4KUrl7hasPathEv@Base 4:4.3.4
 _ZNK4KUrl7hasUserEv@Base 4:4.3.4
 _ZNK4KUrl7htmlRefEv@Base 4:4.3.4
 _ZNK4KUrl8fileNameERK6QFlagsINS_15DirectoryOptionEE@Base 4:4.3.4
 _ZNK4KUrl8protocolEv@Base 4:4.3.4
 _ZNK4KUrl9directoryERK6QFlagsINS_15DirectoryOptionEE@Base 4:4.3.4
 _ZNK4KUrl9hasSubUrlEv@Base 4:4.3.4
 _ZNK4KUrl9pathOrUrlENS_16AdjustPathOptionE@Base 4:4.3.4
 _ZNK4KUrl9pathOrUrlEv@Base 4:4.3.4
 _ZNK4KUrl9prettyUrlENS_16AdjustPathOptionE@Base 4:4.3.4
 _ZNK4KUrl9queryItemERK7QString@Base 4:4.3.4
 _ZNK4KUrlcv8QVariantEv@Base 4:4.3.4
 _ZNK4KUrleqERK7QString@Base 4:4.3.4
 _ZNK4KUrleqERKS_@Base 4:4.3.4
 _ZNK4KZip10extraFieldEv@Base 4:4.4.95
 _ZNK4KZip11compressionEv@Base 4:4.4.95
 _ZNK5KAuth11ActionReply10serializedEv@Base 4:4.4.0
 _ZNK5KAuth11ActionReply16errorDescriptionEv@Base 4:4.4.0
 _ZNK5KAuth11ActionReply4dataEv@Base 4:4.4.0
 _ZNK5KAuth11ActionReply4typeEv@Base 4:4.4.0
 _ZNK5KAuth11ActionReply6failedEv@Base 4:4.4.0
 _ZNK5KAuth11ActionReply9errorCodeEv@Base 4:4.4.0
 _ZNK5KAuth11ActionReply9succeededEv@Base 4:4.4.0
 _ZNK5KAuth11ActionReplyeqERKS0_@Base 4:4.4.0
 _ZNK5KAuth11ActionReplyneERKS0_@Base 4:4.4.0
 _ZNK5KAuth13ActionWatcher10metaObjectEv@Base 4:4.4.0
 _ZNK5KAuth13ActionWatcher6actionEv@Base 4:4.4.0
 _ZNK5KAuth6Action12parentWidgetEv@Base 4:4.5.85
 _ZNK5KAuth6Action13executesAsyncEv@Base 4:4.4.0
 _ZNK5KAuth6Action14earlyAuthorizeEv@Base 4:4.4.95
 _ZNK5KAuth6Action4nameEv@Base 4:4.4.0
 _ZNK5KAuth6Action6statusEv@Base 4:4.4.0
 _ZNK5KAuth6Action7detailsEv@Base 4:4.4.0
 _ZNK5KAuth6Action7executeERK7QString@Base 4:4.4.0
 _ZNK5KAuth6Action7executeEv@Base 4:4.4.0
 _ZNK5KAuth6Action7isValidEv@Base 4:4.4.0
 _ZNK5KAuth6Action8helperIDEv@Base 4:4.4.0
 _ZNK5KAuth6Action9argumentsEv@Base 4:4.4.0
 _ZNK5KAuth6Action9authorizeEv@Base 4:4.4.0
 _ZNK5KAuth6Action9hasHelperEv@Base 4:4.4.95
 _ZNK5KAuth6ActioneqERKS0_@Base 4:4.4.0
 _ZNK5KAuth6ActionneERKS0_@Base 4:4.4.0
 _ZNK5KUser10groupNamesEv@Base 4:4.3.4
 _ZNK5KUser11isSuperUserEv@Base 4:4.3.4
 _ZNK5KUser12faceIconPathEv@Base 4:4.3.4
 _ZNK5KUser3gidEv@Base 4:4.3.4
 _ZNK5KUser3uidEv@Base 4:4.3.4
 _ZNK5KUser5shellEv@Base 4:4.3.4
 _ZNK5KUser6groupsEv@Base 4:4.3.4
 _ZNK5KUser7homeDirEv@Base 4:4.3.4
 _ZNK5KUser7isValidEv@Base 4:4.3.4
 _ZNK5KUser8fullNameEv@Base 4:4.3.4
 _ZNK5KUser8propertyENS_12UserPropertyE@Base 4:4.3.4
 _ZNK5KUser9loginNameEv@Base 4:4.3.4
 _ZNK5KUsereqERKS_@Base 4:4.3.4
 _ZNK5KUserneERKS_@Base 4:4.3.4
 _ZNK6Sonnet13SpellerPlugin12isMisspelledERK7QString@Base 4:4.3.4
 _ZNK6Sonnet13SpellerPlugin15checkAndSuggestERK7QStringR11QStringList@Base 4:4.3.4
 _ZNK6Sonnet13SpellerPlugin8languageEv@Base 4:4.3.4
 _ZNK6Sonnet17BackgroundChecker10metaObjectEv@Base 4:4.3.4
 _ZNK6Sonnet17BackgroundChecker14currentContextEv@Base 4:4.3.4
 _ZNK6Sonnet17BackgroundChecker4textEv@Base 4:4.3.4
 _ZNK6Sonnet17BackgroundChecker7spellerEv@Base 4:4.3.4
 _ZNK6Sonnet17BackgroundChecker7suggestERK7QString@Base 4:4.3.4
 _ZNK6Sonnet6Client10metaObjectEv@Base 4:4.3.4
 _ZNK6Sonnet6Filter12trySkipLinksEv@Base 4:4.3.4
 _ZNK6Sonnet6Filter14wordAtPositionEj@Base 4:4.3.4
 _ZNK6Sonnet6Filter15currentPositionEv@Base 4:4.3.4
 _ZNK6Sonnet6Filter15shouldBeSkippedEbbRK7QString@Base 4:4.3.4
 _ZNK6Sonnet6Filter5atEndEv@Base 4:4.3.4
 _ZNK6Sonnet6Filter6bufferEv@Base 4:4.3.4
 _ZNK6Sonnet6Filter6ignoreERK7QString@Base 4:4.3.4
 _ZNK6Sonnet6Filter7contextEv@Base 4:4.3.4
 _ZNK6Sonnet6Filter8nextWordEv@Base 4:4.3.4
 _ZNK6Sonnet6Filter8settingsEv@Base 4:4.3.4
 _ZNK6Sonnet6Loader10metaObjectEv@Base 4:4.3.4
 _ZNK6Sonnet6Loader13createSpellerERK7QStringS3_@Base 4:4.3.4
 _ZNK6Sonnet6Loader13languageNamesEv@Base 4:4.3.4
 _ZNK6Sonnet6Loader19languageNameForCodeERK7QString@Base 4:4.3.4
 _ZNK6Sonnet6Loader7clientsEv@Base 4:4.3.4
 _ZNK6Sonnet6Loader8settingsEv@Base 4:4.3.4
 _ZNK6Sonnet6Loader9languagesEv@Base 4:4.3.4
 _ZNK6Sonnet7Speller12isMisspelledERK7QString@Base 4:4.3.4
 _ZNK6Sonnet7Speller13defaultClientEv@Base 4:4.3.4
 _ZNK6Sonnet7Speller13testAttributeENS0_9AttributeE@Base 4:4.3.4
 _ZNK6Sonnet7Speller15checkAndSuggestERK7QStringR11QStringList@Base 4:4.3.4
 _ZNK6Sonnet7Speller15defaultLanguageEv@Base 4:4.3.4
 _ZNK6Sonnet7Speller17availableBackendsEv@Base 4:4.3.4
 _ZNK6Sonnet7Speller18availableLanguagesEv@Base 4:4.3.4
 _ZNK6Sonnet7Speller21availableDictionariesEv@Base 4:4.3.4
 _ZNK6Sonnet7Speller22availableLanguageNamesEv@Base 4:4.3.4
 _ZNK6Sonnet7Speller7isValidEv@Base 4:4.3.4
 _ZNK6Sonnet7Speller7suggestERK7QString@Base 4:4.3.4
 _ZNK6Sonnet7Speller8languageEv@Base 4:4.3.4
 _ZNK6Sonnet7Speller9isCorrectERK7QString@Base 4:4.3.4
 _ZNK6Sonnet8Settings13defaultClientEv@Base 4:4.3.4
 _ZNK6Sonnet8Settings14checkUppercaseEv@Base 4:4.3.4
 _ZNK6Sonnet8Settings15defaultLanguageEv@Base 4:4.3.4
 _ZNK6Sonnet8Settings15skipRunTogetherEv@Base 4:4.3.4
 _ZNK6Sonnet8Settings17currentIgnoreListEv@Base 4:4.3.4
 _ZNK6Sonnet8Settings21disableWordErrorCountEv@Base 4:4.3.4
 _ZNK6Sonnet8Settings23checkerEnabledByDefaultEv@Base 4:4.4.0
 _ZNK6Sonnet8Settings24backgroundCheckerEnabledEv@Base 4:4.3.4
 _ZNK6Sonnet8Settings26disablePercentageWordErrorEv@Base 4:4.3.4
 _ZNK6Sonnet8Settings8modifiedEv@Base 4:4.3.4
 _ZNK7KConfig10accessModeEv@Base 4:4.3.4
 _ZNK7KConfig11forceGlobalEv@Base 4:4.3.4
 _ZNK7KConfig11isImmutableEv@Base 4:4.3.4
 _ZNK7KConfig12hasGroupImplERK10QByteArray@Base 4:4.3.4
 _ZNK7KConfig12readDefaultsEv@Base 4:4.3.4
 _ZNK7KConfig13componentDataEv@Base 4:4.3.4
 _ZNK7KConfig20isGroupImmutableImplERK10QByteArray@Base 4:4.3.4
 _ZNK7KConfig4nameEv@Base 4:4.3.4
 _ZNK7KConfig6copyToERK7QStringPS_@Base 4:4.3.4
 _ZNK7KConfig6localeEv@Base 4:4.3.4
 _ZNK7KConfig7keyListERK7QString@Base 4:4.3.4
 _ZNK7KConfig8entryMapERK7QString@Base 4:4.3.4
 _ZNK7KConfig9groupImplERK10QByteArray@Base 4:4.3.4
 _ZNK7KConfig9groupListEv@Base 4:4.3.4
 _ZNK7KLocale10dateFormatEv@Base 4:4.3.4
 _ZNK7KLocale10formatDateERK5QDateNS_10DateFormatE@Base 4:4.3.4
 _ZNK7KLocale10formatLongEl@Base 4:4.3.4
 _ZNK7KLocale10formatTimeERK5QTimebb@Base 4:4.3.4
 _ZNK7KLocale10fracDigitsEv@Base 4:4.3.4
 _ZNK7KLocale10readNumberERK7QStringPb@Base 4:4.3.4
 _ZNK7KLocale10timeFormatEv@Base 4:4.3.4
 _ZNK7KLocale10use12ClockEv@Base 4:4.3.4
 _ZNK7KLocale11encodingMibEv@Base 4:4.3.4
 _ZNK7KLocale11formatMoneyEdRK7QStringi@Base 4:4.3.4
 _ZNK7KLocale11translateQtEPKcS1_S1_@Base 4:4.3.4
 _ZNK7KLocale12calendarTypeEv@Base 4:4.3.4
 _ZNK7KLocale12currencyCodeEv@Base 4:4.4.0
 _ZNK7KLocale12formatNumberERK7QStringbi@Base 4:4.3.4
 _ZNK7KLocale12formatNumberEdi@Base 4:4.3.4
 _ZNK7KLocale12languageListEv@Base 4:4.3.4
 _ZNK7KLocale12negativeSignEv@Base 4:4.3.4
 _ZNK7KLocale12positiveSignEv@Base 4:4.3.4
 _ZNK7KLocale12translateRawEPKcP7QStringS3_@Base 4:4.3.4
 _ZNK7KLocale12translateRawEPKcS1_P7QStringS3_@Base 4:4.3.4
 _ZNK7KLocale12translateRawEPKcS1_S1_mP7QStringS3_@Base 4:4.3.4
 _ZNK7KLocale12translateRawEPKcS1_mP7QStringS3_@Base 4:4.3.4
 _ZNK7KLocale12weekStartDayEv@Base 4:4.3.4
 _ZNK7KLocale13convertDigitsERK7QStringNS_8DigitSetEb@Base 4:4.3.4
 _ZNK7KLocale13dayPeriodTextERK5QTimeNS_23DateTimeComponentFormatE@Base 4:4.5.85
 _ZNK7KLocale13decimalPlacesEv@Base 4:4.4.0
 _ZNK7KLocale13decimalSymbolEv@Base 4:4.3.4
 _ZNK7KLocale13measureSystemEv@Base 4:4.3.4
 _ZNK7KLocale13useTranscriptEv@Base 4:4.3.4
 _ZNK7KLocale13weekDayOfPrayEv@Base 4:4.3.4
 _ZNK7KLocale14calendarSystemEv@Base 4:4.5.85
 _ZNK7KLocale14currencySymbolEv@Base 4:4.3.4
 _ZNK7KLocale14digitSetToNameENS_8DigitSetEb@Base 4:4.3.4
 _ZNK7KLocale14formatByteSizeEd@Base 4:4.3.4
 _ZNK7KLocale14formatByteSizeEdiNS_17BinaryUnitDialectENS_15BinarySizeUnitsE@Base 4:4.4.0
 _ZNK7KLocale14formatDateTimeERK9KDateTimeNS_10DateFormatE6QFlagsINS_20DateTimeFormatOptionEE@Base 4:4.3.4
 _ZNK7KLocale14formatDateTimeERK9QDateTimeNS_10DateFormatEb@Base 4:4.3.4
 _ZNK7KLocale14formatDurationEm@Base 4:4.3.4
 _ZNK7KLocale14nounDeclensionEv@Base 4:4.3.4
 _ZNK7KLocale14readLocaleTimeERK7QStringPb6QFlagsINS_16TimeFormatOptionEES4_INS_20TimeProcessingOptionEE@Base 4:4.4.0
 _ZNK7KLocale15dateFormatShortEv@Base 4:4.3.4
 _ZNK7KLocale15fileEncodingMibEv@Base 4:4.3.4
 _ZNK7KLocale16allCountriesListEv@Base 4:4.3.4
 _ZNK7KLocale16allDigitSetsListEv@Base 4:4.3.4
 _ZNK7KLocale16allLanguagesListEv@Base 4:4.3.4
 _ZNK7KLocale16codecForEncodingEv@Base 4:4.3.4
 _ZNK7KLocale16currencyCodeListEv@Base 4:4.4.0
 _ZNK7KLocale16dateTimeDigitSetEv@Base 4:4.3.4
 _ZNK7KLocale16formatLocaleTimeERK5QTime6QFlagsINS_16TimeFormatOptionEE@Base 4:4.4.0
 _ZNK7KLocale16monetaryDigitSetEv@Base 4:4.3.4
 _ZNK7KLocale16translateRawFromEPKcS1_P7QStringS3_@Base 4:4.4.95
 _ZNK7KLocale16translateRawFromEPKcS1_S1_P7QStringS3_@Base 4:4.4.95
 _ZNK7KLocale16translateRawFromEPKcS1_S1_S1_mP7QStringS3_@Base 4:4.4.95
 _ZNK7KLocale16translateRawFromEPKcS1_S1_mP7QStringS3_@Base 4:4.4.95
 _ZNK7KLocale16weekNumberSystemEv@Base 4:4.7.0
 _ZNK7KLocale17binaryUnitDialectEv@Base 4:4.4.0
 _ZNK7KLocale17countryCodeToNameERK7QString@Base 4:4.3.4
 _ZNK7KLocale17localizedFilePathERK7QString@Base 4:4.3.4
 _ZNK7KLocale17workingWeekEndDayEv@Base 4:4.3.4
 _ZNK7KLocale18installedLanguagesEv@Base 4:4.5.85
 _ZNK7KLocale18languageCodeToNameERK7QString@Base 4:4.3.4
 _ZNK7KLocale18thousandsSeparatorEv@Base 4:4.3.4
 _ZNK7KLocale19countryDivisionCodeEv@Base 4:4.5.85
 _ZNK7KLocale19workingWeekStartDayEv@Base 4:4.3.4
 _ZNK7KLocale20prettyFormatDurationEm@Base 4:4.3.4
 _ZNK7KLocale21monetaryDecimalPlacesEv@Base 4:4.4.0
 _ZNK7KLocale21monetaryDecimalSymbolEv@Base 4:4.3.4
 _ZNK7KLocale23dateMonthNamePossessiveEv@Base 4:4.3.4
 _ZNK7KLocale23removeAcceleratorMarkerERK7QString@Base 4:4.3.4
 _ZNK7KLocale26monetaryThousandsSeparatorEv@Base 4:4.3.4
 _ZNK7KLocale28negativeMonetarySignPositionEv@Base 4:4.3.4
 _ZNK7KLocale28negativePrefixCurrencySymbolEv@Base 4:4.3.4
 _ZNK7KLocale28positiveMonetarySignPositionEv@Base 4:4.3.4
 _ZNK7KLocale28positivePrefixCurrencySymbolEv@Base 4:4.3.4
 _ZNK7KLocale7countryEv@Base 4:4.3.4
 _ZNK7KLocale8calendarEv@Base 4:4.3.4
 _ZNK7KLocale8currencyEv@Base 4:4.4.0
 _ZNK7KLocale8digitSetEv@Base 4:4.3.4
 _ZNK7KLocale8encodingEv@Base 4:4.3.4
 _ZNK7KLocale8languageEv@Base 4:4.3.4
 _ZNK7KLocale8pageSizeEv@Base 4:4.3.4
 _ZNK7KLocale8readDateERK7QStringNS_13ReadDateFlagsEPb@Base 4:4.3.4
 _ZNK7KLocale8readDateERK7QStringPb@Base 4:4.3.4
 _ZNK7KLocale8readDateERK7QStringS2_Pb@Base 4:4.3.4
 _ZNK7KLocale8readTimeERK7QStringNS_13ReadTimeFlagsEPb@Base 4:4.3.4
 _ZNK7KLocale8readTimeERK7QStringPb@Base 4:4.3.4
 _ZNK7KLocale9readMoneyERK7QStringPb@Base 4:4.3.4
 _ZNK7KSslKey12isExportableEv@Base 4:4.3.4
 _ZNK7KSslKey5toDerEv@Base 4:4.3.4
 _ZNK7KSslKey7secrecyEv@Base 4:4.3.4
 _ZNK7KSslKey9algorithmEv@Base 4:4.3.4
 _ZNK7KSycoca10metaObjectEv@Base 4:4.3.4
 _ZNK8KArchive4modeEv@Base 4:4.4.95
 _ZNK8KArchive6deviceEv@Base 4:4.4.95
 _ZNK8KArchive6isOpenEv@Base 4:4.4.95
 _ZNK8KArchive8fileNameEv@Base 4:4.4.95
 _ZNK8KArchive9directoryEv@Base 4:4.4.95
 _ZNK8KLibrary10metaObjectEv@Base 4:4.3.4
 _ZNK8KMemFile12isSequentialEv@Base 4:4.3.4
 _ZNK8KMemFile4sizeEv@Base 4:4.3.4
 _ZNK8KNetwork10KIpAddress7compareERKS0_b@Base 4:4.3.4
 _ZNK8KNetwork10KIpAddress8toStringEv@Base 4:4.3.4
 _ZNK8KNetwork11KSocketBase10isIPv6OnlyEv@Base 4:4.3.4
 _ZNK8KNetwork11KSocketBase11errorStringEv@Base 4:4.3.4
 _ZNK8KNetwork11KSocketBase12socketDeviceEv@Base 4:4.3.4
 _ZNK8KNetwork11KSocketBase13socketOptionsEv@Base 4:4.3.4
 _ZNK8KNetwork11KSocketBase16addressReuseableEv@Base 4:4.3.4
 _ZNK8KNetwork11KSocketBase5errorEv@Base 4:4.3.4
 _ZNK8KNetwork11KSocketBase5mutexEv@Base 4:4.3.4
 _ZNK8KNetwork11KSocketBase7noDelayEv@Base 4:4.3.4
 _ZNK8KNetwork11KSocketBase8blockingEv@Base 4:4.3.4
 _ZNK8KNetwork11KSocketBase9broadcastEv@Base 4:4.3.4
 _ZNK8KNetwork11KSocketBase9hasDeviceEv@Base 4:4.3.4
 _ZNK8KNetwork13KServerSocket10metaObjectEv@Base 4:4.3.4
 _ZNK8KNetwork13KServerSocket12localAddressEv@Base 4:4.3.4
 _ZNK8KNetwork13KServerSocket15externalAddressEv@Base 4:4.3.4
 _ZNK8KNetwork13KServerSocket15resolverResultsEv@Base 4:4.3.4
 _ZNK8KNetwork13KServerSocket8resolverEv@Base 4:4.3.4
 _ZNK8KNetwork13KSocketDevice11peerAddressEv@Base 4:4.3.4
 _ZNK8KNetwork13KSocketDevice12capabilitiesEv@Base 4:4.3.4
 _ZNK8KNetwork13KSocketDevice12localAddressEv@Base 4:4.3.4
 _ZNK8KNetwork13KSocketDevice12readNotifierEv@Base 4:4.3.4
 _ZNK8KNetwork13KSocketDevice13writeNotifierEv@Base 4:4.3.4
 _ZNK8KNetwork13KSocketDevice14bytesAvailableEv@Base 4:4.3.4
 _ZNK8KNetwork13KSocketDevice14createNotifierEN15QSocketNotifier4TypeE@Base 4:4.3.4
 _ZNK8KNetwork13KSocketDevice15externalAddressEv@Base 4:4.3.4
 _ZNK8KNetwork13KSocketDevice17exceptionNotifierEv@Base 4:4.3.4
 _ZNK8KNetwork13KSocketDevice6socketEv@Base 4:4.3.4
 _ZNK8KNetwork13KStreamSocket10metaObjectEv@Base 4:4.3.4
 _ZNK8KNetwork13KStreamSocket16remainingTimeoutEv@Base 4:4.3.4
 _ZNK8KNetwork13KStreamSocket7timeoutEv@Base 4:4.3.4
 _ZNK8KNetwork14KResolverEntry10socketTypeEv@Base 4:4.3.4
 _ZNK8KNetwork14KResolverEntry11encodedNameEv@Base 4:4.3.4
 _ZNK8KNetwork14KResolverEntry13canonicalNameEv@Base 4:4.3.4
 _ZNK8KNetwork14KResolverEntry6familyEv@Base 4:4.3.4
 _ZNK8KNetwork14KResolverEntry6lengthEv@Base 4:4.3.4
 _ZNK8KNetwork14KResolverEntry7addressEv@Base 4:4.3.4
 _ZNK8KNetwork14KResolverEntry8protocolEv@Base 4:4.3.4
 _ZNK8KNetwork14KSocketAddress11serviceNameEv@Base 4:4.3.4
 _ZNK8KNetwork14KSocketAddress6asInetEv@Base 4:4.3.4
 _ZNK8KNetwork14KSocketAddress6asUnixEv@Base 4:4.3.4
 _ZNK8KNetwork14KSocketAddress6familyEv@Base 4:4.3.4
 _ZNK8KNetwork14KSocketAddress6lengthEv@Base 4:4.3.4
 _ZNK8KNetwork14KSocketAddress7addressEv@Base 4:4.3.4
 _ZNK8KNetwork14KSocketAddress8nodeNameEv@Base 4:4.3.4
 _ZNK8KNetwork14KSocketAddress8toStringEv@Base 4:4.3.4
 _ZNK8KNetwork14KSocketAddresseqERKS0_@Base 4:4.3.4
 _ZNK8KNetwork15KBufferedSocket10metaObjectEv@Base 4:4.3.4
 _ZNK8KNetwork15KBufferedSocket11canReadLineEv@Base 4:4.3.4
 _ZNK8KNetwork15KBufferedSocket12bytesToWriteEv@Base 4:4.3.4
 _ZNK8KNetwork15KBufferedSocket14bytesAvailableEv@Base 4:4.3.4
 _ZNK8KNetwork15KDatagramSocket10metaObjectEv@Base 4:4.3.4
 _ZNK8KNetwork16KResolverResults11serviceNameEv@Base 4:4.3.4
 _ZNK8KNetwork16KResolverResults11systemErrorEv@Base 4:4.3.4
 _ZNK8KNetwork16KResolverResults5errorEv@Base 4:4.3.4
 _ZNK8KNetwork16KResolverResults8nodeNameEv@Base 4:4.3.4
 _ZNK8KNetwork16KReverseResolver10metaObjectEv@Base 4:4.3.4
 _ZNK8KNetwork16KReverseResolver4nodeEv@Base 4:4.3.4
 _ZNK8KNetwork16KReverseResolver7addressEv@Base 4:4.3.4
 _ZNK8KNetwork16KReverseResolver7failureEv@Base 4:4.3.4
 _ZNK8KNetwork16KReverseResolver7serviceEv@Base 4:4.3.4
 _ZNK8KNetwork16KReverseResolver7successEv@Base 4:4.3.4
 _ZNK8KNetwork16KReverseResolver9isRunningEv@Base 4:4.3.4
 _ZNK8KNetwork17KActiveSocketBase10metaObjectEv@Base 4:4.3.4
 _ZNK8KNetwork17KActiveSocketBase11errorStringEv@Base 4:4.3.4
 _ZNK8KNetwork17KActiveSocketBase12isSequentialEv@Base 4:4.3.4
 _ZNK8KNetwork17KActiveSocketBase3posEv@Base 4:4.3.4
 _ZNK8KNetwork17KActiveSocketBase4sizeEv@Base 4:4.3.4
 _ZNK8KNetwork17KActiveSocketBase5atEndEv@Base 4:4.3.4
 _ZNK8KNetwork17KClientSocketBase10metaObjectEv@Base 4:4.3.4
 _ZNK8KNetwork17KClientSocketBase11peerAddressEv@Base 4:4.3.4
 _ZNK8KNetwork17KClientSocketBase11peerResultsEv@Base 4:4.3.4
 _ZNK8KNetwork17KClientSocketBase12localAddressEv@Base 4:4.3.4
 _ZNK8KNetwork17KClientSocketBase12localResultsEv@Base 4:4.3.4
 _ZNK8KNetwork17KClientSocketBase12peerResolverEv@Base 4:4.3.4
 _ZNK8KNetwork17KClientSocketBase13localResolverEv@Base 4:4.3.4
 _ZNK8KNetwork17KClientSocketBase14bytesAvailableEv@Base 4:4.3.4
 _ZNK8KNetwork17KClientSocketBase14emitsReadyReadEv@Base 4:4.3.4
 _ZNK8KNetwork17KClientSocketBase15emitsReadyWriteEv@Base 4:4.3.4
 _ZNK8KNetwork17KClientSocketBase5stateEv@Base 4:4.3.4
 _ZNK8KNetwork18KInetSocketAddress4portEv@Base 4:4.3.4
 _ZNK8KNetwork18KInetSocketAddress7scopeIdEv@Base 4:4.3.4
 _ZNK8KNetwork18KInetSocketAddress8flowinfoEv@Base 4:4.3.4
 _ZNK8KNetwork18KInetSocketAddress9ipAddressEv@Base 4:4.3.4
 _ZNK8KNetwork18KInetSocketAddress9ipVersionEv@Base 4:4.3.4
 _ZNK8KNetwork18KSocksSocketDevice11peerAddressEv@Base 4:4.3.4
 _ZNK8KNetwork18KSocksSocketDevice12capabilitiesEv@Base 4:4.3.4
 _ZNK8KNetwork18KSocksSocketDevice12localAddressEv@Base 4:4.3.4
 _ZNK8KNetwork18KSocksSocketDevice15externalAddressEv@Base 4:4.3.4
 _ZNK8KNetwork18KUnixSocketAddress8pathnameEv@Base 4:4.3.4
 _ZNK8KNetwork22KHttpProxySocketDevice11peerAddressEv@Base 4:4.3.4
 _ZNK8KNetwork22KHttpProxySocketDevice11proxyServerEv@Base 4:4.3.4
 _ZNK8KNetwork22KHttpProxySocketDevice12capabilitiesEv@Base 4:4.3.4
 _ZNK8KNetwork22KHttpProxySocketDevice15externalAddressEv@Base 4:4.3.4
 _ZNK8KNetwork9KResolver10metaObjectEv@Base 4:4.3.4
 _ZNK8KNetwork9KResolver11errorStringEv@Base 4:4.3.4
 _ZNK8KNetwork9KResolver11serviceNameEv@Base 4:4.3.4
 _ZNK8KNetwork9KResolver11systemErrorEv@Base 4:4.3.4
 _ZNK8KNetwork9KResolver5errorEv@Base 4:4.3.4
 _ZNK8KNetwork9KResolver5flagsEv@Base 4:4.3.4
 _ZNK8KNetwork9KResolver6statusEv@Base 4:4.3.4
 _ZNK8KNetwork9KResolver7resultsEv@Base 4:4.3.4
 _ZNK8KNetwork9KResolver8nodeNameEv@Base 4:4.3.4
 _ZNK8KNetwork9KResolver9isRunningEv@Base 4:4.3.4
 _ZNK8KProcess10metaObjectEv@Base 4:4.3.4
 _ZNK8KProcess17outputChannelModeEv@Base 4:4.3.4
 _ZNK8KProcess3pidEv@Base 4:4.3.4
 _ZNK8KProcess7programEv@Base 4:4.3.4
 _ZNK8KService10categoriesEv@Base 4:4.3.4
 _ZNK8KService11genericNameEv@Base 4:4.3.4
 _ZNK8KService11hasMimeTypeEPK12KServiceType@Base 4:4.3.4
 _ZNK8KService11hasMimeTypeERK7QString@Base 4:4.5.85
 _ZNK8KService11locateLocalEv@Base 4:4.3.4
 _ZNK8KService12serviceTypesEv@Base 4:4.3.4
 _ZNK8KService13isApplicationEv@Base 4:4.3.4
 _ZNK8KService13pluginKeywordEv@Base 4:4.3.4
 _ZNK8KService13substituteUidEv@Base 4:4.3.4
 _ZNK8KService14allowAsDefaultEv@Base 4:4.3.4
 _ZNK8KService14hasServiceTypeERK7QString@Base 4:4.3.4
 _ZNK8KService15dbusStartupTypeEv@Base 4:4.3.4
 _ZNK8KService15terminalOptionsEv@Base 4:4.3.4
 _ZNK8KService16desktopEntryNameEv@Base 4:4.3.4
 _ZNK8KService16desktopEntryPathEv@Base 4:4.3.4
 _ZNK8KService17initialPreferenceEv@Base 4:4.3.4
 _ZNK8KService18allowMultipleFilesEv@Base 4:4.3.4
 _ZNK8KService23untranslatedGenericNameEv@Base 4:4.3.4
 _ZNK8KService4execEv@Base 4:4.3.4
 _ZNK8KService4iconEv@Base 4:4.3.4
 _ZNK8KService4pathEv@Base 4:4.3.4
 _ZNK8KService4typeEv@Base 4:4.3.4
 _ZNK8KService6menuIdEv@Base 4:4.3.4
 _ZNK8KService7actionsEv@Base 4:4.3.4
 _ZNK8KService7commentEv@Base 4:4.3.4
 _ZNK8KService7docPathEv@Base 4:4.3.4
 _ZNK8KService7libraryEv@Base 4:4.3.4
 _ZNK8KService8keywordsEv@Base 4:4.3.4
 _ZNK8KService8propertyERK7QStringN8QVariant4TypeE@Base 4:4.3.4
 _ZNK8KService8terminalEv@Base 4:4.3.4
 _ZNK8KService8usernameEv@Base 4:4.3.4
 _ZNK8KService9mimeTypesEv@Base 4:4.8.3
 _ZNK8KService9noDisplayEv@Base 4:4.3.4
 _ZNK8KService9parentAppEv@Base 4:4.3.4
 _ZNK8KService9showInKDEEv@Base 4:4.4.95
 _ZNK8KService9storageIdEv@Base 4:4.3.4
 _ZNK8KTempDir10autoRemoveEv@Base 4:4.3.4
 _ZNK8KTempDir4nameEv@Base 4:4.3.4
 _ZNK8KTempDir6existsEv@Base 4:4.3.4
 _ZNK8KTempDir6statusEv@Base 4:4.3.4
 _ZNK9KCharsets12codecForNameERK7QString@Base 4:4.3.4
 _ZNK9KCharsets12codecForNameERK7QStringRb@Base 4:4.3.4
 _ZNK9KCharsets15encodingForNameERK7QString@Base 4:4.3.4
 _ZNK9KCharsets17encodingsByScriptEv@Base 4:4.3.4
 _ZNK9KCharsets18codecForNameOrNullERK10QByteArray@Base 4:4.3.4
 _ZNK9KCharsets19languageForEncodingERK7QString@Base 4:4.3.4
 _ZNK9KCharsets22availableEncodingNamesEv@Base 4:4.3.4
 _ZNK9KCharsets22descriptionForEncodingERK7QString@Base 4:4.3.4
 _ZNK9KCharsets24descriptiveEncodingNamesEv@Base 4:4.3.4
 _ZNK9KDateTime10isDateOnlyEv@Base 4:4.3.4
 _ZNK9KDateTime10outOfRangeEv@Base 4:4.3.4
 _ZNK9KDateTime10toTimeSpecERKNS_4SpecE@Base 4:4.3.4
 _ZNK9KDateTime10toTimeSpecERKS_@Base 4:4.3.4
 _ZNK9KDateTime11isClockTimeEv@Base 4:4.3.4
 _ZNK9KDateTime11isLocalZoneEv@Base 4:4.3.4
 _ZNK9KDateTime11secsTo_longERKS_@Base 4:4.3.4
 _ZNK9KDateTime11toClockTimeEv@Base 4:4.3.4
 _ZNK9KDateTime11toLocalZoneEv@Base 4:4.3.4
 _ZNK9KDateTime15isOffsetFromUtcEv@Base 4:4.3.4
 _ZNK9KDateTime15toOffsetFromUtcEi@Base 4:4.3.4
 _ZNK9KDateTime15toOffsetFromUtcEv@Base 4:4.3.4
 _ZNK9KDateTime18isSecondOccurrenceEv@Base 4:4.3.4
 _ZNK9KDateTime4Spec11isClockTimeEv@Base 4:4.3.4
 _ZNK9KDateTime4Spec11isLocalZoneEv@Base 4:4.3.4
 _ZNK9KDateTime4Spec12equivalentToERKS0_@Base 4:4.3.4
 _ZNK9KDateTime4Spec15isOffsetFromUtcEv@Base 4:4.3.4
 _ZNK9KDateTime4Spec4typeEv@Base 4:4.3.4
 _ZNK9KDateTime4Spec5isUtcEv@Base 4:4.3.4
 _ZNK9KDateTime4Spec7isValidEv@Base 4:4.3.4
 _ZNK9KDateTime4Spec8timeZoneEv@Base 4:4.3.4
 _ZNK9KDateTime4Spec9utcOffsetEv@Base 4:4.3.4
 _ZNK9KDateTime4SpeceqERKS0_@Base 4:4.3.4
 _ZNK9KDateTime4dateEv@Base 4:4.3.4
 _ZNK9KDateTime4timeEv@Base 4:4.3.4
 _ZNK9KDateTime5isUtcEv@Base 4:4.3.4
 _ZNK9KDateTime5toUtcEv@Base 4:4.3.4
 _ZNK9KDateTime6daysToERKS_@Base 4:4.3.4
 _ZNK9KDateTime6isNullEv@Base 4:4.3.4
 _ZNK9KDateTime6secsToERKS_@Base 4:4.3.4
 _ZNK9KDateTime6toZoneERK9KTimeZone@Base 4:4.3.4
 _ZNK9KDateTime7addDaysEi@Base 4:4.3.4
 _ZNK9KDateTime7addSecsEx@Base 4:4.3.4
 _ZNK9KDateTime7compareERKS_@Base 4:4.3.4
 _ZNK9KDateTime7isValidEv@Base 4:4.3.4
 _ZNK9KDateTime8addMSecsEx@Base 4:4.3.4
 _ZNK9KDateTime8addYearsEi@Base 4:4.3.4
 _ZNK9KDateTime8dateTimeEv@Base 4:4.3.4
 _ZNK9KDateTime8timeSpecEv@Base 4:4.3.4
 _ZNK9KDateTime8timeTypeEv@Base 4:4.3.4
 _ZNK9KDateTime8timeZoneEv@Base 4:4.3.4
 _ZNK9KDateTime8toStringENS_10TimeFormatE@Base 4:4.3.4
 _ZNK9KDateTime8toStringERK7QString@Base 4:4.3.4
 _ZNK9KDateTime8toTime_tEv@Base 4:4.3.4
 _ZNK9KDateTime9addMonthsEi@Base 4:4.3.4
 _ZNK9KDateTime9utcOffsetEv@Base 4:4.3.4
 _ZNK9KDateTimeeqERKS_@Base 4:4.3.4
 _ZNK9KDateTimeltERKS_@Base 4:4.3.4
 _ZNK9KDirWatch10metaObjectEv@Base 4:4.4.95
 _ZNK9KDirWatch5ctimeERK7QString@Base 4:4.4.95
 _ZNK9KDirWatch8containsERK7QString@Base 4:4.4.95
 _ZNK9KLockFile7Private5isNfsEv@Base 4:4.7.1
 _ZNK9KLockFile8isLockedEv@Base 4:4.3.4
 _ZNK9KLockFile9staleTimeEv@Base 4:4.3.4
 _ZNK9KMimeType13mainExtensionEv@Base 4:4.3.4
 _ZNK9KMimeType14parentMimeTypeEv@Base 4:4.3.4
 _ZNK9KMimeType15parentMimeTypesEv@Base 4:4.3.4
 _ZNK9KMimeType18allParentMimeTypesEv@Base 4:4.3.4
 _ZNK9KMimeType21userSpecifiedIconNameEv@Base 4:4.3.4
 _ZNK9KMimeType2isERK7QString@Base 4:4.3.4
 _ZNK9KMimeType7commentERK4KUrl@Base 4:4.3.4
 _ZNK9KMimeType8iconNameERK4KUrl@Base 4:4.3.4
 _ZNK9KMimeType8patternsEv@Base 4:4.3.4
 _ZNK9KMimeType9isDefaultEv@Base 4:4.3.4
 _ZNK9KSaveFile11errorStringEv@Base 4:4.3.4
 _ZNK9KSaveFile5errorEv@Base 4:4.3.4
 _ZNK9KSaveFile8fileNameEv@Base 4:4.3.4
 _ZNK9KSslError11certificateEv@Base 4:4.3.4
 _ZNK9KSslError11errorStringEv@Base 4:4.3.4
 _ZNK9KSslError5errorEv@Base 4:4.3.4
 _ZNK9KTimeZone10Transition4timeEv@Base 4:4.3.4
 _ZNK9KTimeZone10Transition5phaseEv@Base 4:4.3.4
 _ZNK9KTimeZone10TransitionltERKS0_@Base 4:4.3.4
 _ZNK9KTimeZone10isDstAtUtcERK9QDateTime@Base 4:4.3.4
 _ZNK9KTimeZone10toZoneTimeERK9QDateTimePb@Base 4:4.3.4
 _ZNK9KTimeZone10transitionERK9QDateTimePPKNS_10TransitionEPb@Base 4:4.3.4
 _ZNK9KTimeZone10utcOffsetsEv@Base 4:4.3.4
 _ZNK9KTimeZone11LeapSeconds11leapSecondsEv@Base 4:4.3.4
 _ZNK9KTimeZone11LeapSeconds7commentEv@Base 4:4.3.4
 _ZNK9KTimeZone11LeapSeconds7isValidEv@Base 4:4.3.4
 _ZNK9KTimeZone11LeapSeconds8dateTimeEv@Base 4:4.3.4
 _ZNK9KTimeZone11LeapSecondsltERKS0_@Base 4:4.3.4
 _ZNK9KTimeZone11countryCodeEv@Base 4:4.3.4
 _ZNK9KTimeZone11offsetAtUtcERK9QDateTime@Base 4:4.3.4
 _ZNK9KTimeZone11transitionsERK9QDateTimeS2_@Base 4:4.3.4
 _ZNK9KTimeZone12abbreviationERK9QDateTime@Base 4:4.3.4
 _ZNK9KTimeZone13abbreviationsEv@Base 4:4.3.4
 _ZNK9KTimeZone13currentOffsetEN2Qt8TimeSpecE@Base 4:4.3.4
 _ZNK9KTimeZone14hasTransitionsEv@Base 4:4.3.4
 _ZNK9KTimeZone15transitionIndexERK9QDateTimePiPb@Base 4:4.3.4
 _ZNK9KTimeZone15transitionTimesERKNS_5PhaseERK9QDateTimeS5_@Base 4:4.3.4
 _ZNK9KTimeZone16offsetAtZoneTimeERK9QDateTimePi@Base 4:4.3.4
 _ZNK9KTimeZone17leapSecondChangesEv@Base 4:4.3.4
 _ZNK9KTimeZone4dataEb@Base 4:4.3.4
 _ZNK9KTimeZone4nameEv@Base 4:4.3.4
 _ZNK9KTimeZone4typeEv@Base 4:4.3.4
 _ZNK9KTimeZone5Phase13abbreviationsEv@Base 4:4.3.4
 _ZNK9KTimeZone5Phase5isDstEv@Base 4:4.3.4
 _ZNK9KTimeZone5Phase7commentEv@Base 4:4.3.4
 _ZNK9KTimeZone5Phase9utcOffsetEv@Base 4:4.3.4
 _ZNK9KTimeZone5PhaseeqERKS0_@Base 4:4.3.4
 _ZNK9KTimeZone5isDstEl@Base 4:4.3.4
 _ZNK9KTimeZone5parseEv@Base 4:4.3.4
 _ZNK9KTimeZone5toUtcERK9QDateTime@Base 4:4.3.4
 _ZNK9KTimeZone6offsetEl@Base 4:4.3.4
 _ZNK9KTimeZone6phasesEv@Base 4:4.3.4
 _ZNK9KTimeZone6sourceEv@Base 4:4.3.4
 _ZNK9KTimeZone7commentEv@Base 4:4.3.4
 _ZNK9KTimeZone7convertERKS_RK9QDateTime@Base 4:4.3.4
 _ZNK9KTimeZone7isValidEv@Base 4:4.3.4
 _ZNK9KTimeZone8latitudeEv@Base 4:4.3.4
 _ZNK9KTimeZone9longitudeEv@Base 4:4.3.4
 _ZNK9KTimeZoneeqERKS_@Base 4:4.3.4
 _ZTCN8KNetwork13KServerSocketE8_NS_18KPassiveSocketBaseE@Base 4:4.3.4
 _ZTCN8KNetwork13KSocketDeviceE0_NS_17KActiveSocketBaseE@Base 4:4.3.4
 _ZTCN8KNetwork13KSocketDeviceE8_NS_18KPassiveSocketBaseE@Base 4:4.3.4
 _ZTCN8KNetwork13KStreamSocketE0_NS_17KActiveSocketBaseE@Base 4:4.3.4
 _ZTCN8KNetwork13KStreamSocketE0_NS_17KClientSocketBaseE@Base 4:4.3.4
 _ZTCN8KNetwork15KBufferedSocketE0_NS_13KStreamSocketE@Base 4:4.3.4
 _ZTCN8KNetwork15KBufferedSocketE0_NS_17KActiveSocketBaseE@Base 4:4.3.4
 _ZTCN8KNetwork15KBufferedSocketE0_NS_17KClientSocketBaseE@Base 4:4.3.4
 _ZTCN8KNetwork15KDatagramSocketE0_NS_17KActiveSocketBaseE@Base 4:4.3.4
 _ZTCN8KNetwork15KDatagramSocketE0_NS_17KClientSocketBaseE@Base 4:4.3.4
 _ZTCN8KNetwork17KClientSocketBaseE0_NS_17KActiveSocketBaseE@Base 4:4.3.4
 _ZTCN8KNetwork18KSocksSocketDeviceE0_NS_13KSocketDeviceE@Base 4:4.3.4
 _ZTCN8KNetwork18KSocksSocketDeviceE0_NS_17KActiveSocketBaseE@Base 4:4.3.4
 _ZTCN8KNetwork18KSocksSocketDeviceE8_NS_18KPassiveSocketBaseE@Base 4:4.3.4
 _ZTCN8KNetwork22KHttpProxySocketDeviceE0_NS_13KSocketDeviceE@Base 4:4.3.4
 _ZTCN8KNetwork22KHttpProxySocketDeviceE0_NS_17KActiveSocketBaseE@Base 4:4.3.4
 _ZTCN8KNetwork22KHttpProxySocketDeviceE8_NS_18KPassiveSocketBaseE@Base 4:4.3.4
 _ZTI10KAutostart@Base 4:4.3.4
 _ZTI10KDEDModule@Base 4:4.3.4
 _ZTI10KFilterDev@Base 4:4.3.4
 _ZTI10KLibLoader@Base 4:4.3.4
 _ZTI10KTcpSocket@Base 4:4.3.4
 _ZTI11KConfigBase@Base 4:4.3.4
 _ZTI11KFilterBase@Base 4:4.3.4
 _ZTI11KGzipFilter@Base 4:4.3.4
 _ZTI11KJobPrivate@Base 4:4.3.4
 _ZTI12KArchiveFile@Base 4:4.4.95
 _ZTI12KConfigGroup@Base 4:4.3.4
 _ZTI12KDesktopFile@Base 4:4.3.4
 _ZTI12KLocalSocket@Base 4:4.3.4
 _ZTI12KServiceType@Base 4:4.3.4
 _ZTI12KSycocaEntry@Base 4:4.3.4
 _ZTI13KArchiveEntry@Base 4:4.4.95
 _ZTI13KAutoSaveFile@Base 4:4.3.4
 _ZTI13KCompositeJob@Base 4:4.3.4
 _ZTI13KCurrencyCode@Base 4:4.4.0
 _ZTI13KPluginLoader@Base 4:4.4.4-2~
 _ZTI13KProtocolInfo@Base 4:4.3.4
 _ZTI13KServiceGroup@Base 4:4.3.4
 _ZTI13KSharedConfig@Base 4:4.3.4
 _ZTI13KStandardDirs@Base 4:4.3.4
 _ZTI13KTimeZoneData@Base 4:4.3.4
 _ZTI13KZipFileEntry@Base 4:4.4.95
 _ZTI14KComponentData@Base 4:4.3.4
 _ZTI14KConfigBackend@Base 4:4.3.4
 _ZTI14KJobUiDelegate@Base 4:4.3.4
 _ZTI14KPluginFactory@Base 4:4.3.4
 _ZTI14KSycocaFactory@Base 4:4.3.4
 _ZTI14KTemporaryFile@Base 4:4.3.4
 _ZTI15KCalendarSystem@Base 4:4.3.4
 _ZTI15KFolderMimeType@Base 4:4.3.4
 _ZTI15KRandomSequence@Base 4:4.3.4
 _ZTI15KServiceFactory@Base 4:4.3.4
 _ZTI15KSystemTimeZone@Base 4:4.3.4
 _ZTI15KTimeZoneSource@Base 4:4.3.4
 _ZTI15KToolInvocation@Base 4:4.3.4
 _ZTI15KTzfileTimeZone@Base 4:4.3.4
 _ZTI16KMimeTypeFactory@Base 4:4.3.4
 _ZTI16KSystemTimeZones@Base 4:4.3.4
 _ZTI16KTimeZoneBackend@Base 4:4.3.4
 _ZTI17KArchiveDirectory@Base 4:4.4.95
 _ZTI18KCharMacroExpander@Base 4:4.3.4
 _ZTI18KLocalSocketServer@Base 4:4.3.4
 _ZTI18KMacroExpanderBase@Base 4:4.3.4
 _ZTI18KWordMacroExpander@Base 4:4.3.4
 _ZTI19KConfigSkeletonItem@Base 4:4.3.4
 _ZTI19KCoreConfigSkeleton@Base 4:4.3.4
 _ZTI19KServiceTypeFactory@Base 4:4.3.4
 _ZTI20KCompositeJobPrivate@Base 4:4.3.4
 _ZTI20KJobTrackerInterface@Base 4:4.3.4
 _ZTI20KProtocolInfoFactory@Base 4:4.3.4
 _ZTI20KServiceGroupFactory@Base 4:4.3.4
 _ZTI21KSystemTimeZoneSource@Base 4:4.3.4
 _ZTI21KTzfileTimeZoneSource@Base 4:4.3.4
 _ZTI22KSystemTimeZoneBackend@Base 4:4.3.4
 _ZTI22KTzfileTimeZoneBackend@Base 4:4.3.4
 _ZTI24OrgKdeKLauncherInterface@Base 4:4.3.4
 _ZTI3KAr@Base 4:4.4.95
 _ZTI4KJob@Base 4:4.3.4
 _ZTI4KTar@Base 4:4.4.95
 _ZTI4KZip@Base 4:4.4.95
 _ZTI7KConfig@Base 4:4.3.4
 _ZTI7KLocale@Base 4:4.3.4
 _ZTI7KSycoca@Base 4:4.3.4
 _ZTI8KArchive@Base 4:4.4.95
 _ZTI8KLibrary@Base 4:4.3.4
 _ZTI8KMemFile@Base 4:4.3.4
 _ZTI8KProcess@Base 4:4.3.4
 _ZTI8KService@Base 4:4.3.4
 _ZTI9KCharsets@Base 4:4.3.4
 _ZTI9KDirWatch@Base 4:4.4.95
 _ZTI9KMimeType@Base 4:4.3.4
 _ZTI9KSaveFile@Base 4:4.3.4
 _ZTI9KTimeZone@Base 4:4.3.4
 _ZTIN16KMimeTypeFactory13MimeTypeEntryE@Base 4:4.5.85
 _ZTIN16KMimeTypeFactory20MimeTypeEntryPrivateE@Base 4:4.5.85
 _ZTIN19KCoreConfigSkeleton10ItemDoubleE@Base 4:4.3.4
 _ZTIN19KCoreConfigSkeleton10ItemStringE@Base 4:4.3.4
 _ZTIN19KCoreConfigSkeleton11ItemIntListE@Base 4:4.3.4
 _ZTIN19KCoreConfigSkeleton11ItemUrlListE@Base 4:4.3.4
 _ZTIN19KCoreConfigSkeleton12ItemDateTimeE@Base 4:4.3.4
 _ZTIN19KCoreConfigSkeleton12ItemLongLongE@Base 4:4.3.4
 _ZTIN19KCoreConfigSkeleton12ItemPasswordE@Base 4:4.3.4
 _ZTIN19KCoreConfigSkeleton12ItemPathListE@Base 4:4.3.4
 _ZTIN19KCoreConfigSkeleton12ItemPropertyE@Base 4:4.3.4
 _ZTIN19KCoreConfigSkeleton13ItemULongLongE@Base 4:4.3.4
 _ZTIN19KCoreConfigSkeleton14ItemStringListE@Base 4:4.3.4
 _ZTIN19KCoreConfigSkeleton7ItemIntE@Base 4:4.3.4
 _ZTIN19KCoreConfigSkeleton7ItemUrlE@Base 4:4.3.4
 _ZTIN19KCoreConfigSkeleton8ItemBoolE@Base 4:4.3.4
 _ZTIN19KCoreConfigSkeleton8ItemEnumE@Base 4:4.3.4
 _ZTIN19KCoreConfigSkeleton8ItemPathE@Base 4:4.3.4
 _ZTIN19KCoreConfigSkeleton8ItemRectE@Base 4:4.3.4
 _ZTIN19KCoreConfigSkeleton8ItemSizeE@Base 4:4.3.4
 _ZTIN19KCoreConfigSkeleton8ItemUIntE@Base 4:4.3.4
 _ZTIN19KCoreConfigSkeleton9ItemPointE@Base 4:4.3.4
 _ZTIN5KAuth11ActionReplyE@Base 4:4.4.0
 _ZTIN5KAuth13ActionWatcherE@Base 4:4.4.0
 _ZTIN6Sonnet13SpellerPluginE@Base 4:4.3.4
 _ZTIN6Sonnet17BackgroundCheckerE@Base 4:4.3.4
 _ZTIN6Sonnet6ClientE@Base 4:4.3.4
 _ZTIN6Sonnet6FilterE@Base 4:4.3.4
 _ZTIN6Sonnet6LoaderE@Base 4:4.3.4
 _ZTIN8KNetwork11KSocketBaseE@Base 4:4.3.4
 _ZTIN8KNetwork13KServerSocketE@Base 4:4.3.4
 _ZTIN8KNetwork13KSocketDeviceE@Base 4:4.3.4
 _ZTIN8KNetwork13KStreamSocketE@Base 4:4.3.4
 _ZTIN8KNetwork14KSocketAddressE@Base 4:4.3.4
 _ZTIN8KNetwork15KBufferedSocketE@Base 4:4.3.4
 _ZTIN8KNetwork15KDatagramSocketE@Base 4:4.3.4
 _ZTIN8KNetwork16KResolverResultsE@Base 4:4.3.4
 _ZTIN8KNetwork16KReverseResolverE@Base 4:4.3.4
 _ZTIN8KNetwork17KActiveSocketBaseE@Base 4:4.3.4
 _ZTIN8KNetwork17KClientSocketBaseE@Base 4:4.3.4
 _ZTIN8KNetwork18KInetSocketAddressE@Base 4:4.3.4
 _ZTIN8KNetwork18KPassiveSocketBaseE@Base 4:4.3.4
 _ZTIN8KNetwork18KSocksSocketDeviceE@Base 4:4.3.4
 _ZTIN8KNetwork18KUnixSocketAddressE@Base 4:4.3.4
 _ZTIN8KNetwork22KHttpProxySocketDeviceE@Base 4:4.3.4
 _ZTIN8KNetwork9KResolverE@Base 4:4.3.4
 _ZTS10KAutostart@Base 4:4.3.4
 _ZTS10KDEDModule@Base 4:4.3.4
 _ZTS10KFilterDev@Base 4:4.3.4
 _ZTS10KLibLoader@Base 4:4.3.4
 _ZTS10KTcpSocket@Base 4:4.3.4
 _ZTS11KConfigBase@Base 4:4.3.4
 _ZTS11KFilterBase@Base 4:4.3.4
 _ZTS11KGzipFilter@Base 4:4.3.4
 _ZTS11KJobPrivate@Base 4:4.3.4
 _ZTS12KArchiveFile@Base 4:4.4.95
 _ZTS12KConfigGroup@Base 4:4.3.4
 _ZTS12KDesktopFile@Base 4:4.3.4
 _ZTS12KLocalSocket@Base 4:4.3.4
 _ZTS12KServiceType@Base 4:4.3.4
 _ZTS12KSycocaEntry@Base 4:4.3.4
 _ZTS13KArchiveEntry@Base 4:4.4.95
 _ZTS13KAutoSaveFile@Base 4:4.3.4
 _ZTS13KCompositeJob@Base 4:4.3.4
 _ZTS13KCurrencyCode@Base 4:4.4.0
 _ZTS13KPluginLoader@Base 4:4.4.4-2~
 _ZTS13KProtocolInfo@Base 4:4.3.4
 _ZTS13KServiceGroup@Base 4:4.3.4
 _ZTS13KSharedConfig@Base 4:4.3.4
 _ZTS13KStandardDirs@Base 4:4.3.4
 _ZTS13KTimeZoneData@Base 4:4.3.4
 _ZTS13KZipFileEntry@Base 4:4.4.95
 _ZTS14KComponentData@Base 4:4.3.4
 _ZTS14KConfigBackend@Base 4:4.3.4
 _ZTS14KJobUiDelegate@Base 4:4.3.4
 _ZTS14KPluginFactory@Base 4:4.3.4
 _ZTS14KSycocaFactory@Base 4:4.3.4
 _ZTS14KTemporaryFile@Base 4:4.3.4
 _ZTS15KCalendarSystem@Base 4:4.3.4
 _ZTS15KFolderMimeType@Base 4:4.3.4
 _ZTS15KRandomSequence@Base 4:4.3.4
 _ZTS15KServiceFactory@Base 4:4.3.4
 _ZTS15KSystemTimeZone@Base 4:4.3.4
 _ZTS15KTimeZoneSource@Base 4:4.3.4
 _ZTS15KToolInvocation@Base 4:4.3.4
 _ZTS15KTzfileTimeZone@Base 4:4.3.4
 _ZTS16KMimeTypeFactory@Base 4:4.3.4
 _ZTS16KSystemTimeZones@Base 4:4.3.4
 _ZTS16KTimeZoneBackend@Base 4:4.3.4
 _ZTS17KArchiveDirectory@Base 4:4.4.95
 _ZTS18KCharMacroExpander@Base 4:4.3.4
 _ZTS18KLocalSocketServer@Base 4:4.3.4
 _ZTS18KMacroExpanderBase@Base 4:4.3.4
 _ZTS18KWordMacroExpander@Base 4:4.3.4
 _ZTS19KConfigSkeletonItem@Base 4:4.3.4
 _ZTS19KCoreConfigSkeleton@Base 4:4.3.4
 _ZTS19KServiceTypeFactory@Base 4:4.3.4
 _ZTS20KCompositeJobPrivate@Base 4:4.3.4
 _ZTS20KJobTrackerInterface@Base 4:4.3.4
 _ZTS20KProtocolInfoFactory@Base 4:4.3.4
 _ZTS20KServiceGroupFactory@Base 4:4.3.4
 _ZTS21KSystemTimeZoneSource@Base 4:4.3.4
 _ZTS21KTzfileTimeZoneSource@Base 4:4.3.4
 _ZTS22KSystemTimeZoneBackend@Base 4:4.3.4
 _ZTS22KTzfileTimeZoneBackend@Base 4:4.3.4
 _ZTS24OrgKdeKLauncherInterface@Base 4:4.3.4
 _ZTS3KAr@Base 4:4.4.95
 _ZTS4KJob@Base 4:4.3.4
 _ZTS4KTar@Base 4:4.4.95
 _ZTS4KZip@Base 4:4.4.95
 _ZTS7KConfig@Base 4:4.3.4
 _ZTS7KLocale@Base 4:4.3.4
 _ZTS7KSycoca@Base 4:4.3.4
 _ZTS8KArchive@Base 4:4.4.95
 _ZTS8KLibrary@Base 4:4.3.4
 _ZTS8KMemFile@Base 4:4.3.4
 _ZTS8KProcess@Base 4:4.3.4
 _ZTS8KService@Base 4:4.3.4
 _ZTS9KCharsets@Base 4:4.3.4
 _ZTS9KDirWatch@Base 4:4.4.95
 _ZTS9KMimeType@Base 4:4.3.4
 _ZTS9KSaveFile@Base 4:4.3.4
 _ZTS9KTimeZone@Base 4:4.3.4
 _ZTSN16KMimeTypeFactory13MimeTypeEntryE@Base 4:4.5.85
 _ZTSN16KMimeTypeFactory20MimeTypeEntryPrivateE@Base 4:4.5.85
 _ZTSN19KCoreConfigSkeleton10ItemDoubleE@Base 4:4.3.4
 _ZTSN19KCoreConfigSkeleton10ItemStringE@Base 4:4.3.4
 _ZTSN19KCoreConfigSkeleton11ItemIntListE@Base 4:4.3.4
 _ZTSN19KCoreConfigSkeleton11ItemUrlListE@Base 4:4.3.4
 _ZTSN19KCoreConfigSkeleton12ItemDateTimeE@Base 4:4.3.4
 _ZTSN19KCoreConfigSkeleton12ItemLongLongE@Base 4:4.3.4
 _ZTSN19KCoreConfigSkeleton12ItemPasswordE@Base 4:4.3.4
 _ZTSN19KCoreConfigSkeleton12ItemPathListE@Base 4:4.3.4
 _ZTSN19KCoreConfigSkeleton12ItemPropertyE@Base 4:4.3.4
 _ZTSN19KCoreConfigSkeleton13ItemULongLongE@Base 4:4.3.4
 _ZTSN19KCoreConfigSkeleton14ItemStringListE@Base 4:4.3.4
 _ZTSN19KCoreConfigSkeleton7ItemIntE@Base 4:4.3.4
 _ZTSN19KCoreConfigSkeleton7ItemUrlE@Base 4:4.3.4
 _ZTSN19KCoreConfigSkeleton8ItemBoolE@Base 4:4.3.4
 _ZTSN19KCoreConfigSkeleton8ItemEnumE@Base 4:4.3.4
 _ZTSN19KCoreConfigSkeleton8ItemPathE@Base 4:4.3.4
 _ZTSN19KCoreConfigSkeleton8ItemRectE@Base 4:4.3.4
 _ZTSN19KCoreConfigSkeleton8ItemSizeE@Base 4:4.3.4
 _ZTSN19KCoreConfigSkeleton8ItemUIntE@Base 4:4.3.4
 _ZTSN19KCoreConfigSkeleton9ItemPointE@Base 4:4.3.4
 _ZTSN5KAuth11ActionReplyE@Base 4:4.4.0
 _ZTSN5KAuth13ActionWatcherE@Base 4:4.4.0
 _ZTSN6Sonnet13SpellerPluginE@Base 4:4.3.4
 _ZTSN6Sonnet17BackgroundCheckerE@Base 4:4.3.4
 _ZTSN6Sonnet6ClientE@Base 4:4.3.4
 _ZTSN6Sonnet6FilterE@Base 4:4.3.4
 _ZTSN6Sonnet6LoaderE@Base 4:4.3.4
 _ZTSN8KNetwork11KSocketBaseE@Base 4:4.3.4
 _ZTSN8KNetwork13KServerSocketE@Base 4:4.3.4
 _ZTSN8KNetwork13KSocketDeviceE@Base 4:4.3.4
 _ZTSN8KNetwork13KStreamSocketE@Base 4:4.3.4
 _ZTSN8KNetwork14KSocketAddressE@Base 4:4.3.4
 _ZTSN8KNetwork15KBufferedSocketE@Base 4:4.3.4
 _ZTSN8KNetwork15KDatagramSocketE@Base 4:4.3.4
 _ZTSN8KNetwork16KResolverResultsE@Base 4:4.3.4
 _ZTSN8KNetwork16KReverseResolverE@Base 4:4.3.4
 _ZTSN8KNetwork17KActiveSocketBaseE@Base 4:4.3.4
 _ZTSN8KNetwork17KClientSocketBaseE@Base 4:4.3.4
 _ZTSN8KNetwork18KInetSocketAddressE@Base 4:4.3.4
 _ZTSN8KNetwork18KPassiveSocketBaseE@Base 4:4.3.4
 _ZTSN8KNetwork18KSocksSocketDeviceE@Base 4:4.3.4
 _ZTSN8KNetwork18KUnixSocketAddressE@Base 4:4.3.4
 _ZTSN8KNetwork22KHttpProxySocketDeviceE@Base 4:4.3.4
 _ZTSN8KNetwork9KResolverE@Base 4:4.3.4
 _ZTTN8KNetwork13KServerSocketE@Base 4:4.3.4
 _ZTTN8KNetwork13KSocketDeviceE@Base 4:4.3.4
 _ZTTN8KNetwork13KStreamSocketE@Base 4:4.3.4
 _ZTTN8KNetwork15KBufferedSocketE@Base 4:4.3.4
 _ZTTN8KNetwork15KDatagramSocketE@Base 4:4.3.4
 _ZTTN8KNetwork17KActiveSocketBaseE@Base 4:4.3.4
 _ZTTN8KNetwork17KClientSocketBaseE@Base 4:4.3.4
 _ZTTN8KNetwork18KPassiveSocketBaseE@Base 4:4.3.4
 _ZTTN8KNetwork18KSocksSocketDeviceE@Base 4:4.3.4
 _ZTTN8KNetwork22KHttpProxySocketDeviceE@Base 4:4.3.4
 _ZTV10KAutostart@Base 4:4.3.4
 _ZTV10KDEDModule@Base 4:4.3.4
 _ZTV10KFilterDev@Base 4:4.3.4
 _ZTV10KLibLoader@Base 4:4.3.4
 _ZTV10KTcpSocket@Base 4:4.3.4
 _ZTV11KConfigBase@Base 4:4.3.4
 _ZTV11KFilterBase@Base 4:4.3.4
 _ZTV11KGzipFilter@Base 4:4.3.4
 _ZTV11KJobPrivate@Base 4:4.3.4
 _ZTV12KArchiveFile@Base 4:4.4.95
 _ZTV12KConfigGroup@Base 4:4.3.4
 _ZTV12KDesktopFile@Base 4:4.3.4
 _ZTV12KLocalSocket@Base 4:4.3.4
 _ZTV12KServiceType@Base 4:4.3.4
 _ZTV12KSycocaEntry@Base 4:4.3.4
 _ZTV13KArchiveEntry@Base 4:4.4.95
 _ZTV13KAutoSaveFile@Base 4:4.3.4
 _ZTV13KCompositeJob@Base 4:4.3.4
 _ZTV13KCurrencyCode@Base 4:4.4.0
 _ZTV13KPluginLoader@Base 4:4.4.4-2~
 _ZTV13KProtocolInfo@Base 4:4.3.4
 _ZTV13KServiceGroup@Base 4:4.3.4
 _ZTV13KSharedConfig@Base 4:4.3.4
 _ZTV13KStandardDirs@Base 4:4.3.4
 _ZTV13KTimeZoneData@Base 4:4.3.4
 _ZTV13KZipFileEntry@Base 4:4.4.95
 _ZTV14KComponentData@Base 4:4.3.4
 _ZTV14KConfigBackend@Base 4:4.3.4
 _ZTV14KJobUiDelegate@Base 4:4.3.4
 _ZTV14KPluginFactory@Base 4:4.3.4
 _ZTV14KSycocaFactory@Base 4:4.3.4
 _ZTV14KTemporaryFile@Base 4:4.3.4
 _ZTV15KCalendarSystem@Base 4:4.3.4
 _ZTV15KFolderMimeType@Base 4:4.3.4
 _ZTV15KRandomSequence@Base 4:4.3.4
 _ZTV15KServiceFactory@Base 4:4.3.4
 _ZTV15KSystemTimeZone@Base 4:4.3.4
 _ZTV15KTimeZoneSource@Base 4:4.3.4
 _ZTV15KToolInvocation@Base 4:4.3.4
 _ZTV15KTzfileTimeZone@Base 4:4.3.4
 _ZTV16KMimeTypeFactory@Base 4:4.3.4
 _ZTV16KSystemTimeZones@Base 4:4.3.4
 _ZTV16KTimeZoneBackend@Base 4:4.3.4
 _ZTV17KArchiveDirectory@Base 4:4.4.95
 _ZTV18KCharMacroExpander@Base 4:4.3.4
 _ZTV18KLocalSocketServer@Base 4:4.3.4
 _ZTV18KMacroExpanderBase@Base 4:4.3.4
 _ZTV18KWordMacroExpander@Base 4:4.3.4
 _ZTV19KConfigSkeletonItem@Base 4:4.3.4
 _ZTV19KCoreConfigSkeleton@Base 4:4.3.4
 _ZTV19KServiceTypeFactory@Base 4:4.3.4
 _ZTV20KCompositeJobPrivate@Base 4:4.3.4
 _ZTV20KJobTrackerInterface@Base 4:4.3.4
 _ZTV20KProtocolInfoFactory@Base 4:4.3.4
 _ZTV20KServiceGroupFactory@Base 4:4.3.4
 _ZTV21KSystemTimeZoneSource@Base 4:4.3.4
 _ZTV21KTzfileTimeZoneSource@Base 4:4.3.4
 _ZTV22KSystemTimeZoneBackend@Base 4:4.3.4
 _ZTV22KTzfileTimeZoneBackend@Base 4:4.3.4
 _ZTV24OrgKdeKLauncherInterface@Base 4:4.3.4
 _ZTV3KAr@Base 4:4.4.95
 _ZTV4KJob@Base 4:4.3.4
 _ZTV4KTar@Base 4:4.4.95
 _ZTV4KZip@Base 4:4.4.95
 _ZTV7KConfig@Base 4:4.3.4
 _ZTV7KLocale@Base 4:4.3.4
 _ZTV7KSycoca@Base 4:4.3.4
 _ZTV8KArchive@Base 4:4.4.95
 _ZTV8KLibrary@Base 4:4.3.4
 _ZTV8KMemFile@Base 4:4.3.4
 _ZTV8KProcess@Base 4:4.3.4
 _ZTV8KService@Base 4:4.3.4
 _ZTV9KCharsets@Base 4:4.3.4
 _ZTV9KDirWatch@Base 4:4.4.95
 _ZTV9KMimeType@Base 4:4.3.4
 _ZTV9KSaveFile@Base 4:4.3.4
 _ZTV9KTimeZone@Base 4:4.3.4
 _ZTVN16KMimeTypeFactory13MimeTypeEntryE@Base 4:4.5.85
 _ZTVN16KMimeTypeFactory20MimeTypeEntryPrivateE@Base 4:4.5.85
 _ZTVN19KCoreConfigSkeleton10ItemDoubleE@Base 4:4.3.4
 _ZTVN19KCoreConfigSkeleton10ItemStringE@Base 4:4.3.4
 _ZTVN19KCoreConfigSkeleton11ItemIntListE@Base 4:4.3.4
 _ZTVN19KCoreConfigSkeleton11ItemUrlListE@Base 4:4.3.4
 _ZTVN19KCoreConfigSkeleton12ItemDateTimeE@Base 4:4.3.4
 _ZTVN19KCoreConfigSkeleton12ItemLongLongE@Base 4:4.3.4
 _ZTVN19KCoreConfigSkeleton12ItemPasswordE@Base 4:4.3.4
 _ZTVN19KCoreConfigSkeleton12ItemPathListE@Base 4:4.3.4
 _ZTVN19KCoreConfigSkeleton12ItemPropertyE@Base 4:4.3.4
 _ZTVN19KCoreConfigSkeleton13ItemULongLongE@Base 4:4.3.4
 _ZTVN19KCoreConfigSkeleton14ItemStringListE@Base 4:4.3.4
 _ZTVN19KCoreConfigSkeleton7ItemIntE@Base 4:4.3.4
 _ZTVN19KCoreConfigSkeleton7ItemUrlE@Base 4:4.3.4
 _ZTVN19KCoreConfigSkeleton8ItemBoolE@Base 4:4.3.4
 _ZTVN19KCoreConfigSkeleton8ItemEnumE@Base 4:4.3.4
 _ZTVN19KCoreConfigSkeleton8ItemPathE@Base 4:4.3.4
 _ZTVN19KCoreConfigSkeleton8ItemRectE@Base 4:4.3.4
 _ZTVN19KCoreConfigSkeleton8ItemSizeE@Base 4:4.3.4
 _ZTVN19KCoreConfigSkeleton8ItemUIntE@Base 4:4.3.4
 _ZTVN19KCoreConfigSkeleton9ItemPointE@Base 4:4.3.4
 _ZTVN5KAuth11ActionReplyE@Base 4:4.4.0
 _ZTVN5KAuth13ActionWatcherE@Base 4:4.4.0
 _ZTVN6Sonnet13SpellerPluginE@Base 4:4.3.4
 _ZTVN6Sonnet17BackgroundCheckerE@Base 4:4.3.4
 _ZTVN6Sonnet6ClientE@Base 4:4.3.4
 _ZTVN6Sonnet6FilterE@Base 4:4.3.4
 _ZTVN6Sonnet6LoaderE@Base 4:4.3.4
 _ZTVN8KNetwork11KSocketBaseE@Base 4:4.3.4
 _ZTVN8KNetwork13KServerSocketE@Base 4:4.3.4
 _ZTVN8KNetwork13KSocketDeviceE@Base 4:4.3.4
 _ZTVN8KNetwork13KStreamSocketE@Base 4:4.3.4
 _ZTVN8KNetwork14KSocketAddressE@Base 4:4.3.4
 _ZTVN8KNetwork15KBufferedSocketE@Base 4:4.3.4
 _ZTVN8KNetwork15KDatagramSocketE@Base 4:4.3.4
 _ZTVN8KNetwork16KResolverResultsE@Base 4:4.3.4
 _ZTVN8KNetwork16KReverseResolverE@Base 4:4.3.4
 _ZTVN8KNetwork17KActiveSocketBaseE@Base 4:4.3.4
 _ZTVN8KNetwork17KClientSocketBaseE@Base 4:4.3.4
 _ZTVN8KNetwork18KInetSocketAddressE@Base 4:4.3.4
 _ZTVN8KNetwork18KPassiveSocketBaseE@Base 4:4.3.4
 _ZTVN8KNetwork18KSocksSocketDeviceE@Base 4:4.3.4
 _ZTVN8KNetwork18KUnixSocketAddressE@Base 4:4.3.4
 _ZTVN8KNetwork22KHttpProxySocketDeviceE@Base 4:4.3.4
 _ZTVN8KNetwork9KResolverE@Base 4:4.3.4
 _ZThn8_N8KNetwork13KServerSocket4bindERKNS_14KResolverEntryE@Base 4:4.3.4
 _ZThn8_N8KNetwork13KServerSocket5closeEv@Base 4:4.3.4
 _ZThn8_N8KNetwork13KServerSocket6acceptEv@Base 4:4.3.4
 _ZThn8_N8KNetwork13KServerSocket6listenEi@Base 4:4.3.4
 _ZThn8_N8KNetwork13KServerSocketD0Ev@Base 4:4.3.4
 _ZThn8_N8KNetwork13KServerSocketD1Ev@Base 4:4.3.4
 _ZThn8_N8KNetwork13KSocketDevice4bindERKNS_14KResolverEntryE@Base 4:4.3.4
 _ZThn8_N8KNetwork13KSocketDevice5closeEv@Base 4:4.3.4
 _ZThn8_N8KNetwork13KSocketDevice6acceptEv@Base 4:4.3.4
 _ZThn8_N8KNetwork13KSocketDevice6listenEi@Base 4:4.3.4
 _ZThn8_N8KNetwork13KSocketDeviceD0Ev@Base 4:4.3.4
 _ZThn8_N8KNetwork13KSocketDeviceD1Ev@Base 4:4.3.4
 _ZThn8_N8KNetwork18KSocksSocketDevice4bindERKNS_14KResolverEntryE@Base 4:4.3.4
 _ZThn8_N8KNetwork18KSocksSocketDevice6acceptEv@Base 4:4.3.4
 _ZThn8_N8KNetwork18KSocksSocketDevice6listenEi@Base 4:4.3.4
 _ZThn8_N8KNetwork18KSocksSocketDeviceD0Ev@Base 4:4.3.4
 _ZThn8_N8KNetwork18KSocksSocketDeviceD1Ev@Base 4:4.3.4
 _ZThn8_N8KNetwork22KHttpProxySocketDevice5closeEv@Base 4:4.3.4
 _ZThn8_N8KNetwork22KHttpProxySocketDeviceD0Ev@Base 4:4.3.4
 _ZThn8_N8KNetwork22KHttpProxySocketDeviceD1Ev@Base 4:4.3.4
 _ZThn8_NK8KNetwork13KServerSocket12localAddressEv@Base 4:4.3.4
 _ZThn8_NK8KNetwork13KServerSocket15externalAddressEv@Base 4:4.3.4
 _ZThn8_NK8KNetwork13KSocketDevice12localAddressEv@Base 4:4.3.4
 _ZThn8_NK8KNetwork13KSocketDevice15externalAddressEv@Base 4:4.3.4
 _ZThn8_NK8KNetwork18KSocksSocketDevice12localAddressEv@Base 4:4.3.4
 _ZThn8_NK8KNetwork18KSocksSocketDevice15externalAddressEv@Base 4:4.3.4
 _ZThn8_NK8KNetwork22KHttpProxySocketDevice15externalAddressEv@Base 4:4.3.4
 _ZTv0_n12_N8KNetwork13KServerSocketD0Ev@Base 4:4.3.4
 _ZTv0_n12_N8KNetwork13KServerSocketD1Ev@Base 4:4.3.4
 _ZTv0_n12_N8KNetwork13KSocketDeviceD0Ev@Base 4:4.3.4
 _ZTv0_n12_N8KNetwork13KSocketDeviceD1Ev@Base 4:4.3.4
 _ZTv0_n12_N8KNetwork13KStreamSocketD0Ev@Base 4:4.3.4
 _ZTv0_n12_N8KNetwork13KStreamSocketD1Ev@Base 4:4.3.4
 _ZTv0_n12_N8KNetwork15KBufferedSocketD0Ev@Base 4:4.3.4
 _ZTv0_n12_N8KNetwork15KBufferedSocketD1Ev@Base 4:4.3.4
 _ZTv0_n12_N8KNetwork15KDatagramSocketD0Ev@Base 4:4.3.4
 _ZTv0_n12_N8KNetwork15KDatagramSocketD1Ev@Base 4:4.3.4
 _ZTv0_n12_N8KNetwork17KActiveSocketBaseD0Ev@Base 4:4.3.4
 _ZTv0_n12_N8KNetwork17KActiveSocketBaseD1Ev@Base 4:4.3.4
 _ZTv0_n12_N8KNetwork17KClientSocketBaseD0Ev@Base 4:4.3.4
 _ZTv0_n12_N8KNetwork17KClientSocketBaseD1Ev@Base 4:4.3.4
 _ZTv0_n12_N8KNetwork18KPassiveSocketBaseD0Ev@Base 4:4.3.4
 _ZTv0_n12_N8KNetwork18KPassiveSocketBaseD1Ev@Base 4:4.3.4
 _ZTv0_n12_N8KNetwork18KSocksSocketDeviceD0Ev@Base 4:4.3.4
 _ZTv0_n12_N8KNetwork18KSocksSocketDeviceD1Ev@Base 4:4.3.4
 _ZTv0_n12_N8KNetwork22KHttpProxySocketDeviceD0Ev@Base 4:4.3.4
 _ZTv0_n12_N8KNetwork22KHttpProxySocketDeviceD1Ev@Base 4:4.3.4
 _ZTv0_n16_N8KNetwork13KServerSocket16setSocketOptionsEi@Base 4:4.3.4
 _ZTv0_n16_N8KNetwork13KSocketDevice16setSocketOptionsEi@Base 4:4.3.4
 _ZTv0_n16_N8KNetwork15KBufferedSocket16setSocketOptionsEi@Base 4:4.3.4
 _ZTv0_n16_N8KNetwork17KClientSocketBase16setSocketOptionsEi@Base 4:4.3.4
 _ZTv0_n44_N8KNetwork15KBufferedSocket15setSocketDeviceEPNS_13KSocketDeviceE@Base 4:4.3.4
 _ZTv0_n44_N8KNetwork17KActiveSocketBase15setSocketDeviceEPNS_13KSocketDeviceE@Base 4:4.3.4
 _ZZN6KSocks13KSocksPrivate9debugAreaEvE6s_area@Base 4:4.4.0
 _Zls6QDebugRK14KLocalizedDate@Base 4:4.5.85
 _Zls6QDebugRK4KUrl@Base 4:4.3.4
 _Zls6QDebugRK9KDateTime@Base 4:4.3.4
 _ZlsR11QDataStreamRK14KLocalizedDate@Base 4:4.5.85
 _ZlsR11QDataStreamRK14KServiceAction@Base 4:4.3.4
 _ZlsR11QDataStreamRK9KDateTime@Base 4:4.5.0
 _ZlsR11QDataStreamRKN13KProtocolInfo10ExtraFieldE@Base 4:4.3.4
 _ZlsR11QDataStreamRKN9KDateTime4SpecE@Base 4:4.5.0
 _ZrsR11QDataStreamR14KLocalizedDate@Base 4:4.5.85
 _ZrsR11QDataStreamR14KServiceAction@Base 4:4.3.4
 _ZrsR11QDataStreamR9KDateTime@Base 4:4.5.0
 _ZrsR11QDataStreamRN13KProtocolInfo10ExtraFieldE@Base 4:4.3.4
 _ZrsR11QDataStreamRN9KDateTime4SpecE@Base 4:4.5.0
 _kde_internal_KConfigGroupGui@Base 4:4.3.4
 kde_kdebug_enable_dbus_interface@Base 4:4.3.4
 kiotrader_create_buffer@Base 4:4.3.4
 kiotrader_delete_buffer@Base 4:4.3.4
 kiotrader_flush_buffer@Base 4:4.3.4
 kiotrader_scan_buffer@Base 4:4.3.4
 kiotrader_scan_bytes@Base 4:4.3.4
 kiotrader_scan_string@Base 4:4.3.4
 kiotrader_switch_to_buffer@Base 4:4.3.4
 kiotraderalloc@Base 4:4.3.4
 kiotradererror@Base 4:4.3.4
 kiotraderfree@Base 4:4.3.4
 kiotraderget_column@Base 4:4.3.4
 kiotraderget_debug@Base 4:4.3.4
 kiotraderget_extra@Base 4:4.3.4
 kiotraderget_in@Base 4:4.3.4
 kiotraderget_leng@Base 4:4.3.4
 kiotraderget_lineno@Base 4:4.3.4
 kiotraderget_lval@Base 4:4.3.4
 kiotraderget_out@Base 4:4.3.4
 kiotraderget_text@Base 4:4.3.4
 kiotraderlex@Base 4:4.3.4
 kiotraderlex_destroy@Base 4:4.3.4
 kiotraderlex_init@Base 4:4.3.4
 kiotraderlex_init_extra@Base 4:4.3.4
 kiotraderparse@Base 4:4.3.4
 kiotraderpop_buffer_state@Base 4:4.3.4
 kiotraderpush_buffer_state@Base 4:4.3.4
 kiotraderrealloc@Base 4:4.3.4
 kiotraderrestart@Base 4:4.3.4
 kiotraderset_column@Base 4:4.3.4
 kiotraderset_debug@Base 4:4.3.4
 kiotraderset_extra@Base 4:4.3.4
 kiotraderset_in@Base 4:4.3.4
 kiotraderset_lineno@Base 4:4.3.4
 kiotraderset_lval@Base 4:4.3.4
 kiotraderset_out@Base 4:4.3.4
 kiotraderwrap@Base 4:4.3.4
 strlcat@Base 4:4.3.4
 strlcpy@Base 4:4.3.4
libkdefakes.so.5 libkdecore5 #MINVER#
* Build-Depends-Package: kdelibs5-dev
 strlcat@Base 4:4.3.4
 strlcpy@Base 4:4.3.4
