libnepomukutils.so.4 libnepomukutils4 #MINVER#
 _ZN7Nepomuk5Utils10FacetModel11qt_metacallEN11QMetaObject4CallEiPPv@Base 4:4.5.85
 _ZN7Nepomuk5Utils10FacetModel11qt_metacastEPKc@Base 4:4.5.85
 _ZN7Nepomuk5Utils10FacetModel14clearSelectionEv@Base 4:4.5.85
 _ZN7Nepomuk5Utils10FacetModel14setClientQueryERKNS_5Query5QueryE@Base 4:4.5.85
 _ZN7Nepomuk5Utils10FacetModel16queryTermChangedERKNS_5Query4TermE@Base 4:4.5.85
 _ZN7Nepomuk5Utils10FacetModel16staticMetaObjectE@Base 4:4.5.85
 _ZN7Nepomuk5Utils10FacetModel22extractFacetsFromQueryERKNS_5Query5QueryE@Base 4:4.5.85
 _ZN7Nepomuk5Utils10FacetModel5clearEv@Base 4:4.5.85
 _ZN7Nepomuk5Utils10FacetModel7Private19_k_queryTermChangedEv@Base 4:4.5.85
 _ZN7Nepomuk5Utils10FacetModel7Private19handleFacetsChangedEv@Base 4:4.5.85
 _ZN7Nepomuk5Utils10FacetModel7Private21_k_facetLayoutChangedEPNS0_5FacetE@Base 4:4.5.85
 _ZN7Nepomuk5Utils10FacetModel7Private24_k_facetSelectionChangedEPNS0_5FacetE@Base 4:4.5.85
 _ZN7Nepomuk5Utils10FacetModel7Private8addFacetEPNS0_5FacetE@Base 4:4.5.85
 _ZN7Nepomuk5Utils10FacetModel7setDataERK11QModelIndexRK8QVarianti@Base 4:4.5.85
 _ZN7Nepomuk5Utils10FacetModel8addFacetEPNS0_5FacetE@Base 4:4.5.85
 _ZN7Nepomuk5Utils10FacetModel9setFacetsERK5QListIPNS0_5FacetEE@Base 4:4.5.85
 _ZN7Nepomuk5Utils10FacetModelC1EP7QObject@Base 4:4.5.85
 _ZN7Nepomuk5Utils10FacetModelC2EP7QObject@Base 4:4.5.85
 _ZN7Nepomuk5Utils10FacetModelD0Ev@Base 4:4.5.85
 _ZN7Nepomuk5Utils10FacetModelD1Ev@Base 4:4.5.85
 _ZN7Nepomuk5Utils10FacetModelD2Ev@Base 4:4.5.85
 _ZN7Nepomuk5Utils10ProxyFacet11qt_metacallEN11QMetaObject4CallEiPPv@Base 4:4.5.85
 _ZN7Nepomuk5Utils10ProxyFacet11qt_metacastEPKc@Base 4:4.5.85
 _ZN7Nepomuk5Utils10ProxyFacet11setSelectedEib@Base 4:4.5.85
 _ZN7Nepomuk5Utils10ProxyFacet14clearSelectionEv@Base 4:4.5.85
 _ZN7Nepomuk5Utils10ProxyFacet14selectFromTermERKNS_5Query4TermE@Base 4:4.5.85
 _ZN7Nepomuk5Utils10ProxyFacet14setSourceFacetEPNS0_5FacetE@Base 4:4.5.85
 _ZN7Nepomuk5Utils10ProxyFacet16staticMetaObjectE@Base 4:4.5.85
 _ZN7Nepomuk5Utils10ProxyFacet17setFacetConditionERKNS_5Query4TermE@Base 4:4.5.85
 _ZN7Nepomuk5Utils10ProxyFacet23handleClientQueryChangeEv@Base 4:4.5.85
 _ZN7Nepomuk5Utils10ProxyFacet7Private21updateConditionStatusEv@Base 4:4.5.85
 _ZN7Nepomuk5Utils10ProxyFacetC1EP7QObject@Base 4:4.5.85
 _ZN7Nepomuk5Utils10ProxyFacetC2EP7QObject@Base 4:4.5.85
 _ZN7Nepomuk5Utils10ProxyFacetD0Ev@Base 4:4.5.85
 _ZN7Nepomuk5Utils10ProxyFacetD1Ev@Base 4:4.5.85
 _ZN7Nepomuk5Utils10ProxyFacetD2Ev@Base 4:4.5.85
 _ZN7Nepomuk5Utils11FacetWidget11qt_metacallEN11QMetaObject4CallEiPPv@Base 4:4.5.85
 _ZN7Nepomuk5Utils11FacetWidget11qt_metacastEPKc@Base 4:4.5.85
 _ZN7Nepomuk5Utils11FacetWidget14setClientQueryERKNS_5Query5QueryE@Base 4:4.5.85
 _ZN7Nepomuk5Utils11FacetWidget16queryTermChangedERKNS_5Query4TermE@Base 4:4.5.85
 _ZN7Nepomuk5Utils11FacetWidget16staticMetaObjectE@Base 4:4.5.85
 _ZN7Nepomuk5Utils11FacetWidget22extractFacetsFromQueryERKNS_5Query5QueryE@Base 4:4.5.85
 _ZN7Nepomuk5Utils11FacetWidget5clearEv@Base 4:4.5.85
 _ZN7Nepomuk5Utils11FacetWidget8addFacetEPNS0_5FacetE@Base 4:4.5.85
 _ZN7Nepomuk5Utils11FacetWidget9setFacetsERK5QListIPNS0_5FacetEE@Base 4:4.5.85
 _ZN7Nepomuk5Utils11FacetWidgetC1EP7QWidget@Base 4:4.5.85
 _ZN7Nepomuk5Utils11FacetWidgetC2EP7QWidget@Base 4:4.5.85
 _ZN7Nepomuk5Utils11FacetWidgetD0Ev@Base 4:4.5.85
 _ZN7Nepomuk5Utils11FacetWidgetD1Ev@Base 4:4.5.85
 _ZN7Nepomuk5Utils11FacetWidgetD2Ev@Base 4:4.5.85
 _ZN7Nepomuk5Utils11SimpleFacet11qt_metacallEN11QMetaObject4CallEiPPv@Base 4:4.5.85
 _ZN7Nepomuk5Utils11SimpleFacet11qt_metacastEPKc@Base 4:4.5.85
 _ZN7Nepomuk5Utils11SimpleFacet11setSelectedEib@Base 4:4.5.85
 _ZN7Nepomuk5Utils11SimpleFacet14clearSelectionEv@Base 4:4.5.85
 _ZN7Nepomuk5Utils11SimpleFacet14selectFromTermERKNS_5Query4TermE@Base 4:4.5.85
 _ZN7Nepomuk5Utils11SimpleFacet16setSelectionModeENS0_5Facet13SelectionModeE@Base 4:4.5.85
 _ZN7Nepomuk5Utils11SimpleFacet16staticMetaObjectE@Base 4:4.5.85
 _ZN7Nepomuk5Utils11SimpleFacet5clearEv@Base 4:4.5.85
 _ZN7Nepomuk5Utils11SimpleFacet7addTermERK7QStringRKNS_5Query4TermE@Base 4:4.5.85
 _ZN7Nepomuk5Utils11SimpleFacet7addTermERK8KGuiItemRKNS_5Query4TermE@Base 4:4.5.85
 _ZN7Nepomuk5Utils11SimpleFacetC1EP7QObject@Base 4:4.5.85
 _ZN7Nepomuk5Utils11SimpleFacetC2EP7QObject@Base 4:4.5.85
 _ZN7Nepomuk5Utils11SimpleFacetD0Ev@Base 4:4.5.85
 _ZN7Nepomuk5Utils11SimpleFacetD1Ev@Base 4:4.5.85
 _ZN7Nepomuk5Utils11SimpleFacetD2Ev@Base 4:4.5.85
 _ZN7Nepomuk5Utils12SearchWidget11qt_metacallEN11QMetaObject4CallEiPPv@Base 4:4.5.85
 _ZN7Nepomuk5Utils12SearchWidget11qt_metacastEPKc@Base 4:4.5.85
 _ZN7Nepomuk5Utils12SearchWidget12setBaseQueryERKNS_5Query5QueryE@Base 4:4.5.85
 _ZN7Nepomuk5Utils12SearchWidget14searchResourceEP7QWidgetRKNS_5Query5QueryE6QFlagsINS1_10ConfigFlagEE@Base 4:4.5.85
 _ZN7Nepomuk5Utils12SearchWidget14setConfigFlagsE6QFlagsINS1_10ConfigFlagEE@Base 4:4.5.85
 _ZN7Nepomuk5Utils12SearchWidget15searchResourcesEP7QWidgetRKNS_5Query5QueryE6QFlagsINS1_10ConfigFlagEE@Base 4:4.5.85
 _ZN7Nepomuk5Utils12SearchWidget16selectionChangedEv@Base 4:4.5.85
 _ZN7Nepomuk5Utils12SearchWidget16setSelectionModeEN17QAbstractItemView13SelectionModeE@Base 4:4.5.85
 _ZN7Nepomuk5Utils12SearchWidget16staticMetaObjectE@Base 4:4.5.85
 _ZN7Nepomuk5Utils12SearchWidget19SearchWidgetPrivate16setupFacetWidgetEv@Base 4:4.5.85
 _ZN7Nepomuk5Utils12SearchWidget19SearchWidgetPrivate18_k_listingFinishedEv@Base 4:4.5.85
 _ZN7Nepomuk5Utils12SearchWidget19SearchWidgetPrivate24_k_forwardCurrentChangedERK11QModelIndexS5_@Base 4:4.7.1
 _ZN7Nepomuk5Utils12SearchWidget19SearchWidgetPrivate24_k_queryComponentChangedEv@Base 4:4.5.85
 _ZN7Nepomuk5Utils12SearchWidget22currentResourceChangedERKNS_8ResourceES4_@Base 4:4.7.1
 _ZN7Nepomuk5Utils12SearchWidget8setQueryERKNS_5Query5QueryE@Base 4:4.5.85
 _ZN7Nepomuk5Utils12SearchWidgetC1EP7QWidget@Base 4:4.5.85
 _ZN7Nepomuk5Utils12SearchWidgetC2EP7QWidget@Base 4:4.5.85
 _ZN7Nepomuk5Utils12SearchWidgetD0Ev@Base 4:4.5.85
 _ZN7Nepomuk5Utils12SearchWidgetD1Ev@Base 4:4.5.85
 _ZN7Nepomuk5Utils12SearchWidgetD2Ev@Base 4:4.5.85
 _ZN7Nepomuk5Utils13ResourceModel11qt_metacallEN11QMetaObject4CallEiPPv@Base 4:4.5.85
 _ZN7Nepomuk5Utils13ResourceModel11qt_metacastEPKc@Base 4:4.5.85
 _ZN7Nepomuk5Utils13ResourceModel16staticMetaObjectE@Base 4:4.5.85
 _ZN7Nepomuk5Utils13ResourceModel7setDataERK11QModelIndexRK8QVarianti@Base 4:4.5.85
 _ZN7Nepomuk5Utils13ResourceModelC1EP7QObject@Base 4:4.5.85
 _ZN7Nepomuk5Utils13ResourceModelC2EP7QObject@Base 4:4.5.85
 _ZN7Nepomuk5Utils13ResourceModelD0Ev@Base 4:4.5.85
 _ZN7Nepomuk5Utils13ResourceModelD1Ev@Base 4:4.5.85
 _ZN7Nepomuk5Utils13ResourceModelD2Ev@Base 4:4.5.85
 _ZN7Nepomuk5Utils15createCopyEventERK4KUrlS3_RK9QDateTimeS3_@Base 4:4.5.85
 _ZN7Nepomuk5Utils15finishCopyEventERNS_8ResourceERK9QDateTime@Base 4:4.5.85
 _ZN7Nepomuk5Utils19SimpleResourceModel10addResultsERK5QListINS_5Query6ResultEE@Base 4:4.5.85
 _ZN7Nepomuk5Utils19SimpleResourceModel10removeRowsEiiRK11QModelIndex@Base 4:4.7.2
 _ZN7Nepomuk5Utils19SimpleResourceModel10setResultsERK5QListINS_5Query6ResultEE@Base 4:4.5.85
 _ZN7Nepomuk5Utils19SimpleResourceModel11addResourceERKNS_8ResourceE@Base 4:4.5.85
 _ZN7Nepomuk5Utils19SimpleResourceModel11qt_metacallEN11QMetaObject4CallEiPPv@Base 4:4.5.85
 _ZN7Nepomuk5Utils19SimpleResourceModel11qt_metacastEPKc@Base 4:4.5.85
 _ZN7Nepomuk5Utils19SimpleResourceModel12addResourcesERK5QListINS_8ResourceEE@Base 4:4.5.85
 _ZN7Nepomuk5Utils19SimpleResourceModel12setResourcesERK5QListINS_8ResourceEE@Base 4:4.5.85
 _ZN7Nepomuk5Utils19SimpleResourceModel16staticMetaObjectE@Base 4:4.5.85
 _ZN7Nepomuk5Utils19SimpleResourceModel5clearEv@Base 4:4.5.85
 _ZN7Nepomuk5Utils19SimpleResourceModel9addResultENS_5Query6ResultE@Base 4:4.5.85
 _ZN7Nepomuk5Utils19SimpleResourceModelC1EP7QObject@Base 4:4.5.85
 _ZN7Nepomuk5Utils19SimpleResourceModelC2EP7QObject@Base 4:4.5.85
 _ZN7Nepomuk5Utils19SimpleResourceModelD0Ev@Base 4:4.5.85
 _ZN7Nepomuk5Utils19SimpleResourceModelD1Ev@Base 4:4.5.85
 _ZN7Nepomuk5Utils19SimpleResourceModelD2Ev@Base 4:4.5.85
 _ZN7Nepomuk5Utils19formatPropertyValueERKNS_5Types8PropertyERKNS_7VariantERK5QListINS_8ResourceEE6QFlagsINS0_18PropertyFormatFlagEE@Base 4:4.5.85
 _ZN7Nepomuk5Utils20DynamicResourceFacet10setMaxRowsEi@Base 4:4.5.85
 _ZN7Nepomuk5Utils20DynamicResourceFacet11qt_metacallEN11QMetaObject4CallEiPPv@Base 4:4.5.85
 _ZN7Nepomuk5Utils20DynamicResourceFacet11qt_metacastEPKc@Base 4:4.5.85
 _ZN7Nepomuk5Utils20DynamicResourceFacet11setRelationERKNS_5Types8PropertyE@Base 4:4.5.85
 _ZN7Nepomuk5Utils20DynamicResourceFacet11setSelectedERKNS_8ResourceEb@Base 4:4.5.85
 _ZN7Nepomuk5Utils20DynamicResourceFacet11setSelectedEib@Base 4:4.5.85
 _ZN7Nepomuk5Utils20DynamicResourceFacet14clearSelectionEv@Base 4:4.5.85
 _ZN7Nepomuk5Utils20DynamicResourceFacet14selectFromTermERKNS_5Query4TermE@Base 4:4.5.85
 _ZN7Nepomuk5Utils20DynamicResourceFacet15setResourceTypeERKNS_5Types5ClassE@Base 4:4.5.85
 _ZN7Nepomuk5Utils20DynamicResourceFacet16setSelectionModeENS0_5Facet13SelectionModeE@Base 4:4.5.85
 _ZN7Nepomuk5Utils20DynamicResourceFacet16staticMetaObjectE@Base 4:4.5.85
 _ZN7Nepomuk5Utils20DynamicResourceFacet23handleClientQueryChangeEv@Base 4:4.5.85
 _ZN7Nepomuk5Utils20DynamicResourceFacet7Private10startQueryERKNS_5Query5QueryE@Base 4:4.5.85
 _ZN7Nepomuk5Utils20DynamicResourceFacet7Private11addResourceERKNS_8ResourceE@Base 4:4.5.85
 _ZN7Nepomuk5Utils20DynamicResourceFacet7Private13_k_newEntriesERK5QListINS_5Query6ResultEE@Base 4:4.5.85
 _ZN7Nepomuk5Utils20DynamicResourceFacet7Private19_k_populateFinishedEv@Base 4:4.5.85
 _ZN7Nepomuk5Utils20DynamicResourceFacet7Private7rebuildEb@Base 4:4.5.85
 _ZN7Nepomuk5Utils20DynamicResourceFacetC1EP7QObject@Base 4:4.5.85
 _ZN7Nepomuk5Utils20DynamicResourceFacetC2EP7QObject@Base 4:4.5.85
 _ZN7Nepomuk5Utils20DynamicResourceFacetD0Ev@Base 4:4.5.85
 _ZN7Nepomuk5Utils20DynamicResourceFacetD1Ev@Base 4:4.5.85
 _ZN7Nepomuk5Utils20DynamicResourceFacetD2Ev@Base 4:4.5.85
 _ZN7Nepomuk5Utils5Facet11qt_metacallEN11QMetaObject4CallEiPPv@Base 4:4.5.85
 _ZN7Nepomuk5Utils5Facet11qt_metacastEPKc@Base 4:4.5.85
 _ZN7Nepomuk5Utils5Facet13layoutChangedEPS1_@Base 4:4.5.85
 _ZN7Nepomuk5Utils5Facet14createTagFacetEP7QObject@Base 4:4.5.85
 _ZN7Nepomuk5Utils5Facet14setClientQueryERKNS_5Query5QueryE@Base 4:4.5.85
 _ZN7Nepomuk5Utils5Facet15createDateFacetEP7QObject@Base 4:4.5.85
 _ZN7Nepomuk5Utils5Facet15createTypeFacetEP7QObject@Base 4:4.5.85
 _ZN7Nepomuk5Utils5Facet16queryTermChangedEPS1_RKNS_5Query4TermE@Base 4:4.5.85
 _ZN7Nepomuk5Utils5Facet16selectionChangedEPS1_@Base 4:4.5.85
 _ZN7Nepomuk5Utils5Facet16setLayoutChangedEv@Base 4:4.5.85
 _ZN7Nepomuk5Utils5Facet16staticMetaObjectE@Base 4:4.5.85
 _ZN7Nepomuk5Utils5Facet17createRatingFacetEP7QObject@Base 4:4.5.85
 _ZN7Nepomuk5Utils5Facet19createFileTypeFacetEP7QObject@Base 4:4.5.85
 _ZN7Nepomuk5Utils5Facet19createPriorityFacetEP7QObject@Base 4:4.5.85
 _ZN7Nepomuk5Utils5Facet19setQueryTermChangedEv@Base 4:4.5.85
 _ZN7Nepomuk5Utils5Facet19setSelectionChangedEv@Base 4:4.5.85
 _ZN7Nepomuk5Utils5Facet23handleClientQueryChangeEv@Base 4:4.5.85
 _ZN7Nepomuk5Utils5FacetC1EP7QObject@Base 4:4.5.85
 _ZN7Nepomuk5Utils5FacetC2EP7QObject@Base 4:4.5.85
 _ZN7Nepomuk5Utils5FacetD0Ev@Base 4:4.5.85
 _ZN7Nepomuk5Utils5FacetD1Ev@Base 4:4.5.85
 _ZN7Nepomuk5Utils5FacetD2Ev@Base 4:4.5.85
 _ZNK7Nepomuk5Utils10FacetModel10metaObjectEv@Base 4:4.5.85
 _ZNK7Nepomuk5Utils10FacetModel11columnCountERK11QModelIndex@Base 4:4.5.85
 _ZNK7Nepomuk5Utils10FacetModel11hasChildrenERK11QModelIndex@Base 4:4.5.85
 _ZNK7Nepomuk5Utils10FacetModel4dataERK11QModelIndexi@Base 4:4.5.85
 _ZNK7Nepomuk5Utils10FacetModel5flagsERK11QModelIndex@Base 4:4.5.85
 _ZNK7Nepomuk5Utils10FacetModel5indexEiiRK11QModelIndex@Base 4:4.5.85
 _ZNK7Nepomuk5Utils10FacetModel6facetsEv@Base 4:4.5.85
 _ZNK7Nepomuk5Utils10FacetModel6parentERK11QModelIndex@Base 4:4.5.85
 _ZNK7Nepomuk5Utils10FacetModel7Private19parentIndexForFacetEPNS0_5FacetE@Base 4:4.5.85
 _ZNK7Nepomuk5Utils10FacetModel8rowCountERK11QModelIndex@Base 4:4.5.85
 _ZNK7Nepomuk5Utils10FacetModel9queryTermEv@Base 4:4.5.85
 _ZNK7Nepomuk5Utils10ProxyFacet10isSelectedEi@Base 4:4.5.85
 _ZNK7Nepomuk5Utils10ProxyFacet10metaObjectEv@Base 4:4.5.85
 _ZNK7Nepomuk5Utils10ProxyFacet11sourceFacetEv@Base 4:4.5.85
 _ZNK7Nepomuk5Utils10ProxyFacet13selectionModeEv@Base 4:4.5.85
 _ZNK7Nepomuk5Utils10ProxyFacet17facetConditionMetEv@Base 4:4.5.85
 _ZNK7Nepomuk5Utils10ProxyFacet5countEv@Base 4:4.5.85
 _ZNK7Nepomuk5Utils10ProxyFacet7guiItemEi@Base 4:4.5.85
 _ZNK7Nepomuk5Utils10ProxyFacet9queryTermEv@Base 4:4.5.85
 _ZNK7Nepomuk5Utils11FacetWidget10metaObjectEv@Base 4:4.5.85
 _ZNK7Nepomuk5Utils11FacetWidget6facetsEv@Base 4:4.5.85
 _ZNK7Nepomuk5Utils11FacetWidget9queryTermEv@Base 4:4.5.85
 _ZNK7Nepomuk5Utils11SimpleFacet10isSelectedEi@Base 4:4.5.85
 _ZNK7Nepomuk5Utils11SimpleFacet10metaObjectEv@Base 4:4.5.85
 _ZNK7Nepomuk5Utils11SimpleFacet13selectionModeEv@Base 4:4.5.85
 _ZNK7Nepomuk5Utils11SimpleFacet5countEv@Base 4:4.5.85
 _ZNK7Nepomuk5Utils11SimpleFacet6termAtEi@Base 4:4.5.85
 _ZNK7Nepomuk5Utils11SimpleFacet7Private7indexOfERKNS_5Query4TermE@Base 4:4.5.85
 _ZNK7Nepomuk5Utils11SimpleFacet7guiItemEi@Base 4:4.5.85
 _ZNK7Nepomuk5Utils11SimpleFacet9queryTermEv@Base 4:4.5.85
 _ZNK7Nepomuk5Utils12SearchWidget10metaObjectEv@Base 4:4.5.85
 _ZNK7Nepomuk5Utils12SearchWidget11configFlagsEv@Base 4:4.5.85
 _ZNK7Nepomuk5Utils12SearchWidget11facetWidgetEv@Base 4:4.5.85
 _ZNK7Nepomuk5Utils12SearchWidget13selectionModeEv@Base 4:4.5.85
 _ZNK7Nepomuk5Utils12SearchWidget15currentResourceEv@Base 4:4.5.85
 _ZNK7Nepomuk5Utils12SearchWidget17selectedResourcesEv@Base 4:4.5.85
 _ZNK7Nepomuk5Utils12SearchWidget19SearchWidgetPrivate12currentQueryEb@Base 4:4.5.85
 _ZNK7Nepomuk5Utils12SearchWidget5queryEv@Base 4:4.5.85
 _ZNK7Nepomuk5Utils12SearchWidget9baseQueryEv@Base 4:4.5.85
 _ZNK7Nepomuk5Utils13ResourceModel10headerDataEiN2Qt11OrientationEi@Base 4:4.5.85
 _ZNK7Nepomuk5Utils13ResourceModel10metaObjectEv@Base 4:4.5.85
 _ZNK7Nepomuk5Utils13ResourceModel11columnCountERK11QModelIndex@Base 4:4.5.85
 _ZNK7Nepomuk5Utils13ResourceModel4dataERK11QModelIndexi@Base 4:4.5.85
 _ZNK7Nepomuk5Utils13ResourceModel5flagsERK11QModelIndex@Base 4:4.5.85
 _ZNK7Nepomuk5Utils13ResourceModel6parentERK11QModelIndex@Base 4:4.5.85
 _ZNK7Nepomuk5Utils13ResourceModel8mimeDataERK5QListI11QModelIndexE@Base 4:4.5.85
 _ZNK7Nepomuk5Utils13ResourceModel9mimeTypesEv@Base 4:4.5.85
 _ZNK7Nepomuk5Utils19SimpleResourceModel10metaObjectEv@Base 4:4.5.85
 _ZNK7Nepomuk5Utils19SimpleResourceModel16indexForResourceERKNS_8ResourceE@Base 4:4.5.85
 _ZNK7Nepomuk5Utils19SimpleResourceModel16resourceForIndexERK11QModelIndex@Base 4:4.5.85
 _ZNK7Nepomuk5Utils19SimpleResourceModel5indexEiiRK11QModelIndex@Base 4:4.5.85
 _ZNK7Nepomuk5Utils19SimpleResourceModel8rowCountERK11QModelIndex@Base 4:4.5.85
 _ZNK7Nepomuk5Utils20DynamicResourceFacet10isSelectedEi@Base 4:4.5.85
 _ZNK7Nepomuk5Utils20DynamicResourceFacet10metaObjectEv@Base 4:4.5.85
 _ZNK7Nepomuk5Utils20DynamicResourceFacet10resourceAtEi@Base 4:4.5.85
 _ZNK7Nepomuk5Utils20DynamicResourceFacet12resourceTypeEv@Base 4:4.5.85
 _ZNK7Nepomuk5Utils20DynamicResourceFacet13resourceQueryERKNS_5Query5QueryE@Base 4:4.5.85
 _ZNK7Nepomuk5Utils20DynamicResourceFacet13selectionModeEv@Base 4:4.5.85
 _ZNK7Nepomuk5Utils20DynamicResourceFacet15resourceForTermERKNS_5Query4TermE@Base 4:4.5.85
 _ZNK7Nepomuk5Utils20DynamicResourceFacet15termForResourceERKNS_8ResourceE@Base 4:4.5.85
 _ZNK7Nepomuk5Utils20DynamicResourceFacet16getMoreResourcesEv@Base 4:4.5.85
 _ZNK7Nepomuk5Utils20DynamicResourceFacet17selectedResourcesEv@Base 4:4.5.85
 _ZNK7Nepomuk5Utils20DynamicResourceFacet5countEv@Base 4:4.5.85
 _ZNK7Nepomuk5Utils20DynamicResourceFacet7guiItemEi@Base 4:4.5.85
 _ZNK7Nepomuk5Utils20DynamicResourceFacet7maxRowsEv@Base 4:4.5.85
 _ZNK7Nepomuk5Utils20DynamicResourceFacet8relationEv@Base 4:4.5.85
 _ZNK7Nepomuk5Utils20DynamicResourceFacet9queryTermEv@Base 4:4.5.85
 _ZNK7Nepomuk5Utils5Facet10metaObjectEv@Base 4:4.5.85
 _ZNK7Nepomuk5Utils5Facet11clientQueryEv@Base 4:4.5.85
 _ZNK7Nepomuk5Utils5Facet4textEi@Base 4:4.5.85
 _ZNK7Nepomuk5Utils5Facet7guiItemEi@Base 4:4.5.85
 _ZTIN7Nepomuk5Utils10FacetModelE@Base 4:4.5.85
 _ZTIN7Nepomuk5Utils10ProxyFacetE@Base 4:4.5.85
 _ZTIN7Nepomuk5Utils11FacetWidgetE@Base 4:4.5.85
 _ZTIN7Nepomuk5Utils11SimpleFacetE@Base 4:4.5.85
 _ZTIN7Nepomuk5Utils12SearchWidgetE@Base 4:4.5.85
 _ZTIN7Nepomuk5Utils13ResourceModelE@Base 4:4.5.85
 _ZTIN7Nepomuk5Utils19SimpleResourceModelE@Base 4:4.5.85
 _ZTIN7Nepomuk5Utils20DynamicResourceFacet7PrivateE@Base 4:4.5.85
 _ZTIN7Nepomuk5Utils20DynamicResourceFacetE@Base 4:4.5.85
 _ZTIN7Nepomuk5Utils5FacetE@Base 4:4.5.85
 _ZTSN7Nepomuk5Utils10FacetModelE@Base 4:4.5.85
 _ZTSN7Nepomuk5Utils10ProxyFacetE@Base 4:4.5.85
 _ZTSN7Nepomuk5Utils11FacetWidgetE@Base 4:4.5.85
 _ZTSN7Nepomuk5Utils11SimpleFacetE@Base 4:4.5.85
 _ZTSN7Nepomuk5Utils12SearchWidgetE@Base 4:4.5.85
 _ZTSN7Nepomuk5Utils13ResourceModelE@Base 4:4.5.85
 _ZTSN7Nepomuk5Utils19SimpleResourceModelE@Base 4:4.5.85
 _ZTSN7Nepomuk5Utils20DynamicResourceFacet7PrivateE@Base 4:4.5.85
 _ZTSN7Nepomuk5Utils20DynamicResourceFacetE@Base 4:4.5.85
 _ZTSN7Nepomuk5Utils5FacetE@Base 4:4.5.85
 _ZTVN7Nepomuk5Utils10FacetModelE@Base 4:4.5.85
 _ZTVN7Nepomuk5Utils10ProxyFacetE@Base 4:4.5.85
 _ZTVN7Nepomuk5Utils11FacetWidgetE@Base 4:4.5.85
 _ZTVN7Nepomuk5Utils11SimpleFacetE@Base 4:4.5.85
 _ZTVN7Nepomuk5Utils12SearchWidgetE@Base 4:4.5.85
 _ZTVN7Nepomuk5Utils13ResourceModelE@Base 4:4.5.85
 _ZTVN7Nepomuk5Utils19SimpleResourceModelE@Base 4:4.5.85
 _ZTVN7Nepomuk5Utils20DynamicResourceFacet7PrivateE@Base 4:4.5.85
 _ZTVN7Nepomuk5Utils20DynamicResourceFacetE@Base 4:4.5.85
 _ZTVN7Nepomuk5Utils5FacetE@Base 4:4.5.85
 _ZThn8_N7Nepomuk5Utils11FacetWidgetD0Ev@Base 4:4.5.85
 _ZThn8_N7Nepomuk5Utils11FacetWidgetD1Ev@Base 4:4.5.85
 _ZThn8_N7Nepomuk5Utils12SearchWidgetD0Ev@Base 4:4.5.85
 _ZThn8_N7Nepomuk5Utils12SearchWidgetD1Ev@Base 4:4.5.85
