libpoppler-glib.so.8 libpoppler-glib8 #MINVER#
* Build-Depends-Package: libpoppler-glib-dev
 _Z13dest_new_gotoP16_PopplerDocumentP8LinkDest@Base 0.26.5
 _Z17_poppler_page_newP16_PopplerDocumentP4Pagei@Base 0.26.5
 _Z18_poppler_annot_newP5Annot@Base 0.26.5
 _Z18_poppler_layer_newP16_PopplerDocumentP6_LayerP6_GList@Base 0.26.5
 _Z18_poppler_media_newP14MediaRendition@Base 0.26.5
 _Z18_poppler_movie_newP5Movie@Base 0.26.5
 _Z19_poppler_action_newP16_PopplerDocumentP10LinkActionPKc@Base 0.26.5
 _Z22_poppler_dest_new_gotoP16_PopplerDocumentP8LinkDest@Base 0.26.5
 _Z23_poppler_annot_line_newP5Annot@Base 0.26.5
 _Z23_poppler_annot_text_newP5Annot@Base 0.26.5
 _Z23_poppler_attachment_newP8FileSpec@Base 0.26.5
 _Z23_poppler_form_field_newP16_PopplerDocumentP10FormWidget@Base 0.26.5
 _Z24_poppler_annot_movie_newP5Annot@Base 0.26.5
 _Z25_poppler_annot_circle_newP5Annot@Base 0.26.5
 _Z25_poppler_annot_screen_newP5Annot@Base 0.26.5
 _Z25_poppler_annot_square_newP5Annot@Base 0.26.5
 _Z27_poppler_goo_string_to_utf8P9GooString@Base 0.26.5
 _Z28_poppler_annot_free_text_newP5Annot@Base 0.26.5
 _Z28_poppler_document_get_layersP16_PopplerDocument@Base 0.26.5
 _Z30_poppler_annot_text_markup_newP5Annot@Base 0.26.5
 _Z34_poppler_annot_file_attachment_newP5Annot@Base 0.26.5
 _Z34_poppler_convert_pdf_date_to_gtimeP9GooStringPl@Base 0.26.5
 _Z35_poppler_document_get_layer_rbgroupP16_PopplerDocumentP6_Layer@Base 0.26.5
 _ZN10BaseStream11getFileNameEv@Base 0.26.5
 _ZN10BaseStream13getBaseStreamEv@Base 0.26.5
 _ZN10BaseStream18getUndecodedStreamEv@Base 0.26.5
 _ZN10BaseStream7getDictEv@Base 0.26.5
 _ZN10BaseStream8isBinaryEb@Base 0.26.5
 _ZN10BaseStream9getLengthEv@Base 0.26.5
 _ZN10CairoImage8setImageEP14_cairo_surface@Base 0.26.5
 _ZN10CairoImageC1Edddd@Base 0.26.5
 _ZN10CairoImageC2Edddd@Base 0.26.5
 _ZN10CairoImageD1Ev@Base 0.26.5
 _ZN10CairoImageD2Ev@Base 0.26.5
 _ZN13EnumNameValueI24PopplerStructureFormRoleE14attribute_typeE@Base 0.26.5
 _ZN13EnumNameValueI24PopplerStructureFormRoleE6valuesE@Base 0.26.5
 _ZN13EnumNameValueI25PopplerStructureFormStateE14attribute_typeE@Base 0.26.5
 _ZN13EnumNameValueI25PopplerStructureFormStateE6valuesE@Base 0.26.5
 _ZN13EnumNameValueI25PopplerStructurePlacementE14attribute_typeE@Base 0.26.5
 _ZN13EnumNameValueI25PopplerStructurePlacementE6valuesE@Base 0.26.5
 _ZN13EnumNameValueI25PopplerStructureRubyAlignE14attribute_typeE@Base 0.26.5
 _ZN13EnumNameValueI25PopplerStructureRubyAlignE6valuesE@Base 0.26.5
 _ZN13EnumNameValueI25PopplerStructureTextAlignE14attribute_typeE@Base 0.26.5
 _ZN13EnumNameValueI25PopplerStructureTextAlignE6valuesE@Base 0.26.5
 _ZN13EnumNameValueI26PopplerStructureBlockAlignE14attribute_typeE@Base 0.26.5
 _ZN13EnumNameValueI26PopplerStructureBlockAlignE6valuesE@Base 0.26.5
 _ZN13EnumNameValueI26PopplerStructureTableScopeE14attribute_typeE@Base 0.26.5
 _ZN13EnumNameValueI26PopplerStructureTableScopeE6valuesE@Base 0.26.5
 _ZN13EnumNameValueI27PopplerStructureBorderStyleE14attribute_typeE@Base 0.26.5
 _ZN13EnumNameValueI27PopplerStructureBorderStyleE6valuesE@Base 0.26.5
 _ZN13EnumNameValueI27PopplerStructureInlineAlignE14attribute_typeE@Base 0.26.5
 _ZN13EnumNameValueI27PopplerStructureInlineAlignE6valuesE@Base 0.26.5
 _ZN13EnumNameValueI27PopplerStructureWritingModeE14attribute_typeE@Base 0.26.5
 _ZN13EnumNameValueI27PopplerStructureWritingModeE6valuesE@Base 0.26.5
 _ZN13EnumNameValueI28PopplerStructureRubyPositionE14attribute_typeE@Base 0.26.5
 _ZN13EnumNameValueI28PopplerStructureRubyPositionE6valuesE@Base 0.26.5
 _ZN13EnumNameValueI29PopplerStructureListNumberingE14attribute_typeE@Base 0.26.5
 _ZN13EnumNameValueI29PopplerStructureListNumberingE6valuesE@Base 0.26.5
 _ZN13EnumNameValueI30PopplerStructureTextDecorationE14attribute_typeE@Base 0.26.5
 _ZN13EnumNameValueI30PopplerStructureTextDecorationE6valuesE@Base 0.26.5
 _ZN13EnumNameValueI32PopplerStructureGlyphOrientationE14attribute_typeE@Base 0.26.5
 _ZN13EnumNameValueI32PopplerStructureGlyphOrientationE6valuesE@Base 0.26.5
 _ZN14CairoOutputDev10updateFontEP8GfxState@Base 0.26.5
 _ZN14CairoOutputDev10upsideDownEv@Base 0.26.5
 _ZN14CairoOutputDev11beginStringEP8GfxStateP9GooString@Base 0.26.5
 _ZN14CairoOutputDev11setMimeDataEP6StreamP6ObjectP14_cairo_surface@Base 0.26.5
 _ZN14CairoOutputDev11setSoftMaskEP8GfxStatePdbP8FunctionP8GfxColor@Base 0.26.5
 _ZN14CairoOutputDev11setTextPageEP8TextPage@Base 0.26.5
 _ZN14CairoOutputDev11useDrawCharEv@Base 0.26.5
 _ZN14CairoOutputDev12endType3CharEP8GfxState@Base 0.26.5
 _ZN14CairoOutputDev12restoreStateEP8GfxState@Base 0.26.5
 _ZN14CairoOutputDev13clearSoftMaskEP8GfxState@Base 0.26.5
 _ZN14CairoOutputDev13drawImageMaskEP8GfxStateP6ObjectP6Streamiibbb@Base 0.26.5
 _ZN14CairoOutputDev13endActualTextEP8GfxState@Base 0.26.5
 _ZN14CairoOutputDev13endTextObjectEP8GfxState@Base 0.26.5
 _ZN14CairoOutputDev13getScaledSizeEPK13_cairo_matrixiiPiS3_@Base 0.26.5
 _ZN14CairoOutputDev13getStreamDataEP6StreamPPcPi@Base 0.26.5
 _ZN14CairoOutputDev13setDefaultCTMEPd@Base 0.26.5
 _ZN14CairoOutputDev13updateLineCapEP8GfxState@Base 0.26.5
 _ZN14CairoOutputDev14beginType3CharEP8GfxStateddddjPji@Base 0.26.5
 _ZN14CairoOutputDev14updateFlatnessEP8GfxState@Base 0.26.5
 _ZN14CairoOutputDev14updateLineDashEP8GfxState@Base 0.26.5
 _ZN14CairoOutputDev14updateLineJoinEP8GfxState@Base 0.26.5
 _ZN14CairoOutputDev14useShadedFillsEi@Base 0.26.5
 _ZN14CairoOutputDev15axialShadedFillEP8GfxStateP15GfxAxialShadingdd@Base 0.26.5
 _ZN14CairoOutputDev15beginActualTextEP8GfxStateP9GooString@Base 0.26.5
 _ZN14CairoOutputDev15beginTextObjectEP8GfxState@Base 0.26.5
 _ZN14CairoOutputDev15drawMaskedImageEP8GfxStateP6ObjectP6StreamiiP16GfxImageColorMapbS5_iibb@Base 0.26.5
 _ZN14CairoOutputDev15updateBlendModeEP8GfxState@Base 0.26.5
 _ZN14CairoOutputDev15updateFillColorEP8GfxState@Base 0.26.5
 _ZN14CairoOutputDev15updateLineWidthEP8GfxState@Base 0.26.5
 _ZN14CairoOutputDev16clipToStrokePathEP8GfxState@Base 0.26.5
 _ZN14CairoOutputDev16radialShadedFillEP8GfxStateP16GfxRadialShadingdd@Base 0.26.5
 _ZN14CairoOutputDev16updateMiterLimitEP8GfxState@Base 0.26.5
 _ZN14CairoOutputDev16useFillColorStopEv@Base 0.26.5
 _ZN14CairoOutputDev17alignStrokeCoordsEP10GfxSubpathiPdS2_@Base 0.26.5
 _ZN14CairoOutputDev17needClipToCropBoxEv@Base 0.26.5
 _ZN14CairoOutputDev17tilingPatternFillEP8GfxStateP3GfxP7CatalogP6ObjectPdiiP4DictS8_S8_iiiidd@Base 0.26.5
 _ZN14CairoOutputDev17updateFillOpacityEP8GfxState@Base 0.26.5
 _ZN14CairoOutputDev17updateStrokeColorEP8GfxState@Base 0.26.5
 _ZN14CairoOutputDev18ft_lib_initializedE@Base 0.26.5
 _ZN14CairoOutputDev19drawSoftMaskedImageEP8GfxStateP6ObjectP6StreamiiP16GfxImageColorMapbS5_iiS7_b@Base 0.26.5
 _ZN14CairoOutputDev19getFilterForSurfaceEP14_cairo_surfaceb@Base 0.26.5
 _ZN14CairoOutputDev19interpretType3CharsEv@Base 0.26.5
 _ZN14CairoOutputDev19patchMeshShadedFillEP8GfxStateP19GfxPatchMeshShading@Base 0.26.5
 _ZN14CairoOutputDev19updateFillColorStopEP8GfxStated@Base 0.26.5
 _ZN14CairoOutputDev19updateStrokeOpacityEP8GfxState@Base 0.26.5
 _ZN14CairoOutputDev20drawImageMaskRegularEP8GfxStateP6ObjectP6Streamiibbb@Base 0.26.5
 _ZN14CairoOutputDev20endTransparencyGroupEP8GfxState@Base 0.26.5
 _ZN14CairoOutputDev20fillToStrokePathClipEP8GfxState@Base 0.26.5
 _ZN14CairoOutputDev20popTransparencyGroupEv@Base 0.26.5
 _ZN14CairoOutputDev20useTilingPatternFillEv@Base 0.26.5
 _ZN14CairoOutputDev22beginTransparencyGroupEP8GfxStatePdP13GfxColorSpacebbb@Base 0.26.5
 _ZN14CairoOutputDev22drawImageMaskPrescaledEP8GfxStateP6ObjectP6Streamiibbb@Base 0.26.5
 _ZN14CairoOutputDev22paintTransparencyGroupEP8GfxStatePd@Base 0.26.5
 _ZN14CairoOutputDev24axialShadedSupportExtendEP8GfxStateP15GfxAxialShading@Base 0.26.5
 _ZN14CairoOutputDev24setSoftMaskFromImageMaskEP8GfxStateP6ObjectP6StreamiibbPd@Base 0.26.5
 _ZN14CairoOutputDev25gouraudTriangleShadedFillEP8GfxStateP25GfxGouraudTriangleShading@Base 0.26.5
 _ZN14CairoOutputDev25radialShadedSupportExtendEP8GfxStateP16GfxRadialShading@Base 0.26.5
 _ZN14CairoOutputDev26unsetSoftMaskFromImageMaskEP8GfxStatePd@Base 0.26.5
 _ZN14CairoOutputDev4clipEP8GfxState@Base 0.26.5
 _ZN14CairoOutputDev4fillEP8GfxState@Base 0.26.5
 _ZN14CairoOutputDev6doPathEP6_cairoP8GfxStateP7GfxPath@Base 0.26.5
 _ZN14CairoOutputDev6eoClipEP8GfxState@Base 0.26.5
 _ZN14CairoOutputDev6eoFillEP8GfxState@Base 0.26.5
 _ZN14CairoOutputDev6ft_libE@Base 0.26.5
 _ZN14CairoOutputDev6strokeEP8GfxState@Base 0.26.5
 _ZN14CairoOutputDev7endPageEv@Base 0.26.5
 _ZN14CairoOutputDev7type3D0EP8GfxStatedd@Base 0.26.5
 _ZN14CairoOutputDev7type3D1EP8GfxStatedddddd@Base 0.26.5
 _ZN14CairoOutputDev8drawCharEP8GfxStateddddddjiPji@Base 0.26.5
 _ZN14CairoOutputDev8setCairoEP6_cairo@Base 0.26.5
 _ZN14CairoOutputDev8startDocEP6PDFDocP15CairoFontEngine@Base 0.26.5
 _ZN14CairoOutputDev9drawImageEP8GfxStateP6ObjectP6StreamiiP16GfxImageColorMapbPib@Base 0.26.5
 _ZN14CairoOutputDev9endStringEP8GfxState@Base 0.26.5
 _ZN14CairoOutputDev9saveStateEP8GfxState@Base 0.26.5
 _ZN14CairoOutputDev9startPageEiP8GfxStateP4XRef@Base 0.26.5
 _ZN14CairoOutputDev9updateAllEP8GfxState@Base 0.26.5
 _ZN14CairoOutputDev9updateCTMEP8GfxStatedddddd@Base 0.26.5
 _ZN14CairoOutputDevC1Ev@Base 0.26.5
 _ZN14CairoOutputDevC2Ev@Base 0.26.5
 _ZN14CairoOutputDevD0Ev@Base 0.26.5
 _ZN14CairoOutputDevD1Ev@Base 0.26.5
 _ZN14CairoOutputDevD2Ev@Base 0.26.5
 _ZN14CairoType3Font6createEP7GfxFontP6PDFDocP15CairoFontEnginebP4XRef@Base 0.26.5
 _ZN14CairoType3Font7matchesER3Refb@Base 0.26.5
 _ZN14CairoType3FontC1E3RefP6PDFDocP16_cairo_font_facePijbP4XRef@Base 0.26.5
 _ZN14CairoType3FontC2E3RefP6PDFDocP16_cairo_font_facePijbP4XRef@Base 0.26.5
 _ZN14CairoType3FontD0Ev@Base 0.26.5
 _ZN14CairoType3FontD1Ev@Base 0.26.5
 _ZN14CairoType3FontD2Ev@Base 0.26.5
 _ZN15CairoFontEngine7getFontEP7GfxFontP6PDFDocbP4XRef@Base 0.26.5
 _ZN15CairoFontEngineC1EP14FT_LibraryRec_@Base 0.26.5
 _ZN15CairoFontEngineC2EP14FT_LibraryRec_@Base 0.26.5
 _ZN15CairoFontEngineD1Ev@Base 0.26.5
 _ZN15CairoFontEngineD2Ev@Base 0.26.5
 _ZN15CairoRescaleBox14downScaleImageEjjiittttP14_cairo_surface@Base 0.26.5
 _ZN16RescaleDrawImage6getRowEiPj@Base 0.26.5
 _ZN16RescaleDrawImageD0Ev@Base 0.26.5
 _ZN16RescaleDrawImageD1Ev@Base 0.26.5
 _ZN16RescaleDrawImageD2Ev@Base 0.26.5
 _ZN17CairoFreeTypeFont6createEP7GfxFontP4XRefP14FT_LibraryRec_b@Base 0.26.5
 _ZN17CairoFreeTypeFontC1E3RefP16_cairo_font_facePijb@Base 0.26.5
 _ZN17CairoFreeTypeFontC2E3RefP16_cairo_font_facePijb@Base 0.26.5
 _ZN17CairoFreeTypeFontD0Ev@Base 0.26.5
 _ZN17CairoFreeTypeFontD1Ev@Base 0.26.5
 _ZN17CairoFreeTypeFontD2Ev@Base 0.26.5
 _ZN18PopplerInputStream11hasGetCharsEv@Base 0.26.5
 _ZN18PopplerInputStream13makeSubStreamExbxP6Object@Base 0.26.5
 _ZN18PopplerInputStream15unfilteredResetEv@Base 0.26.5
 _ZN18PopplerInputStream17getUnfilteredCharEv@Base 0.26.5
 _ZN18PopplerInputStream4copyEv@Base 0.26.5
 _ZN18PopplerInputStream5closeEv@Base 0.26.5
 _ZN18PopplerInputStream5resetEv@Base 0.26.5
 _ZN18PopplerInputStream6getPosEv@Base 0.26.5
 _ZN18PopplerInputStream6setPosExi@Base 0.26.5
 _ZN18PopplerInputStream7fillBufEv@Base 0.26.5
 _ZN18PopplerInputStream7getCharEv@Base 0.26.5
 _ZN18PopplerInputStream7getKindEv@Base 0.26.5
 _ZN18PopplerInputStream8getCharsEiPh@Base 0.26.5
 _ZN18PopplerInputStream8getStartEv@Base 0.26.5
 _ZN18PopplerInputStream8lookCharEv@Base 0.26.5
 _ZN18PopplerInputStream9moveStartEx@Base 0.26.5
 _ZN18PopplerInputStreamC1EP13_GInputStreamP13_GCancellablexbxP6Object@Base 0.26.5
 _ZN18PopplerInputStreamC2EP13_GInputStreamP13_GCancellablexbxP6Object@Base 0.26.5
 _ZN18PopplerInputStreamD0Ev@Base 0.26.5
 _ZN18PopplerInputStreamD1Ev@Base 0.26.5
 _ZN18PopplerInputStreamD2Ev@Base 0.26.5
 _ZN19CairoImageOutputDev10updateFontEP8GfxState@Base 0.26.5
 _ZN19CairoImageOutputDev10upsideDownEv@Base 0.26.5
 _ZN19CairoImageOutputDev11needNonTextEv@Base 0.26.5
 _ZN19CairoImageOutputDev11setSoftMaskEP8GfxStatePdbP8FunctionP8GfxColor@Base 0.26.5
 _ZN19CairoImageOutputDev11useDrawCharEv@Base 0.26.5
 _ZN19CairoImageOutputDev12restoreStateEP8GfxState@Base 0.26.5
 _ZN19CairoImageOutputDev13clearSoftMaskEP8GfxState@Base 0.26.5
 _ZN19CairoImageOutputDev13drawImageMaskEP8GfxStateP6ObjectP6Streamiibbb@Base 0.26.5
 _ZN19CairoImageOutputDev13setDefaultCTMEPd@Base 0.26.5
 _ZN19CairoImageOutputDev13updateLineCapEP8GfxState@Base 0.26.5
 _ZN19CairoImageOutputDev14updateFlatnessEP8GfxState@Base 0.26.5
 _ZN19CairoImageOutputDev14updateLineDashEP8GfxState@Base 0.26.5
 _ZN19CairoImageOutputDev14updateLineJoinEP8GfxState@Base 0.26.5
 _ZN19CairoImageOutputDev14useShadedFillsEi@Base 0.26.5
 _ZN19CairoImageOutputDev15axialShadedFillEP8GfxStateP15GfxAxialShadingdd@Base 0.26.5
 _ZN19CairoImageOutputDev15drawMaskedImageEP8GfxStateP6ObjectP6StreamiiP16GfxImageColorMapbS5_iibb@Base 0.26.5
 _ZN19CairoImageOutputDev15updateBlendModeEP8GfxState@Base 0.26.5
 _ZN19CairoImageOutputDev15updateFillColorEP8GfxState@Base 0.26.5
 _ZN19CairoImageOutputDev15updateLineWidthEP8GfxState@Base 0.26.5
 _ZN19CairoImageOutputDev16clipToStrokePathEP8GfxState@Base 0.26.5
 _ZN19CairoImageOutputDev16radialShadedFillEP8GfxStateP16GfxRadialShadingdd@Base 0.26.5
 _ZN19CairoImageOutputDev16updateMiterLimitEP8GfxState@Base 0.26.5
 _ZN19CairoImageOutputDev16useFillColorStopEv@Base 0.26.5
 _ZN19CairoImageOutputDev17tilingPatternFillEP8GfxStateP3GfxP7CatalogP6ObjectPdiiP4DictS8_S8_iiiidd@Base 0.26.5
 _ZN19CairoImageOutputDev17updateFillOpacityEP8GfxState@Base 0.26.5
 _ZN19CairoImageOutputDev17updateStrokeColorEP8GfxState@Base 0.26.5
 _ZN19CairoImageOutputDev19drawSoftMaskedImageEP8GfxStateP6ObjectP6StreamiiP16GfxImageColorMapbS5_iiS7_b@Base 0.26.5
 _ZN19CairoImageOutputDev19interpretType3CharsEv@Base 0.26.5
 _ZN19CairoImageOutputDev19updateStrokeOpacityEP8GfxState@Base 0.26.5
 _ZN19CairoImageOutputDev20endTransparencyGroupEP8GfxState@Base 0.26.5
 _ZN19CairoImageOutputDev20useTilingPatternFillEv@Base 0.26.5
 _ZN19CairoImageOutputDev22beginTransparencyGroupEP8GfxStatePdP13GfxColorSpacebbb@Base 0.26.5
 _ZN19CairoImageOutputDev22paintTransparencyGroupEP8GfxStatePd@Base 0.26.5
 _ZN19CairoImageOutputDev24setSoftMaskFromImageMaskEP8GfxStateP6ObjectP6StreamiibbPd@Base 0.26.5
 _ZN19CairoImageOutputDev26unsetSoftMaskFromImageMaskEP8GfxStatePd@Base 0.26.5
 _ZN19CairoImageOutputDev4clipEP8GfxState@Base 0.26.5
 _ZN19CairoImageOutputDev4fillEP8GfxState@Base 0.26.5
 _ZN19CairoImageOutputDev6eoClipEP8GfxState@Base 0.26.5
 _ZN19CairoImageOutputDev6eoFillEP8GfxState@Base 0.26.5
 _ZN19CairoImageOutputDev6strokeEP8GfxState@Base 0.26.5
 _ZN19CairoImageOutputDev7getBBoxEP8GfxStateiiPdS2_S2_S2_@Base 0.26.5
 _ZN19CairoImageOutputDev9drawImageEP8GfxStateP6ObjectP6StreamiiP16GfxImageColorMapbPib@Base 0.26.5
 _ZN19CairoImageOutputDev9saveImageEP10CairoImage@Base 0.26.5
 _ZN19CairoImageOutputDev9saveStateEP8GfxState@Base 0.26.5
 _ZN19CairoImageOutputDev9updateAllEP8GfxState@Base 0.26.5
 _ZN19CairoImageOutputDev9updateCTMEP8GfxStatedddddd@Base 0.26.5
 _ZN19CairoImageOutputDevC1Ev@Base 0.26.5
 _ZN19CairoImageOutputDevC2Ev@Base 0.26.5
 _ZN19CairoImageOutputDevD0Ev@Base 0.26.5
 _ZN19CairoImageOutputDevD1Ev@Base 0.26.5
 _ZN19CairoImageOutputDevD2Ev@Base 0.26.5
 _ZN23PopplerCachedFileLoader4initEP9GooStringP10CachedFile@Base 0.26.5
 _ZN23PopplerCachedFileLoader4loadERKSt6vectorI10_ByteRangeSaIS1_EEP16CachedFileWriter@Base 0.26.5
 _ZN23PopplerCachedFileLoaderC1EP13_GInputStreamP13_GCancellablex@Base 0.26.5
 _ZN23PopplerCachedFileLoaderC2EP13_GInputStreamP13_GCancellablex@Base 0.26.5
 _ZN23PopplerCachedFileLoaderD0Ev@Base 0.26.5
 _ZN23PopplerCachedFileLoaderD1Ev@Base 0.26.5
 _ZN23PopplerCachedFileLoaderD2Ev@Base 0.26.5
 _ZN6Stream13getNextStreamEv@Base 0.26.5
 _ZN6Stream14getImageParamsEPiP20StreamColorSpaceMode@Base 0.26.5
 _ZN6Stream9isEncoderEv@Base 0.26.5
 _ZN7GfxFont9isCIDFontEv@Base 0.26.5
 _ZN8LinkGoTo4isOkEv@Base 0.26.5
 _ZN9CairoFont11getFontFaceEv@Base 0.26.5
 _ZN9CairoFont25getSubstitutionCorrectionEP7GfxFont@Base 0.26.5
 _ZN9CairoFont7matchesER3Refb@Base 0.26.5
 _ZN9CairoFont8getGlyphEjPji@Base 0.26.5
 _ZN9CairoFontC1E3RefP16_cairo_font_facePijbb@Base 0.26.5
 _ZN9CairoFontC2E3RefP16_cairo_font_facePijbb@Base 0.26.5
 _ZN9CairoFontD0Ev@Base 0.26.5
 _ZN9CairoFontD1Ev@Base 0.26.5
 _ZN9CairoFontD2Ev@Base 0.26.5
 _ZN9LinkGoToR4isOkEv@Base 0.26.5
 _ZN9OutputDev10drawStringEP8GfxStateP9GooString@Base 0.26.5
 _ZN9OutputDev10updateRiseEP8GfxState@Base 0.26.5
 _ZN9OutputDev11endStringOpEP8GfxState@Base 0.26.5
 _ZN9OutputDev11needNonTextEv@Base 0.26.5
 _ZN9OutputDev11processLinkEP9AnnotLink@Base 0.26.5
 _ZN9OutputDev11saveTextPosEP8GfxState@Base 0.26.5
 _ZN9OutputDev11useDrawFormEv@Base 0.26.5
 _ZN9OutputDev12incCharCountEi@Base 0.26.5
 _ZN9OutputDev12updateRenderEP8GfxState@Base 0.26.5
 _ZN9OutputDev13beginStringOpEP8GfxState@Base 0.26.5
 _ZN9OutputDev13needCharCountEv@Base 0.26.5
 _ZN9OutputDev13updateTextMatEP8GfxState@Base 0.26.5
 _ZN9OutputDev13updateTextPosEP8GfxState@Base 0.26.5
 _ZN9OutputDev14checkPageSliceEP4PageddibbiiiibPFbPvES2_PFbP5AnnotS2_ES2_@Base 0.26.5
 _ZN9OutputDev14getProfileHashEv@Base 0.26.5
 _ZN9OutputDev14restoreTextPosEP8GfxState@Base 0.26.5
 _ZN9OutputDev14updateTransferEP8GfxState@Base 0.26.5
 _ZN9OutputDev15updateCharSpaceEP8GfxState@Base 0.26.5
 _ZN9OutputDev15updateTextShiftEP8GfxStated@Base 0.26.5
 _ZN9OutputDev15updateWordSpaceEP8GfxState@Base 0.26.5
 _ZN9OutputDev18functionShadedFillEP8GfxStateP18GfxFunctionShading@Base 0.26.5
 _ZN9OutputDev18getVectorAntialiasEv@Base 0.26.5
 _ZN9OutputDev18setVectorAntialiasEb@Base 0.26.5
 _ZN9OutputDev18updateAlphaIsShapeEP8GfxState@Base 0.26.5
 _ZN9OutputDev18updateHorizScalingEP8GfxState@Base 0.26.5
 _ZN9OutputDev18updateStrokeAdjustEP8GfxState@Base 0.26.5
 _ZN9OutputDev18updateTextKnockoutEP8GfxState@Base 0.26.5
 _ZN9OutputDev19updateFillOverprintEP8GfxState@Base 0.26.5
 _ZN9OutputDev19updateOverprintModeEP8GfxState@Base 0.26.5
 _ZN9OutputDev20updateFillColorSpaceEP8GfxState@Base 0.26.5
 _ZN9OutputDev21updateStrokeOverprintEP8GfxState@Base 0.26.5
 _ZN9OutputDev22checkTransparencyGroupEP8GfxStateb@Base 0.26.5
 _ZN9OutputDev22updateStrokeColorSpaceEP8GfxState@Base 0.26.5
 _ZN9OutputDev4dumpEv@Base 0.26.5
 _ZN9OutputDev8drawFormE3Ref@Base 0.26.5
 _ZN9OutputDev9psXObjectEP6StreamS1_@Base 0.26.5
 _ZTI10LinkAction@Base 0.26.5
 _ZTI14CairoOutputDev@Base 0.26.5
 _ZTI14CairoType3Font@Base 0.26.5
 _ZTI15CairoRescaleBox@Base 0.26.5
 _ZTI16CachedFileLoader@Base 0.26.5
 _ZTI16RescaleDrawImage@Base 0.26.5
 _ZTI17CairoFreeTypeFont@Base 0.26.5
 _ZTI18PopplerInputStream@Base 0.26.5
 _ZTI19CairoImageOutputDev@Base 0.26.5
 _ZTI23PopplerCachedFileLoader@Base 0.26.5
 _ZTI9CairoFont@Base 0.26.5
 _ZTS10LinkAction@Base 0.26.5
 _ZTS14CairoOutputDev@Base 0.26.5
 _ZTS14CairoType3Font@Base 0.26.5
 _ZTS15CairoRescaleBox@Base 0.26.5
 _ZTS16CachedFileLoader@Base 0.26.5
 _ZTS16RescaleDrawImage@Base 0.26.5
 _ZTS17CairoFreeTypeFont@Base 0.26.5
 _ZTS18PopplerInputStream@Base 0.26.5
 _ZTS19CairoImageOutputDev@Base 0.26.5
 _ZTS23PopplerCachedFileLoader@Base 0.26.5
 _ZTS9CairoFont@Base 0.26.5
 _ZTV14CairoOutputDev@Base 0.26.5
 _ZTV14CairoType3Font@Base 0.26.5
 _ZTV15CairoRescaleBox@Base 0.26.5
 _ZTV16CachedFileLoader@Base 0.26.5
 _ZTV16RescaleDrawImage@Base 0.26.5
 _ZTV17CairoFreeTypeFont@Base 0.26.5
 _ZTV18PopplerInputStream@Base 0.26.5
 _ZTV19CairoImageOutputDev@Base 0.26.5
 _ZTV23PopplerCachedFileLoader@Base 0.26.5
 _ZTV9CairoFont@Base 0.26.5
 poppler_action_copy@Base 0.18.0
 poppler_action_free@Base 0.18.0
 poppler_action_get_type@Base 0.18.0
 poppler_action_layer_action_get_type@Base 0.18.0
 poppler_action_movie_operation_get_type@Base 0.18.0
 poppler_action_type_get_type@Base 0.18.0
 poppler_annot_callout_line_copy@Base 0.18.0
 poppler_annot_callout_line_free@Base 0.18.0
 poppler_annot_callout_line_get_type@Base 0.18.0
 poppler_annot_callout_line_new@Base 0.18.0
 poppler_annot_circle_get_interior_color@Base 0.26.0
 poppler_annot_circle_get_type@Base 0.26.0
 poppler_annot_circle_new@Base 0.26.0
 poppler_annot_circle_set_interior_color@Base 0.26.0
 poppler_annot_external_data_type_get_type@Base 0.18.0
 poppler_annot_file_attachment_get_attachment@Base 0.18.0
 poppler_annot_file_attachment_get_name@Base 0.18.0
 poppler_annot_file_attachment_get_type@Base 0.18.0
 poppler_annot_flag_get_type@Base 0.18.0
 poppler_annot_free_text_get_callout_line@Base 0.18.0
 poppler_annot_free_text_get_quadding@Base 0.18.0
 poppler_annot_free_text_get_type@Base 0.18.0
 poppler_annot_free_text_quadding_get_type@Base 0.18.0
 poppler_annot_get_annot_type@Base 0.18.0
 poppler_annot_get_color@Base 0.18.0
 poppler_annot_get_contents@Base 0.18.0
 poppler_annot_get_flags@Base 0.18.0
 poppler_annot_get_modified@Base 0.18.0
 poppler_annot_get_name@Base 0.18.0
 poppler_annot_get_page_index@Base 0.18.0
 poppler_annot_get_rectangle@Base 0.26.0
 poppler_annot_get_type@Base 0.18.0
 poppler_annot_line_get_type@Base 0.26.0
 poppler_annot_line_new@Base 0.26.0
 poppler_annot_line_set_vertices@Base 0.26.0
 poppler_annot_mapping_copy@Base 0.18.0
 poppler_annot_mapping_free@Base 0.18.0
 poppler_annot_mapping_get_type@Base 0.18.0
 poppler_annot_mapping_new@Base 0.18.0
 poppler_annot_markup_get_date@Base 0.18.0
 poppler_annot_markup_get_external_data@Base 0.18.0
 poppler_annot_markup_get_label@Base 0.18.0
 poppler_annot_markup_get_opacity@Base 0.18.0
 poppler_annot_markup_get_popup_is_open@Base 0.18.0
 poppler_annot_markup_get_popup_rectangle@Base 0.18.0
 poppler_annot_markup_get_reply_to@Base 0.18.0
 poppler_annot_markup_get_subject@Base 0.18.0
 poppler_annot_markup_get_type@Base 0.18.0
 poppler_annot_markup_has_popup@Base 0.18.0
 poppler_annot_markup_reply_type_get_type@Base 0.18.0
 poppler_annot_markup_set_label@Base 0.18.0
 poppler_annot_markup_set_opacity@Base 0.18.0
 poppler_annot_markup_set_popup@Base 0.18.0
 poppler_annot_markup_set_popup_is_open@Base 0.18.0
 poppler_annot_movie_get_movie@Base 0.18.0
 poppler_annot_movie_get_title@Base 0.18.0
 poppler_annot_movie_get_type@Base 0.18.0
 poppler_annot_screen_get_action@Base 0.18.0
 poppler_annot_screen_get_type@Base 0.18.0
 poppler_annot_set_color@Base 0.18.0
 poppler_annot_set_contents@Base 0.18.0
 poppler_annot_set_flags@Base 0.22.1
 poppler_annot_set_rectangle@Base 0.26.0
 poppler_annot_square_get_interior_color@Base 0.26.0
 poppler_annot_square_get_type@Base 0.26.0
 poppler_annot_square_new@Base 0.26.0
 poppler_annot_square_set_interior_color@Base 0.26.0
 poppler_annot_text_get_icon@Base 0.18.0
 poppler_annot_text_get_is_open@Base 0.18.0
 poppler_annot_text_get_state@Base 0.18.0
 poppler_annot_text_get_type@Base 0.18.0
 poppler_annot_text_markup_get_quadrilaterals@Base 0.26.0
 poppler_annot_text_markup_get_type@Base 0.26.0
 poppler_annot_text_markup_new_highlight@Base 0.26.0
 poppler_annot_text_markup_new_squiggly@Base 0.26.0
 poppler_annot_text_markup_new_strikeout@Base 0.26.0
 poppler_annot_text_markup_new_underline@Base 0.26.0
 poppler_annot_text_markup_set_quadrilaterals@Base 0.26.0
 poppler_annot_text_new@Base 0.18.0
 poppler_annot_text_set_icon@Base 0.18.0
 poppler_annot_text_set_is_open@Base 0.18.0
 poppler_annot_text_state_get_type@Base 0.18.0
 poppler_annot_type_get_type@Base 0.18.0
 poppler_attachment_get_type@Base 0.18.0
 poppler_attachment_save@Base 0.18.0
 poppler_attachment_save_to_callback@Base 0.18.0
 poppler_backend_get_type@Base 0.18.0
 poppler_color_copy@Base 0.18.0
 poppler_color_free@Base 0.18.0
 poppler_color_get_type@Base 0.18.0
 poppler_color_new@Base 0.18.0
 poppler_date_parse@Base 0.18.0
 poppler_dest_copy@Base 0.18.0
 poppler_dest_free@Base 0.18.0
 poppler_dest_get_type@Base 0.18.0
 poppler_dest_type_get_type@Base 0.18.0
 poppler_document_find_dest@Base 0.18.0
 poppler_document_get_attachments@Base 0.18.0
 poppler_document_get_author@Base 0.18.0
 poppler_document_get_creation_date@Base 0.18.0
 poppler_document_get_creator@Base 0.18.0
 poppler_document_get_form_field@Base 0.18.0
 poppler_document_get_id@Base 0.18.0
 poppler_document_get_keywords@Base 0.18.0
 poppler_document_get_metadata@Base 0.18.0
 poppler_document_get_modification_date@Base 0.18.0
 poppler_document_get_n_attachments@Base 0.18.0
 poppler_document_get_n_pages@Base 0.18.0
 poppler_document_get_page@Base 0.18.0
 poppler_document_get_page_by_label@Base 0.18.0
 poppler_document_get_page_layout@Base 0.18.0
 poppler_document_get_page_mode@Base 0.18.0
 poppler_document_get_pdf_version@Base 0.18.0
 poppler_document_get_pdf_version_string@Base 0.18.0
 poppler_document_get_permissions@Base 0.18.0
 poppler_document_get_producer@Base 0.18.0
 poppler_document_get_subject@Base 0.18.0
 poppler_document_get_title@Base 0.18.0
 poppler_document_get_type@Base 0.18.0
 poppler_document_has_attachments@Base 0.18.0
 poppler_document_is_linearized@Base 0.18.0
 poppler_document_new_from_data@Base 0.18.0
 poppler_document_new_from_file@Base 0.18.0
 poppler_document_new_from_gfile@Base 0.22.1
 poppler_document_new_from_stream@Base 0.22.1
 poppler_document_save@Base 0.18.0
 poppler_document_save_a_copy@Base 0.18.0
 poppler_error_get_type@Base 0.18.0
 poppler_error_quark@Base 0.18.0
 poppler_find_flags_get_type@Base 0.22.1
 poppler_font_info_free@Base 0.18.0
 poppler_font_info_get_type@Base 0.18.0
 poppler_font_info_new@Base 0.18.0
 poppler_font_info_scan@Base 0.18.0
 poppler_font_type_get_type@Base 0.18.0
 poppler_fonts_iter_copy@Base 0.18.0
 poppler_fonts_iter_free@Base 0.18.0
 poppler_fonts_iter_get_encoding@Base 0.20.1
 poppler_fonts_iter_get_file_name@Base 0.18.0
 poppler_fonts_iter_get_font_type@Base 0.18.0
 poppler_fonts_iter_get_full_name@Base 0.18.0
 poppler_fonts_iter_get_name@Base 0.18.0
 poppler_fonts_iter_get_substitute_name@Base 0.20.1
 poppler_fonts_iter_get_type@Base 0.18.0
 poppler_fonts_iter_is_embedded@Base 0.18.0
 poppler_fonts_iter_is_subset@Base 0.18.0
 poppler_fonts_iter_next@Base 0.18.0
 poppler_form_button_type_get_type@Base 0.18.0
 poppler_form_choice_type_get_type@Base 0.18.0
 poppler_form_field_button_get_button_type@Base 0.18.0
 poppler_form_field_button_get_state@Base 0.18.0
 poppler_form_field_button_set_state@Base 0.18.0
 poppler_form_field_choice_can_select_multiple@Base 0.18.0
 poppler_form_field_choice_commit_on_change@Base 0.18.0
 poppler_form_field_choice_do_spell_check@Base 0.18.0
 poppler_form_field_choice_get_choice_type@Base 0.18.0
 poppler_form_field_choice_get_item@Base 0.18.0
 poppler_form_field_choice_get_n_items@Base 0.18.0
 poppler_form_field_choice_get_text@Base 0.18.0
 poppler_form_field_choice_is_editable@Base 0.18.0
 poppler_form_field_choice_is_item_selected@Base 0.18.0
 poppler_form_field_choice_select_item@Base 0.18.0
 poppler_form_field_choice_set_text@Base 0.18.0
 poppler_form_field_choice_toggle_item@Base 0.18.0
 poppler_form_field_choice_unselect_all@Base 0.18.0
 poppler_form_field_get_action@Base 0.18.0
 poppler_form_field_get_field_type@Base 0.18.0
 poppler_form_field_get_font_size@Base 0.18.0
 poppler_form_field_get_id@Base 0.18.0
 poppler_form_field_get_mapping_name@Base 0.18.0
 poppler_form_field_get_name@Base 0.18.0
 poppler_form_field_get_partial_name@Base 0.18.0
 poppler_form_field_get_type@Base 0.18.0
 poppler_form_field_is_read_only@Base 0.18.0
 poppler_form_field_mapping_copy@Base 0.18.0
 poppler_form_field_mapping_free@Base 0.18.0
 poppler_form_field_mapping_get_type@Base 0.18.0
 poppler_form_field_mapping_new@Base 0.18.0
 poppler_form_field_text_do_scroll@Base 0.18.0
 poppler_form_field_text_do_spell_check@Base 0.18.0
 poppler_form_field_text_get_max_len@Base 0.18.0
 poppler_form_field_text_get_text@Base 0.18.0
 poppler_form_field_text_get_text_type@Base 0.18.0
 poppler_form_field_text_is_password@Base 0.18.0
 poppler_form_field_text_is_rich_text@Base 0.18.0
 poppler_form_field_text_set_text@Base 0.18.0
 poppler_form_field_type_get_type@Base 0.18.0
 poppler_form_text_type_get_type@Base 0.18.0
 poppler_get_backend@Base 0.18.0
 poppler_get_version@Base 0.18.0
 poppler_image_mapping_copy@Base 0.18.0
 poppler_image_mapping_free@Base 0.18.0
 poppler_image_mapping_get_type@Base 0.18.0
 poppler_image_mapping_new@Base 0.18.0
 poppler_index_iter_copy@Base 0.18.0
 poppler_index_iter_free@Base 0.18.0
 poppler_index_iter_get_action@Base 0.18.0
 poppler_index_iter_get_child@Base 0.18.0
 poppler_index_iter_get_type@Base 0.18.0
 poppler_index_iter_is_open@Base 0.18.0
 poppler_index_iter_new@Base 0.18.0
 poppler_index_iter_next@Base 0.18.0
 poppler_layer_get_radio_button_group_id@Base 0.18.0
 poppler_layer_get_title@Base 0.18.0
 poppler_layer_get_type@Base 0.18.0
 poppler_layer_hide@Base 0.18.0
 poppler_layer_is_parent@Base 0.18.0
 poppler_layer_is_visible@Base 0.18.0
 poppler_layer_show@Base 0.18.0
 poppler_layers_iter_copy@Base 0.18.0
 poppler_layers_iter_free@Base 0.18.0
 poppler_layers_iter_get_child@Base 0.18.0
 poppler_layers_iter_get_layer@Base 0.18.0
 poppler_layers_iter_get_title@Base 0.18.0
 poppler_layers_iter_get_type@Base 0.18.0
 poppler_layers_iter_new@Base 0.18.0
 poppler_layers_iter_next@Base 0.18.0
 poppler_link_mapping_copy@Base 0.18.0
 poppler_link_mapping_free@Base 0.18.0
 poppler_link_mapping_get_type@Base 0.18.0
 poppler_link_mapping_new@Base 0.18.0
 poppler_media_get_filename@Base 0.18.0
 poppler_media_get_mime_type@Base 0.18.0
 poppler_media_get_type@Base 0.18.0
 poppler_media_is_embedded@Base 0.18.0
 poppler_media_save@Base 0.18.0
 poppler_media_save_to_callback@Base 0.18.0
 poppler_movie_get_filename@Base 0.18.0
 poppler_movie_get_type@Base 0.18.0
 poppler_movie_need_poster@Base 0.18.0
 poppler_movie_show_controls@Base 0.18.0
 poppler_orientation_get_type@Base 0.18.0
 poppler_page_add_annot@Base 0.18.0
 poppler_page_find_text@Base 0.18.0
 poppler_page_find_text_with_options@Base 0.22.1
 poppler_page_free_annot_mapping@Base 0.18.0
 poppler_page_free_form_field_mapping@Base 0.18.0
 poppler_page_free_image_mapping@Base 0.18.0
 poppler_page_free_link_mapping@Base 0.18.0
 poppler_page_free_text_attributes@Base 0.18.0
 poppler_page_get_annot_mapping@Base 0.18.0
 poppler_page_get_crop_box@Base 0.18.0
 poppler_page_get_duration@Base 0.18.0
 poppler_page_get_form_field_mapping@Base 0.18.0
 poppler_page_get_image@Base 0.18.0
 poppler_page_get_image_mapping@Base 0.18.0
 poppler_page_get_index@Base 0.18.0
 poppler_page_get_label@Base 0.18.0
 poppler_page_get_link_mapping@Base 0.18.0
 poppler_page_get_selected_region@Base 0.18.0
 poppler_page_get_selected_text@Base 0.18.0
 poppler_page_get_selection_region@Base 0.18.0
 poppler_page_get_size@Base 0.18.0
 poppler_page_get_text@Base 0.18.0
 poppler_page_get_text_attributes@Base 0.18.0
 poppler_page_get_text_attributes_for_area@Base 0.26.0
 poppler_page_get_text_for_area@Base 0.26.0
 poppler_page_get_text_layout@Base 0.18.0
 poppler_page_get_text_layout_for_area@Base 0.26.0
 poppler_page_get_thumbnail@Base 0.18.0
 poppler_page_get_thumbnail_size@Base 0.18.0
 poppler_page_get_transition@Base 0.18.0
 poppler_page_get_type@Base 0.18.0
 poppler_page_layout_get_type@Base 0.18.0
 poppler_page_mode_get_type@Base 0.18.0
 poppler_page_remove_annot@Base 0.22.1
 poppler_page_render@Base 0.18.0
 poppler_page_render_for_printing@Base 0.18.0
 poppler_page_render_for_printing_with_options@Base 0.18.0
 poppler_page_render_selection@Base 0.18.0
 poppler_page_render_to_ps@Base 0.18.0
 poppler_page_selection_region_free@Base 0.18.0
 poppler_page_transition_alignment_get_type@Base 0.18.0
 poppler_page_transition_copy@Base 0.18.0
 poppler_page_transition_direction_get_type@Base 0.18.0
 poppler_page_transition_free@Base 0.18.0
 poppler_page_transition_get_type@Base 0.18.0
 poppler_page_transition_new@Base 0.18.0
 poppler_page_transition_type_get_type@Base 0.18.0
 poppler_permissions_get_type@Base 0.18.0
 poppler_point_copy@Base 0.26.0
 poppler_point_free@Base 0.26.0
 poppler_point_get_type@Base 0.26.0
 poppler_point_new@Base 0.26.0
 poppler_print_flags_get_type@Base 0.18.0
 poppler_ps_file_free@Base 0.18.0
 poppler_ps_file_get_type@Base 0.18.0
 poppler_ps_file_new@Base 0.18.0
 poppler_ps_file_set_duplex@Base 0.18.0
 poppler_ps_file_set_paper_size@Base 0.18.0
 poppler_quadrilateral_copy@Base 0.26.0
 poppler_quadrilateral_free@Base 0.26.0
 poppler_quadrilateral_get_type@Base 0.26.0
 poppler_quadrilateral_new@Base 0.26.0
 poppler_rectangle_copy@Base 0.18.0
 poppler_rectangle_free@Base 0.18.0
 poppler_rectangle_get_type@Base 0.18.0
 poppler_rectangle_new@Base 0.18.0
 poppler_selection_style_get_type@Base 0.18.0
 poppler_structure_block_align_get_type@Base 0.26.0
 poppler_structure_border_style_get_type@Base 0.26.0
 poppler_structure_element_get_abbreviation@Base 0.26.0
 poppler_structure_element_get_actual_text@Base 0.26.0
 poppler_structure_element_get_alt_text@Base 0.26.0
 poppler_structure_element_get_background_color@Base 0.26.0
 poppler_structure_element_get_baseline_shift@Base 0.26.0
 poppler_structure_element_get_block_align@Base 0.26.0
 poppler_structure_element_get_border_color@Base 0.26.0
 poppler_structure_element_get_border_style@Base 0.26.0
 poppler_structure_element_get_border_thickness@Base 0.26.0
 poppler_structure_element_get_bounding_box@Base 0.26.0
 poppler_structure_element_get_color@Base 0.26.0
 poppler_structure_element_get_column_count@Base 0.26.0
 poppler_structure_element_get_column_gaps@Base 0.26.0
 poppler_structure_element_get_column_widths@Base 0.26.0
 poppler_structure_element_get_end_indent@Base 0.26.0
 poppler_structure_element_get_form_description@Base 0.26.0
 poppler_structure_element_get_form_role@Base 0.26.0
 poppler_structure_element_get_form_state@Base 0.26.0
 poppler_structure_element_get_glyph_orientation@Base 0.26.0
 poppler_structure_element_get_height@Base 0.26.0
 poppler_structure_element_get_id@Base 0.26.0
 poppler_structure_element_get_inline_align@Base 0.26.0
 poppler_structure_element_get_kind@Base 0.26.0
 poppler_structure_element_get_language@Base 0.26.0
 poppler_structure_element_get_line_height@Base 0.26.0
 poppler_structure_element_get_list_numbering@Base 0.26.0
 poppler_structure_element_get_padding@Base 0.26.0
 poppler_structure_element_get_page@Base 0.26.0
 poppler_structure_element_get_placement@Base 0.26.0
 poppler_structure_element_get_ruby_align@Base 0.26.0
 poppler_structure_element_get_ruby_position@Base 0.26.0
 poppler_structure_element_get_space_after@Base 0.26.0
 poppler_structure_element_get_space_before@Base 0.26.0
 poppler_structure_element_get_start_indent@Base 0.26.0
 poppler_structure_element_get_table_border_style@Base 0.26.0
 poppler_structure_element_get_table_column_span@Base 0.26.0
 poppler_structure_element_get_table_headers@Base 0.26.0
 poppler_structure_element_get_table_padding@Base 0.26.0
 poppler_structure_element_get_table_row_span@Base 0.26.0
 poppler_structure_element_get_table_scope@Base 0.26.0
 poppler_structure_element_get_table_summary@Base 0.26.0
 poppler_structure_element_get_text@Base 0.26.0
 poppler_structure_element_get_text_align@Base 0.26.0
 poppler_structure_element_get_text_decoration_color@Base 0.26.0
 poppler_structure_element_get_text_decoration_thickness@Base 0.26.0
 poppler_structure_element_get_text_decoration_type@Base 0.26.0
 poppler_structure_element_get_text_indent@Base 0.26.0
 poppler_structure_element_get_text_spans@Base 0.26.0
 poppler_structure_element_get_title@Base 0.26.0
 poppler_structure_element_get_type@Base 0.26.0
 poppler_structure_element_get_width@Base 0.26.0
 poppler_structure_element_get_writing_mode@Base 0.26.0
 poppler_structure_element_is_block@Base 0.26.0
 poppler_structure_element_is_content@Base 0.26.0
 poppler_structure_element_is_grouping@Base 0.26.0
 poppler_structure_element_is_inline@Base 0.26.0
 poppler_structure_element_iter_copy@Base 0.26.0
 poppler_structure_element_iter_free@Base 0.26.0
 poppler_structure_element_iter_get_child@Base 0.26.0
 poppler_structure_element_iter_get_element@Base 0.26.0
 poppler_structure_element_iter_get_type@Base 0.26.0
 poppler_structure_element_iter_new@Base 0.26.0
 poppler_structure_element_iter_next@Base 0.26.0
 poppler_structure_element_kind_get_type@Base 0.26.0
 poppler_structure_form_role_get_type@Base 0.26.0
 poppler_structure_form_state_get_type@Base 0.26.0
 poppler_structure_get_text_flags_get_type@Base 0.26.0
 poppler_structure_glyph_orientation_get_type@Base 0.26.0
 poppler_structure_inline_align_get_type@Base 0.26.0
 poppler_structure_list_numbering_get_type@Base 0.26.0
 poppler_structure_placement_get_type@Base 0.26.0
 poppler_structure_ruby_align_get_type@Base 0.26.0
 poppler_structure_ruby_position_get_type@Base 0.26.0
 poppler_structure_table_scope_get_type@Base 0.26.0
 poppler_structure_text_align_get_type@Base 0.26.0
 poppler_structure_text_decoration_get_type@Base 0.26.0
 poppler_structure_writing_mode_get_type@Base 0.26.0
 poppler_text_attributes_copy@Base 0.18.0
 poppler_text_attributes_free@Base 0.18.0
 poppler_text_attributes_get_type@Base 0.18.0
 poppler_text_attributes_new@Base 0.18.0
 poppler_text_span_copy@Base 0.26.0
 poppler_text_span_free@Base 0.26.0
 poppler_text_span_get_color@Base 0.26.0
 poppler_text_span_get_font_name@Base 0.26.0
 poppler_text_span_get_text@Base 0.26.0
 poppler_text_span_get_type@Base 0.26.0
 poppler_text_span_is_bold_font@Base 0.26.0
 poppler_text_span_is_fixed_width_font@Base 0.26.0
 poppler_text_span_is_serif_font@Base 0.26.0
 poppler_viewer_preferences_get_type@Base 0.18.0
