libQtXml.so.4 libqt4-xml #MINVER#
* Build-Depends-Package: libqt4-dev
 _ZN10QDomEntityC1EP17QDomEntityPrivate@Base 4:4.5.3
 _ZN10QDomEntityC1ERKS_@Base 4:4.5.3
 _ZN10QDomEntityC1Ev@Base 4:4.5.3
 _ZN10QDomEntityC2EP17QDomEntityPrivate@Base 4:4.5.3
 _ZN10QDomEntityC2ERKS_@Base 4:4.5.3
 _ZN10QDomEntityC2Ev@Base 4:4.5.3
 _ZN10QDomEntityaSERKS_@Base 4:4.5.3
 _ZN11QDomCommentC1EP18QDomCommentPrivate@Base 4:4.5.3
 _ZN11QDomCommentC1ERKS_@Base 4:4.5.3
 _ZN11QDomCommentC1Ev@Base 4:4.5.3
 _ZN11QDomCommentC2EP18QDomCommentPrivate@Base 4:4.5.3
 _ZN11QDomCommentC2ERKS_@Base 4:4.5.3
 _ZN11QDomCommentC2Ev@Base 4:4.5.3
 _ZN11QDomCommentaSERKS_@Base 4:4.5.3
 _ZN11QDomElement10setTagNameERK7QString@Base 4:4.5.3
 _ZN11QDomElement12setAttributeERK7QStringS2_@Base 4:4.5.3
 _ZN11QDomElement12setAttributeERK7QStringd@Base 4:4.5.3
 _ZN11QDomElement12setAttributeERK7QStringf@Base 4:4.5.3
 _ZN11QDomElement12setAttributeERK7QStringx@Base 4:4.5.3
 _ZN11QDomElement12setAttributeERK7QStringy@Base 4:4.5.3
 _ZN11QDomElement13attributeNodeERK7QString@Base 4:4.5.3
 _ZN11QDomElement14setAttributeNSE7QStringRKS0_S2_@Base 4:4.5.3
 _ZN11QDomElement14setAttributeNSE7QStringRKS0_d@Base 4:4.5.3
 _ZN11QDomElement14setAttributeNSE7QStringRKS0_x@Base 4:4.5.3
 _ZN11QDomElement14setAttributeNSE7QStringRKS0_y@Base 4:4.5.3
 _ZN11QDomElement15attributeNodeNSERK7QStringS2_@Base 4:4.5.3
 _ZN11QDomElement15removeAttributeERK7QString@Base 4:4.5.3
 _ZN11QDomElement16setAttributeNodeERK8QDomAttr@Base 4:4.5.3
 _ZN11QDomElement17removeAttributeNSERK7QStringS2_@Base 4:4.5.3
 _ZN11QDomElement18setAttributeNodeNSERK8QDomAttr@Base 4:4.5.3
 _ZN11QDomElement19removeAttributeNodeERK8QDomAttr@Base 4:4.5.3
 _ZN11QDomElementC1EP18QDomElementPrivate@Base 4:4.5.3
 _ZN11QDomElementC1ERKS_@Base 4:4.5.3
 _ZN11QDomElementC1Ev@Base 4:4.5.3
 _ZN11QDomElementC2EP18QDomElementPrivate@Base 4:4.5.3
 _ZN11QDomElementC2ERKS_@Base 4:4.5.3
 _ZN11QDomElementC2Ev@Base 4:4.5.3
 _ZN11QDomElementaSERKS_@Base 4:4.5.3
 _ZN11QXmlLocatorC1Ev@Base 4:4.5.3
 _ZN11QXmlLocatorC2Ev@Base 4:4.5.3
 _ZN11QXmlLocatorD0Ev@Base 4:4.5.3
 _ZN11QXmlLocatorD1Ev@Base 4:4.5.3
 _ZN11QXmlLocatorD2Ev@Base 4:4.5.3
 _ZN12QDomDocument10importNodeERK8QDomNodeb@Base 4:4.5.3
 _ZN12QDomDocument10setContentEP15QXmlInputSourceP10QXmlReaderP7QStringPiS6_@Base 4:4.5.3
 _ZN12QDomDocument10setContentEP15QXmlInputSourcebP7QStringPiS4_@Base 4:4.5.3
 _ZN12QDomDocument10setContentEP9QIODeviceP7QStringPiS4_@Base 4:4.5.3
 _ZN12QDomDocument10setContentEP9QIODevicebP7QStringPiS4_@Base 4:4.5.3
 _ZN12QDomDocument10setContentERK10QByteArrayP7QStringPiS5_@Base 4:4.5.3
 _ZN12QDomDocument10setContentERK10QByteArraybP7QStringPiS5_@Base 4:4.5.3
 _ZN12QDomDocument10setContentERK7QStringPS0_PiS4_@Base 4:4.5.3
 _ZN12QDomDocument10setContentERK7QStringbPS0_PiS4_@Base 4:4.5.3
 _ZN12QDomDocument11elementByIdERK7QString@Base 4:4.5.3
 _ZN12QDomDocument13createCommentERK7QString@Base 4:4.5.3
 _ZN12QDomDocument13createElementERK7QString@Base 4:4.5.3
 _ZN12QDomDocument14createTextNodeERK7QString@Base 4:4.5.3
 _ZN12QDomDocument15createAttributeERK7QString@Base 4:4.5.3
 _ZN12QDomDocument15createElementNSERK7QStringS2_@Base 4:4.5.3
 _ZN12QDomDocument17createAttributeNSERK7QStringS2_@Base 4:4.5.3
 _ZN12QDomDocument18createCDATASectionERK7QString@Base 4:4.5.3
 _ZN12QDomDocument19elementsByTagNameNSERK7QStringS2_@Base 4:4.5.3
 _ZN12QDomDocument21createEntityReferenceERK7QString@Base 4:4.5.3
 _ZN12QDomDocument22createDocumentFragmentEv@Base 4:4.5.3
 _ZN12QDomDocument27createProcessingInstructionERK7QStringS2_@Base 4:4.5.3
 _ZN12QDomDocumentC1EP19QDomDocumentPrivate@Base 4:4.5.3
 _ZN12QDomDocumentC1ERK16QDomDocumentType@Base 4:4.5.3
 _ZN12QDomDocumentC1ERK7QString@Base 4:4.5.3
 _ZN12QDomDocumentC1ERKS_@Base 4:4.5.3
 _ZN12QDomDocumentC1Ev@Base 4:4.5.3
 _ZN12QDomDocumentC2EP19QDomDocumentPrivate@Base 4:4.5.3
 _ZN12QDomDocumentC2ERK16QDomDocumentType@Base 4:4.5.3
 _ZN12QDomDocumentC2ERK7QString@Base 4:4.5.3
 _ZN12QDomDocumentC2ERKS_@Base 4:4.5.3
 _ZN12QDomDocumentC2Ev@Base 4:4.5.3
 _ZN12QDomDocumentD1Ev@Base 4:4.5.3
 _ZN12QDomDocumentD2Ev@Base 4:4.5.3
 _ZN12QDomDocumentaSERKS_@Base 4:4.5.3
 _ZN12QDomNodeListC1EP19QDomNodeListPrivate@Base 4:4.5.3
 _ZN12QDomNodeListC1ERKS_@Base 4:4.5.3
 _ZN12QDomNodeListC1Ev@Base 4:4.5.3
 _ZN12QDomNodeListC2EP19QDomNodeListPrivate@Base 4:4.5.3
 _ZN12QDomNodeListC2ERKS_@Base 4:4.5.3
 _ZN12QDomNodeListC2Ev@Base 4:4.5.3
 _ZN12QDomNodeListD1Ev@Base 4:4.5.3
 _ZN12QDomNodeListD2Ev@Base 4:4.5.3
 _ZN12QDomNodeListaSERKS_@Base 4:4.5.3
 _ZN12QDomNotationC1EP19QDomNotationPrivate@Base 4:4.5.3
 _ZN12QDomNotationC1ERKS_@Base 4:4.5.3
 _ZN12QDomNotationC1Ev@Base 4:4.5.3
 _ZN12QDomNotationC2EP19QDomNotationPrivate@Base 4:4.5.3
 _ZN12QDomNotationC2ERKS_@Base 4:4.5.3
 _ZN12QDomNotationC2Ev@Base 4:4.5.3
 _ZN12QDomNotationaSERKS_@Base 4:4.5.3
 _ZN14QXmlAttributes5clearEv@Base 4:4.5.3
 _ZN14QXmlAttributes6appendERK7QStringS2_S2_S2_@Base 4:4.5.3
 _ZN14QXmlAttributes9AttributeD1Ev@Base 4:4.7.4
 _ZN14QXmlAttributes9AttributeD2Ev@Base 4:4.7.4
 _ZN15QXmlInputSource11fromRawDataERK10QByteArrayb@Base 4:4.5.3
 _ZN15QXmlInputSource13EndOfDocumentE@Base 4:4.5.3
 _ZN15QXmlInputSource4initEv@Base 4:4.5.3
 _ZN15QXmlInputSource4nextEv@Base 4:4.5.3
 _ZN15QXmlInputSource5resetEv@Base 4:4.5.3
 _ZN15QXmlInputSource7setDataERK10QByteArray@Base 4:4.5.3
 _ZN15QXmlInputSource7setDataERK7QString@Base 4:4.5.3
 _ZN15QXmlInputSource9EndOfDataE@Base 4:4.5.3
 _ZN15QXmlInputSource9fetchDataEv@Base 4:4.5.3
 _ZN15QXmlInputSourceC1EP9QIODevice@Base 4:4.5.3
 _ZN15QXmlInputSourceC1ER11QTextStream@Base 4:4.5.3
 _ZN15QXmlInputSourceC1ER5QFile@Base 4:4.5.3
 _ZN15QXmlInputSourceC1Ev@Base 4:4.5.3
 _ZN15QXmlInputSourceC2EP9QIODevice@Base 4:4.5.3
 _ZN15QXmlInputSourceC2ER11QTextStream@Base 4:4.5.3
 _ZN15QXmlInputSourceC2ER5QFile@Base 4:4.5.3
 _ZN15QXmlInputSourceC2Ev@Base 4:4.5.3
 _ZN15QXmlInputSourceD0Ev@Base 4:4.5.3
 _ZN15QXmlInputSourceD1Ev@Base 4:4.5.3
 _ZN15QXmlInputSourceD2Ev@Base 4:4.5.3
 _ZN16QDomCDATASectionC1EP23QDomCDATASectionPrivate@Base 4:4.5.3
 _ZN16QDomCDATASectionC1ERKS_@Base 4:4.5.3
 _ZN16QDomCDATASectionC1Ev@Base 4:4.5.3
 _ZN16QDomCDATASectionC2EP23QDomCDATASectionPrivate@Base 4:4.5.3
 _ZN16QDomCDATASectionC2ERKS_@Base 4:4.5.3
 _ZN16QDomCDATASectionC2Ev@Base 4:4.5.3
 _ZN16QDomCDATASectionaSERKS_@Base 4:4.5.3
 _ZN16QDomDocumentTypeC1EP23QDomDocumentTypePrivate@Base 4:4.5.3
 _ZN16QDomDocumentTypeC1ERKS_@Base 4:4.5.3
 _ZN16QDomDocumentTypeC1Ev@Base 4:4.5.3
 _ZN16QDomDocumentTypeC2EP23QDomDocumentTypePrivate@Base 4:4.5.3
 _ZN16QDomDocumentTypeC2ERKS_@Base 4:4.5.3
 _ZN16QDomDocumentTypeC2Ev@Base 4:4.5.3
 _ZN16QDomDocumentTypeaSERKS_@Base 4:4.5.3
 _ZN16QDomNamedNodeMap12setNamedItemERK8QDomNode@Base 4:4.5.3
 _ZN16QDomNamedNodeMap14setNamedItemNSERK8QDomNode@Base 4:4.5.3
 _ZN16QDomNamedNodeMap15removeNamedItemERK7QString@Base 4:4.5.3
 _ZN16QDomNamedNodeMap17removeNamedItemNSERK7QStringS2_@Base 4:4.5.3
 _ZN16QDomNamedNodeMapC1EP23QDomNamedNodeMapPrivate@Base 4:4.5.3
 _ZN16QDomNamedNodeMapC1ERKS_@Base 4:4.5.3
 _ZN16QDomNamedNodeMapC1Ev@Base 4:4.5.3
 _ZN16QDomNamedNodeMapC2EP23QDomNamedNodeMapPrivate@Base 4:4.5.3
 _ZN16QDomNamedNodeMapC2ERKS_@Base 4:4.5.3
 _ZN16QDomNamedNodeMapC2Ev@Base 4:4.5.3
 _ZN16QDomNamedNodeMapD1Ev@Base 4:4.5.3
 _ZN16QDomNamedNodeMapD2Ev@Base 4:4.5.3
 _ZN16QDomNamedNodeMapaSERKS_@Base 4:4.5.3
 _ZN16QXmlSimpleReader10setFeatureERK7QStringb@Base 4:4.5.3
 _ZN16QXmlSimpleReader11setPropertyERK7QStringPv@Base 4:4.5.3
 _ZN16QXmlSimpleReader13parseContinueEv@Base 4:4.5.3
 _ZN16QXmlSimpleReader13setDTDHandlerEP14QXmlDTDHandler@Base 4:4.5.3
 _ZN16QXmlSimpleReader14setDeclHandlerEP15QXmlDeclHandler@Base 4:4.5.3
 _ZN16QXmlSimpleReader15setErrorHandlerEP16QXmlErrorHandler@Base 4:4.5.3
 _ZN16QXmlSimpleReader17setContentHandlerEP18QXmlContentHandler@Base 4:4.5.3
 _ZN16QXmlSimpleReader17setEntityResolverEP18QXmlEntityResolver@Base 4:4.5.3
 _ZN16QXmlSimpleReader17setLexicalHandlerEP18QXmlLexicalHandler@Base 4:4.5.3
 _ZN16QXmlSimpleReader5parseEPK15QXmlInputSource@Base 4:4.5.3
 _ZN16QXmlSimpleReader5parseEPK15QXmlInputSourceb@Base 4:4.5.3
 _ZN16QXmlSimpleReader5parseERK15QXmlInputSource@Base 4:4.5.3
 _ZN16QXmlSimpleReaderC1Ev@Base 4:4.5.3
 _ZN16QXmlSimpleReaderC2Ev@Base 4:4.5.3
 _ZN16QXmlSimpleReaderD0Ev@Base 4:4.5.3
 _ZN16QXmlSimpleReaderD1Ev@Base 4:4.5.3
 _ZN16QXmlSimpleReaderD2Ev@Base 4:4.5.3
 _ZN17QDomCharacterData10appendDataERK7QString@Base 4:4.5.3
 _ZN17QDomCharacterData10deleteDataEmm@Base 4:4.5.3
 _ZN17QDomCharacterData10insertDataEmRK7QString@Base 4:4.5.3
 _ZN17QDomCharacterData11replaceDataEmmRK7QString@Base 4:4.5.3
 _ZN17QDomCharacterData13substringDataEmm@Base 4:4.5.3
 _ZN17QDomCharacterData7setDataERK7QString@Base 4:4.5.3
 _ZN17QDomCharacterDataC1EP24QDomCharacterDataPrivate@Base 4:4.5.3
 _ZN17QDomCharacterDataC1ERKS_@Base 4:4.5.3
 _ZN17QDomCharacterDataC1Ev@Base 4:4.5.3
 _ZN17QDomCharacterDataC2EP24QDomCharacterDataPrivate@Base 4:4.5.3
 _ZN17QDomCharacterDataC2ERKS_@Base 4:4.5.3
 _ZN17QDomCharacterDataC2Ev@Base 4:4.5.3
 _ZN17QDomCharacterDataaSERKS_@Base 4:4.5.3
 _ZN18QDomImplementation14createDocumentERK7QStringS2_RK16QDomDocumentType@Base 4:4.5.3
 _ZN18QDomImplementation17invalidDataPolicyEv@Base 4:4.5.3
 _ZN18QDomImplementation18createDocumentTypeERK7QStringS2_S2_@Base 4:4.5.3
 _ZN18QDomImplementation20setInvalidDataPolicyENS_17InvalidDataPolicyE@Base 4:4.5.3
 _ZN18QDomImplementation6isNullEv@Base 4:4.5.3
 _ZN18QDomImplementationC1EP25QDomImplementationPrivate@Base 4:4.5.3
 _ZN18QDomImplementationC1ERKS_@Base 4:4.5.3
 _ZN18QDomImplementationC1Ev@Base 4:4.5.3
 _ZN18QDomImplementationC2EP25QDomImplementationPrivate@Base 4:4.5.3
 _ZN18QDomImplementationC2ERKS_@Base 4:4.5.3
 _ZN18QDomImplementationC2Ev@Base 4:4.5.3
 _ZN18QDomImplementationD1Ev@Base 4:4.5.3
 _ZN18QDomImplementationD2Ev@Base 4:4.5.3
 _ZN18QDomImplementationaSERKS_@Base 4:4.5.3
 _ZN18QXmlDefaultHandler10charactersERK7QString@Base 4:4.5.3
 _ZN18QXmlDefaultHandler10endElementERK7QStringS2_S2_@Base 4:4.5.3
 _ZN18QXmlDefaultHandler10fatalErrorERK18QXmlParseException@Base 4:4.5.3
 _ZN18QXmlDefaultHandler10startCDATAEv@Base 4:4.5.3
 _ZN18QXmlDefaultHandler11endDocumentEv@Base 4:4.5.3
 _ZN18QXmlDefaultHandler11startEntityERK7QString@Base 4:4.5.3
 _ZN18QXmlDefaultHandler12notationDeclERK7QStringS2_S2_@Base 4:4.5.3
 _ZN18QXmlDefaultHandler12startElementERK7QStringS2_S2_RK14QXmlAttributes@Base 4:4.5.3
 _ZN18QXmlDefaultHandler13attributeDeclERK7QStringS2_S2_S2_S2_@Base 4:4.5.3
 _ZN18QXmlDefaultHandler13resolveEntityERK7QStringS2_RP15QXmlInputSource@Base 4:4.5.3
 _ZN18QXmlDefaultHandler13skippedEntityERK7QString@Base 4:4.5.3
 _ZN18QXmlDefaultHandler13startDocumentEv@Base 4:4.5.3
 _ZN18QXmlDefaultHandler16endPrefixMappingERK7QString@Base 4:4.5.3
 _ZN18QXmlDefaultHandler18externalEntityDeclERK7QStringS2_S2_@Base 4:4.5.3
 _ZN18QXmlDefaultHandler18internalEntityDeclERK7QStringS2_@Base 4:4.5.3
 _ZN18QXmlDefaultHandler18setDocumentLocatorEP11QXmlLocator@Base 4:4.5.3
 _ZN18QXmlDefaultHandler18startPrefixMappingERK7QStringS2_@Base 4:4.5.3
 _ZN18QXmlDefaultHandler18unparsedEntityDeclERK7QStringS2_S2_S2_@Base 4:4.5.3
 _ZN18QXmlDefaultHandler19ignorableWhitespaceERK7QString@Base 4:4.5.3
 _ZN18QXmlDefaultHandler21processingInstructionERK7QStringS2_@Base 4:4.5.3
 _ZN18QXmlDefaultHandler5errorERK18QXmlParseException@Base 4:4.5.3
 _ZN18QXmlDefaultHandler6endDTDEv@Base 4:4.5.3
 _ZN18QXmlDefaultHandler7commentERK7QString@Base 4:4.5.3
 _ZN18QXmlDefaultHandler7warningERK18QXmlParseException@Base 4:4.5.3
 _ZN18QXmlDefaultHandler8endCDATAEv@Base 4:4.5.3
 _ZN18QXmlDefaultHandler8startDTDERK7QStringS2_S2_@Base 4:4.5.3
 _ZN18QXmlDefaultHandler9endEntityERK7QString@Base 4:4.5.3
 _ZN18QXmlParseExceptionC1ERK7QStringiiS2_S2_@Base 4:4.5.3
 _ZN18QXmlParseExceptionC1ERKS_@Base 4:4.6.1
 _ZN18QXmlParseExceptionC2ERK7QStringiiS2_S2_@Base 4:4.5.3
 _ZN18QXmlParseExceptionC2ERKS_@Base 4:4.6.1
 _ZN18QXmlParseExceptionD1Ev@Base 4:4.5.3
 _ZN18QXmlParseExceptionD2Ev@Base 4:4.5.3
 _ZN19QDomEntityReferenceC1EP26QDomEntityReferencePrivate@Base 4:4.5.3
 _ZN19QDomEntityReferenceC1ERKS_@Base 4:4.5.3
 _ZN19QDomEntityReferenceC1Ev@Base 4:4.5.3
 _ZN19QDomEntityReferenceC2EP26QDomEntityReferencePrivate@Base 4:4.5.3
 _ZN19QDomEntityReferenceC2ERKS_@Base 4:4.5.3
 _ZN19QDomEntityReferenceC2Ev@Base 4:4.5.3
 _ZN19QDomEntityReferenceaSERKS_@Base 4:4.5.3
 _ZN20QDomDocumentFragmentC1EP27QDomDocumentFragmentPrivate@Base 4:4.5.3
 _ZN20QDomDocumentFragmentC1ERKS_@Base 4:4.5.3
 _ZN20QDomDocumentFragmentC1Ev@Base 4:4.5.3
 _ZN20QDomDocumentFragmentC2EP27QDomDocumentFragmentPrivate@Base 4:4.5.3
 _ZN20QDomDocumentFragmentC2ERKS_@Base 4:4.5.3
 _ZN20QDomDocumentFragmentC2Ev@Base 4:4.5.3
 _ZN20QDomDocumentFragmentaSERKS_@Base 4:4.5.3
 _ZN20QXmlNamespaceSupport10popContextEv@Base 4:4.5.3
 _ZN20QXmlNamespaceSupport11pushContextEv@Base 4:4.5.3
 _ZN20QXmlNamespaceSupport5resetEv@Base 4:4.5.3
 _ZN20QXmlNamespaceSupport9setPrefixERK7QStringS2_@Base 4:4.5.3
 _ZN20QXmlNamespaceSupportC1Ev@Base 4:4.5.3
 _ZN20QXmlNamespaceSupportC2Ev@Base 4:4.5.3
 _ZN20QXmlNamespaceSupportD1Ev@Base 4:4.5.3
 _ZN20QXmlNamespaceSupportD2Ev@Base 4:4.5.3
 _ZN25QDomProcessingInstruction7setDataERK7QString@Base 4:4.5.3
 _ZN25QDomProcessingInstructionC1EP32QDomProcessingInstructionPrivate@Base 4:4.5.3
 _ZN25QDomProcessingInstructionC1ERKS_@Base 4:4.5.3
 _ZN25QDomProcessingInstructionC1Ev@Base 4:4.5.3
 _ZN25QDomProcessingInstructionC2EP32QDomProcessingInstructionPrivate@Base 4:4.5.3
 _ZN25QDomProcessingInstructionC2ERKS_@Base 4:4.5.3
 _ZN25QDomProcessingInstructionC2Ev@Base 4:4.5.3
 _ZN25QDomProcessingInstructionaSERKS_@Base 4:4.5.3
 _ZN8QDomAttr8setValueERK7QString@Base 4:4.5.3
 _ZN8QDomAttrC1EP15QDomAttrPrivate@Base 4:4.5.3
 _ZN8QDomAttrC1ERKS_@Base 4:4.5.3
 _ZN8QDomAttrC1Ev@Base 4:4.5.3
 _ZN8QDomAttrC2EP15QDomAttrPrivate@Base 4:4.5.3
 _ZN8QDomAttrC2ERKS_@Base 4:4.5.3
 _ZN8QDomAttrC2Ev@Base 4:4.5.3
 _ZN8QDomAttraSERKS_@Base 4:4.5.3
 _ZN8QDomNode11appendChildERKS_@Base 4:4.5.3
 _ZN8QDomNode11insertAfterERKS_S1_@Base 4:4.5.3
 _ZN8QDomNode11removeChildERKS_@Base 4:4.5.3
 _ZN8QDomNode12insertBeforeERKS_S1_@Base 4:4.5.3
 _ZN8QDomNode12replaceChildERKS_S1_@Base 4:4.5.3
 _ZN8QDomNode12setNodeValueERK7QString@Base 4:4.5.3
 _ZN8QDomNode5clearEv@Base 4:4.5.3
 _ZN8QDomNode9normalizeEv@Base 4:4.5.3
 _ZN8QDomNode9setPrefixERK7QString@Base 4:4.5.3
 _ZN8QDomNodeC1EP15QDomNodePrivate@Base 4:4.5.3
 _ZN8QDomNodeC1ERKS_@Base 4:4.5.3
 _ZN8QDomNodeC1Ev@Base 4:4.5.3
 _ZN8QDomNodeC2EP15QDomNodePrivate@Base 4:4.5.3
 _ZN8QDomNodeC2ERKS_@Base 4:4.5.3
 _ZN8QDomNodeC2Ev@Base 4:4.5.3
 _ZN8QDomNodeD1Ev@Base 4:4.5.3
 _ZN8QDomNodeD2Ev@Base 4:4.5.3
 _ZN8QDomNodeaSERKS_@Base 4:4.5.3
 _ZN8QDomText9splitTextEi@Base 4:4.5.3
 _ZN8QDomTextC1EP15QDomTextPrivate@Base 4:4.5.3
 _ZN8QDomTextC1ERKS_@Base 4:4.5.3
 _ZN8QDomTextC1Ev@Base 4:4.5.3
 _ZN8QDomTextC2EP15QDomTextPrivate@Base 4:4.5.3
 _ZN8QDomTextC2ERKS_@Base 4:4.5.3
 _ZN8QDomTextC2Ev@Base 4:4.5.3
 _ZN8QDomTextaSERKS_@Base 4:4.5.3
 _ZNK10QDomEntity12notationNameEv@Base 4:4.5.3
 _ZNK10QDomEntity8publicIdEv@Base 4:4.5.3
 _ZNK10QDomEntity8systemIdEv@Base 4:4.5.3
 _ZNK11QDomElement10attributesEv@Base 4:4.5.3
 _ZNK11QDomElement11attributeNSE7QStringRKS0_S2_@Base 4:4.5.3
 _ZNK11QDomElement12hasAttributeERK7QString@Base 4:4.5.3
 _ZNK11QDomElement14hasAttributeNSERK7QStringS2_@Base 4:4.5.3
 _ZNK11QDomElement17elementsByTagNameERK7QString@Base 4:4.5.3
 _ZNK11QDomElement19elementsByTagNameNSERK7QStringS2_@Base 4:4.5.3
 _ZNK11QDomElement4textEv@Base 4:4.5.3
 _ZNK11QDomElement7tagNameEv@Base 4:4.5.3
 _ZNK11QDomElement9attributeERK7QStringS2_@Base 4:4.5.3
 _ZNK12QDomDocument11toByteArrayEi@Base 4:4.5.3
 _ZNK12QDomDocument14implementationEv@Base 4:4.5.3
 _ZNK12QDomDocument15documentElementEv@Base 4:4.5.3
 _ZNK12QDomDocument17elementsByTagNameERK7QString@Base 4:4.5.3
 _ZNK12QDomDocument7doctypeEv@Base 4:4.5.3
 _ZNK12QDomDocument8toStringEi@Base 4:4.5.3
 _ZNK12QDomNodeList4itemEi@Base 4:4.5.3
 _ZNK12QDomNodeList6lengthEv@Base 4:4.5.3
 _ZNK12QDomNodeListeqERKS_@Base 4:4.5.3
 _ZNK12QDomNodeListneERKS_@Base 4:4.5.3
 _ZNK12QDomNotation8publicIdEv@Base 4:4.5.3
 _ZNK12QDomNotation8systemIdEv@Base 4:4.5.3
 _ZNK14QXmlAttributes3uriEi@Base 4:4.5.3
 _ZNK14QXmlAttributes4typeERK7QString@Base 4:4.5.3
 _ZNK14QXmlAttributes4typeERK7QStringS2_@Base 4:4.5.3
 _ZNK14QXmlAttributes4typeEi@Base 4:4.5.3
 _ZNK14QXmlAttributes5indexERK13QLatin1String@Base 4:4.5.3
 _ZNK14QXmlAttributes5indexERK7QString@Base 4:4.5.3
 _ZNK14QXmlAttributes5indexERK7QStringS2_@Base 4:4.5.3
 _ZNK14QXmlAttributes5qNameEi@Base 4:4.5.3
 _ZNK14QXmlAttributes5valueERK13QLatin1String@Base 4:4.5.3
 _ZNK14QXmlAttributes5valueERK7QString@Base 4:4.5.3
 _ZNK14QXmlAttributes5valueERK7QStringS2_@Base 4:4.5.3
 _ZNK14QXmlAttributes5valueEi@Base 4:4.5.3
 _ZNK14QXmlAttributes6lengthEv@Base 4:4.5.3
 _ZNK14QXmlAttributes9localNameEi@Base 4:4.5.3
 _ZNK15QXmlInputSource4dataEv@Base 4:4.5.3
 _ZNK16QDomDocumentType14internalSubsetEv@Base 4:4.5.3
 _ZNK16QDomDocumentType4nameEv@Base 4:4.5.3
 _ZNK16QDomDocumentType8entitiesEv@Base 4:4.5.3
 _ZNK16QDomDocumentType8publicIdEv@Base 4:4.5.3
 _ZNK16QDomDocumentType8systemIdEv@Base 4:4.5.3
 _ZNK16QDomDocumentType9notationsEv@Base 4:4.5.3
 _ZNK16QDomNamedNodeMap11namedItemNSERK7QStringS2_@Base 4:4.5.3
 _ZNK16QDomNamedNodeMap4itemEi@Base 4:4.5.3
 _ZNK16QDomNamedNodeMap6lengthEv@Base 4:4.5.3
 _ZNK16QDomNamedNodeMap8containsERK7QString@Base 4:4.5.3
 _ZNK16QDomNamedNodeMap9namedItemERK7QString@Base 4:4.5.3
 _ZNK16QDomNamedNodeMapeqERKS_@Base 4:4.5.3
 _ZNK16QDomNamedNodeMapneERKS_@Base 4:4.5.3
 _ZNK16QXmlSimpleReader10DTDHandlerEv@Base 4:4.5.3
 _ZNK16QXmlSimpleReader10hasFeatureERK7QString@Base 4:4.5.3
 _ZNK16QXmlSimpleReader11declHandlerEv@Base 4:4.5.3
 _ZNK16QXmlSimpleReader11hasPropertyERK7QString@Base 4:4.5.3
 _ZNK16QXmlSimpleReader12errorHandlerEv@Base 4:4.5.3
 _ZNK16QXmlSimpleReader14contentHandlerEv@Base 4:4.5.3
 _ZNK16QXmlSimpleReader14entityResolverEv@Base 4:4.5.3
 _ZNK16QXmlSimpleReader14lexicalHandlerEv@Base 4:4.5.3
 _ZNK16QXmlSimpleReader7featureERK7QStringPb@Base 4:4.5.3
 _ZNK16QXmlSimpleReader8propertyERK7QStringPb@Base 4:4.5.3
 _ZNK17QDomCharacterData4dataEv@Base 4:4.5.3
 _ZNK17QDomCharacterData6lengthEv@Base 4:4.5.3
 _ZNK17QDomCharacterData8nodeTypeEv@Base 4:4.5.3
 _ZNK18QDomImplementation10hasFeatureERK7QStringS2_@Base 4:4.5.3
 _ZNK18QDomImplementationeqERKS_@Base 4:4.5.3
 _ZNK18QDomImplementationneERKS_@Base 4:4.5.3
 _ZNK18QXmlDefaultHandler11errorStringEv@Base 4:4.5.3
 _ZNK18QXmlParseException10lineNumberEv@Base 4:4.5.3
 _ZNK18QXmlParseException12columnNumberEv@Base 4:4.5.3
 _ZNK18QXmlParseException7messageEv@Base 4:4.5.3
 _ZNK18QXmlParseException8publicIdEv@Base 4:4.5.3
 _ZNK18QXmlParseException8systemIdEv@Base 4:4.5.3
 _ZNK20QXmlNamespaceSupport11processNameERK7QStringbRS0_S3_@Base 4:4.5.3
 _ZNK20QXmlNamespaceSupport3uriERK7QString@Base 4:4.5.3
 _ZNK20QXmlNamespaceSupport6prefixERK7QString@Base 4:4.5.3
 _ZNK20QXmlNamespaceSupport8prefixesERK7QString@Base 4:4.5.3
 _ZNK20QXmlNamespaceSupport8prefixesEv@Base 4:4.5.3
 _ZNK20QXmlNamespaceSupport9splitNameERK7QStringRS0_S3_@Base 4:4.5.3
 _ZNK25QDomProcessingInstruction4dataEv@Base 4:4.5.3
 _ZNK25QDomProcessingInstruction6targetEv@Base 4:4.5.3
 _ZNK8QDomAttr12ownerElementEv@Base 4:4.5.3
 _ZNK8QDomAttr4nameEv@Base 4:4.5.3
 _ZNK8QDomAttr5valueEv@Base 4:4.5.3
 _ZNK8QDomAttr9specifiedEv@Base 4:4.5.3
 _ZNK8QDomNode10attributesEv@Base 4:4.5.3
 _ZNK8QDomNode10childNodesEv@Base 4:4.5.3
 _ZNK8QDomNode10firstChildEv@Base 4:4.5.3
 _ZNK8QDomNode10isDocumentEv@Base 4:4.5.3
 _ZNK8QDomNode10isNotationEv@Base 4:4.5.3
 _ZNK8QDomNode10lineNumberEv@Base 4:4.5.3
 _ZNK8QDomNode10parentNodeEv@Base 4:4.5.3
 _ZNK8QDomNode10toDocumentEv@Base 4:4.5.3
 _ZNK8QDomNode10toNotationEv@Base 4:4.5.3
 _ZNK8QDomNode11isSupportedERK7QStringS2_@Base 4:4.5.3
 _ZNK8QDomNode11nextSiblingEv@Base 4:4.5.3
 _ZNK8QDomNode12columnNumberEv@Base 4:4.5.3
 _ZNK8QDomNode12namespaceURIEv@Base 4:4.5.3
 _ZNK8QDomNode13hasAttributesEv@Base 4:4.5.3
 _ZNK8QDomNode13hasChildNodesEv@Base 4:4.5.3
 _ZNK8QDomNode13ownerDocumentEv@Base 4:4.5.3
 _ZNK8QDomNode14isCDATASectionEv@Base 4:4.5.3
 _ZNK8QDomNode14isDocumentTypeEv@Base 4:4.5.3
 _ZNK8QDomNode14toCDATASectionEv@Base 4:4.5.3
 _ZNK8QDomNode14toDocumentTypeEv@Base 4:4.5.3
 _ZNK8QDomNode15isCharacterDataEv@Base 4:4.5.3
 _ZNK8QDomNode15previousSiblingEv@Base 4:4.5.3
 _ZNK8QDomNode15toCharacterDataEv@Base 4:4.5.3
 _ZNK8QDomNode16lastChildElementERK7QString@Base 4:4.5.3
 _ZNK8QDomNode17firstChildElementERK7QString@Base 4:4.5.3
 _ZNK8QDomNode17isEntityReferenceEv@Base 4:4.5.3
 _ZNK8QDomNode17toEntityReferenceEv@Base 4:4.5.3
 _ZNK8QDomNode18isDocumentFragmentEv@Base 4:4.5.3
 _ZNK8QDomNode18nextSiblingElementERK7QString@Base 4:4.5.3
 _ZNK8QDomNode18toDocumentFragmentEv@Base 4:4.5.3
 _ZNK8QDomNode22previousSiblingElementERK7QString@Base 4:4.5.3
 _ZNK8QDomNode23isProcessingInstructionEv@Base 4:4.5.3
 _ZNK8QDomNode23toProcessingInstructionEv@Base 4:4.5.3
 _ZNK8QDomNode4saveER11QTextStreami@Base 4:4.5.3
 _ZNK8QDomNode4saveER11QTextStreamiNS_14EncodingPolicyE@Base 4:4.5.3
 _ZNK8QDomNode6isAttrEv@Base 4:4.5.3
 _ZNK8QDomNode6isNullEv@Base 4:4.5.3
 _ZNK8QDomNode6isTextEv@Base 4:4.5.3
 _ZNK8QDomNode6prefixEv@Base 4:4.5.3
 _ZNK8QDomNode6toAttrEv@Base 4:4.5.3
 _ZNK8QDomNode6toTextEv@Base 4:4.5.3
 _ZNK8QDomNode8isEntityEv@Base 4:4.5.3
 _ZNK8QDomNode8nodeNameEv@Base 4:4.5.3
 _ZNK8QDomNode8nodeTypeEv@Base 4:4.5.3
 _ZNK8QDomNode8toEntityEv@Base 4:4.5.3
 _ZNK8QDomNode9cloneNodeEb@Base 4:4.5.3
 _ZNK8QDomNode9isCommentEv@Base 4:4.5.3
 _ZNK8QDomNode9isElementEv@Base 4:4.5.3
 _ZNK8QDomNode9lastChildEv@Base 4:4.5.3
 _ZNK8QDomNode9localNameEv@Base 4:4.5.3
 _ZNK8QDomNode9namedItemERK7QString@Base 4:4.5.3
 _ZNK8QDomNode9nodeValueEv@Base 4:4.5.3
 _ZNK8QDomNode9toCommentEv@Base 4:4.5.3
 _ZNK8QDomNode9toElementEv@Base 4:4.5.3
 _ZNK8QDomNodeeqERKS_@Base 4:4.5.3
 _ZNK8QDomNodeneERKS_@Base 4:4.5.3
 _ZTI10QXmlReader@Base 4:4.5.3
 _ZTI11QXmlLocator@Base 4:4.5.3
 _ZTI14QXmlAttributes@Base 4:4.5.3
 _ZTI14QXmlDTDHandler@Base 4:4.5.3
 _ZTI15QXmlDeclHandler@Base 4:4.5.3
 _ZTI15QXmlInputSource@Base 4:4.5.3
 _ZTI16QXmlErrorHandler@Base 4:4.5.3
 _ZTI16QXmlSimpleReader@Base 4:4.5.3
 _ZTI18QXmlContentHandler@Base 4:4.5.3
 _ZTI18QXmlDefaultHandler@Base 4:4.5.3
 _ZTI18QXmlEntityResolver@Base 4:4.5.3
 _ZTI18QXmlLexicalHandler@Base 4:4.5.3
 _ZTS10QXmlReader@Base 4:4.5.3
 _ZTS11QXmlLocator@Base 4:4.5.3
 _ZTS14QXmlAttributes@Base 4:4.5.3
 _ZTS14QXmlDTDHandler@Base 4:4.5.3
 _ZTS15QXmlDeclHandler@Base 4:4.5.3
 _ZTS15QXmlInputSource@Base 4:4.5.3
 _ZTS16QXmlErrorHandler@Base 4:4.5.3
 _ZTS16QXmlSimpleReader@Base 4:4.5.3
 _ZTS18QXmlContentHandler@Base 4:4.5.3
 _ZTS18QXmlDefaultHandler@Base 4:4.5.3
 _ZTS18QXmlEntityResolver@Base 4:4.5.3
 _ZTS18QXmlLexicalHandler@Base 4:4.5.3
 _ZTV10QXmlReader@Base 4:4.5.3
 _ZTV11QXmlLocator@Base 4:4.5.3
 _ZTV14QXmlAttributes@Base 4:4.5.3
 _ZTV14QXmlDTDHandler@Base 4:4.5.3
 _ZTV15QXmlDeclHandler@Base 4:4.5.3
 _ZTV15QXmlInputSource@Base 4:4.5.3
 _ZTV16QXmlErrorHandler@Base 4:4.5.3
 _ZTV16QXmlSimpleReader@Base 4:4.5.3
 _ZTV18QXmlContentHandler@Base 4:4.5.3
 _ZTV18QXmlDefaultHandler@Base 4:4.5.3
 _ZTV18QXmlEntityResolver@Base 4:4.5.3
 _ZTV18QXmlLexicalHandler@Base 4:4.5.3
 _ZThn12_N18QXmlDefaultHandler13resolveEntityERK7QStringS2_RP15QXmlInputSource@Base 4:4.5.3
 _ZThn12_NK18QXmlDefaultHandler11errorStringEv@Base 4:4.5.3
 _ZThn16_N18QXmlDefaultHandler10startCDATAEv@Base 4:4.5.3
 _ZThn16_N18QXmlDefaultHandler11startEntityERK7QString@Base 4:4.5.3
 _ZThn16_N18QXmlDefaultHandler6endDTDEv@Base 4:4.5.3
 _ZThn16_N18QXmlDefaultHandler7commentERK7QString@Base 4:4.5.3
 _ZThn16_N18QXmlDefaultHandler8endCDATAEv@Base 4:4.5.3
 _ZThn16_N18QXmlDefaultHandler8startDTDERK7QStringS2_S2_@Base 4:4.5.3
 _ZThn16_N18QXmlDefaultHandler9endEntityERK7QString@Base 4:4.5.3
 _ZThn16_NK18QXmlDefaultHandler11errorStringEv@Base 4:4.5.3
 _ZThn20_N18QXmlDefaultHandler13attributeDeclERK7QStringS2_S2_S2_S2_@Base 4:4.5.3
 _ZThn20_N18QXmlDefaultHandler18externalEntityDeclERK7QStringS2_S2_@Base 4:4.5.3
 _ZThn20_N18QXmlDefaultHandler18internalEntityDeclERK7QStringS2_@Base 4:4.5.3
 _ZThn20_NK18QXmlDefaultHandler11errorStringEv@Base 4:4.5.3
 _ZThn4_N18QXmlDefaultHandler10fatalErrorERK18QXmlParseException@Base 4:4.5.3
 _ZThn4_N18QXmlDefaultHandler5errorERK18QXmlParseException@Base 4:4.5.3
 _ZThn4_N18QXmlDefaultHandler7warningERK18QXmlParseException@Base 4:4.5.3
 _ZThn4_NK18QXmlDefaultHandler11errorStringEv@Base 4:4.5.3
 _ZThn8_N18QXmlDefaultHandler12notationDeclERK7QStringS2_S2_@Base 4:4.5.3
 _ZThn8_N18QXmlDefaultHandler18unparsedEntityDeclERK7QStringS2_S2_S2_@Base 4:4.5.3
 _ZThn8_NK18QXmlDefaultHandler11errorStringEv@Base 4:4.5.3
 _ZlsR11QTextStreamRK8QDomNode@Base 4:4.5.3
