libQtDBus.so.4 libqt4-dbus #MINVER#
* Build-Depends-Package: libqt4-dev
 _Z14qDBusReplyFillRK12QDBusMessageR10QDBusErrorR8QVariant@Base 4:4.5.3
 _Z15qDBusAddSpyHookPFvRK12QDBusMessageE@Base 4:4.5.3
 _Z22qDBusBindToApplicationv@Base 4:4.5.3
 _Z26qDBusGenerateMetaObjectXml7QStringPK11QMetaObjectS2_i@Base 4:4.5.3
 _ZN10QDBusError11errorStringENS_9ErrorTypeE@Base 4:4.5.3
 _ZN10QDBusErrorC1ENS_9ErrorTypeERK7QString@Base 4:4.5.3
 _ZN10QDBusErrorC1EPK9DBusError@Base 4:4.5.3
 _ZN10QDBusErrorC1ERK12QDBusMessage@Base 4:4.5.3
 _ZN10QDBusErrorC1ERKS_@Base 4:4.5.3
 _ZN10QDBusErrorC2ENS_9ErrorTypeERK7QString@Base 4:4.5.3
 _ZN10QDBusErrorC2EPK9DBusError@Base 4:4.5.3
 _ZN10QDBusErrorC2ERK12QDBusMessage@Base 4:4.5.3
 _ZN10QDBusErrorC2ERKS_@Base 4:4.5.3
 _ZN10QDBusErrorD1Ev@Base 4:4.7.4
 _ZN10QDBusErrorD2Ev@Base 4:4.7.4
 _ZN10QDBusErroraSERKS_@Base 4:4.5.3
 _ZN11QDBusServer11qt_metacallEN11QMetaObject4CallEiPPv@Base 4:4.5.3
 _ZN11QDBusServer11qt_metacastEPKc@Base 4:4.5.3
 _ZN11QDBusServer13newConnectionERK15QDBusConnection@Base 4:4.5.3
 _ZN11QDBusServer16staticMetaObjectE@Base 4:4.5.3
 _ZN11QDBusServerC1ERK7QStringP7QObject@Base 4:4.5.3
 _ZN11QDBusServerC2ERK7QStringP7QObject@Base 4:4.5.3
 _ZN11QDBusServerD0Ev@Base 4:4.7.4
 _ZN11QDBusServerD1Ev@Base 4:4.7.4
 _ZN11QDBusServerD2Ev@Base 4:4.7.4
 _ZN12QDBusContextC1Ev@Base 4:4.5.3
 _ZN12QDBusContextC2Ev@Base 4:4.5.3
 _ZN12QDBusContextD1Ev@Base 4:4.5.3
 _ZN12QDBusContextD2Ev@Base 4:4.5.3
 _ZN12QDBusMessage11createErrorERK7QStringS2_@Base 4:4.5.3
 _ZN12QDBusMessage12createSignalERK7QStringS2_S2_@Base 4:4.5.3
 _ZN12QDBusMessage12setArgumentsERK5QListI8QVariantE@Base 4:4.5.3
 _ZN12QDBusMessage16createMethodCallERK7QStringS2_S2_S2_@Base 4:4.5.3
 _ZN12QDBusMessage19setAutoStartServiceEb@Base 4:4.7.0~beta1
 _ZN12QDBusMessageC1ERKS_@Base 4:4.5.3
 _ZN12QDBusMessageC1Ev@Base 4:4.5.3
 _ZN12QDBusMessageC2ERKS_@Base 4:4.5.3
 _ZN12QDBusMessageC2Ev@Base 4:4.5.3
 _ZN12QDBusMessageD1Ev@Base 4:4.5.3
 _ZN12QDBusMessageD2Ev@Base 4:4.5.3
 _ZN12QDBusMessageaSERKS_@Base 4:4.5.3
 _ZN12QDBusMessagelsERK8QVariant@Base 4:4.5.3
 _ZN13QDBusArgument10beginArrayEi@Base 4:4.5.3
 _ZN13QDBusArgument11endMapEntryEv@Base 4:4.5.3
 _ZN13QDBusArgument12endStructureEv@Base 4:4.5.3
 _ZN13QDBusArgument13appendVariantERK8QVariant@Base 4:4.5.3
 _ZN13QDBusArgument13beginMapEntryEv@Base 4:4.5.3
 _ZN13QDBusArgument14beginStructureEv@Base 4:4.5.3
 _ZN13QDBusArgument6endMapEv@Base 4:4.5.3
 _ZN13QDBusArgument8beginMapEii@Base 4:4.5.3
 _ZN13QDBusArgument8endArrayEv@Base 4:4.5.3
 _ZN13QDBusArgumentC1EP20QDBusArgumentPrivate@Base 4:4.5.3
 _ZN13QDBusArgumentC1ERKS_@Base 4:4.5.3
 _ZN13QDBusArgumentC1Ev@Base 4:4.5.3
 _ZN13QDBusArgumentC2EP20QDBusArgumentPrivate@Base 4:4.5.3
 _ZN13QDBusArgumentC2ERKS_@Base 4:4.5.3
 _ZN13QDBusArgumentC2Ev@Base 4:4.5.3
 _ZN13QDBusArgumentD1Ev@Base 4:4.5.3
 _ZN13QDBusArgumentD2Ev@Base 4:4.5.3
 _ZN13QDBusArgumentaSERKS_@Base 4:4.5.3
 _ZN13QDBusArgumentlsERK10QByteArray@Base 4:4.5.3
 _ZN13QDBusArgumentlsERK11QStringList@Base 4:4.5.3
 _ZN13QDBusArgumentlsERK12QDBusVariant@Base 4:4.5.3
 _ZN13QDBusArgumentlsERK14QDBusSignature@Base 4:4.5.3
 _ZN13QDBusArgumentlsERK15QDBusObjectPath@Base 4:4.5.3
 _ZN13QDBusArgumentlsERK23QDBusUnixFileDescriptor@Base 4:4.8.0
 _ZN13QDBusArgumentlsERK7QString@Base 4:4.5.3
 _ZN13QDBusArgumentlsEb@Base 4:4.5.3
 _ZN13QDBusArgumentlsEd@Base 4:4.5.3
 _ZN13QDBusArgumentlsEh@Base 4:4.5.3
 _ZN13QDBusArgumentlsEi@Base 4:4.5.3
 _ZN13QDBusArgumentlsEj@Base 4:4.5.3
 _ZN13QDBusArgumentlsEs@Base 4:4.5.3
 _ZN13QDBusArgumentlsEt@Base 4:4.5.3
 _ZN13QDBusArgumentlsEx@Base 4:4.5.3
 _ZN13QDBusArgumentlsEy@Base 4:4.5.3
 _ZN13QDBusMetaType10demarshallERK13QDBusArgumentiPv@Base 4:4.5.3
 _ZN13QDBusMetaType15signatureToTypeEPKc@Base 4:4.5.3
 _ZN13QDBusMetaType15typeToSignatureEi@Base 4:4.5.3
 _ZN13QDBusMetaType25registerMarshallOperatorsEiPFvR13QDBusArgumentPKvEPFvRKS0_PvE@Base 4:4.5.3
 _ZN13QDBusMetaType8marshallER13QDBusArgumentiPKv@Base 4:4.5.3
 _ZN14QDBusInterface11qt_metacallEN11QMetaObject4CallEiPPv@Base 4:4.5.3
 _ZN14QDBusInterface11qt_metacastEPKc@Base 4:4.5.3
 _ZN14QDBusInterfaceC1ERK7QStringS2_S2_RK15QDBusConnectionP7QObject@Base 4:4.5.3
 _ZN14QDBusInterfaceC2ERK7QStringS2_S2_RK15QDBusConnectionP7QObject@Base 4:4.5.3
 _ZN14QDBusInterfaceD0Ev@Base 4:4.5.3
 _ZN14QDBusInterfaceD1Ev@Base 4:4.5.3
 _ZN14QDBusInterfaceD2Ev@Base 4:4.5.3
 _ZN14QDBusSignature5checkEv@Base 4:4.5.3
 _ZN14QDBusSignatureD1Ev@Base 4:4.8.1
 _ZN14QDBusSignatureD2Ev@Base 4:4.8.1
 _ZN15QDBusConnection10disconnectERK7QStringS2_S2_S2_P7QObjectPKc@Base 4:4.5.3
 _ZN15QDBusConnection10disconnectERK7QStringS2_S2_S2_RK11QStringListS2_P7QObjectPKc@Base 4:4.6.1
 _ZN15QDBusConnection10disconnectERK7QStringS2_S2_S2_S2_P7QObjectPKc@Base 4:4.5.3
 _ZN15QDBusConnection10sessionBusEv@Base 4:4.5.3
 _ZN15QDBusConnection12connectToBusENS_7BusTypeERK7QString@Base 4:4.5.3
 _ZN15QDBusConnection12connectToBusERK7QStringS2_@Base 4:4.5.3
 _ZN15QDBusConnection13connectToPeerERK7QStringS2_@Base 4:4.8.0
 _ZN15QDBusConnection14localMachineIdEv@Base 4:4.8.0
 _ZN15QDBusConnection14registerObjectERK7QStringP7QObject6QFlagsINS_14RegisterOptionEE@Base 4:4.5.3
 _ZN15QDBusConnection15registerServiceERK7QString@Base 4:4.5.3
 _ZN15QDBusConnection16staticMetaObjectE@Base 4:4.5.3
 _ZN15QDBusConnection16unregisterObjectERK7QStringNS_14UnregisterModeE@Base 4:4.5.3
 _ZN15QDBusConnection17disconnectFromBusERK7QString@Base 4:4.5.3
 _ZN15QDBusConnection17unregisterServiceERK7QString@Base 4:4.5.3
 _ZN15QDBusConnection18disconnectFromPeerERK7QString@Base 4:4.8.0
 _ZN15QDBusConnection21registerVirtualObjectERK7QStringP18QDBusVirtualObjectNS_27VirtualObjectRegisterOptionE@Base 4:4.8.0
 _ZN15QDBusConnection6senderEv@Base 4:4.5.3
 _ZN15QDBusConnection7connectERK7QStringS2_S2_S2_P7QObjectPKc@Base 4:4.5.3
 _ZN15QDBusConnection7connectERK7QStringS2_S2_S2_RK11QStringListS2_P7QObjectPKc@Base 4:4.6.1
 _ZN15QDBusConnection7connectERK7QStringS2_S2_S2_S2_P7QObjectPKc@Base 4:4.5.3
 _ZN15QDBusConnection9systemBusEv@Base 4:4.5.3
 _ZN15QDBusConnectionC1EP22QDBusConnectionPrivate@Base 4:4.5.3
 _ZN15QDBusConnectionC1ERK7QString@Base 4:4.5.3
 _ZN15QDBusConnectionC1ERKS_@Base 4:4.5.3
 _ZN15QDBusConnectionC2EP22QDBusConnectionPrivate@Base 4:4.5.3
 _ZN15QDBusConnectionC2ERK7QString@Base 4:4.5.3
 _ZN15QDBusConnectionC2ERKS_@Base 4:4.5.3
 _ZN15QDBusConnectionD1Ev@Base 4:4.5.3
 _ZN15QDBusConnectionD2Ev@Base 4:4.5.3
 _ZN15QDBusConnectionaSERKS_@Base 4:4.5.3
 _ZN15QDBusMetaObject16createMetaObjectERK7QStringS2_R5QHashIS0_PS_ER10QDBusError@Base 4:4.5.3
 _ZN15QDBusMetaObjectC1Ev@Base 4:4.5.3
 _ZN15QDBusMetaObjectC2Ev@Base 4:4.5.3
 _ZN15QDBusObjectPath5checkEv@Base 4:4.5.3
 _ZN15QDBusObjectPathD1Ev@Base 4:4.8.1
 _ZN15QDBusObjectPathD2Ev@Base 4:4.8.1
 _ZN16QDBusPendingCall15waitForFinishedEv@Base 4:4.5.3
 _ZN16QDBusPendingCall17fromCompletedCallERK12QDBusMessage@Base 4:4.6.1
 _ZN16QDBusPendingCall9fromErrorERK10QDBusError@Base 4:4.6.1
 _ZN16QDBusPendingCallC1EP23QDBusPendingCallPrivate@Base 4:4.5.3
 _ZN16QDBusPendingCallC1ERKS_@Base 4:4.5.3
 _ZN16QDBusPendingCallC2EP23QDBusPendingCallPrivate@Base 4:4.5.3
 _ZN16QDBusPendingCallC2ERKS_@Base 4:4.5.3
 _ZN16QDBusPendingCallD1Ev@Base 4:4.5.3
 _ZN16QDBusPendingCallD2Ev@Base 4:4.5.3
 _ZN16QDBusPendingCallaSERKS_@Base 4:4.5.3
 _ZN18QDBusIntrospection10ObjectTreeD1Ev@Base 4:4.7.4
 _ZN18QDBusIntrospection10ObjectTreeD2Ev@Base 4:4.7.4
 _ZN18QDBusIntrospection11parseObjectERK7QStringS2_S2_@Base 4:4.5.3
 _ZN18QDBusIntrospection14parseInterfaceERK7QString@Base 4:4.5.3
 _ZN18QDBusIntrospection15parseInterfacesERK7QString@Base 4:4.5.3
 _ZN18QDBusIntrospection15parseObjectTreeERK7QStringS2_S2_@Base 4:4.5.3
 _ZN18QDBusIntrospection6ObjectD1Ev@Base 4:4.7.4
 _ZN18QDBusIntrospection6ObjectD2Ev@Base 4:4.7.4
 _ZN18QDBusIntrospection8ArgumentD1Ev@Base 4:4.7.4
 _ZN18QDBusIntrospection8ArgumentD2Ev@Base 4:4.7.4
 _ZN18QDBusIntrospection9InterfaceD1Ev@Base 4:4.7.4
 _ZN18QDBusIntrospection9InterfaceD2Ev@Base 4:4.7.4
 _ZN18QDBusVirtualObject11qt_metacallEN11QMetaObject4CallEiPPv@Base 4:4.8.0
 _ZN18QDBusVirtualObject11qt_metacastEPKc@Base 4:4.8.0
 _ZN18QDBusVirtualObject16staticMetaObjectE@Base 4:4.8.0
 _ZN18QDBusVirtualObjectC1EP7QObject@Base 4:4.8.0
 _ZN18QDBusVirtualObjectC2EP7QObject@Base 4:4.8.0
 _ZN18QDBusVirtualObjectD0Ev@Base 4:4.8.0
 _ZN18QDBusVirtualObjectD1Ev@Base 4:4.8.0
 _ZN18QDBusVirtualObjectD2Ev@Base 4:4.8.0
 _ZN19QDBusServiceWatcher11qt_metacallEN11QMetaObject4CallEiPPv@Base 4:4.6.1
 _ZN19QDBusServiceWatcher11qt_metacastEPKc@Base 4:4.6.1
 _ZN19QDBusServiceWatcher12setWatchModeE6QFlagsINS_13WatchModeFlagEE@Base 4:4.6.1
 _ZN19QDBusServiceWatcher13setConnectionERK15QDBusConnection@Base 4:4.6.1
 _ZN19QDBusServiceWatcher16staticMetaObjectE@Base 4:4.6.1
 _ZN19QDBusServiceWatcher17addWatchedServiceERK7QString@Base 4:4.6.1
 _ZN19QDBusServiceWatcher17serviceRegisteredERK7QString@Base 4:4.6.1
 _ZN19QDBusServiceWatcher18setWatchedServicesERK11QStringList@Base 4:4.6.1
 _ZN19QDBusServiceWatcher19serviceOwnerChangedERK7QStringS2_S2_@Base 4:4.6.1
 _ZN19QDBusServiceWatcher19serviceUnregisteredERK7QString@Base 4:4.6.1
 _ZN19QDBusServiceWatcher20removeWatchedServiceERK7QString@Base 4:4.6.1
 _ZN19QDBusServiceWatcherC1EP7QObject@Base 4:4.6.1
 _ZN19QDBusServiceWatcherC1ERK7QStringRK15QDBusConnection6QFlagsINS_13WatchModeFlagEEP7QObject@Base 4:4.6.1
 _ZN19QDBusServiceWatcherC2EP7QObject@Base 4:4.6.1
 _ZN19QDBusServiceWatcherC2ERK7QStringRK15QDBusConnection6QFlagsINS_13WatchModeFlagEEP7QObject@Base 4:4.6.1
 _ZN19QDBusServiceWatcherD0Ev@Base 4:4.6.1
 _ZN19QDBusServiceWatcherD1Ev@Base 4:4.6.1
 _ZN19QDBusServiceWatcherD2Ev@Base 4:4.6.1
 _ZN20QDBusAbstractAdaptor11qt_metacallEN11QMetaObject4CallEiPPv@Base 4:4.5.3
 _ZN20QDBusAbstractAdaptor11qt_metacastEPKc@Base 4:4.5.3
 _ZN20QDBusAbstractAdaptor16staticMetaObjectE@Base 4:4.5.3
 _ZN20QDBusAbstractAdaptor19setAutoRelaySignalsEb@Base 4:4.5.3
 _ZN20QDBusAbstractAdaptorC1EP7QObject@Base 4:4.5.3
 _ZN20QDBusAbstractAdaptorC2EP7QObject@Base 4:4.5.3
 _ZN20QDBusAbstractAdaptorD0Ev@Base 4:4.5.3
 _ZN20QDBusAbstractAdaptorD1Ev@Base 4:4.5.3
 _ZN20QDBusAbstractAdaptorD2Ev@Base 4:4.5.3
 _ZN21QDBusPendingReplyData12setMetaTypesEiPKi@Base 4:4.5.3
 _ZN21QDBusPendingReplyData6assignERK12QDBusMessage@Base 4:4.5.3
 _ZN21QDBusPendingReplyData6assignERK16QDBusPendingCall@Base 4:4.5.3
 _ZN21QDBusPendingReplyDataC1Ev@Base 4:4.5.3
 _ZN21QDBusPendingReplyDataC2Ev@Base 4:4.5.3
 _ZN21QDBusPendingReplyDataD1Ev@Base 4:4.5.3
 _ZN21QDBusPendingReplyDataD2Ev@Base 4:4.5.3
 _ZN22QDBusAbstractInterface10setTimeoutEi@Base 4:4.8.0
 _ZN22QDBusAbstractInterface11qt_metacallEN11QMetaObject4CallEiPPv@Base 4:4.5.3
 _ZN22QDBusAbstractInterface11qt_metacastEPKc@Base 4:4.5.3
 _ZN22QDBusAbstractInterface13connectNotifyEPKc@Base 4:4.5.3
 _ZN22QDBusAbstractInterface15internalPropSetEPKcRK8QVariant@Base 4:4.5.3
 _ZN22QDBusAbstractInterface16callWithCallbackERK7QStringRK5QListI8QVariantEP7QObjectPKc@Base 4:4.5.3
 _ZN22QDBusAbstractInterface16callWithCallbackERK7QStringRK5QListI8QVariantEP7QObjectPKcSB_@Base 4:4.5.3
 _ZN22QDBusAbstractInterface16disconnectNotifyEPKc@Base 4:4.5.3
 _ZN22QDBusAbstractInterface16staticMetaObjectE@Base 4:4.5.3
 _ZN22QDBusAbstractInterface20callWithArgumentListEN5QDBus8CallModeERK7QStringRK5QListI8QVariantE@Base 4:4.5.3
 _ZN22QDBusAbstractInterface25asyncCallWithArgumentListERK7QStringRK5QListI8QVariantE@Base 4:4.5.3
 _ZN22QDBusAbstractInterface4callEN5QDBus8CallModeERK7QStringRK8QVariantS7_S7_S7_S7_S7_S7_S7_@Base 4:4.5.3
 _ZN22QDBusAbstractInterface4callERK7QStringRK8QVariantS5_S5_S5_S5_S5_S5_S5_@Base 4:4.5.3
 _ZN22QDBusAbstractInterface9asyncCallERK7QStringRK8QVariantS5_S5_S5_S5_S5_S5_S5_@Base 4:4.5.3
 _ZN22QDBusAbstractInterfaceC1ER29QDBusAbstractInterfacePrivateP7QObject@Base 4:4.5.3
 _ZN22QDBusAbstractInterfaceC1ERK7QStringS2_PKcRK15QDBusConnectionP7QObject@Base 4:4.5.3
 _ZN22QDBusAbstractInterfaceC2ER29QDBusAbstractInterfacePrivateP7QObject@Base 4:4.5.3
 _ZN22QDBusAbstractInterfaceC2ERK7QStringS2_PKcRK15QDBusConnectionP7QObject@Base 4:4.5.3
 _ZN22QDBusAbstractInterfaceD0Ev@Base 4:4.5.3
 _ZN22QDBusAbstractInterfaceD1Ev@Base 4:4.5.3
 _ZN22QDBusAbstractInterfaceD2Ev@Base 4:4.5.3
 _ZN23QDBusPendingCallWatcher11qt_metacallEN11QMetaObject4CallEiPPv@Base 4:4.5.3
 _ZN23QDBusPendingCallWatcher11qt_metacastEPKc@Base 4:4.5.3
 _ZN23QDBusPendingCallWatcher15waitForFinishedEv@Base 4:4.5.3
 _ZN23QDBusPendingCallWatcher16staticMetaObjectE@Base 4:4.5.3
 _ZN23QDBusPendingCallWatcher8finishedEPS_@Base 4:4.5.3
 _ZN23QDBusPendingCallWatcherC1ERK16QDBusPendingCallP7QObject@Base 4:4.5.3
 _ZN23QDBusPendingCallWatcherC2ERK16QDBusPendingCallP7QObject@Base 4:4.5.3
 _ZN23QDBusPendingCallWatcherD0Ev@Base 4:4.5.3
 _ZN23QDBusPendingCallWatcherD1Ev@Base 4:4.5.3
 _ZN23QDBusPendingCallWatcherD2Ev@Base 4:4.5.3
 _ZN23QDBusUnixFileDescriptor11isSupportedEv@Base 4:4.8.0
 _ZN23QDBusUnixFileDescriptor17setFileDescriptorEi@Base 4:4.8.0
 _ZN23QDBusUnixFileDescriptor18giveFileDescriptorEi@Base 4:4.8.0
 _ZN23QDBusUnixFileDescriptor18takeFileDescriptorEv@Base 4:4.8.0
 _ZN23QDBusUnixFileDescriptorC1ERKS_@Base 4:4.8.0
 _ZN23QDBusUnixFileDescriptorC1Ei@Base 4:4.8.0
 _ZN23QDBusUnixFileDescriptorC1Ev@Base 4:4.8.0
 _ZN23QDBusUnixFileDescriptorC2ERKS_@Base 4:4.8.0
 _ZN23QDBusUnixFileDescriptorC2Ei@Base 4:4.8.0
 _ZN23QDBusUnixFileDescriptorC2Ev@Base 4:4.8.0
 _ZN23QDBusUnixFileDescriptorD1Ev@Base 4:4.8.0
 _ZN23QDBusUnixFileDescriptorD2Ev@Base 4:4.8.0
 _ZN23QDBusUnixFileDescriptoraSERKS_@Base 4:4.8.0
 _ZN24QDBusConnectionInterface11qt_metacallEN11QMetaObject4CallEiPPv@Base 4:4.5.3
 _ZN24QDBusConnectionInterface11qt_metacastEPKc@Base 4:4.5.3
 _ZN24QDBusConnectionInterface12NameAcquiredERK7QString@Base 4:4.5.3
 _ZN24QDBusConnectionInterface12startServiceERK7QString@Base 4:4.5.3
 _ZN24QDBusConnectionInterface13connectNotifyEPKc@Base 4:4.5.3
 _ZN24QDBusConnectionInterface15registerServiceERK7QStringNS_19ServiceQueueOptionsENS_25ServiceReplacementOptionsE@Base 4:4.5.3
 _ZN24QDBusConnectionInterface16NameOwnerChangedERK7QStringS2_S2_@Base 4:4.5.3
 _ZN24QDBusConnectionInterface16disconnectNotifyEPKc@Base 4:4.5.3
 _ZN24QDBusConnectionInterface16staticMetaObjectE@Base 4:4.5.3
 _ZN24QDBusConnectionInterface17serviceRegisteredERK7QString@Base 4:4.5.3
 _ZN24QDBusConnectionInterface17unregisterServiceERK7QString@Base 4:4.5.3
 _ZN24QDBusConnectionInterface19serviceOwnerChangedERK7QStringS2_S2_@Base 4:4.5.3
 _ZN24QDBusConnectionInterface19serviceUnregisteredERK7QString@Base 4:4.5.3
 _ZN24QDBusConnectionInterface22callWithCallbackFailedERK10QDBusErrorRK12QDBusMessage@Base 4:4.5.3
 _ZN24QDBusConnectionInterface8NameLostERK7QString@Base 4:4.5.3
 _ZN24QDBusConnectionInterfaceC1ERK15QDBusConnectionP7QObject@Base 4:4.5.3
 _ZN24QDBusConnectionInterfaceC2ERK15QDBusConnectionP7QObject@Base 4:4.5.3
 _ZN24QDBusConnectionInterfaceD0Ev@Base 4:4.5.3
 _ZN24QDBusConnectionInterfaceD1Ev@Base 4:4.5.3
 _ZN24QDBusConnectionInterfaceD2Ev@Base 4:4.5.3
 _ZN26QDBusAbstractInterfaceBase11qt_metacallEN11QMetaObject4CallEiPPv@Base 4:4.6.1
 _ZN26QDBusAbstractInterfaceBaseC1ER29QDBusAbstractInterfacePrivateP7QObject@Base 4:4.6.1
 _ZN26QDBusAbstractInterfaceBaseC2ER29QDBusAbstractInterfacePrivateP7QObject@Base 4:4.6.1
 _ZN26QDBusAbstractInterfaceBaseD0Ev@Base 4:4.7.4
 _ZN26QDBusAbstractInterfaceBaseD1Ev@Base 4:4.7.4
 _ZN26QDBusAbstractInterfaceBaseD2Ev@Base 4:4.7.4
 _ZN9QDBusUtil14isValidBusNameERK7QString@Base 4:4.5.3
 _ZN9QDBusUtil16argumentToStringERK8QVariant@Base 4:4.5.3
 _ZN9QDBusUtil16isValidBasicTypeEi@Base 4:4.8.0
 _ZN9QDBusUtil16isValidErrorNameERK7QString@Base 4:4.5.3
 _ZN9QDBusUtil16isValidFixedTypeEi@Base 4:4.8.0
 _ZN9QDBusUtil16isValidSignatureERK7QString@Base 4:4.5.3
 _ZN9QDBusUtil17isValidMemberNameERK7QString@Base 4:4.5.3
 _ZN9QDBusUtil17isValidObjectPathERK7QString@Base 4:4.5.3
 _ZN9QDBusUtil20isValidInterfaceNameERK7QString@Base 4:4.5.3
 _ZN9QDBusUtil22isValidSingleSignatureERK7QString@Base 4:4.5.3
 _ZN9QDBusUtil23isValidPartOfObjectPathERK7QString@Base 4:4.5.3
 _ZN9QDBusUtil27isValidUniqueConnectionNameERK7QString@Base 4:4.5.3
 _ZNK10QDBusError4nameEv@Base 4:4.5.3
 _ZNK10QDBusError4typeEv@Base 4:4.5.3
 _ZNK10QDBusError7isValidEv@Base 4:4.5.3
 _ZNK10QDBusError7messageEv@Base 4:4.5.3
 _ZNK11QDBusServer10metaObjectEv@Base 4:4.5.3
 _ZNK11QDBusServer11isConnectedEv@Base 4:4.5.3
 _ZNK11QDBusServer7addressEv@Base 4:4.5.3
 _ZNK11QDBusServer9lastErrorEv@Base 4:4.5.3
 _ZNK12QDBusContext10connectionEv@Base 4:4.5.3
 _ZNK12QDBusContext14calledFromDBusEv@Base 4:4.5.3
 _ZNK12QDBusContext14isDelayedReplyEv@Base 4:4.5.3
 _ZNK12QDBusContext14sendErrorReplyEN10QDBusError9ErrorTypeERK7QString@Base 4:4.5.3
 _ZNK12QDBusContext14sendErrorReplyERK7QStringS2_@Base 4:4.5.3
 _ZNK12QDBusContext15setDelayedReplyEb@Base 4:4.5.3
 _ZNK12QDBusContext7messageEv@Base 4:4.5.3
 _ZNK12QDBusMessage11createReplyERK5QListI8QVariantE@Base 4:4.5.3
 _ZNK12QDBusMessage12errorMessageEv@Base 4:4.5.3
 _ZNK12QDBusMessage14isDelayedReplyEv@Base 4:4.5.3
 _ZNK12QDBusMessage15isReplyRequiredEv@Base 4:4.5.3
 _ZNK12QDBusMessage15setDelayedReplyEb@Base 4:4.5.3
 _ZNK12QDBusMessage16autoStartServiceEv@Base 4:4.7.0~beta1
 _ZNK12QDBusMessage16createErrorReplyE7QStringRKS0_@Base 4:4.5.3
 _ZNK12QDBusMessage16createErrorReplyEN10QDBusError9ErrorTypeERK7QString@Base 4:4.6.1
 _ZNK12QDBusMessage4pathEv@Base 4:4.5.3
 _ZNK12QDBusMessage4typeEv@Base 4:4.5.3
 _ZNK12QDBusMessage6memberEv@Base 4:4.5.3
 _ZNK12QDBusMessage7serviceEv@Base 4:4.5.3
 _ZNK12QDBusMessage9argumentsEv@Base 4:4.5.3
 _ZNK12QDBusMessage9errorNameEv@Base 4:4.5.3
 _ZNK12QDBusMessage9interfaceEv@Base 4:4.5.3
 _ZNK12QDBusMessage9signatureEv@Base 4:4.5.3
 _ZNK13QDBusArgument10beginArrayEv@Base 4:4.5.3
 _ZNK13QDBusArgument11currentTypeEv@Base 4:4.5.3
 _ZNK13QDBusArgument11endMapEntryEv@Base 4:4.5.3
 _ZNK13QDBusArgument12endStructureEv@Base 4:4.5.3
 _ZNK13QDBusArgument13beginMapEntryEv@Base 4:4.5.3
 _ZNK13QDBusArgument14beginStructureEv@Base 4:4.5.3
 _ZNK13QDBusArgument16currentSignatureEv@Base 4:4.5.3
 _ZNK13QDBusArgument5atEndEv@Base 4:4.5.3
 _ZNK13QDBusArgument6endMapEv@Base 4:4.5.3
 _ZNK13QDBusArgument8beginMapEv@Base 4:4.5.3
 _ZNK13QDBusArgument8endArrayEv@Base 4:4.5.3
 _ZNK13QDBusArgument9asVariantEv@Base 4:4.5.3
 _ZNK13QDBusArgumentrsER10QByteArray@Base 4:4.5.3
 _ZNK13QDBusArgumentrsER11QStringList@Base 4:4.5.3
 _ZNK13QDBusArgumentrsER12QDBusVariant@Base 4:4.5.3
 _ZNK13QDBusArgumentrsER14QDBusSignature@Base 4:4.5.3
 _ZNK13QDBusArgumentrsER15QDBusObjectPath@Base 4:4.5.3
 _ZNK13QDBusArgumentrsER23QDBusUnixFileDescriptor@Base 4:4.8.0
 _ZNK13QDBusArgumentrsER7QString@Base 4:4.5.3
 _ZNK13QDBusArgumentrsERb@Base 4:4.5.3
 _ZNK13QDBusArgumentrsERd@Base 4:4.5.3
 _ZNK13QDBusArgumentrsERh@Base 4:4.5.3
 _ZNK13QDBusArgumentrsERi@Base 4:4.5.3
 _ZNK13QDBusArgumentrsERj@Base 4:4.5.3
 _ZNK13QDBusArgumentrsERs@Base 4:4.5.3
 _ZNK13QDBusArgumentrsERt@Base 4:4.5.3
 _ZNK13QDBusArgumentrsERx@Base 4:4.5.3
 _ZNK13QDBusArgumentrsERy@Base 4:4.5.3
 _ZNK14QDBusInterface10metaObjectEv@Base 4:4.5.3
 _ZNK15QDBusConnection11baseServiceEv@Base 4:4.5.3
 _ZNK15QDBusConnection11isConnectedEv@Base 4:4.5.3
 _ZNK15QDBusConnection15internalPointerEv@Base 4:4.8.0
 _ZNK15QDBusConnection16callWithCallbackERK12QDBusMessageP7QObjectPKcS6_i@Base 4:4.5.3
 _ZNK15QDBusConnection16callWithCallbackERK12QDBusMessageP7QObjectPKci@Base 4:4.5.3
 _ZNK15QDBusConnection18objectRegisteredAtERK7QString@Base 4:4.5.3
 _ZNK15QDBusConnection22connectionCapabilitiesEv@Base 4:4.8.0
 _ZNK15QDBusConnection4callERK12QDBusMessageN5QDBus8CallModeEi@Base 4:4.5.3
 _ZNK15QDBusConnection4nameEv@Base 4:4.5.3
 _ZNK15QDBusConnection4sendERK12QDBusMessage@Base 4:4.5.3
 _ZNK15QDBusConnection9asyncCallERK12QDBusMessagei@Base 4:4.5.3
 _ZNK15QDBusConnection9interfaceEv@Base 4:4.5.3
 _ZNK15QDBusConnection9lastErrorEv@Base 4:4.5.3
 _ZNK15QDBusMetaObject16propertyMetaTypeEi@Base 4:4.5.3
 _ZNK15QDBusMetaObject17dbusNameForMethodEi@Base 4:4.5.3
 _ZNK15QDBusMetaObject19inputTypesForMethodEi@Base 4:4.5.3
 _ZNK15QDBusMetaObject20outputTypesForMethodEi@Base 4:4.5.3
 _ZNK15QDBusMetaObject23inputSignatureForMethodEi@Base 4:4.5.3
 _ZNK15QDBusMetaObject24outputSignatureForMethodEi@Base 4:4.5.3
 _ZNK16QDBusPendingCall10isFinishedEv@Base 4:4.5.3
 _ZNK16QDBusPendingCall5errorEv@Base 4:4.5.3
 _ZNK16QDBusPendingCall5replyEv@Base 4:4.5.3
 _ZNK16QDBusPendingCall7isErrorEv@Base 4:4.5.3
 _ZNK16QDBusPendingCall7isValidEv@Base 4:4.5.3
 _ZNK18QDBusVirtualObject10metaObjectEv@Base 4:4.8.0
 _ZNK19QDBusServiceWatcher10connectionEv@Base 4:4.6.1
 _ZNK19QDBusServiceWatcher10metaObjectEv@Base 4:4.6.1
 _ZNK19QDBusServiceWatcher15watchedServicesEv@Base 4:4.6.1
 _ZNK19QDBusServiceWatcher9watchModeEv@Base 4:4.6.1
 _ZNK20QDBusAbstractAdaptor10metaObjectEv@Base 4:4.5.3
 _ZNK20QDBusAbstractAdaptor16autoRelaySignalsEv@Base 4:4.5.3
 _ZNK21QDBusPendingReplyData10argumentAtEi@Base 4:4.5.3
 _ZNK22QDBusAbstractInterface10connectionEv@Base 4:4.5.3
 _ZNK22QDBusAbstractInterface10metaObjectEv@Base 4:4.5.3
 _ZNK22QDBusAbstractInterface15internalPropGetEPKc@Base 4:4.5.3
 _ZNK22QDBusAbstractInterface17internalConstCallEN5QDBus8CallModeERK7QStringRK5QListI8QVariantE@Base 4:4.5.3
 _ZNK22QDBusAbstractInterface4pathEv@Base 4:4.5.3
 _ZNK22QDBusAbstractInterface7isValidEv@Base 4:4.5.3
 _ZNK22QDBusAbstractInterface7serviceEv@Base 4:4.5.3
 _ZNK22QDBusAbstractInterface7timeoutEv@Base 4:4.8.0
 _ZNK22QDBusAbstractInterface9interfaceEv@Base 4:4.5.3
 _ZNK22QDBusAbstractInterface9lastErrorEv@Base 4:4.5.3
 _ZNK23QDBusPendingCallWatcher10metaObjectEv@Base 4:4.5.3
 _ZNK23QDBusUnixFileDescriptor14fileDescriptorEv@Base 4:4.8.0
 _ZNK23QDBusUnixFileDescriptor7isValidEv@Base 4:4.8.0
 _ZNK24QDBusConnectionInterface10metaObjectEv@Base 4:4.5.3
 _ZNK24QDBusConnectionInterface10servicePidERK7QString@Base 4:4.5.3
 _ZNK24QDBusConnectionInterface10serviceUidERK7QString@Base 4:4.5.3
 _ZNK24QDBusConnectionInterface12serviceOwnerERK7QString@Base 4:4.5.3
 _ZNK24QDBusConnectionInterface19isServiceRegisteredERK7QString@Base 4:4.5.3
 _ZNK24QDBusConnectionInterface22registeredServiceNamesEv@Base 4:4.5.3
 _ZTI11QDBusServer@Base 4:4.5.3
 _ZTI14QDBusInterface@Base 4:4.5.3
 _ZTI16QDBusPendingCall@Base 4:4.5.3
 _ZTI18QDBusVirtualObject@Base 4:4.8.0
 _ZTI19QDBusServiceWatcher@Base 4:4.6.1
 _ZTI20QDBusAbstractAdaptor@Base 4:4.5.3
 _ZTI22QDBusAbstractInterface@Base 4:4.5.3
 _ZTI23QDBusPendingCallWatcher@Base 4:4.5.3
 _ZTI24QDBusConnectionInterface@Base 4:4.5.3
 _ZTI26QDBusAbstractInterfaceBase@Base 4:4.6.1
 _ZTS11QDBusServer@Base 4:4.5.3
 _ZTS14QDBusInterface@Base 4:4.5.3
 _ZTS16QDBusPendingCall@Base 4:4.5.3
 _ZTS18QDBusVirtualObject@Base 4:4.8.0
 _ZTS19QDBusServiceWatcher@Base 4:4.6.1
 _ZTS20QDBusAbstractAdaptor@Base 4:4.5.3
 _ZTS22QDBusAbstractInterface@Base 4:4.5.3
 _ZTS23QDBusPendingCallWatcher@Base 4:4.5.3
 _ZTS24QDBusConnectionInterface@Base 4:4.5.3
 _ZTS26QDBusAbstractInterfaceBase@Base 4:4.6.1
 _ZTV11QDBusServer@Base 4:4.5.3
 _ZTV14QDBusInterface@Base 4:4.5.3
 _ZTV18QDBusVirtualObject@Base 4:4.8.0
 _ZTV19QDBusServiceWatcher@Base 4:4.6.1
 _ZTV20QDBusAbstractAdaptor@Base 4:4.5.3
 _ZTV22QDBusAbstractInterface@Base 4:4.5.3
 _ZTV23QDBusPendingCallWatcher@Base 4:4.5.3
 _ZTV24QDBusConnectionInterface@Base 4:4.5.3
 _ZTV26QDBusAbstractInterfaceBase@Base 4:4.6.1
 _Zls6QDebugRK10QDBusError@Base 4:4.5.3
 _Zls6QDebugRK12QDBusMessage@Base 4:4.5.3
 _ZlsR13QDBusArgumentRK5QDate@Base 4:4.5.3
 _ZlsR13QDBusArgumentRK5QLine@Base 4:4.5.3
 _ZlsR13QDBusArgumentRK5QRect@Base 4:4.5.3
 _ZlsR13QDBusArgumentRK5QSize@Base 4:4.5.3
 _ZlsR13QDBusArgumentRK5QTime@Base 4:4.5.3
 _ZlsR13QDBusArgumentRK6QLineF@Base 4:4.5.3
 _ZlsR13QDBusArgumentRK6QPoint@Base 4:4.5.3
 _ZlsR13QDBusArgumentRK6QRectF@Base 4:4.5.3
 _ZlsR13QDBusArgumentRK6QSizeF@Base 4:4.5.3
 _ZlsR13QDBusArgumentRK7QPointF@Base 4:4.5.3
 _ZlsR13QDBusArgumentRK9QDateTime@Base 4:4.5.3
 _ZrsRK13QDBusArgumentR5QDate@Base 4:4.5.3
 _ZrsRK13QDBusArgumentR5QLine@Base 4:4.5.3
 _ZrsRK13QDBusArgumentR5QRect@Base 4:4.5.3
 _ZrsRK13QDBusArgumentR5QSize@Base 4:4.5.3
 _ZrsRK13QDBusArgumentR5QTime@Base 4:4.5.3
 _ZrsRK13QDBusArgumentR6QLineF@Base 4:4.5.3
 _ZrsRK13QDBusArgumentR6QPoint@Base 4:4.5.3
 _ZrsRK13QDBusArgumentR6QRectF@Base 4:4.5.3
 _ZrsRK13QDBusArgumentR6QSizeF@Base 4:4.5.3
 _ZrsRK13QDBusArgumentR7QPointF@Base 4:4.5.3
 _ZrsRK13QDBusArgumentR8QVariant@Base 4:4.5.3
 _ZrsRK13QDBusArgumentR9QDateTime@Base 4:4.5.3
 qt_dbus_metaobject_skip_annotations@Base 4:4.7.4
