libsigc-2.0.so.0 libsigc++-2.0-0c2a #MINVER#
 _ZN4sigc10connection10disconnectEv@Base 2.2.0
 _ZN4sigc10connection5blockEb@Base 2.2.0
 _ZN4sigc10connection6notifyEPv@Base 2.2.0
 _ZN4sigc10connection7unblockEv@Base 2.2.0
 _ZN4sigc10connection8set_slotEPNS_9slot_baseE@Base 2.2.0
 _ZN4sigc10connectionC1ERKS0_@Base 2.2.0
 _ZN4sigc10connectionC1ERNS_9slot_baseE@Base 2.2.0
 _ZN4sigc10connectionC1Ev@Base 2.2.0
 _ZN4sigc10connectionC2ERKS0_@Base 2.2.0
 _ZN4sigc10connectionC2ERNS_9slot_baseE@Base 2.2.0
 _ZN4sigc10connectionC2Ev@Base 2.2.0
 _ZN4sigc10connectionD1Ev@Base 2.2.0
 _ZN4sigc10connectionD2Ev@Base 2.2.0
 _ZN4sigc10connectionaSERKS0_@Base 2.2.0
 _ZN4sigc10connectioncvbEv@Base 2.2.0
 _ZN4sigc11signal_base5blockEb@Base 2.4.0
 _ZN4sigc11signal_base5clearEv@Base 2.2.0
 _ZN4sigc11signal_base5eraseESt14_List_iteratorINS_9slot_baseEE@Base 2.2.0
 _ZN4sigc11signal_base6insertESt14_List_iteratorINS_9slot_baseEERKS2_@Base 2.2.0
 _ZN4sigc11signal_base7connectERKNS_9slot_baseE@Base 2.2.0
 _ZN4sigc11signal_base7unblockEv@Base 2.4.0
 _ZN4sigc11signal_baseC1ERKS0_@Base 2.2.0
 _ZN4sigc11signal_baseC1Ev@Base 2.2.0
 _ZN4sigc11signal_baseC2ERKS0_@Base 2.2.0
 _ZN4sigc11signal_baseC2Ev@Base 2.2.0
 _ZN4sigc11signal_baseD1Ev@Base 2.2.0
 _ZN4sigc11signal_baseD2Ev@Base 2.2.0
 _ZN4sigc11signal_baseaSERKS0_@Base 2.2.0
 _ZN4sigc2_1E@Base 2.2.0
 _ZN4sigc2_2E@Base 2.2.0
 _ZN4sigc2_3E@Base 2.2.0
 _ZN4sigc2_4E@Base 2.2.0
 _ZN4sigc2_5E@Base 2.2.0
 _ZN4sigc2_6E@Base 2.2.0
 _ZN4sigc2_7E@Base 2.2.0
 _ZN4sigc8internal11signal_impl16unreference_execEv@Base 2.4.0
 _ZN4sigc8internal11signal_impl5blockEb@Base 2.4.0
 _ZN4sigc8internal11signal_impl5clearEv@Base 2.2.0
 _ZN4sigc8internal11signal_impl5eraseESt14_List_iteratorINS_9slot_baseEE@Base 2.2.0
 _ZN4sigc8internal11signal_impl5sweepEv@Base 2.2.0
 _ZN4sigc8internal11signal_impl6insertESt14_List_iteratorINS_9slot_baseEERKS3_@Base 2.2.0
 _ZN4sigc8internal11signal_impl6notifyEPv@Base 2.2.0
 _ZN4sigc8internal11signal_impl7connectERKNS_9slot_baseE@Base 2.2.0
 _ZN4sigc8internal11signal_implC1Ev@Base 2.2.0
 _ZN4sigc8internal11signal_implC2Ev@Base 2.2.0
 _ZN4sigc8internal23trackable_callback_list12add_callbackEPvPFS2_S2_E@Base 2.2.0
 _ZN4sigc8internal23trackable_callback_list15remove_callbackEPv@Base 2.2.0
 _ZN4sigc8internal23trackable_callback_list5clearEv@Base 2.2.0
 _ZN4sigc8internal23trackable_callback_listD1Ev@Base 2.2.0
 _ZN4sigc8internal23trackable_callback_listD2Ev@Base 2.2.0
 _ZN4sigc8internal8slot_rep10disconnectEv@Base 2.2.0
 _ZN4sigc8internal8slot_rep6notifyEPv@Base 2.2.0
 _ZN4sigc9slot_base10disconnectEv@Base 2.2.0
 _ZN4sigc9slot_base5blockEb@Base 2.2.0
 _ZN4sigc9slot_base7unblockEv@Base 2.2.0
 _ZN4sigc9slot_baseC1EPNS_8internal8slot_repE@Base 2.2.0
 _ZN4sigc9slot_baseC1ERKS0_@Base 2.2.0
 _ZN4sigc9slot_baseC1Ev@Base 2.2.0
 _ZN4sigc9slot_baseC2EPNS_8internal8slot_repE@Base 2.2.0
 _ZN4sigc9slot_baseC2ERKS0_@Base 2.2.0
 _ZN4sigc9slot_baseC2Ev@Base 2.2.0
 _ZN4sigc9slot_baseD1Ev@Base 2.2.0
 _ZN4sigc9slot_baseD2Ev@Base 2.2.0
 _ZN4sigc9slot_baseaSERKS0_@Base 2.2.0
 _ZN4sigc9trackable16notify_callbacksEv@Base 2.2.0
 _ZN4sigc9trackableC1ERKS0_@Base 2.2.0
 _ZN4sigc9trackableC1Ev@Base 2.2.0
 _ZN4sigc9trackableC2ERKS0_@Base 2.2.0
 _ZN4sigc9trackableC2Ev@Base 2.2.0
 _ZN4sigc9trackableD1Ev@Base 2.2.0
 _ZN4sigc9trackableD2Ev@Base 2.2.0
 _ZN4sigc9trackableaSERKS0_@Base 2.2.0
 _ZNK4sigc10connection5emptyEv@Base 2.2.0
 _ZNK4sigc10connection7blockedEv@Base 2.2.0
 _ZNK4sigc10connection9connectedEv@Base 2.2.0
 _ZNK4sigc11signal_base4implEv@Base 2.2.0
 _ZNK4sigc11signal_base4sizeEv@Base 2.2.0
 _ZNK4sigc11signal_base7blockedEv@Base 2.4.0
 _ZNK4sigc8internal11signal_impl4sizeEv@Base 2.2.0
 _ZNK4sigc8internal11signal_impl7blockedEv@Base 2.4.0
 _ZNK4sigc9slot_base10set_parentEPvPFS1_S1_E@Base 2.2.0
 _ZNK4sigc9slot_base27add_destroy_notify_callbackEPvPFS1_S1_E@Base 2.2.0
 _ZNK4sigc9slot_base30remove_destroy_notify_callbackEPv@Base 2.2.0
 _ZNK4sigc9slot_basecvbEv@Base 2.2.0
 _ZNK4sigc9trackable13callback_listEv@Base 2.2.0
 _ZNK4sigc9trackable27add_destroy_notify_callbackEPvPFS1_S1_E@Base 2.2.0
 _ZNK4sigc9trackable30remove_destroy_notify_callbackEPv@Base 2.2.0
 _ZNSt10_List_baseIN4sigc9slot_baseESaIS1_EE8_M_clearEv@Base 2.2.0
