libtag.so.1 libtag1c2a #MINVER#
| libtag1c2a (>= 1.4)
 _ZN6TagLib10ByteVector11fromCStringEPKcj@Base 1.4 1
 _ZN6TagLib10ByteVector12fromLongLongExb@Base 1.4 1
 _ZN6TagLib10ByteVector3endEv@Base 1.4 1
 _ZN6TagLib10ByteVector4dataEv@Base 1.4 1
 _ZN6TagLib10ByteVector4nullE@Base 1.4 1
 _ZN6TagLib10ByteVector4rendEv@Base 1.9.1
 _ZN6TagLib10ByteVector5beginEv@Base 1.4 1
 _ZN6TagLib10ByteVector5clearEv@Base 1.4 1
 _ZN6TagLib10ByteVector6appendERKS0_@Base 1.4 1
 _ZN6TagLib10ByteVector6detachEv@Base 1.4 1
 _ZN6TagLib10ByteVector6rbeginEv@Base 1.9.1
 _ZN6TagLib10ByteVector6resizeEjc@Base 1.4 1
 _ZN6TagLib10ByteVector7replaceERKS0_S2_@Base 1.5
 _ZN6TagLib10ByteVector7setDataEPKc@Base 1.4 1
 _ZN6TagLib10ByteVector7setDataEPKcj@Base 1.4 1
 _ZN6TagLib10ByteVector8fromUIntEjb@Base 1.4 1
 _ZN6TagLib10ByteVector9fromShortEsb@Base 1.4 1
 _ZN6TagLib10ByteVectorC1EPKc@Base 1.4 1
 _ZN6TagLib10ByteVectorC1EPKcj@Base 1.4 1
 _ZN6TagLib10ByteVectorC1ERKS0_@Base 1.4 1
 _ZN6TagLib10ByteVectorC1ERKS0_jj@Base 1.9.1
 _ZN6TagLib10ByteVectorC1Ec@Base 1.4 1
 _ZN6TagLib10ByteVectorC1Ejc@Base 1.4 1
 _ZN6TagLib10ByteVectorC1Ev@Base 1.4 1
 _ZN6TagLib10ByteVectorC2EPKc@Base 1.4 1
 _ZN6TagLib10ByteVectorC2EPKcj@Base 1.4 1
 _ZN6TagLib10ByteVectorC2ERKS0_@Base 1.4 1
 _ZN6TagLib10ByteVectorC2ERKS0_jj@Base 1.9.1
 _ZN6TagLib10ByteVectorC2Ec@Base 1.4 1
 _ZN6TagLib10ByteVectorC2Ejc@Base 1.4 1
 _ZN6TagLib10ByteVectorC2Ev@Base 1.4 1
 _ZN6TagLib10ByteVectorD0Ev@Base 1.4 1
 _ZN6TagLib10ByteVectorD1Ev@Base 1.4 1
 _ZN6TagLib10ByteVectorD2Ev@Base 1.4 1
 _ZN6TagLib10ByteVectoraSEPKc@Base 1.4 1
 _ZN6TagLib10ByteVectoraSERKS0_@Base 1.4 1
 _ZN6TagLib10ByteVectoraSEc@Base 1.4 1
 _ZN6TagLib10ByteVectorixEi@Base 1.4 1
 _ZN6TagLib10FileStream10bufferSizeEv@Base 1.8
 _ZN6TagLib10FileStream10writeBlockERKNS_10ByteVectorE@Base 1.8
 _ZN6TagLib10FileStream11removeBlockEmm@Base 1.8
 _ZN6TagLib10FileStream4seekElNS_8IOStream8PositionE@Base 1.8
 _ZN6TagLib10FileStream5clearEv@Base 1.8
 _ZN6TagLib10FileStream6insertERKNS_10ByteVectorEmm@Base 1.8
 _ZN6TagLib10FileStream6lengthEv@Base 1.8
 _ZN6TagLib10FileStream8truncateEl@Base 1.8
 _ZN6TagLib10FileStream9readBlockEm@Base 1.8
 _ZN6TagLib10FileStreamC1EPKcb@Base 1.8
 _ZN6TagLib10FileStreamC2EPKcb@Base 1.8
 _ZN6TagLib10FileStreamD0Ev@Base 1.8
 _ZN6TagLib10FileStreamD1Ev@Base 1.8
 _ZN6TagLib10FileStreamD2Ev@Base 1.8
 _ZN6TagLib10RefCounter3refEv@Base 1.9.1
 _ZN6TagLib10RefCounter5derefEv@Base 1.9.1
 _ZN6TagLib10RefCounterC1Ev@Base 1.9.1
 _ZN6TagLib10RefCounterC2Ev@Base 1.9.1
 _ZN6TagLib10RefCounterD0Ev@Base 1.9.1
 _ZN6TagLib10RefCounterD1Ev@Base 1.9.1
 _ZN6TagLib10RefCounterD2Ev@Base 1.9.1
 _ZN6TagLib10StringList5splitERKNS_6StringES3_@Base 1.4 1
 _ZN6TagLib10StringList6appendERKNS_6StringE@Base 1.4 1
 _ZN6TagLib10StringList6appendERKS0_@Base 1.4 1
 _ZN6TagLib10StringListC1ERKNS_14ByteVectorListENS_6String4TypeE@Base 1.4 1
 _ZN6TagLib10StringListC1ERKNS_6StringE@Base 1.4 1
 _ZN6TagLib10StringListC1ERKS0_@Base 1.4 1
 _ZN6TagLib10StringListC1Ev@Base 1.4 1
 _ZN6TagLib10StringListC2ERKNS_14ByteVectorListENS_6String4TypeE@Base 1.4 1
 _ZN6TagLib10StringListC2ERKNS_6StringE@Base 1.4 1
 _ZN6TagLib10StringListC2ERKS0_@Base 1.4 1
 _ZN6TagLib10StringListC2Ev@Base 1.4 1
 _ZN6TagLib10StringListD0Ev@Base 1.4 1
 _ZN6TagLib10StringListD1Ev@Base 1.4 1
 _ZN6TagLib10StringListD2Ev@Base 1.4 1
 _ZN6TagLib11PropertyMap11removeEmptyEv@Base 1.8
 _ZN6TagLib11PropertyMap15unsupportedDataEv@Base 1.8
 _ZN6TagLib11PropertyMap4findERKNS_6StringE@Base 1.8
 _ZN6TagLib11PropertyMap5eraseERKNS_6StringE@Base 1.8
 _ZN6TagLib11PropertyMap5eraseERKS0_@Base 1.8
 _ZN6TagLib11PropertyMap5mergeERKS0_@Base 1.8
 _ZN6TagLib11PropertyMap6insertERKNS_6StringERKNS_10StringListE@Base 1.8
 _ZN6TagLib11PropertyMap7replaceERKNS_6StringERKNS_10StringListE@Base 1.8
 _ZN6TagLib11PropertyMapC1ERKNS_3MapINS_6StringENS_10StringListEEE@Base 1.8
 _ZN6TagLib11PropertyMapC1ERKS0_@Base 1.8
 _ZN6TagLib11PropertyMapC1Ev@Base 1.8
 _ZN6TagLib11PropertyMapC2ERKNS_3MapINS_6StringENS_10StringListEEE@Base 1.8
 _ZN6TagLib11PropertyMapC2ERKS0_@Base 1.8
 _ZN6TagLib11PropertyMapC2Ev@Base 1.8
 _ZN6TagLib11PropertyMapD0Ev@Base 1.8
 _ZN6TagLib11PropertyMapD1Ev@Base 1.8
 _ZN6TagLib11PropertyMapD2Ev@Base 1.8
 _ZN6TagLib11PropertyMapixERKNS_6StringE@Base 1.8
 _ZN6TagLib13DebugListenerC1Ev@Base 1.9.1
 _ZN6TagLib13DebugListenerC2Ev@Base 1.9.1
 _ZN6TagLib13DebugListenerD0Ev@Base 1.9.1
 _ZN6TagLib13DebugListenerD1Ev@Base 1.9.1
 _ZN6TagLib13DebugListenerD2Ev@Base 1.9.1
 _ZN6TagLib14ByteVectorList5splitERKNS_10ByteVectorES3_i@Base 1.4 1
 _ZN6TagLib14ByteVectorList5splitERKNS_10ByteVectorES3_ii@Base 1.4 1
 _ZN6TagLib14ByteVectorListC1ERKS0_@Base 1.4 1
 _ZN6TagLib14ByteVectorListC1Ev@Base 1.4 1
 _ZN6TagLib14ByteVectorListC2ERKS0_@Base 1.4 1
 _ZN6TagLib14ByteVectorListC2Ev@Base 1.4 1
 _ZN6TagLib14ByteVectorListD0Ev@Base 1.4 1
 _ZN6TagLib14ByteVectorListD1Ev@Base 1.4 1
 _ZN6TagLib14ByteVectorListD2Ev@Base 1.4 1
 _ZN6TagLib15AudioPropertiesC1ENS0_9ReadStyleE@Base 1.4 1
 _ZN6TagLib15AudioPropertiesC2ENS0_9ReadStyleE@Base 1.4 1
 _ZN6TagLib15AudioPropertiesD0Ev@Base 1.4 1
 _ZN6TagLib15AudioPropertiesD1Ev@Base 1.4 1
 _ZN6TagLib15AudioPropertiesD2Ev@Base 1.4 1
 _ZN6TagLib16ByteVectorStream10writeBlockERKNS_10ByteVectorE@Base 1.8
 _ZN6TagLib16ByteVectorStream11removeBlockEmm@Base 1.8
 _ZN6TagLib16ByteVectorStream23ByteVectorStreamPrivateC1ERKNS_10ByteVectorE@Base 1.8
 _ZN6TagLib16ByteVectorStream23ByteVectorStreamPrivateC2ERKNS_10ByteVectorE@Base 1.8
 _ZN6TagLib16ByteVectorStream4dataEv@Base 1.8
 _ZN6TagLib16ByteVectorStream4seekElNS_8IOStream8PositionE@Base 1.8
 _ZN6TagLib16ByteVectorStream5clearEv@Base 1.8
 _ZN6TagLib16ByteVectorStream6insertERKNS_10ByteVectorEmm@Base 1.8
 _ZN6TagLib16ByteVectorStream6lengthEv@Base 1.8
 _ZN6TagLib16ByteVectorStream8truncateEl@Base 1.8
 _ZN6TagLib16ByteVectorStream9readBlockEm@Base 1.8
 _ZN6TagLib16ByteVectorStreamC1ERKNS_10ByteVectorE@Base 1.8
 _ZN6TagLib16ByteVectorStreamC2ERKNS_10ByteVectorE@Base 1.8
 _ZN6TagLib16ByteVectorStreamD0Ev@Base 1.8
 _ZN6TagLib16ByteVectorStreamD1Ev@Base 1.8
 _ZN6TagLib16ByteVectorStreamD2Ev@Base 1.8
 _ZN6TagLib16setDebugListenerEPNS_13DebugListenerE@Base 1.9.1
 _ZN6TagLib2IT10Properties10setSpecialEt@Base 1.8
 _ZN6TagLib2IT10Properties10setVersionEt@Base 1.8
 _ZN6TagLib2IT10Properties11setBpmSpeedEh@Base 1.8
 _ZN6TagLib2IT10Properties11setChannelsEi@Base 1.8
 _ZN6TagLib2IT10Properties12setMixVolumeEh@Base 1.8
 _ZN6TagLib2IT10Properties14setSampleCountEt@Base 1.8
 _ZN6TagLib2IT10Properties15setGlobalVolumeEh@Base 1.8
 _ZN6TagLib2IT10Properties15setPatternCountEt@Base 1.8
 _ZN6TagLib2IT10Properties18setInstrumentCountEt@Base 1.8
 _ZN6TagLib2IT10Properties18setPitchWheelDepthEh@Base 1.8
 _ZN6TagLib2IT10Properties19setLengthInPatternsEt@Base 1.8
 _ZN6TagLib2IT10Properties20setCompatibleVersionEt@Base 1.8
 _ZN6TagLib2IT10Properties20setPanningSeparationEh@Base 1.8
 _ZN6TagLib2IT10Properties8setFlagsEt@Base 1.8
 _ZN6TagLib2IT10Properties8setTempoEh@Base 1.8
 _ZN6TagLib2IT10PropertiesC1ENS_15AudioProperties9ReadStyleE@Base 1.8
 _ZN6TagLib2IT10PropertiesC2ENS_15AudioProperties9ReadStyleE@Base 1.8
 _ZN6TagLib2IT10PropertiesD0Ev@Base 1.8
 _ZN6TagLib2IT10PropertiesD1Ev@Base 1.8
 _ZN6TagLib2IT10PropertiesD2Ev@Base 1.8
 _ZN6TagLib2IT4File13setPropertiesERKNS_11PropertyMapE@Base 1.8
 _ZN6TagLib2IT4File4readEb@Base 1.8
 _ZN6TagLib2IT4File4saveEv@Base 1.8
 _ZN6TagLib2IT4FileC1EPKcbNS_15AudioProperties9ReadStyleE@Base 1.8
 _ZN6TagLib2IT4FileC1EPNS_8IOStreamEbNS_15AudioProperties9ReadStyleE@Base 1.8
 _ZN6TagLib2IT4FileC2EPKcbNS_15AudioProperties9ReadStyleE@Base 1.8
 _ZN6TagLib2IT4FileC2EPNS_8IOStreamEbNS_15AudioProperties9ReadStyleE@Base 1.8
 _ZN6TagLib2IT4FileD0Ev@Base 1.8
 _ZN6TagLib2IT4FileD1Ev@Base 1.8
 _ZN6TagLib2IT4FileD2Ev@Base 1.8
 _ZN6TagLib2XM4File13setPropertiesERKNS_11PropertyMapE@Base 1.8
 _ZN6TagLib2XM4File4readEb@Base 1.8
 _ZN6TagLib2XM4File4saveEv@Base 1.8
 _ZN6TagLib2XM4FileC1EPKcbNS_15AudioProperties9ReadStyleE@Base 1.8
 _ZN6TagLib2XM4FileC1EPNS_8IOStreamEbNS_15AudioProperties9ReadStyleE@Base 1.8
 _ZN6TagLib2XM4FileC2EPKcbNS_15AudioProperties9ReadStyleE@Base 1.8
 _ZN6TagLib2XM4FileC2EPNS_8IOStreamEbNS_15AudioProperties9ReadStyleE@Base 1.8
 _ZN6TagLib2XM4FileD0Ev@Base 1.8
 _ZN6TagLib2XM4FileD1Ev@Base 1.8
 _ZN6TagLib2XM4FileD2Ev@Base 1.8
 _ZN6TagLib3APE10Properties10analyzeOldEv@Base 1.7
 _ZN6TagLib3APE10Properties14analyzeCurrentEv@Base 1.7
 _ZN6TagLib3APE10Properties14findDescriptorEv@Base 1.7
 _ZN6TagLib3APE10Properties4readEv@Base 1.7
 _ZN6TagLib3APE10Properties9findID3v2Ev@Base 1.7
 _ZN6TagLib3APE10PropertiesC1EPNS0_4FileENS_15AudioProperties9ReadStyleE@Base 1.7
 _ZN6TagLib3APE10PropertiesC2EPNS0_4FileENS_15AudioProperties9ReadStyleE@Base 1.7
 _ZN6TagLib3APE10PropertiesD0Ev@Base 1.7
 _ZN6TagLib3APE10PropertiesD1Ev@Base 1.7
 _ZN6TagLib3APE10PropertiesD2Ev@Base 1.7
 _ZN6TagLib3APE3Tag10removeItemERKNS_6StringE@Base 1.4 1
 _ZN6TagLib3APE3Tag10setCommentERKNS_6StringE@Base 1.4 1
 _ZN6TagLib3APE3Tag13setPropertiesERKNS_11PropertyMapE@Base 1.8
 _ZN6TagLib3APE3Tag14fileIdentifierEv@Base 1.4 1
 _ZN6TagLib3APE3Tag27removeUnsupportedPropertiesERKNS_10StringListE@Base 1.8
 _ZN6TagLib3APE3Tag4readEv@Base 1.4 1
 _ZN6TagLib3APE3Tag5parseERKNS_10ByteVectorE@Base 1.4 1
 _ZN6TagLib3APE3Tag7setDataERKNS_6StringERKNS_10ByteVectorE@Base 1.8
 _ZN6TagLib3APE3Tag7setItemERKNS_6StringERKNS0_4ItemE@Base 1.4 1
 _ZN6TagLib3APE3Tag7setYearEj@Base 1.4 1
 _ZN6TagLib3APE3Tag8addValueERKNS_6StringES4_b@Base 1.4 1
 _ZN6TagLib3APE3Tag8checkKeyERKNS_6StringE@Base 1.8
 _ZN6TagLib3APE3Tag8setAlbumERKNS_6StringE@Base 1.4 1
 _ZN6TagLib3APE3Tag8setGenreERKNS_6StringE@Base 1.4 1
 _ZN6TagLib3APE3Tag8setTitleERKNS_6StringE@Base 1.4 1
 _ZN6TagLib3APE3Tag8setTrackEj@Base 1.4 1
 _ZN6TagLib3APE3Tag9setArtistERKNS_6StringE@Base 1.4 1
 _ZN6TagLib3APE3TagC1EPNS_4FileEl@Base 1.4 1
 _ZN6TagLib3APE3TagC1Ev@Base 1.4 1
 _ZN6TagLib3APE3TagC2EPNS_4FileEl@Base 1.4 1
 _ZN6TagLib3APE3TagC2Ev@Base 1.4 1
 _ZN6TagLib3APE3TagD0Ev@Base 1.4 1
 _ZN6TagLib3APE3TagD1Ev@Base 1.4 1
 _ZN6TagLib3APE3TagD2Ev@Base 1.4 1
 _ZN6TagLib3APE4File13setPropertiesERKNS_11PropertyMapE@Base 1.8
 _ZN6TagLib3APE4File27removeUnsupportedPropertiesERKNS_10StringListE@Base 1.8
 _ZN6TagLib3APE4File4readEbNS_15AudioProperties9ReadStyleE@Base 1.7
 _ZN6TagLib3APE4File4saveEv@Base 1.7
 _ZN6TagLib3APE4File5stripEi@Base 1.7
 _ZN6TagLib3APE4File6APETagEb@Base 1.7
 _ZN6TagLib3APE4File7findAPEEv@Base 1.7
 _ZN6TagLib3APE4File8ID3v1TagEb@Base 1.7
 _ZN6TagLib3APE4File9findID3v1Ev@Base 1.7
 _ZN6TagLib3APE4FileC1EPKcbNS_15AudioProperties9ReadStyleE@Base 1.7
 _ZN6TagLib3APE4FileC1EPNS_8IOStreamEbNS_15AudioProperties9ReadStyleE@Base 1.8
 _ZN6TagLib3APE4FileC2EPKcbNS_15AudioProperties9ReadStyleE@Base 1.7
 _ZN6TagLib3APE4FileC2EPNS_8IOStreamEbNS_15AudioProperties9ReadStyleE@Base 1.8
 _ZN6TagLib3APE4FileD0Ev@Base 1.7
 _ZN6TagLib3APE4FileD1Ev@Base 1.7
 _ZN6TagLib3APE4FileD2Ev@Base 1.7
 _ZN6TagLib3APE4Item11appendValueERKNS_6StringE@Base 1.5
 _ZN6TagLib3APE4Item11setReadOnlyEb@Base 1.4 1
 _ZN6TagLib3APE4Item12appendValuesERKNS_10StringListE@Base 1.5
 _ZN6TagLib3APE4Item13setBinaryDataERKNS_10ByteVectorE@Base 1.8
 _ZN6TagLib3APE4Item5parseERKNS_10ByteVectorE@Base 1.4 1
 _ZN6TagLib3APE4Item6setKeyERKNS_6StringE@Base 1.5
 _ZN6TagLib3APE4Item7setTypeENS1_9ItemTypesE@Base 1.4 1
 _ZN6TagLib3APE4Item8setValueERKNS_6StringE@Base 1.5
 _ZN6TagLib3APE4Item9setValuesERKNS_10StringListE@Base 1.5
 _ZN6TagLib3APE4ItemC1ERKNS_6StringERKNS_10ByteVectorEb@Base 1.8
 _ZN6TagLib3APE4ItemC1ERKNS_6StringERKNS_10StringListE@Base 1.4 1
 _ZN6TagLib3APE4ItemC1ERKNS_6StringES4_@Base 1.4 1
 _ZN6TagLib3APE4ItemC1ERKS1_@Base 1.4 1
 _ZN6TagLib3APE4ItemC1Ev@Base 1.4 1
 _ZN6TagLib3APE4ItemC2ERKNS_6StringERKNS_10ByteVectorEb@Base 1.8
 _ZN6TagLib3APE4ItemC2ERKNS_6StringERKNS_10StringListE@Base 1.4 1
 _ZN6TagLib3APE4ItemC2ERKNS_6StringES4_@Base 1.4 1
 _ZN6TagLib3APE4ItemC2ERKS1_@Base 1.4 1
 _ZN6TagLib3APE4ItemC2Ev@Base 1.4 1
 _ZN6TagLib3APE4ItemD0Ev@Base 1.4 1
 _ZN6TagLib3APE4ItemD1Ev@Base 1.4 1
 _ZN6TagLib3APE4ItemD2Ev@Base 1.4 1
 _ZN6TagLib3APE4ItemaSERKS1_@Base 1.4 1
 _ZN6TagLib3APE6Footer10setTagSizeEj@Base 1.4 1
 _ZN6TagLib3APE6Footer12setItemCountEj@Base 1.4 1
 _ZN6TagLib3APE6Footer14fileIdentifierEv@Base 1.4 1
 _ZN6TagLib3APE6Footer4sizeEv@Base 1.4 1
 _ZN6TagLib3APE6Footer5parseERKNS_10ByteVectorE@Base 1.4 1
 _ZN6TagLib3APE6Footer7setDataERKNS_10ByteVectorE@Base 1.4 1
 _ZN6TagLib3APE6FooterC1ERKNS_10ByteVectorE@Base 1.4 1
 _ZN6TagLib3APE6FooterC1Ev@Base 1.4 1
 _ZN6TagLib3APE6FooterC2ERKNS_10ByteVectorE@Base 1.4 1
 _ZN6TagLib3APE6FooterC2Ev@Base 1.4 1
 _ZN6TagLib3APE6FooterD0Ev@Base 1.4 1
 _ZN6TagLib3APE6FooterD1Ev@Base 1.4 1
 _ZN6TagLib3APE6FooterD2Ev@Base 1.4 1
 _ZN6TagLib3ASF10Properties10setBitrateEi@Base 1.6-2~
 _ZN6TagLib3ASF10Properties11setChannelsEi@Base 1.6-2~
 _ZN6TagLib3ASF10Properties12setEncryptedEb@Base 1.8
 _ZN6TagLib3ASF10Properties13setSampleRateEi@Base 1.6-2~
 _ZN6TagLib3ASF10Properties9setLengthEi@Base 1.6-2~
 _ZN6TagLib3ASF10PropertiesC1Ev@Base 1.6-2~
 _ZN6TagLib3ASF10PropertiesC2Ev@Base 1.6-2~
 _ZN6TagLib3ASF10PropertiesD0Ev@Base 1.6-2~
 _ZN6TagLib3ASF10PropertiesD1Ev@Base 1.6-2~
 _ZN6TagLib3ASF10PropertiesD2Ev@Base 1.6-2~
 _ZN6TagLib3ASF3Tag10removeItemERKNS_6StringE@Base 1.6-2~
 _ZN6TagLib3ASF3Tag10setCommentERKNS_6StringE@Base 1.6-2~
 _ZN6TagLib3ASF3Tag12addAttributeERKNS_6StringERKNS0_9AttributeE@Base 1.6-2~
 _ZN6TagLib3ASF3Tag12setAttributeERKNS_6StringERKNS0_9AttributeE@Base 1.6-2~
 _ZN6TagLib3ASF3Tag12setCopyrightERKNS_6StringE@Base 1.6-2~
 _ZN6TagLib3ASF3Tag13setPropertiesERKNS_11PropertyMapE@Base 1.9.1
 _ZN6TagLib3ASF3Tag16attributeListMapEv@Base 1.6-2~
 _ZN6TagLib3ASF3Tag27removeUnsupportedPropertiesERKNS_10StringListE@Base 1.9.1
 _ZN6TagLib3ASF3Tag7setYearEj@Base 1.6-2~
 _ZN6TagLib3ASF3Tag8setAlbumERKNS_6StringE@Base 1.6-2~
 _ZN6TagLib3ASF3Tag8setGenreERKNS_6StringE@Base 1.6-2~
 _ZN6TagLib3ASF3Tag8setTitleERKNS_6StringE@Base 1.6-2~
 _ZN6TagLib3ASF3Tag8setTrackEj@Base 1.6-2~
 _ZN6TagLib3ASF3Tag9setArtistERKNS_6StringE@Base 1.6-2~
 _ZN6TagLib3ASF3Tag9setRatingERKNS_6StringE@Base 1.6-2~
 _ZN6TagLib3ASF3TagC1Ev@Base 1.6-2~
 _ZN6TagLib3ASF3TagC2Ev@Base 1.6-2~
 _ZN6TagLib3ASF3TagD0Ev@Base 1.6-2~
 _ZN6TagLib3ASF3TagD1Ev@Base 1.6-2~
 _ZN6TagLib3ASF3TagD2Ev@Base 1.6-2~
 _ZN6TagLib3ASF4File10BaseObject5parseEPS1_j@Base 1.6-2~
 _ZN6TagLib3ASF4File10BaseObject6renderEPS1_@Base 1.6-2~
 _ZN6TagLib3ASF4File10readStringEi@Base 1.6-2~
 _ZN6TagLib3ASF4File12renderStringERKNS_6StringEb@Base 1.6-2~
 _ZN6TagLib3ASF4File13UnknownObject4guidEv@Base 1.6-2~
 _ZN6TagLib3ASF4File13UnknownObjectC1ERKNS_10ByteVectorE@Base 1.6-2~
 _ZN6TagLib3ASF4File13UnknownObjectC2ERKNS_10ByteVectorE@Base 1.6-2~
 _ZN6TagLib3ASF4File13UnknownObjectD0Ev@Base 1.7-2~
 _ZN6TagLib3ASF4File13UnknownObjectD1Ev@Base 1.7-2~
 _ZN6TagLib3ASF4File13UnknownObjectD2Ev@Base 1.7-2~
 _ZN6TagLib3ASF4File13setPropertiesERKNS_11PropertyMapE@Base 1.9.1
 _ZN6TagLib3ASF4File14MetadataObject4guidEv@Base 1.6-2~
 _ZN6TagLib3ASF4File14MetadataObject5parseEPS1_j@Base 1.6-2~
 _ZN6TagLib3ASF4File14MetadataObject6renderEPS1_@Base 1.6-2~
 _ZN6TagLib3ASF4File14MetadataObjectD0Ev@Base 1.7-2~
 _ZN6TagLib3ASF4File14MetadataObjectD1Ev@Base 1.7-2~
 _ZN6TagLib3ASF4File14MetadataObjectD2Ev@Base 1.7-2~
 _ZN6TagLib3ASF4File20FilePropertiesObject4guidEv@Base 1.6-2~
 _ZN6TagLib3ASF4File20FilePropertiesObject5parseEPS1_j@Base 1.6-2~
 _ZN6TagLib3ASF4File20FilePropertiesObjectD0Ev@Base 1.7-2~
 _ZN6TagLib3ASF4File20FilePropertiesObjectD1Ev@Base 1.7-2~
 _ZN6TagLib3ASF4File20FilePropertiesObjectD2Ev@Base 1.7-2~
 _ZN6TagLib3ASF4File21HeaderExtensionObject4guidEv@Base 1.6-2~
 _ZN6TagLib3ASF4File21HeaderExtensionObject5parseEPS1_j@Base 1.6-2~
 _ZN6TagLib3ASF4File21HeaderExtensionObject6renderEPS1_@Base 1.6-2~
 _ZN6TagLib3ASF4File21HeaderExtensionObjectD0Ev@Base 1.7-2~
 _ZN6TagLib3ASF4File21HeaderExtensionObjectD1Ev@Base 1.7-2~
 _ZN6TagLib3ASF4File21HeaderExtensionObjectD2Ev@Base 1.7-2~
 _ZN6TagLib3ASF4File21MetadataLibraryObject4guidEv@Base 1.6-2~
 _ZN6TagLib3ASF4File21MetadataLibraryObject5parseEPS1_j@Base 1.6-2~
 _ZN6TagLib3ASF4File21MetadataLibraryObject6renderEPS1_@Base 1.6-2~
 _ZN6TagLib3ASF4File21MetadataLibraryObjectD0Ev@Base 1.7-2~
 _ZN6TagLib3ASF4File21MetadataLibraryObjectD1Ev@Base 1.7-2~
 _ZN6TagLib3ASF4File21MetadataLibraryObjectD2Ev@Base 1.7-2~
 _ZN6TagLib3ASF4File22StreamPropertiesObject4guidEv@Base 1.6-2~
 _ZN6TagLib3ASF4File22StreamPropertiesObject5parseEPS1_j@Base 1.6-2~
 _ZN6TagLib3ASF4File22StreamPropertiesObjectD0Ev@Base 1.7-2~
 _ZN6TagLib3ASF4File22StreamPropertiesObjectD1Ev@Base 1.7-2~
 _ZN6TagLib3ASF4File22StreamPropertiesObjectD2Ev@Base 1.7-2~
 _ZN6TagLib3ASF4File24ContentDescriptionObject4guidEv@Base 1.6-2~
 _ZN6TagLib3ASF4File24ContentDescriptionObject5parseEPS1_j@Base 1.6-2~
 _ZN6TagLib3ASF4File24ContentDescriptionObject6renderEPS1_@Base 1.6-2~
 _ZN6TagLib3ASF4File24ContentDescriptionObjectD0Ev@Base 1.7-2~
 _ZN6TagLib3ASF4File24ContentDescriptionObjectD1Ev@Base 1.7-2~
 _ZN6TagLib3ASF4File24ContentDescriptionObjectD2Ev@Base 1.7-2~
 _ZN6TagLib3ASF4File27removeUnsupportedPropertiesERKNS_10StringListE@Base 1.9.1
 _ZN6TagLib3ASF4File32ExtendedContentDescriptionObject4guidEv@Base 1.6-2~
 _ZN6TagLib3ASF4File32ExtendedContentDescriptionObject5parseEPS1_j@Base 1.6-2~
 _ZN6TagLib3ASF4File32ExtendedContentDescriptionObject6renderEPS1_@Base 1.6-2~
 _ZN6TagLib3ASF4File32ExtendedContentDescriptionObjectD0Ev@Base 1.7-2~
 _ZN6TagLib3ASF4File32ExtendedContentDescriptionObjectD1Ev@Base 1.7-2~
 _ZN6TagLib3ASF4File32ExtendedContentDescriptionObjectD2Ev@Base 1.7-2~
 _ZN6TagLib3ASF4File4readEbNS_15AudioProperties9ReadStyleE@Base 1.6-2~
 _ZN6TagLib3ASF4File4saveEv@Base 1.6-2~
 _ZN6TagLib3ASF4File8readBYTEEPb@Base 1.7-2~
 _ZN6TagLib3ASF4File8readWORDEPb@Base 1.7-2~
 _ZN6TagLib3ASF4File9readDWORDEPb@Base 1.7-2~
 _ZN6TagLib3ASF4File9readQWORDEPb@Base 1.7-2~
 _ZN6TagLib3ASF4FileC1EPKcbNS_15AudioProperties9ReadStyleE@Base 1.6-2~
 _ZN6TagLib3ASF4FileC1EPNS_8IOStreamEbNS_15AudioProperties9ReadStyleE@Base 1.8
 _ZN6TagLib3ASF4FileC2EPKcbNS_15AudioProperties9ReadStyleE@Base 1.6-2~
 _ZN6TagLib3ASF4FileC2EPNS_8IOStreamEbNS_15AudioProperties9ReadStyleE@Base 1.8
 _ZN6TagLib3ASF4FileD0Ev@Base 1.6-2~
 _ZN6TagLib3ASF4FileD1Ev@Base 1.6-2~
 _ZN6TagLib3ASF4FileD2Ev@Base 1.6-2~
 _ZN6TagLib3ASF7Picture10setPictureERKNS_10ByteVectorE@Base 1.7
 _ZN6TagLib3ASF7Picture11fromInvalidEv@Base 1.7
 _ZN6TagLib3ASF7Picture11setMimeTypeERKNS_6StringE@Base 1.7
 _ZN6TagLib3ASF7Picture14PicturePrivateD0Ev@Base 1.9.1
 _ZN6TagLib3ASF7Picture14PicturePrivateD1Ev@Base 1.9.1
 _ZN6TagLib3ASF7Picture14PicturePrivateD2Ev@Base 1.9.1
 _ZN6TagLib3ASF7Picture14setDescriptionERKNS_6StringE@Base 1.7
 _ZN6TagLib3ASF7Picture5parseERKNS_10ByteVectorE@Base 1.7
 _ZN6TagLib3ASF7Picture7setTypeERKNS1_4TypeE@Base 1.7
 _ZN6TagLib3ASF7PictureC1ERKS1_@Base 1.7
 _ZN6TagLib3ASF7PictureC1Ev@Base 1.7
 _ZN6TagLib3ASF7PictureC2ERKS1_@Base 1.7
 _ZN6TagLib3ASF7PictureC2Ev@Base 1.7
 _ZN6TagLib3ASF7PictureD0Ev@Base 1.7
 _ZN6TagLib3ASF7PictureD1Ev@Base 1.7
 _ZN6TagLib3ASF7PictureD2Ev@Base 1.7
 _ZN6TagLib3ASF7PictureaSERKS1_@Base 1.7
 _ZN6TagLib3ASF9Attribute11setLanguageEi@Base 1.6-2~
 _ZN6TagLib3ASF9Attribute16AttributePrivateD0Ev@Base 1.9.1
 _ZN6TagLib3ASF9Attribute16AttributePrivateD1Ev@Base 1.9.1
 _ZN6TagLib3ASF9Attribute16AttributePrivateD2Ev@Base 1.9.1
 _ZN6TagLib3ASF9Attribute5parseERNS0_4FileEi@Base 1.6-2~
 _ZN6TagLib3ASF9Attribute9setStreamEi@Base 1.6-2~
 _ZN6TagLib3ASF9AttributeC1ERKNS0_7PictureE@Base 1.7
 _ZN6TagLib3ASF9AttributeC1ERKNS_10ByteVectorE@Base 1.6-2~
 _ZN6TagLib3ASF9AttributeC1ERKNS_6StringE@Base 1.6-2~
 _ZN6TagLib3ASF9AttributeC1ERKS1_@Base 1.6-2~
 _ZN6TagLib3ASF9AttributeC1Eb@Base 1.6-2~
 _ZN6TagLib3ASF9AttributeC1Ej@Base 1.6-2~
 _ZN6TagLib3ASF9AttributeC1Et@Base 1.6-2~
 _ZN6TagLib3ASF9AttributeC1Ev@Base 1.6-2~
 _ZN6TagLib3ASF9AttributeC1Ey@Base 1.6-2~
 _ZN6TagLib3ASF9AttributeC2ERKNS0_7PictureE@Base 1.7
 _ZN6TagLib3ASF9AttributeC2ERKNS_10ByteVectorE@Base 1.6-2~
 _ZN6TagLib3ASF9AttributeC2ERKNS_6StringE@Base 1.6-2~
 _ZN6TagLib3ASF9AttributeC2ERKS1_@Base 1.6-2~
 _ZN6TagLib3ASF9AttributeC2Eb@Base 1.6-2~
 _ZN6TagLib3ASF9AttributeC2Ej@Base 1.6-2~
 _ZN6TagLib3ASF9AttributeC2Et@Base 1.6-2~
 _ZN6TagLib3ASF9AttributeC2Ev@Base 1.6-2~
 _ZN6TagLib3ASF9AttributeC2Ey@Base 1.6-2~
 _ZN6TagLib3ASF9AttributeD0Ev@Base 1.6-2~
 _ZN6TagLib3ASF9AttributeD1Ev@Base 1.6-2~
 _ZN6TagLib3ASF9AttributeD2Ev@Base 1.6-2~
 _ZN6TagLib3ASF9AttributeaSERKS1_@Base 1.6-2~
 _ZN6TagLib3MP410PropertiesC1EPNS0_4FileEPNS0_5AtomsENS_15AudioProperties9ReadStyleE@Base 1.6-2~
 _ZN6TagLib3MP410PropertiesC2EPNS0_4FileEPNS0_5AtomsENS_15AudioProperties9ReadStyleE@Base 1.6-2~
 _ZN6TagLib3MP410PropertiesD0Ev@Base 1.6-2~
 _ZN6TagLib3MP410PropertiesD1Ev@Base 1.6-2~
 _ZN6TagLib3MP410PropertiesD2Ev@Base 1.6-2~
 _ZN6TagLib3MP43Tag10parseData2EPNS0_4AtomEPNS_4FileEib@Base 1.8
 _ZN6TagLib3MP43Tag10renderAtomERKNS_10ByteVectorES4_@Base 1.6-2~
 _ZN6TagLib3MP43Tag10renderBoolERKNS_10ByteVectorERNS0_4ItemE@Base 1.6-2~
 _ZN6TagLib3MP43Tag10renderByteERKNS_10ByteVectorERNS0_4ItemE@Base 1.8
 _ZN6TagLib3MP43Tag10renderCovrERKNS_10ByteVectorERNS0_4ItemE@Base 1.6.1
 _ZN6TagLib3MP43Tag10renderDataERKNS_10ByteVectorEiRKNS_14ByteVectorListE@Base 1.6-2~
 _ZN6TagLib3MP43Tag10renderTextERKNS_10ByteVectorERNS0_4ItemEi@Base 1.6-2~
 _ZN6TagLib3MP43Tag10renderUIntERKNS_10ByteVectorERNS0_4ItemE@Base 1.8
 _ZN6TagLib3MP43Tag10setCommentERKNS_6StringE@Base 1.6-2~
 _ZN6TagLib3MP43Tag11itemListMapEv@Base 1.6-2~
 _ZN6TagLib3MP43Tag12parseIntPairEPNS0_4AtomEPNS_4FileE@Base 1.6-2~
 _ZN6TagLib3MP43Tag12saveExistingERNS_10ByteVectorERNS_4ListIPNS0_4AtomEEE@Base 1.6-2~
 _ZN6TagLib3MP43Tag13parseFreeFormEPNS0_4AtomEPNS_4FileE@Base 1.6-2~
 _ZN6TagLib3MP43Tag13parseLongLongEPNS0_4AtomEPNS_4FileE@Base 1.8
 _ZN6TagLib3MP43Tag13renderIntPairERKNS_10ByteVectorERNS0_4ItemE@Base 1.6-2~
 _ZN6TagLib3MP43Tag13setPropertiesERKNS_11PropertyMapE@Base 1.9.1
 _ZN6TagLib3MP43Tag13updateOffsetsEll@Base 1.6-2~
 _ZN6TagLib3MP43Tag13updateParentsERNS_4ListIPNS0_4AtomEEEli@Base 1.6-2~
 _ZN6TagLib3MP43Tag14renderFreeFormERKNS_6StringERNS0_4ItemE@Base 1.6-2~
 _ZN6TagLib3MP43Tag14renderLongLongERKNS_10ByteVectorERNS0_4ItemE@Base 1.8
 _ZN6TagLib3MP43Tag23renderIntPairNoTrailingERKNS_10ByteVectorERNS0_4ItemE@Base 1.6-2~
 _ZN6TagLib3MP43Tag27removeUnsupportedPropertiesERKNS_10StringListE@Base 1.9.1
 _ZN6TagLib3MP43Tag4saveEv@Base 1.6-2~
 _ZN6TagLib3MP43Tag7addItemERKNS_6StringERKNS0_4ItemE@Base 1.9.1
 _ZN6TagLib3MP43Tag7padIlstERKNS_10ByteVectorEi@Base 1.6-2~
 _ZN6TagLib3MP43Tag7saveNewERNS_10ByteVectorE@Base 1.6-2~
 _ZN6TagLib3MP43Tag7setYearEj@Base 1.6-2~
 _ZN6TagLib3MP43Tag8parseIntEPNS0_4AtomEPNS_4FileE@Base 1.6-2~
 _ZN6TagLib3MP43Tag8setAlbumERKNS_6StringE@Base 1.6-2~
 _ZN6TagLib3MP43Tag8setGenreERKNS_6StringE@Base 1.6-2~
 _ZN6TagLib3MP43Tag8setTitleERKNS_6StringE@Base 1.6-2~
 _ZN6TagLib3MP43Tag8setTrackEj@Base 1.6-2~
 _ZN6TagLib3MP43Tag9parseBoolEPNS0_4AtomEPNS_4FileE@Base 1.6-2~
 _ZN6TagLib3MP43Tag9parseByteEPNS0_4AtomEPNS_4FileE@Base 1.8
 _ZN6TagLib3MP43Tag9parseCovrEPNS0_4AtomEPNS_4FileE@Base 1.6.1
 _ZN6TagLib3MP43Tag9parseDataEPNS0_4AtomEPNS_4FileEib@Base 1.6-2~
 _ZN6TagLib3MP43Tag9parseGnreEPNS0_4AtomEPNS_4FileE@Base 1.6-2~
 _ZN6TagLib3MP43Tag9parseTextEPNS0_4AtomEPNS_4FileEi@Base 1.6-2~
 _ZN6TagLib3MP43Tag9parseUIntEPNS0_4AtomEPNS_4FileE@Base 1.8
 _ZN6TagLib3MP43Tag9renderIntERKNS_10ByteVectorERNS0_4ItemE@Base 1.6-2~
 _ZN6TagLib3MP43Tag9setArtistERKNS_6StringE@Base 1.6-2~
 _ZN6TagLib3MP43TagC1EPNS_4FileEPNS0_5AtomsE@Base 1.6-2~
 _ZN6TagLib3MP43TagC1Ev@Base 1.8
 _ZN6TagLib3MP43TagC2EPNS_4FileEPNS0_5AtomsE@Base 1.6-2~
 _ZN6TagLib3MP43TagC2Ev@Base 1.8
 _ZN6TagLib3MP43TagD0Ev@Base 1.6-2~
 _ZN6TagLib3MP43TagD1Ev@Base 1.6-2~
 _ZN6TagLib3MP43TagD2Ev@Base 1.6-2~
 _ZN6TagLib3MP44File10checkValidERKNS_4ListIPNS0_4AtomEEE@Base 1.6.1
 _ZN6TagLib3MP44File13setPropertiesERKNS_11PropertyMapE@Base 1.9.1
 _ZN6TagLib3MP44File27removeUnsupportedPropertiesERKNS_10StringListE@Base 1.9.1
 _ZN6TagLib3MP44File4readEbNS_15AudioProperties9ReadStyleE@Base 1.6-2~
 _ZN6TagLib3MP44File4saveEv@Base 1.6-2~
 _ZN6TagLib3MP44FileC1EPKcbNS_15AudioProperties9ReadStyleE@Base 1.6-2~
 _ZN6TagLib3MP44FileC1EPNS_8IOStreamEbNS_15AudioProperties9ReadStyleE@Base 1.8
 _ZN6TagLib3MP44FileC2EPKcbNS_15AudioProperties9ReadStyleE@Base 1.6-2~
 _ZN6TagLib3MP44FileC2EPNS_8IOStreamEbNS_15AudioProperties9ReadStyleE@Base 1.8
 _ZN6TagLib3MP44FileD0Ev@Base 1.6-2~
 _ZN6TagLib3MP44FileD1Ev@Base 1.6-2~
 _ZN6TagLib3MP44FileD2Ev@Base 1.6-2~
 _ZN6TagLib3MP44Item11ItemPrivateD0Ev@Base 1.9.1
 _ZN6TagLib3MP44Item11ItemPrivateD1Ev@Base 1.9.1
 _ZN6TagLib3MP44Item11ItemPrivateD2Ev@Base 1.9.1
 _ZN6TagLib3MP44Item15setAtomDataTypeENS0_12AtomDataTypeE@Base 1.8
 _ZN6TagLib3MP44ItemC1ERKNS_10StringListE@Base 1.6-2~
 _ZN6TagLib3MP44ItemC1ERKNS_14ByteVectorListE@Base 1.8
 _ZN6TagLib3MP44ItemC1ERKNS_4ListINS0_8CoverArtEEE@Base 1.6.1
 _ZN6TagLib3MP44ItemC1ERKS1_@Base 1.6-2~
 _ZN6TagLib3MP44ItemC1Eb@Base 1.6-2~
 _ZN6TagLib3MP44ItemC1Eh@Base 1.8
 _ZN6TagLib3MP44ItemC1Ei@Base 1.6-2~
 _ZN6TagLib3MP44ItemC1Eii@Base 1.6-2~
 _ZN6TagLib3MP44ItemC1Ej@Base 1.8
 _ZN6TagLib3MP44ItemC1Ev@Base 1.6-2~
 _ZN6TagLib3MP44ItemC1Ex@Base 1.8
 _ZN6TagLib3MP44ItemC2ERKNS_10StringListE@Base 1.6-2~
 _ZN6TagLib3MP44ItemC2ERKNS_14ByteVectorListE@Base 1.8
 _ZN6TagLib3MP44ItemC2ERKNS_4ListINS0_8CoverArtEEE@Base 1.6.1
 _ZN6TagLib3MP44ItemC2ERKS1_@Base 1.6-2~
 _ZN6TagLib3MP44ItemC2Eb@Base 1.6-2~
 _ZN6TagLib3MP44ItemC2Eh@Base 1.8
 _ZN6TagLib3MP44ItemC2Ei@Base 1.6-2~
 _ZN6TagLib3MP44ItemC2Eii@Base 1.6-2~
 _ZN6TagLib3MP44ItemC2Ej@Base 1.8
 _ZN6TagLib3MP44ItemC2Ev@Base 1.6-2~
 _ZN6TagLib3MP44ItemC2Ex@Base 1.8
 _ZN6TagLib3MP44ItemD1Ev@Base 1.6-2~
 _ZN6TagLib3MP44ItemD2Ev@Base 1.6-2~
 _ZN6TagLib3MP44ItemaSERKS1_@Base 1.6-2~
 _ZN6TagLib3MP48CoverArt15CoverArtPrivateD0Ev@Base 1.9.1
 _ZN6TagLib3MP48CoverArt15CoverArtPrivateD1Ev@Base 1.9.1
 _ZN6TagLib3MP48CoverArt15CoverArtPrivateD2Ev@Base 1.9.1
 _ZN6TagLib3MP48CoverArtC1ENS1_6FormatERKNS_10ByteVectorE@Base 1.6.1
 _ZN6TagLib3MP48CoverArtC1ERKS1_@Base 1.6.1
 _ZN6TagLib3MP48CoverArtC2ENS1_6FormatERKNS_10ByteVectorE@Base 1.6.1
 _ZN6TagLib3MP48CoverArtC2ERKS1_@Base 1.6.1
 _ZN6TagLib3MP48CoverArtD1Ev@Base 1.6.1
 _ZN6TagLib3MP48CoverArtD2Ev@Base 1.6.1
 _ZN6TagLib3MP48CoverArtaSERKS1_@Base 1.6.1
 _ZN6TagLib3MPC10Properties7readSV7ERKNS_10ByteVectorE@Base 1.8
 _ZN6TagLib3MPC10Properties7readSV8EPNS0_4FileE@Base 1.8
 _ZN6TagLib3MPC10PropertiesC1EPNS0_4FileElNS_15AudioProperties9ReadStyleE@Base 1.8
 _ZN6TagLib3MPC10PropertiesC1ERKNS_10ByteVectorElNS_15AudioProperties9ReadStyleE@Base 1.4 1
 _ZN6TagLib3MPC10PropertiesC2EPNS0_4FileElNS_15AudioProperties9ReadStyleE@Base 1.8
 _ZN6TagLib3MPC10PropertiesC2ERKNS_10ByteVectorElNS_15AudioProperties9ReadStyleE@Base 1.4 1
 _ZN6TagLib3MPC10PropertiesD0Ev@Base 1.4 1
 _ZN6TagLib3MPC10PropertiesD1Ev@Base 1.4 1
 _ZN6TagLib3MPC10PropertiesD2Ev@Base 1.4 1
 _ZN6TagLib3MPC4File13setPropertiesERKNS_11PropertyMapE@Base 1.8
 _ZN6TagLib3MPC4File27removeUnsupportedPropertiesERKNS_10StringListE@Base 1.8
 _ZN6TagLib3MPC4File4readEbNS_15AudioProperties9ReadStyleE@Base 1.4 1
 _ZN6TagLib3MPC4File4saveEv@Base 1.4 1
 _ZN6TagLib3MPC4File5stripEi@Base 1.5
 _ZN6TagLib3MPC4File6APETagEb@Base 1.4 1
 _ZN6TagLib3MPC4File6removeEi@Base 1.4 1
 _ZN6TagLib3MPC4File7findAPEEv@Base 1.4 1
 _ZN6TagLib3MPC4File8ID3v1TagEb@Base 1.4 1
 _ZN6TagLib3MPC4File9findID3v1Ev@Base 1.4 1
 _ZN6TagLib3MPC4File9findID3v2Ev@Base 1.4 1
 _ZN6TagLib3MPC4FileC1EPKcbNS_15AudioProperties9ReadStyleE@Base 1.4 1
 _ZN6TagLib3MPC4FileC1EPNS_8IOStreamEbNS_15AudioProperties9ReadStyleE@Base 1.8
 _ZN6TagLib3MPC4FileC2EPKcbNS_15AudioProperties9ReadStyleE@Base 1.4 1
 _ZN6TagLib3MPC4FileC2EPNS_8IOStreamEbNS_15AudioProperties9ReadStyleE@Base 1.8
 _ZN6TagLib3MPC4FileD0Ev@Base 1.4 1
 _ZN6TagLib3MPC4FileD1Ev@Base 1.4 1
 _ZN6TagLib3MPC4FileD2Ev@Base 1.4 1
 _ZN6TagLib3Mod10Properties11setChannelsEi@Base 1.8
 _ZN6TagLib3Mod10Properties18setInstrumentCountEj@Base 1.8
 _ZN6TagLib3Mod10Properties19setLengthInPatternsEh@Base 1.8
 _ZN6TagLib3Mod10PropertiesC1ENS_15AudioProperties9ReadStyleE@Base 1.8
 _ZN6TagLib3Mod10PropertiesC2ENS_15AudioProperties9ReadStyleE@Base 1.8
 _ZN6TagLib3Mod10PropertiesD0Ev@Base 1.8
 _ZN6TagLib3Mod10PropertiesD1Ev@Base 1.8
 _ZN6TagLib3Mod10PropertiesD2Ev@Base 1.8
 _ZN6TagLib3Mod3Tag10setCommentERKNS_6StringE@Base 1.8
 _ZN6TagLib3Mod3Tag13setPropertiesERKNS_11PropertyMapE@Base 1.8
 _ZN6TagLib3Mod3Tag14setTrackerNameERKNS_6StringE@Base 1.8
 _ZN6TagLib3Mod3Tag7setYearEj@Base 1.8
 _ZN6TagLib3Mod3Tag8setAlbumERKNS_6StringE@Base 1.8
 _ZN6TagLib3Mod3Tag8setGenreERKNS_6StringE@Base 1.8
 _ZN6TagLib3Mod3Tag8setTitleERKNS_6StringE@Base 1.8
 _ZN6TagLib3Mod3Tag8setTrackEj@Base 1.8
 _ZN6TagLib3Mod3Tag9setArtistERKNS_6StringE@Base 1.8
 _ZN6TagLib3Mod3TagC1Ev@Base 1.8
 _ZN6TagLib3Mod3TagC2Ev@Base 1.8
 _ZN6TagLib3Mod3TagD0Ev@Base 1.8
 _ZN6TagLib3Mod3TagD1Ev@Base 1.8
 _ZN6TagLib3Mod3TagD2Ev@Base 1.8
 _ZN6TagLib3Mod4File13setPropertiesERKNS_11PropertyMapE@Base 1.8
 _ZN6TagLib3Mod4File4readEb@Base 1.8
 _ZN6TagLib3Mod4File4saveEv@Base 1.8
 _ZN6TagLib3Mod4FileC1EPKcbNS_15AudioProperties9ReadStyleE@Base 1.8
 _ZN6TagLib3Mod4FileC1EPNS_8IOStreamEbNS_15AudioProperties9ReadStyleE@Base 1.8
 _ZN6TagLib3Mod4FileC2EPKcbNS_15AudioProperties9ReadStyleE@Base 1.8
 _ZN6TagLib3Mod4FileC2EPNS_8IOStreamEbNS_15AudioProperties9ReadStyleE@Base 1.8
 _ZN6TagLib3Mod4FileD0Ev@Base 1.8
 _ZN6TagLib3Mod4FileD1Ev@Base 1.8
 _ZN6TagLib3Mod4FileD2Ev@Base 1.8
 _ZN6TagLib3Mod8FileBase10readStringERNS_6StringEm@Base 1.8
 _ZN6TagLib3Mod8FileBase11writeStringERKNS_6StringEmc@Base 1.8
 _ZN6TagLib3Mod8FileBase8readByteERh@Base 1.8
 _ZN6TagLib3Mod8FileBase8readU16BERt@Base 1.8
 _ZN6TagLib3Mod8FileBase8readU16LERt@Base 1.8
 _ZN6TagLib3Mod8FileBase8readU32BERm@Base 1.8
 _ZN6TagLib3Mod8FileBase8readU32LERm@Base 1.8
 _ZN6TagLib3Mod8FileBase9writeByteEh@Base 1.8
 _ZN6TagLib3Mod8FileBase9writeU16BEt@Base 1.8
 _ZN6TagLib3Mod8FileBase9writeU16LEt@Base 1.8
 _ZN6TagLib3Mod8FileBase9writeU32BEm@Base 1.8
 _ZN6TagLib3Mod8FileBase9writeU32LEm@Base 1.8
 _ZN6TagLib3Mod8FileBaseC1EPKc@Base 1.8
 _ZN6TagLib3Mod8FileBaseC1EPNS_8IOStreamE@Base 1.8
 _ZN6TagLib3Mod8FileBaseC2EPKc@Base 1.8
 _ZN6TagLib3Mod8FileBaseC2EPNS_8IOStreamE@Base 1.8
 _ZN6TagLib3Ogg10PageHeader14setPacketSizesERKNS_4ListIiEE@Base 1.4 1
 _ZN6TagLib3Ogg10PageHeader19setLastPageOfStreamEb@Base 1.4 1
 _ZN6TagLib3Ogg10PageHeader20setFirstPageOfStreamEb@Base 1.4 1
 _ZN6TagLib3Ogg10PageHeader21setPageSequenceNumberEi@Base 1.4 1
 _ZN6TagLib3Ogg10PageHeader21setStreamSerialNumberEj@Base 1.4 1
 _ZN6TagLib3Ogg10PageHeader22setLastPacketCompletedEb@Base 1.4 1
 _ZN6TagLib3Ogg10PageHeader23setFirstPacketContinuedEb@Base 1.4 1
 _ZN6TagLib3Ogg10PageHeader27setAbsoluteGranularPositionEx@Base 1.4 1
 _ZN6TagLib3Ogg10PageHeader4readEv@Base 1.4 1
 _ZN6TagLib3Ogg10PageHeaderC1EPNS0_4FileEl@Base 1.4 1
 _ZN6TagLib3Ogg10PageHeaderC2EPNS0_4FileEl@Base 1.4 1
 _ZN6TagLib3Ogg10PageHeaderD0Ev@Base 1.4 1
 _ZN6TagLib3Ogg10PageHeaderD1Ev@Base 1.4 1
 _ZN6TagLib3Ogg10PageHeaderD2Ev@Base 1.4 1
 _ZN6TagLib3Ogg11XiphComment10setCommentERKNS_6StringE@Base 1.4 1
 _ZN6TagLib3Ogg11XiphComment11removeFieldERKNS_6StringES4_@Base 1.4 1
 _ZN6TagLib3Ogg11XiphComment13setPropertiesERKNS_11PropertyMapE@Base 1.8
 _ZN6TagLib3Ogg11XiphComment5parseERKNS_10ByteVectorE@Base 1.4 1
 _ZN6TagLib3Ogg11XiphComment7setYearEj@Base 1.4 1
 _ZN6TagLib3Ogg11XiphComment8addFieldERKNS_6StringES4_b@Base 1.4 1
 _ZN6TagLib3Ogg11XiphComment8checkKeyERKNS_6StringE@Base 1.8
 _ZN6TagLib3Ogg11XiphComment8setAlbumERKNS_6StringE@Base 1.4 1
 _ZN6TagLib3Ogg11XiphComment8setGenreERKNS_6StringE@Base 1.4 1
 _ZN6TagLib3Ogg11XiphComment8setTitleERKNS_6StringE@Base 1.4 1
 _ZN6TagLib3Ogg11XiphComment8setTrackEj@Base 1.4 1
 _ZN6TagLib3Ogg11XiphComment9setArtistERKNS_6StringE@Base 1.4 1
 _ZN6TagLib3Ogg11XiphCommentC1ERKNS_10ByteVectorE@Base 1.4 1
 _ZN6TagLib3Ogg11XiphCommentC1Ev@Base 1.4 1
 _ZN6TagLib3Ogg11XiphCommentC2ERKNS_10ByteVectorE@Base 1.4 1
 _ZN6TagLib3Ogg11XiphCommentC2Ev@Base 1.4 1
 _ZN6TagLib3Ogg11XiphCommentD0Ev@Base 1.4 1
 _ZN6TagLib3Ogg11XiphCommentD1Ev@Base 1.4 1
 _ZN6TagLib3Ogg11XiphCommentD2Ev@Base 1.4 1
 _ZN6TagLib3Ogg4FLAC4File12streamLengthEv@Base 1.4 1
 _ZN6TagLib3Ogg4FLAC4File13setPropertiesERKNS_11PropertyMapE@Base 1.9.1
 _ZN6TagLib3Ogg4FLAC4File14streamInfoDataEv@Base 1.4 1
 _ZN6TagLib3Ogg4FLAC4File15xiphCommentDataEv@Base 1.4 1
 _ZN6TagLib3Ogg4FLAC4File4readEbNS_15AudioProperties9ReadStyleE@Base 1.4 1
 _ZN6TagLib3Ogg4FLAC4File4saveEv@Base 1.4 1
 _ZN6TagLib3Ogg4FLAC4File4scanEv@Base 1.4 1
 _ZN6TagLib3Ogg4FLAC4FileC1EPKcbNS_15AudioProperties9ReadStyleE@Base 1.4 1
 _ZN6TagLib3Ogg4FLAC4FileC1EPNS_8IOStreamEbNS_15AudioProperties9ReadStyleE@Base 1.8
 _ZN6TagLib3Ogg4FLAC4FileC2EPKcbNS_15AudioProperties9ReadStyleE@Base 1.4 1
 _ZN6TagLib3Ogg4FLAC4FileC2EPNS_8IOStreamEbNS_15AudioProperties9ReadStyleE@Base 1.8
 _ZN6TagLib3Ogg4FLAC4FileD0Ev@Base 1.4 1
 _ZN6TagLib3Ogg4FLAC4FileD1Ev@Base 1.4 1
 _ZN6TagLib3Ogg4FLAC4FileD2Ev@Base 1.4 1
 _ZN6TagLib3Ogg4File14lastPageHeaderEv@Base 1.4 1
 _ZN6TagLib3Ogg4File14writePageGroupERKNS_4ListIiEE@Base 1.4 1
 _ZN6TagLib3Ogg4File15firstPageHeaderEv@Base 1.4 1
 _ZN6TagLib3Ogg4File4saveEv@Base 1.4 1
 _ZN6TagLib3Ogg4File6packetEj@Base 1.4 1
 _ZN6TagLib3Ogg4File8nextPageEv@Base 1.4 1
 _ZN6TagLib3Ogg4File9setPacketEjRKNS_10ByteVectorE@Base 1.4 1
 _ZN6TagLib3Ogg4FileC1EPKc@Base 1.4 1
 _ZN6TagLib3Ogg4FileC1EPNS_8IOStreamE@Base 1.8
 _ZN6TagLib3Ogg4FileC2EPKc@Base 1.4 1
 _ZN6TagLib3Ogg4FileC2EPNS_8IOStreamE@Base 1.8
 _ZN6TagLib3Ogg4FileD0Ev@Base 1.4 1
 _ZN6TagLib3Ogg4FileD1Ev@Base 1.4 1
 _ZN6TagLib3Ogg4FileD2Ev@Base 1.4 1
 _ZN6TagLib3Ogg4Opus10Properties4readEv@Base 1.9.1
 _ZN6TagLib3Ogg4Opus10PropertiesC1EPNS1_4FileENS_15AudioProperties9ReadStyleE@Base 1.9.1
 _ZN6TagLib3Ogg4Opus10PropertiesC2EPNS1_4FileENS_15AudioProperties9ReadStyleE@Base 1.9.1
 _ZN6TagLib3Ogg4Opus10PropertiesD0Ev@Base 1.9.1
 _ZN6TagLib3Ogg4Opus10PropertiesD1Ev@Base 1.9.1
 _ZN6TagLib3Ogg4Opus10PropertiesD2Ev@Base 1.9.1
 _ZN6TagLib3Ogg4Opus4File13setPropertiesERKNS_11PropertyMapE@Base 1.9.1
 _ZN6TagLib3Ogg4Opus4File4readEbNS_15AudioProperties9ReadStyleE@Base 1.9.1
 _ZN6TagLib3Ogg4Opus4File4saveEv@Base 1.9.1
 _ZN6TagLib3Ogg4Opus4FileC1EPKcbNS_15AudioProperties9ReadStyleE@Base 1.9.1
 _ZN6TagLib3Ogg4Opus4FileC1EPNS_8IOStreamEbNS_15AudioProperties9ReadStyleE@Base 1.9.1
 _ZN6TagLib3Ogg4Opus4FileC2EPKcbNS_15AudioProperties9ReadStyleE@Base 1.9.1
 _ZN6TagLib3Ogg4Opus4FileC2EPNS_8IOStreamEbNS_15AudioProperties9ReadStyleE@Base 1.9.1
 _ZN6TagLib3Ogg4Opus4FileD0Ev@Base 1.9.1
 _ZN6TagLib3Ogg4Opus4FileD1Ev@Base 1.9.1
 _ZN6TagLib3Ogg4Opus4FileD2Ev@Base 1.9.1
 _ZN6TagLib3Ogg4Page19setFirstPacketIndexEi@Base 1.4 1
 _ZN6TagLib3Ogg4Page32getCopyWithNewPageSequenceNumberEi@Base 1.6
 _ZN6TagLib3Ogg4Page8paginateERKNS_14ByteVectorListENS1_18PaginationStrategyEjibbb@Base 1.4 1
 _ZN6TagLib3Ogg4PageC1EPNS0_4FileEl@Base 1.4 1
 _ZN6TagLib3Ogg4PageC1ERKNS_14ByteVectorListEjibbb@Base 1.4 1
 _ZN6TagLib3Ogg4PageC2EPNS0_4FileEl@Base 1.4 1
 _ZN6TagLib3Ogg4PageC2ERKNS_14ByteVectorListEjibbb@Base 1.4 1
 _ZN6TagLib3Ogg4PageD0Ev@Base 1.4 1
 _ZN6TagLib3Ogg4PageD1Ev@Base 1.4 1
 _ZN6TagLib3Ogg4PageD2Ev@Base 1.4 1
 _ZN6TagLib3Ogg5Speex10Properties4readEv@Base 1.5
 _ZN6TagLib3Ogg5Speex10PropertiesC1EPNS1_4FileENS_15AudioProperties9ReadStyleE@Base 1.5
 _ZN6TagLib3Ogg5Speex10PropertiesC2EPNS1_4FileENS_15AudioProperties9ReadStyleE@Base 1.5
 _ZN6TagLib3Ogg5Speex10PropertiesD0Ev@Base 1.5
 _ZN6TagLib3Ogg5Speex10PropertiesD1Ev@Base 1.5
 _ZN6TagLib3Ogg5Speex10PropertiesD2Ev@Base 1.5
 _ZN6TagLib3Ogg5Speex4File13setPropertiesERKNS_11PropertyMapE@Base 1.9.1
 _ZN6TagLib3Ogg5Speex4File4readEbNS_15AudioProperties9ReadStyleE@Base 1.5
 _ZN6TagLib3Ogg5Speex4File4saveEv@Base 1.5
 _ZN6TagLib3Ogg5Speex4FileC1EPKcbNS_15AudioProperties9ReadStyleE@Base 1.5
 _ZN6TagLib3Ogg5Speex4FileC1EPNS_8IOStreamEbNS_15AudioProperties9ReadStyleE@Base 1.8
 _ZN6TagLib3Ogg5Speex4FileC2EPKcbNS_15AudioProperties9ReadStyleE@Base 1.5
 _ZN6TagLib3Ogg5Speex4FileC2EPNS_8IOStreamEbNS_15AudioProperties9ReadStyleE@Base 1.8
 _ZN6TagLib3Ogg5Speex4FileD0Ev@Base 1.5
 _ZN6TagLib3Ogg5Speex4FileD1Ev@Base 1.5
 _ZN6TagLib3Ogg5Speex4FileD2Ev@Base 1.5
 _ZN6TagLib3S3M10Properties11setBpmSpeedEh@Base 1.8
 _ZN6TagLib3S3M10Properties11setChannelsEi@Base 1.8
 _ZN6TagLib3S3M10Properties14setSampleCountEt@Base 1.8
 _ZN6TagLib3S3M10Properties15setGlobalVolumeEh@Base 1.8
 _ZN6TagLib3S3M10Properties15setMasterVolumeEh@Base 1.8
 _ZN6TagLib3S3M10Properties15setPatternCountEt@Base 1.8
 _ZN6TagLib3S3M10Properties17setTrackerVersionEt@Base 1.8
 _ZN6TagLib3S3M10Properties19setLengthInPatternsEt@Base 1.8
 _ZN6TagLib3S3M10Properties20setFileFormatVersionEt@Base 1.8
 _ZN6TagLib3S3M10Properties8setFlagsEt@Base 1.8
 _ZN6TagLib3S3M10Properties8setTempoEh@Base 1.8
 _ZN6TagLib3S3M10Properties9setStereoEb@Base 1.8
 _ZN6TagLib3S3M10PropertiesC1ENS_15AudioProperties9ReadStyleE@Base 1.8
 _ZN6TagLib3S3M10PropertiesC2ENS_15AudioProperties9ReadStyleE@Base 1.8
 _ZN6TagLib3S3M10PropertiesD0Ev@Base 1.8
 _ZN6TagLib3S3M10PropertiesD1Ev@Base 1.8
 _ZN6TagLib3S3M10PropertiesD2Ev@Base 1.8
 _ZN6TagLib3S3M4File13setPropertiesERKNS_11PropertyMapE@Base 1.8
 _ZN6TagLib3S3M4File4readEb@Base 1.8
 _ZN6TagLib3S3M4File4saveEv@Base 1.8
 _ZN6TagLib3S3M4FileC1EPKcbNS_15AudioProperties9ReadStyleE@Base 1.8
 _ZN6TagLib3S3M4FileC1EPNS_8IOStreamEbNS_15AudioProperties9ReadStyleE@Base 1.8
 _ZN6TagLib3S3M4FileC2EPKcbNS_15AudioProperties9ReadStyleE@Base 1.8
 _ZN6TagLib3S3M4FileC2EPNS_8IOStreamEbNS_15AudioProperties9ReadStyleE@Base 1.8
 _ZN6TagLib3S3M4FileD0Ev@Base 1.8
 _ZN6TagLib3S3M4FileD1Ev@Base 1.8
 _ZN6TagLib3S3M4FileD2Ev@Base 1.8
 _ZN6TagLib3Tag13setPropertiesERKNS_11PropertyMapE@Base 1.8
 _ZN6TagLib3Tag27removeUnsupportedPropertiesERKNS_10StringListE@Base 1.8
 _ZN6TagLib3Tag9duplicateEPKS0_PS0_b@Base 1.4 1
 _ZN6TagLib3TagC1Ev@Base 1.4 1
 _ZN6TagLib3TagC2Ev@Base 1.4 1
 _ZN6TagLib3TagD0Ev@Base 1.4 1
 _ZN6TagLib3TagD1Ev@Base 1.4 1
 _ZN6TagLib3TagD2Ev@Base 1.4 1
 _ZN6TagLib4FLAC10Properties4readEv@Base 1.4 1
 _ZN6TagLib4FLAC10PropertiesC1ENS_10ByteVectorElNS_15AudioProperties9ReadStyleE@Base 1.4 1
 _ZN6TagLib4FLAC10PropertiesC1EPNS0_4FileENS_15AudioProperties9ReadStyleE@Base 1.4 1
 _ZN6TagLib4FLAC10PropertiesC2ENS_10ByteVectorElNS_15AudioProperties9ReadStyleE@Base 1.4 1
 _ZN6TagLib4FLAC10PropertiesC2EPNS0_4FileENS_15AudioProperties9ReadStyleE@Base 1.4 1
 _ZN6TagLib4FLAC10PropertiesD0Ev@Base 1.4 1
 _ZN6TagLib4FLAC10PropertiesD1Ev@Base 1.4 1
 _ZN6TagLib4FLAC10PropertiesD2Ev@Base 1.4 1
 _ZN6TagLib4FLAC13MetadataBlockC1Ev@Base 1.7
 _ZN6TagLib4FLAC13MetadataBlockC2Ev@Base 1.7
 _ZN6TagLib4FLAC13MetadataBlockD0Ev@Base 1.7
 _ZN6TagLib4FLAC13MetadataBlockD1Ev@Base 1.7
 _ZN6TagLib4FLAC13MetadataBlockD2Ev@Base 1.7
 _ZN6TagLib4FLAC20UnknownMetadataBlock7setCodeEi@Base 1.7
 _ZN6TagLib4FLAC20UnknownMetadataBlock7setDataERKNS_10ByteVectorE@Base 1.7
 _ZN6TagLib4FLAC20UnknownMetadataBlockC1EiRKNS_10ByteVectorE@Base 1.7
 _ZN6TagLib4FLAC20UnknownMetadataBlockC2EiRKNS_10ByteVectorE@Base 1.7
 _ZN6TagLib4FLAC20UnknownMetadataBlockD0Ev@Base 1.7
 _ZN6TagLib4FLAC20UnknownMetadataBlockD1Ev@Base 1.7
 _ZN6TagLib4FLAC20UnknownMetadataBlockD2Ev@Base 1.7
 _ZN6TagLib4FLAC4File10addPictureEPNS0_7PictureE@Base 1.7
 _ZN6TagLib4FLAC4File11pictureListEv@Base 1.7
 _ZN6TagLib4FLAC4File11xiphCommentEb@Base 1.4 1
 _ZN6TagLib4FLAC4File12streamLengthEv@Base 1.4 1
 _ZN6TagLib4FLAC4File13removePictureEPNS0_7PictureEb@Base 1.8
 _ZN6TagLib4FLAC4File13setPropertiesERKNS_11PropertyMapE@Base 1.8
 _ZN6TagLib4FLAC4File14removePicturesEv@Base 1.7
 _ZN6TagLib4FLAC4File14streamInfoDataEv@Base 1.4 1
 _ZN6TagLib4FLAC4File20setID3v2FrameFactoryEPKNS_5ID3v212FrameFactoryE@Base 1.4 1
 _ZN6TagLib4FLAC4File27removeUnsupportedPropertiesERKNS_10StringListE@Base 1.8
 _ZN6TagLib4FLAC4File4readEbNS_15AudioProperties9ReadStyleE@Base 1.4 1
 _ZN6TagLib4FLAC4File4saveEv@Base 1.4 1
 _ZN6TagLib4FLAC4File4scanEv@Base 1.4 1
 _ZN6TagLib4FLAC4File8ID3v1TagEb@Base 1.4 1
 _ZN6TagLib4FLAC4File8ID3v2TagEb@Base 1.4 1
 _ZN6TagLib4FLAC4File9findID3v1Ev@Base 1.4 1
 _ZN6TagLib4FLAC4File9findID3v2Ev@Base 1.4 1
 _ZN6TagLib4FLAC4FileC1EPKcPNS_5ID3v212FrameFactoryEbNS_15AudioProperties9ReadStyleE@Base 1.4 1
 _ZN6TagLib4FLAC4FileC1EPKcbNS_15AudioProperties9ReadStyleE@Base 1.4 1
 _ZN6TagLib4FLAC4FileC1EPNS_8IOStreamEPNS_5ID3v212FrameFactoryEbNS_15AudioProperties9ReadStyleE@Base 1.8
 _ZN6TagLib4FLAC4FileC2EPKcPNS_5ID3v212FrameFactoryEbNS_15AudioProperties9ReadStyleE@Base 1.4 1
 _ZN6TagLib4FLAC4FileC2EPKcbNS_15AudioProperties9ReadStyleE@Base 1.4 1
 _ZN6TagLib4FLAC4FileC2EPNS_8IOStreamEPNS_5ID3v212FrameFactoryEbNS_15AudioProperties9ReadStyleE@Base 1.8
 _ZN6TagLib4FLAC4FileD0Ev@Base 1.4 1
 _ZN6TagLib4FLAC4FileD1Ev@Base 1.4 1
 _ZN6TagLib4FLAC4FileD2Ev@Base 1.4 1
 _ZN6TagLib4FLAC7Picture11setMimeTypeERKNS_6StringE@Base 1.7
 _ZN6TagLib4FLAC7Picture12setNumColorsEi@Base 1.7
 _ZN6TagLib4FLAC7Picture13setColorDepthEi@Base 1.7
 _ZN6TagLib4FLAC7Picture14setDescriptionERKNS_6StringE@Base 1.7
 _ZN6TagLib4FLAC7Picture5parseERKNS_10ByteVectorE@Base 1.7
 _ZN6TagLib4FLAC7Picture7setDataERKNS_10ByteVectorE@Base 1.7
 _ZN6TagLib4FLAC7Picture7setTypeENS1_4TypeE@Base 1.7
 _ZN6TagLib4FLAC7Picture8setWidthEi@Base 1.7
 _ZN6TagLib4FLAC7Picture9setHeightEi@Base 1.7
 _ZN6TagLib4FLAC7PictureC1ERKNS_10ByteVectorE@Base 1.7
 _ZN6TagLib4FLAC7PictureC1Ev@Base 1.7
 _ZN6TagLib4FLAC7PictureC2ERKNS_10ByteVectorE@Base 1.7
 _ZN6TagLib4FLAC7PictureC2Ev@Base 1.7
 _ZN6TagLib4FLAC7PictureD0Ev@Base 1.7
 _ZN6TagLib4FLAC7PictureD1Ev@Base 1.7
 _ZN6TagLib4FLAC7PictureD2Ev@Base 1.7
 _ZN6TagLib4File10bufferSizeEv@Base 1.4 1
 _ZN6TagLib4File10isReadableEPKc@Base 1.4 1
 _ZN6TagLib4File10isWritableEPKc@Base 1.4 1
 _ZN6TagLib4File10writeBlockERKNS_10ByteVectorE@Base 1.4 1
 _ZN6TagLib4File11FilePrivateC1EPNS_8IOStreamEb@Base 1.8
 _ZN6TagLib4File11FilePrivateC2EPNS_8IOStreamEb@Base 1.8
 _ZN6TagLib4File11removeBlockEmm@Base 1.4 1
 _ZN6TagLib4File13setPropertiesERKNS_11PropertyMapE@Base 1.8
 _ZN6TagLib4File27removeUnsupportedPropertiesERKNS_10StringListE@Base 1.8
 _ZN6TagLib4File4findERKNS_10ByteVectorElS3_@Base 1.4 1
 _ZN6TagLib4File4seekElNS0_8PositionE@Base 1.4 1
 _ZN6TagLib4File5clearEv@Base 1.4 1
 _ZN6TagLib4File5rfindERKNS_10ByteVectorElS3_@Base 1.4 1
 _ZN6TagLib4File6insertERKNS_10ByteVectorEmm@Base 1.4 1
 _ZN6TagLib4File6lengthEv@Base 1.4 1
 _ZN6TagLib4File8setValidEb@Base 1.4 1
 _ZN6TagLib4File8truncateEl@Base 1.4 1
 _ZN6TagLib4File9readBlockEm@Base 1.4 1
 _ZN6TagLib4FileC1EPKc@Base 1.4 1
 _ZN6TagLib4FileC1EPNS_8IOStreamE@Base 1.8
 _ZN6TagLib4FileC2EPKc@Base 1.4 1
 _ZN6TagLib4FileC2EPNS_8IOStreamE@Base 1.8
 _ZN6TagLib4FileD0Ev@Base 1.4 1
 _ZN6TagLib4FileD1Ev@Base 1.4 1
 _ZN6TagLib4FileD2Ev@Base 1.4 1
 _ZN6TagLib4MPEG10Properties4readEv@Base 1.4 1
 _ZN6TagLib4MPEG10PropertiesC1EPNS0_4FileENS_15AudioProperties9ReadStyleE@Base 1.4 1
 _ZN6TagLib4MPEG10PropertiesC2EPNS0_4FileENS_15AudioProperties9ReadStyleE@Base 1.4 1
 _ZN6TagLib4MPEG10PropertiesD0Ev@Base 1.4 1
 _ZN6TagLib4MPEG10PropertiesD1Ev@Base 1.4 1
 _ZN6TagLib4MPEG10PropertiesD2Ev@Base 1.4 1
 _ZN6TagLib4MPEG10XingHeader16xingHeaderOffsetENS0_6Header7VersionENS2_11ChannelModeE@Base 1.4 1
 _ZN6TagLib4MPEG10XingHeader5parseERKNS_10ByteVectorE@Base 1.4 1
 _ZN6TagLib4MPEG10XingHeaderC1ERKNS_10ByteVectorE@Base 1.4 1
 _ZN6TagLib4MPEG10XingHeaderC2ERKNS_10ByteVectorE@Base 1.4 1
 _ZN6TagLib4MPEG10XingHeaderD0Ev@Base 1.4 1
 _ZN6TagLib4MPEG10XingHeaderD1Ev@Base 1.4 1
 _ZN6TagLib4MPEG10XingHeaderD2Ev@Base 1.4 1
 _ZN6TagLib4MPEG4File13setPropertiesERKNS_11PropertyMapE@Base 1.8
 _ZN6TagLib4MPEG4File15lastFrameOffsetEv@Base 1.4 1
 _ZN6TagLib4MPEG4File15nextFrameOffsetEl@Base 1.4 1
 _ZN6TagLib4MPEG4File15secondSynchByteEc@Base 1.4 1
 _ZN6TagLib4MPEG4File16firstFrameOffsetEv@Base 1.4 1
 _ZN6TagLib4MPEG4File19previousFrameOffsetEl@Base 1.4 1
 _ZN6TagLib4MPEG4File20setID3v2FrameFactoryEPKNS_5ID3v212FrameFactoryE@Base 1.4 1
 _ZN6TagLib4MPEG4File27removeUnsupportedPropertiesERKNS_10StringListE@Base 1.8
 _ZN6TagLib4MPEG4File4readEbNS_15AudioProperties9ReadStyleE@Base 1.4 1
 _ZN6TagLib4MPEG4File4saveEi@Base 1.4 1
 _ZN6TagLib4MPEG4File4saveEib@Base 1.4 1
 _ZN6TagLib4MPEG4File4saveEibi@Base 1.8
 _ZN6TagLib4MPEG4File4saveEibib@Base 1.9.1
 _ZN6TagLib4MPEG4File4saveEv@Base 1.4 1
 _ZN6TagLib4MPEG4File5stripEi@Base 1.4 1
 _ZN6TagLib4MPEG4File5stripEib@Base 1.4 1
 _ZN6TagLib4MPEG4File6APETagEb@Base 1.4 1
 _ZN6TagLib4MPEG4File7findAPEEv@Base 1.4 1
 _ZN6TagLib4MPEG4File8ID3v1TagEb@Base 1.4 1
 _ZN6TagLib4MPEG4File8ID3v2TagEb@Base 1.4 1
 _ZN6TagLib4MPEG4File9findID3v1Ev@Base 1.4 1
 _ZN6TagLib4MPEG4File9findID3v2Ev@Base 1.4 1
 _ZN6TagLib4MPEG4FileC1EPKcPNS_5ID3v212FrameFactoryEbNS_15AudioProperties9ReadStyleE@Base 1.4 1
 _ZN6TagLib4MPEG4FileC1EPKcbNS_15AudioProperties9ReadStyleE@Base 1.4 1
 _ZN6TagLib4MPEG4FileC1EPNS_8IOStreamEPNS_5ID3v212FrameFactoryEbNS_15AudioProperties9ReadStyleE@Base 1.8
 _ZN6TagLib4MPEG4FileC2EPKcPNS_5ID3v212FrameFactoryEbNS_15AudioProperties9ReadStyleE@Base 1.4 1
 _ZN6TagLib4MPEG4FileC2EPKcbNS_15AudioProperties9ReadStyleE@Base 1.4 1
 _ZN6TagLib4MPEG4FileC2EPNS_8IOStreamEPNS_5ID3v212FrameFactoryEbNS_15AudioProperties9ReadStyleE@Base 1.8
 _ZN6TagLib4MPEG4FileD0Ev@Base 1.4 1
 _ZN6TagLib4MPEG4FileD1Ev@Base 1.4 1
 _ZN6TagLib4MPEG4FileD2Ev@Base 1.4 1
 _ZN6TagLib4MPEG6Header13HeaderPrivateD0Ev@Base 1.9.1
 _ZN6TagLib4MPEG6Header13HeaderPrivateD1Ev@Base 1.9.1
 _ZN6TagLib4MPEG6Header13HeaderPrivateD2Ev@Base 1.9.1
 _ZN6TagLib4MPEG6Header5parseERKNS_10ByteVectorE@Base 1.4 1
 _ZN6TagLib4MPEG6HeaderC1ERKNS_10ByteVectorE@Base 1.4 1
 _ZN6TagLib4MPEG6HeaderC1ERKS1_@Base 1.4 1
 _ZN6TagLib4MPEG6HeaderC2ERKNS_10ByteVectorE@Base 1.4 1
 _ZN6TagLib4MPEG6HeaderC2ERKS1_@Base 1.4 1
 _ZN6TagLib4MPEG6HeaderD0Ev@Base 1.4 1
 _ZN6TagLib4MPEG6HeaderD1Ev@Base 1.4 1
 _ZN6TagLib4MPEG6HeaderD2Ev@Base 1.4 1
 _ZN6TagLib4MPEG6HeaderaSERKS1_@Base 1.4 1
 _ZN6TagLib4RIFF3WAV10Properties4readERKNS_10ByteVectorE@Base 1.6
 _ZN6TagLib4RIFF3WAV10PropertiesC1ERKNS_10ByteVectorENS_15AudioProperties9ReadStyleE@Base 1.6
 _ZN6TagLib4RIFF3WAV10PropertiesC1ERKNS_10ByteVectorEjNS_15AudioProperties9ReadStyleE@Base 1.7
 _ZN6TagLib4RIFF3WAV10PropertiesC2ERKNS_10ByteVectorENS_15AudioProperties9ReadStyleE@Base 1.6
 _ZN6TagLib4RIFF3WAV10PropertiesC2ERKNS_10ByteVectorEjNS_15AudioProperties9ReadStyleE@Base 1.7
 _ZN6TagLib4RIFF3WAV10PropertiesD0Ev@Base 1.6
 _ZN6TagLib4RIFF3WAV10PropertiesD1Ev@Base 1.6
 _ZN6TagLib4RIFF3WAV10PropertiesD2Ev@Base 1.6
 _ZN6TagLib4RIFF3WAV4File13setPropertiesERKNS_11PropertyMapE@Base 1.8
 _ZN6TagLib4RIFF3WAV4File16findInfoTagChunkEv@Base 1.9.1
 _ZN6TagLib4RIFF3WAV4File27removeUnsupportedPropertiesERKNS_10StringListE@Base 1.9.1
 _ZN6TagLib4RIFF3WAV4File4readEbNS_15AudioProperties9ReadStyleE@Base 1.6
 _ZN6TagLib4RIFF3WAV4File4saveENS2_8TagTypesEbi@Base 1.9.1
 _ZN6TagLib4RIFF3WAV4File4saveEv@Base 1.6
 _ZN6TagLib4RIFF3WAV4File5stripENS2_8TagTypesE@Base 1.9.1
 _ZN6TagLib4RIFF3WAV4FileC1EPKcbNS_15AudioProperties9ReadStyleE@Base 1.6
 _ZN6TagLib4RIFF3WAV4FileC1EPNS_8IOStreamEbNS_15AudioProperties9ReadStyleE@Base 1.8
 _ZN6TagLib4RIFF3WAV4FileC2EPKcbNS_15AudioProperties9ReadStyleE@Base 1.6
 _ZN6TagLib4RIFF3WAV4FileC2EPNS_8IOStreamEbNS_15AudioProperties9ReadStyleE@Base 1.8
 _ZN6TagLib4RIFF3WAV4FileD0Ev@Base 1.6
 _ZN6TagLib4RIFF3WAV4FileD1Ev@Base 1.6
 _ZN6TagLib4RIFF3WAV4FileD2Ev@Base 1.6
 _ZN6TagLib4RIFF4AIFF10Properties4readERKNS_10ByteVectorE@Base 1.6
 _ZN6TagLib4RIFF4AIFF10PropertiesC1ERKNS_10ByteVectorENS_15AudioProperties9ReadStyleE@Base 1.6
 _ZN6TagLib4RIFF4AIFF10PropertiesC2ERKNS_10ByteVectorENS_15AudioProperties9ReadStyleE@Base 1.6
 _ZN6TagLib4RIFF4AIFF10PropertiesD0Ev@Base 1.6
 _ZN6TagLib4RIFF4AIFF10PropertiesD1Ev@Base 1.6
 _ZN6TagLib4RIFF4AIFF10PropertiesD2Ev@Base 1.6
 _ZN6TagLib4RIFF4AIFF4File13setPropertiesERKNS_11PropertyMapE@Base 1.8
 _ZN6TagLib4RIFF4AIFF4File27removeUnsupportedPropertiesERKNS_10StringListE@Base 1.9.1
 _ZN6TagLib4RIFF4AIFF4File4readEbNS_15AudioProperties9ReadStyleE@Base 1.6
 _ZN6TagLib4RIFF4AIFF4File4saveEv@Base 1.6
 _ZN6TagLib4RIFF4AIFF4FileC1EPKcbNS_15AudioProperties9ReadStyleE@Base 1.6
 _ZN6TagLib4RIFF4AIFF4FileC1EPNS_8IOStreamEbNS_15AudioProperties9ReadStyleE@Base 1.8
 _ZN6TagLib4RIFF4AIFF4FileC2EPKcbNS_15AudioProperties9ReadStyleE@Base 1.6
 _ZN6TagLib4RIFF4AIFF4FileC2EPNS_8IOStreamEbNS_15AudioProperties9ReadStyleE@Base 1.8
 _ZN6TagLib4RIFF4AIFF4FileD0Ev@Base 1.6
 _ZN6TagLib4RIFF4AIFF4FileD1Ev@Base 1.6
 _ZN6TagLib4RIFF4AIFF4FileD2Ev@Base 1.6
 _ZN6TagLib4RIFF4File10writeChunkERKNS_10ByteVectorES4_mmj@Base 1.7
 _ZN6TagLib4RIFF4File11removeChunkERKNS_10ByteVectorE@Base 1.9.1
 _ZN6TagLib4RIFF4File11removeChunkEj@Base 1.9.1
 _ZN6TagLib4RIFF4File12setChunkDataERKNS_10ByteVectorES4_@Base 1.6
 _ZN6TagLib4RIFF4File12setChunkDataERKNS_10ByteVectorES4_b@Base 1.9.1
 _ZN6TagLib4RIFF4File12setChunkDataEjRKNS_10ByteVectorE@Base 1.9.1
 _ZN6TagLib4RIFF4File4readEv@Base 1.6
 _ZN6TagLib4RIFF4File9chunkDataEj@Base 1.6
 _ZN6TagLib4RIFF4FileC1EPKcNS1_10EndiannessE@Base 1.6
 _ZN6TagLib4RIFF4FileC1EPNS_8IOStreamENS1_10EndiannessE@Base 1.8
 _ZN6TagLib4RIFF4FileC2EPKcNS1_10EndiannessE@Base 1.6
 _ZN6TagLib4RIFF4FileC2EPNS_8IOStreamENS1_10EndiannessE@Base 1.8
 _ZN6TagLib4RIFF4FileD0Ev@Base 1.6
 _ZN6TagLib4RIFF4FileD1Ev@Base 1.6
 _ZN6TagLib4RIFF4FileD2Ev@Base 1.6
 _ZN6TagLib4RIFF4Info13StringHandlerC1Ev@Base 1.9.1
 _ZN6TagLib4RIFF4Info13StringHandlerC2Ev@Base 1.9.1
 _ZN6TagLib4RIFF4Info13StringHandlerD1Ev@Base 1.9.1
 _ZN6TagLib4RIFF4Info13StringHandlerD2Ev@Base 1.9.1
 _ZN6TagLib4RIFF4Info3Tag10TagPrivate13stringHandlerE@Base 1.9.1
 _ZN6TagLib4RIFF4Info3Tag10setCommentERKNS_6StringE@Base 1.9.1
 _ZN6TagLib4RIFF4Info3Tag11removeFieldERKNS_10ByteVectorE@Base 1.9.1
 _ZN6TagLib4RIFF4Info3Tag12setFieldTextERKNS_10ByteVectorERKNS_6StringE@Base 1.9.1
 _ZN6TagLib4RIFF4Info3Tag16setStringHandlerEPKNS1_13StringHandlerE@Base 1.9.1
 _ZN6TagLib4RIFF4Info3Tag5parseERKNS_10ByteVectorE@Base 1.9.1
 _ZN6TagLib4RIFF4Info3Tag7setYearEj@Base 1.9.1
 _ZN6TagLib4RIFF4Info3Tag8setAlbumERKNS_6StringE@Base 1.9.1
 _ZN6TagLib4RIFF4Info3Tag8setGenreERKNS_6StringE@Base 1.9.1
 _ZN6TagLib4RIFF4Info3Tag8setTitleERKNS_6StringE@Base 1.9.1
 _ZN6TagLib4RIFF4Info3Tag8setTrackEj@Base 1.9.1
 _ZN6TagLib4RIFF4Info3Tag9setArtistERKNS_6StringE@Base 1.9.1
 _ZN6TagLib4RIFF4Info3TagC1ERKNS_10ByteVectorE@Base 1.9.1
 _ZN6TagLib4RIFF4Info3TagC1Ev@Base 1.9.1
 _ZN6TagLib4RIFF4Info3TagC2ERKNS_10ByteVectorE@Base 1.9.1
 _ZN6TagLib4RIFF4Info3TagC2Ev@Base 1.9.1
 _ZN6TagLib4RIFF4Info3TagD0Ev@Base 1.9.1
 _ZN6TagLib4RIFF4Info3TagD1Ev@Base 1.9.1
 _ZN6TagLib4RIFF4Info3TagD2Ev@Base 1.9.1
 _ZN6TagLib5ID3v110genreIndexERKNS_6StringE@Base 1.4 1
 _ZN6TagLib5ID3v113StringHandlerC1Ev@Base 1.8
 _ZN6TagLib5ID3v113StringHandlerC2Ev@Base 1.8
 _ZN6TagLib5ID3v13Tag10TagPrivate13stringHandlerE@Base 1.4 1
 _ZN6TagLib5ID3v13Tag10setCommentERKNS_6StringE@Base 1.4 1
 _ZN6TagLib5ID3v13Tag14fileIdentifierEv@Base 1.4 1
 _ZN6TagLib5ID3v13Tag14setGenreNumberEj@Base 1.9.1
 _ZN6TagLib5ID3v13Tag16setStringHandlerEPKNS0_13StringHandlerE@Base 1.4 1
 _ZN6TagLib5ID3v13Tag4readEv@Base 1.4 1
 _ZN6TagLib5ID3v13Tag5parseERKNS_10ByteVectorE@Base 1.4 1
 _ZN6TagLib5ID3v13Tag7setYearEj@Base 1.4 1
 _ZN6TagLib5ID3v13Tag8setAlbumERKNS_6StringE@Base 1.4 1
 _ZN6TagLib5ID3v13Tag8setGenreERKNS_6StringE@Base 1.4 1
 _ZN6TagLib5ID3v13Tag8setTitleERKNS_6StringE@Base 1.4 1
 _ZN6TagLib5ID3v13Tag8setTrackEj@Base 1.4 1
 _ZN6TagLib5ID3v13Tag9setArtistERKNS_6StringE@Base 1.4 1
 _ZN6TagLib5ID3v13TagC1EPNS_4FileEl@Base 1.4 1
 _ZN6TagLib5ID3v13TagC1Ev@Base 1.4 1
 _ZN6TagLib5ID3v13TagC2EPNS_4FileEl@Base 1.4 1
 _ZN6TagLib5ID3v13TagC2Ev@Base 1.4 1
 _ZN6TagLib5ID3v13TagD0Ev@Base 1.4 1
 _ZN6TagLib5ID3v13TagD1Ev@Base 1.4 1
 _ZN6TagLib5ID3v13TagD2Ev@Base 1.4 1
 _ZN6TagLib5ID3v15genreEi@Base 1.4 1
 _ZN6TagLib5ID3v18genreMapEv@Base 1.4 1
 _ZN6TagLib5ID3v19genreListEv@Base 1.4 1
 _ZN6TagLib5ID3v212FrameFactory22setDefaultTextEncodingENS_6String4TypeE@Base 1.4 1
 _ZN6TagLib5ID3v212FrameFactory7factoryE@Base 1.4 1
 _ZN6TagLib5ID3v212FrameFactory8instanceEv@Base 1.4 1
 _ZN6TagLib5ID3v212FrameFactoryC1Ev@Base 1.4 1
 _ZN6TagLib5ID3v212FrameFactoryC2Ev@Base 1.4 1
 _ZN6TagLib5ID3v212FrameFactoryD0Ev@Base 1.4 1
 _ZN6TagLib5ID3v212FrameFactoryD1Ev@Base 1.4 1
 _ZN6TagLib5ID3v212FrameFactoryD2Ev@Base 1.4 1
 _ZN6TagLib5ID3v212PrivateFrame11parseFieldsERKNS_10ByteVectorE@Base 1.6
 _ZN6TagLib5ID3v212PrivateFrame7setDataERKNS_10ByteVectorE@Base 1.6
 _ZN6TagLib5ID3v212PrivateFrame8setOwnerERKNS_6StringE@Base 1.6
 _ZN6TagLib5ID3v212PrivateFrameC1ERKNS_10ByteVectorE@Base 1.6
 _ZN6TagLib5ID3v212PrivateFrameC1ERKNS_10ByteVectorEPNS0_5Frame6HeaderE@Base 1.6
 _ZN6TagLib5ID3v212PrivateFrameC1Ev@Base 1.6
 _ZN6TagLib5ID3v212PrivateFrameC2ERKNS_10ByteVectorE@Base 1.6
 _ZN6TagLib5ID3v212PrivateFrameC2ERKNS_10ByteVectorEPNS0_5Frame6HeaderE@Base 1.6
 _ZN6TagLib5ID3v212PrivateFrameC2Ev@Base 1.6
 _ZN6TagLib5ID3v212PrivateFrameD0Ev@Base 1.6
 _ZN6TagLib5ID3v212PrivateFrameD1Ev@Base 1.6
 _ZN6TagLib5ID3v212PrivateFrameD2Ev@Base 1.6
 _ZN6TagLib5ID3v212UnknownFrame11parseFieldsERKNS_10ByteVectorE@Base 1.4 1
 _ZN6TagLib5ID3v212UnknownFrameC1ERKNS_10ByteVectorE@Base 1.4 1
 _ZN6TagLib5ID3v212UnknownFrameC1ERKNS_10ByteVectorEPNS0_5Frame6HeaderE@Base 1.4 1
 _ZN6TagLib5ID3v212UnknownFrameC2ERKNS_10ByteVectorE@Base 1.4 1
 _ZN6TagLib5ID3v212UnknownFrameC2ERKNS_10ByteVectorEPNS0_5Frame6HeaderE@Base 1.4 1
 _ZN6TagLib5ID3v212UnknownFrameD0Ev@Base 1.4 1
 _ZN6TagLib5ID3v212UnknownFrameD1Ev@Base 1.4 1
 _ZN6TagLib5ID3v212UnknownFrameD2Ev@Base 1.4 1
 _ZN6TagLib5ID3v212UrlLinkFrame11parseFieldsERKNS_10ByteVectorE@Base 1.5
 _ZN6TagLib5ID3v212UrlLinkFrame6setUrlERKNS_6StringE@Base 1.5
 _ZN6TagLib5ID3v212UrlLinkFrame7setTextERKNS_6StringE@Base 1.5
 _ZN6TagLib5ID3v212UrlLinkFrameC1ERKNS_10ByteVectorE@Base 1.5
 _ZN6TagLib5ID3v212UrlLinkFrameC1ERKNS_10ByteVectorEPNS0_5Frame6HeaderE@Base 1.5
 _ZN6TagLib5ID3v212UrlLinkFrameC2ERKNS_10ByteVectorE@Base 1.5
 _ZN6TagLib5ID3v212UrlLinkFrameC2ERKNS_10ByteVectorEPNS0_5Frame6HeaderE@Base 1.5
 _ZN6TagLib5ID3v212UrlLinkFrameD0Ev@Base 1.5
 _ZN6TagLib5ID3v212UrlLinkFrameD1Ev@Base 1.5
 _ZN6TagLib5ID3v212UrlLinkFrameD2Ev@Base 1.5
 _ZN6TagLib5ID3v213CommentsFrame11parseFieldsERKNS_10ByteVectorE@Base 1.4 1
 _ZN6TagLib5ID3v213CommentsFrame11setLanguageERKNS_10ByteVectorE@Base 1.4 1
 _ZN6TagLib5ID3v213CommentsFrame14setDescriptionERKNS_6StringE@Base 1.4 1
 _ZN6TagLib5ID3v213CommentsFrame15setTextEncodingENS_6String4TypeE@Base 1.4 1
 _ZN6TagLib5ID3v213CommentsFrame17findByDescriptionEPKNS0_3TagERKNS_6StringE@Base 1.5
 _ZN6TagLib5ID3v213CommentsFrame7setTextERKNS_6StringE@Base 1.4 1
 _ZN6TagLib5ID3v213CommentsFrameC1ENS_6String4TypeE@Base 1.4 1
 _ZN6TagLib5ID3v213CommentsFrameC1ERKNS_10ByteVectorE@Base 1.4 1
 _ZN6TagLib5ID3v213CommentsFrameC1ERKNS_10ByteVectorEPNS0_5Frame6HeaderE@Base 1.4 1
 _ZN6TagLib5ID3v213CommentsFrameC2ENS_6String4TypeE@Base 1.4 1
 _ZN6TagLib5ID3v213CommentsFrameC2ERKNS_10ByteVectorE@Base 1.4 1
 _ZN6TagLib5ID3v213CommentsFrameC2ERKNS_10ByteVectorEPNS0_5Frame6HeaderE@Base 1.4 1
 _ZN6TagLib5ID3v213CommentsFrameD0Ev@Base 1.4 1
 _ZN6TagLib5ID3v213CommentsFrameD1Ev@Base 1.4 1
 _ZN6TagLib5ID3v213CommentsFrameD2Ev@Base 1.4 1
 _ZN6TagLib5ID3v214ExtendedHeader5parseERKNS_10ByteVectorE@Base 1.4 1
 _ZN6TagLib5ID3v214ExtendedHeader7setDataERKNS_10ByteVectorE@Base 1.4 1
 _ZN6TagLib5ID3v214ExtendedHeaderC1Ev@Base 1.4 1
 _ZN6TagLib5ID3v214ExtendedHeaderC2Ev@Base 1.4 1
 _ZN6TagLib5ID3v214ExtendedHeaderD0Ev@Base 1.4 1
 _ZN6TagLib5ID3v214ExtendedHeaderD1Ev@Base 1.4 1
 _ZN6TagLib5ID3v214ExtendedHeaderD2Ev@Base 1.4 1
 _ZN6TagLib5ID3v214OwnershipFrame11parseFieldsERKNS_10ByteVectorE@Base 1.8
 _ZN6TagLib5ID3v214OwnershipFrame12setPricePaidERKNS_6StringE@Base 1.8
 _ZN6TagLib5ID3v214OwnershipFrame15setTextEncodingENS_6String4TypeE@Base 1.8
 _ZN6TagLib5ID3v214OwnershipFrame16setDatePurchasedERKNS_6StringE@Base 1.8
 _ZN6TagLib5ID3v214OwnershipFrame9setSellerERKNS_6StringE@Base 1.8
 _ZN6TagLib5ID3v214OwnershipFrameC1ENS_6String4TypeE@Base 1.8
 _ZN6TagLib5ID3v214OwnershipFrameC1ERKNS_10ByteVectorE@Base 1.8
 _ZN6TagLib5ID3v214OwnershipFrameC1ERKNS_10ByteVectorEPNS0_5Frame6HeaderE@Base 1.8
 _ZN6TagLib5ID3v214OwnershipFrameC2ENS_6String4TypeE@Base 1.8
 _ZN6TagLib5ID3v214OwnershipFrameC2ERKNS_10ByteVectorE@Base 1.8
 _ZN6TagLib5ID3v214OwnershipFrameC2ERKNS_10ByteVectorEPNS0_5Frame6HeaderE@Base 1.8
 _ZN6TagLib5ID3v214OwnershipFrameD0Ev@Base 1.8
 _ZN6TagLib5ID3v214OwnershipFrameD1Ev@Base 1.8
 _ZN6TagLib5ID3v214OwnershipFrameD2Ev@Base 1.8
 _ZN6TagLib5ID3v216UserUrlLinkFrame11parseFieldsERKNS_10ByteVectorE@Base 1.5
 _ZN6TagLib5ID3v216UserUrlLinkFrame14setDescriptionERKNS_6StringE@Base 1.5
 _ZN6TagLib5ID3v216UserUrlLinkFrame15setTextEncodingENS_6String4TypeE@Base 1.5
 _ZN6TagLib5ID3v216UserUrlLinkFrame4findEPNS0_3TagERKNS_6StringE@Base 1.8
 _ZN6TagLib5ID3v216UserUrlLinkFrameC1ENS_6String4TypeE@Base 1.5
 _ZN6TagLib5ID3v216UserUrlLinkFrameC1ERKNS_10ByteVectorE@Base 1.5
 _ZN6TagLib5ID3v216UserUrlLinkFrameC1ERKNS_10ByteVectorEPNS0_5Frame6HeaderE@Base 1.5
 _ZN6TagLib5ID3v216UserUrlLinkFrameC2ENS_6String4TypeE@Base 1.5
 _ZN6TagLib5ID3v216UserUrlLinkFrameC2ERKNS_10ByteVectorE@Base 1.5
 _ZN6TagLib5ID3v216UserUrlLinkFrameC2ERKNS_10ByteVectorEPNS0_5Frame6HeaderE@Base 1.5
 _ZN6TagLib5ID3v216UserUrlLinkFrameD0Ev@Base 1.5
 _ZN6TagLib5ID3v216UserUrlLinkFrameD1Ev@Base 1.5
 _ZN6TagLib5ID3v216UserUrlLinkFrameD2Ev@Base 1.5
 _ZN6TagLib5ID3v218PopularimeterFrame10setCounterEj@Base 1.6
 _ZN6TagLib5ID3v218PopularimeterFrame11parseFieldsERKNS_10ByteVectorE@Base 1.6
 _ZN6TagLib5ID3v218PopularimeterFrame8setEmailERKNS_6StringE@Base 1.6
 _ZN6TagLib5ID3v218PopularimeterFrame9setRatingEi@Base 1.6
 _ZN6TagLib5ID3v218PopularimeterFrameC1ERKNS_10ByteVectorE@Base 1.6
 _ZN6TagLib5ID3v218PopularimeterFrameC1ERKNS_10ByteVectorEPNS0_5Frame6HeaderE@Base 1.6
 _ZN6TagLib5ID3v218PopularimeterFrameC1Ev@Base 1.6
 _ZN6TagLib5ID3v218PopularimeterFrameC2ERKNS_10ByteVectorE@Base 1.6
 _ZN6TagLib5ID3v218PopularimeterFrameC2ERKNS_10ByteVectorEPNS0_5Frame6HeaderE@Base 1.6
 _ZN6TagLib5ID3v218PopularimeterFrameC2Ev@Base 1.6
 _ZN6TagLib5ID3v218PopularimeterFrameD0Ev@Base 1.6
 _ZN6TagLib5ID3v218PopularimeterFrameD1Ev@Base 1.6
 _ZN6TagLib5ID3v218PopularimeterFrameD2Ev@Base 1.6
 _ZN6TagLib5ID3v219Latin1StringHandlerC1Ev@Base 1.8
 _ZN6TagLib5ID3v219Latin1StringHandlerC2Ev@Base 1.8
 _ZN6TagLib5ID3v219Latin1StringHandlerD0Ev@Base 1.8
 _ZN6TagLib5ID3v219Latin1StringHandlerD1Ev@Base 1.8
 _ZN6TagLib5ID3v219Latin1StringHandlerD2Ev@Base 1.8
 _ZN6TagLib5ID3v219RelativeVolumeFrame11parseFieldsERKNS_10ByteVectorE@Base 1.4 1
 _ZN6TagLib5ID3v219RelativeVolumeFrame13setPeakVolumeERKNS1_10PeakVolumeE@Base 1.4 1
 _ZN6TagLib5ID3v219RelativeVolumeFrame13setPeakVolumeERKNS1_10PeakVolumeENS1_11ChannelTypeE@Base 1.4 1
 _ZN6TagLib5ID3v219RelativeVolumeFrame14setChannelTypeENS1_11ChannelTypeE@Base 1.4 1
 _ZN6TagLib5ID3v219RelativeVolumeFrame17setIdentificationERKNS_6StringE@Base 1.5
 _ZN6TagLib5ID3v219RelativeVolumeFrame19setVolumeAdjustmentEf@Base 1.4 1
 _ZN6TagLib5ID3v219RelativeVolumeFrame19setVolumeAdjustmentEfNS1_11ChannelTypeE@Base 1.4 1
 _ZN6TagLib5ID3v219RelativeVolumeFrame24setVolumeAdjustmentIndexEs@Base 1.4 1
 _ZN6TagLib5ID3v219RelativeVolumeFrame24setVolumeAdjustmentIndexEsNS1_11ChannelTypeE@Base 1.4 1
 _ZN6TagLib5ID3v219RelativeVolumeFrameC1ERKNS_10ByteVectorE@Base 1.4 1
 _ZN6TagLib5ID3v219RelativeVolumeFrameC1ERKNS_10ByteVectorEPNS0_5Frame6HeaderE@Base 1.4 1
 _ZN6TagLib5ID3v219RelativeVolumeFrameC1Ev@Base 1.5
 _ZN6TagLib5ID3v219RelativeVolumeFrameC2ERKNS_10ByteVectorE@Base 1.4 1
 _ZN6TagLib5ID3v219RelativeVolumeFrameC2ERKNS_10ByteVectorEPNS0_5Frame6HeaderE@Base 1.4 1
 _ZN6TagLib5ID3v219RelativeVolumeFrameC2Ev@Base 1.5
 _ZN6TagLib5ID3v219RelativeVolumeFrameD0Ev@Base 1.4 1
 _ZN6TagLib5ID3v219RelativeVolumeFrameD1Ev@Base 1.4 1
 _ZN6TagLib5ID3v219RelativeVolumeFrameD2Ev@Base 1.4 1
 _ZN6TagLib5ID3v220AttachedPictureFrame10setPictureERKNS_10ByteVectorE@Base 1.4 1
 _ZN6TagLib5ID3v220AttachedPictureFrame11parseFieldsERKNS_10ByteVectorE@Base 1.4 1
 _ZN6TagLib5ID3v220AttachedPictureFrame11setMimeTypeERKNS_6StringE@Base 1.4 1
 _ZN6TagLib5ID3v220AttachedPictureFrame14setDescriptionERKNS_6StringE@Base 1.4 1
 _ZN6TagLib5ID3v220AttachedPictureFrame15setTextEncodingENS_6String4TypeE@Base 1.4 1
 _ZN6TagLib5ID3v220AttachedPictureFrame7setTypeENS1_4TypeE@Base 1.4 1
 _ZN6TagLib5ID3v220AttachedPictureFrameC1ERKNS_10ByteVectorE@Base 1.4 1
 _ZN6TagLib5ID3v220AttachedPictureFrameC1ERKNS_10ByteVectorEPNS0_5Frame6HeaderE@Base 1.4 1
 _ZN6TagLib5ID3v220AttachedPictureFrameC1Ev@Base 1.4 1
 _ZN6TagLib5ID3v220AttachedPictureFrameC2ERKNS_10ByteVectorE@Base 1.4 1
 _ZN6TagLib5ID3v220AttachedPictureFrameC2ERKNS_10ByteVectorEPNS0_5Frame6HeaderE@Base 1.4 1
 _ZN6TagLib5ID3v220AttachedPictureFrameC2Ev@Base 1.4 1
 _ZN6TagLib5ID3v220AttachedPictureFrameD0Ev@Base 1.4 1
 _ZN6TagLib5ID3v220AttachedPictureFrameD1Ev@Base 1.4 1
 _ZN6TagLib5ID3v220AttachedPictureFrameD2Ev@Base 1.4 1
 _ZN6TagLib5ID3v223AttachedPictureFrameV2211parseFieldsERKNS_10ByteVectorE@Base 1.6
 _ZN6TagLib5ID3v223AttachedPictureFrameV22C1ERKNS_10ByteVectorEPNS0_5Frame6HeaderE@Base 1.6
 _ZN6TagLib5ID3v223AttachedPictureFrameV22C2ERKNS_10ByteVectorEPNS0_5Frame6HeaderE@Base 1.6
 _ZN6TagLib5ID3v223AttachedPictureFrameV22D0Ev@Base 1.7-2~
 _ZN6TagLib5ID3v223AttachedPictureFrameV22D1Ev@Base 1.7-2~
 _ZN6TagLib5ID3v223AttachedPictureFrameV22D2Ev@Base 1.7-2~
 _ZN6TagLib5ID3v223TextIdentificationFrame11parseFieldsERKNS_10ByteVectorE@Base 1.4 1
 _ZN6TagLib5ID3v223TextIdentificationFrame15createTIPLFrameERKNS_11PropertyMapE@Base 1.8
 _ZN6TagLib5ID3v223TextIdentificationFrame15createTMCLFrameERKNS_11PropertyMapE@Base 1.8
 _ZN6TagLib5ID3v223TextIdentificationFrame15setTextEncodingENS_6String4TypeE@Base 1.4 1
 _ZN6TagLib5ID3v223TextIdentificationFrame17involvedPeopleMapEv@Base 1.8
 _ZN6TagLib5ID3v223TextIdentificationFrame7setTextERKNS_10StringListE@Base 1.4 1
 _ZN6TagLib5ID3v223TextIdentificationFrame7setTextERKNS_6StringE@Base 1.4 1
 _ZN6TagLib5ID3v223TextIdentificationFrameC1ERKNS_10ByteVectorE@Base 1.4 1
 _ZN6TagLib5ID3v223TextIdentificationFrameC1ERKNS_10ByteVectorENS_6String4TypeE@Base 1.4 1
 _ZN6TagLib5ID3v223TextIdentificationFrameC1ERKNS_10ByteVectorEPNS0_5Frame6HeaderE@Base 1.4 1
 _ZN6TagLib5ID3v223TextIdentificationFrameC2ERKNS_10ByteVectorE@Base 1.4 1
 _ZN6TagLib5ID3v223TextIdentificationFrameC2ERKNS_10ByteVectorENS_6String4TypeE@Base 1.4 1
 _ZN6TagLib5ID3v223TextIdentificationFrameC2ERKNS_10ByteVectorEPNS0_5Frame6HeaderE@Base 1.4 1
 _ZN6TagLib5ID3v223TextIdentificationFrameD0Ev@Base 1.4 1
 _ZN6TagLib5ID3v223TextIdentificationFrameD1Ev@Base 1.4 1
 _ZN6TagLib5ID3v223TextIdentificationFrameD2Ev@Base 1.4 1
 _ZN6TagLib5ID3v225UniqueFileIdentifierFrame11findByOwnerEPKNS0_3TagERKNS_6StringE@Base 1.9.1
 _ZN6TagLib5ID3v225UniqueFileIdentifierFrame11parseFieldsERKNS_10ByteVectorE@Base 1.4 1
 _ZN6TagLib5ID3v225UniqueFileIdentifierFrame13setIdentifierERKNS_10ByteVectorE@Base 1.4 1
 _ZN6TagLib5ID3v225UniqueFileIdentifierFrame8setOwnerERKNS_6StringE@Base 1.4 1
 _ZN6TagLib5ID3v225UniqueFileIdentifierFrameC1ERKNS_10ByteVectorE@Base 1.4 1
 _ZN6TagLib5ID3v225UniqueFileIdentifierFrameC1ERKNS_10ByteVectorEPNS0_5Frame6HeaderE@Base 1.4 1
 _ZN6TagLib5ID3v225UniqueFileIdentifierFrameC1ERKNS_6StringERKNS_10ByteVectorE@Base 1.4 1
 _ZN6TagLib5ID3v225UniqueFileIdentifierFrameC2ERKNS_10ByteVectorE@Base 1.4 1
 _ZN6TagLib5ID3v225UniqueFileIdentifierFrameC2ERKNS_10ByteVectorEPNS0_5Frame6HeaderE@Base 1.4 1
 _ZN6TagLib5ID3v225UniqueFileIdentifierFrameC2ERKNS_6StringERKNS_10ByteVectorE@Base 1.4 1
 _ZN6TagLib5ID3v225UniqueFileIdentifierFrameD0Ev@Base 1.4 1
 _ZN6TagLib5ID3v225UniqueFileIdentifierFrameD1Ev@Base 1.4 1
 _ZN6TagLib5ID3v225UniqueFileIdentifierFrameD2Ev@Base 1.5
 _ZN6TagLib5ID3v225UnsynchronizedLyricsFrame11parseFieldsERKNS_10ByteVectorE@Base 1.5
 _ZN6TagLib5ID3v225UnsynchronizedLyricsFrame11setLanguageERKNS_10ByteVectorE@Base 1.5
 _ZN6TagLib5ID3v225UnsynchronizedLyricsFrame14setDescriptionERKNS_6StringE@Base 1.5
 _ZN6TagLib5ID3v225UnsynchronizedLyricsFrame15setTextEncodingENS_6String4TypeE@Base 1.5
 _ZN6TagLib5ID3v225UnsynchronizedLyricsFrame17findByDescriptionEPKNS0_3TagERKNS_6StringE@Base 1.8
 _ZN6TagLib5ID3v225UnsynchronizedLyricsFrame7setTextERKNS_6StringE@Base 1.5
 _ZN6TagLib5ID3v225UnsynchronizedLyricsFrameC1ENS_6String4TypeE@Base 1.5
 _ZN6TagLib5ID3v225UnsynchronizedLyricsFrameC1ERKNS_10ByteVectorE@Base 1.5
 _ZN6TagLib5ID3v225UnsynchronizedLyricsFrameC1ERKNS_10ByteVectorEPNS0_5Frame6HeaderE@Base 1.5
 _ZN6TagLib5ID3v225UnsynchronizedLyricsFrameC2ENS_6String4TypeE@Base 1.5
 _ZN6TagLib5ID3v225UnsynchronizedLyricsFrameC2ERKNS_10ByteVectorE@Base 1.5
 _ZN6TagLib5ID3v225UnsynchronizedLyricsFrameC2ERKNS_10ByteVectorEPNS0_5Frame6HeaderE@Base 1.5
 _ZN6TagLib5ID3v225UnsynchronizedLyricsFrameD0Ev@Base 1.5
 _ZN6TagLib5ID3v225UnsynchronizedLyricsFrameD1Ev@Base 1.5
 _ZN6TagLib5ID3v225UnsynchronizedLyricsFrameD2Ev@Base 1.5
 _ZN6TagLib5ID3v227UserTextIdentificationFrame11checkFieldsEv@Base 1.5
 _ZN6TagLib5ID3v227UserTextIdentificationFrame14setDescriptionERKNS_6StringE@Base 1.4 1
 _ZN6TagLib5ID3v227UserTextIdentificationFrame4findEPNS0_3TagERKNS_6StringE@Base 1.5
 _ZN6TagLib5ID3v227UserTextIdentificationFrame7setTextERKNS_10StringListE@Base 1.4 1
 _ZN6TagLib5ID3v227UserTextIdentificationFrame7setTextERKNS_6StringE@Base 1.4 1
 _ZN6TagLib5ID3v227UserTextIdentificationFrameC1ENS_6String4TypeE@Base 1.4 1
 _ZN6TagLib5ID3v227UserTextIdentificationFrameC1ERKNS_10ByteVectorE@Base 1.4 1
 _ZN6TagLib5ID3v227UserTextIdentificationFrameC1ERKNS_10ByteVectorEPNS0_5Frame6HeaderE@Base 1.4 1
 _ZN6TagLib5ID3v227UserTextIdentificationFrameC1ERKNS_6StringERKNS_10StringListENS2_4TypeE@Base 1.8
 _ZN6TagLib5ID3v227UserTextIdentificationFrameC2ENS_6String4TypeE@Base 1.4 1
 _ZN6TagLib5ID3v227UserTextIdentificationFrameC2ERKNS_10ByteVectorE@Base 1.4 1
 _ZN6TagLib5ID3v227UserTextIdentificationFrameC2ERKNS_10ByteVectorEPNS0_5Frame6HeaderE@Base 1.4 1
 _ZN6TagLib5ID3v227UserTextIdentificationFrameC2ERKNS_6StringERKNS_10StringListENS2_4TypeE@Base 1.8
 _ZN6TagLib5ID3v227UserTextIdentificationFrameD0Ev@Base 1.7-2~
 _ZN6TagLib5ID3v227UserTextIdentificationFrameD1Ev@Base 1.7-2~
 _ZN6TagLib5ID3v227UserTextIdentificationFrameD2Ev@Base 1.7-2~
 _ZN6TagLib5ID3v230GeneralEncapsulatedObjectFrame11parseFieldsERKNS_10ByteVectorE@Base 1.5
 _ZN6TagLib5ID3v230GeneralEncapsulatedObjectFrame11setFileNameERKNS_6StringE@Base 1.5
 _ZN6TagLib5ID3v230GeneralEncapsulatedObjectFrame11setMimeTypeERKNS_6StringE@Base 1.5
 _ZN6TagLib5ID3v230GeneralEncapsulatedObjectFrame14setDescriptionERKNS_6StringE@Base 1.5
 _ZN6TagLib5ID3v230GeneralEncapsulatedObjectFrame15setTextEncodingENS_6String4TypeE@Base 1.5
 _ZN6TagLib5ID3v230GeneralEncapsulatedObjectFrame9setObjectERKNS_10ByteVectorE@Base 1.5
 _ZN6TagLib5ID3v230GeneralEncapsulatedObjectFrameC1ERKNS_10ByteVectorE@Base 1.5
 _ZN6TagLib5ID3v230GeneralEncapsulatedObjectFrameC1ERKNS_10ByteVectorEPNS0_5Frame6HeaderE@Base 1.5
 _ZN6TagLib5ID3v230GeneralEncapsulatedObjectFrameC1Ev@Base 1.5
 _ZN6TagLib5ID3v230GeneralEncapsulatedObjectFrameC2ERKNS_10ByteVectorE@Base 1.5
 _ZN6TagLib5ID3v230GeneralEncapsulatedObjectFrameC2ERKNS_10ByteVectorEPNS0_5Frame6HeaderE@Base 1.5
 _ZN6TagLib5ID3v230GeneralEncapsulatedObjectFrameC2Ev@Base 1.5
 _ZN6TagLib5ID3v230GeneralEncapsulatedObjectFrameD0Ev@Base 1.5
 _ZN6TagLib5ID3v230GeneralEncapsulatedObjectFrameD1Ev@Base 1.5
 _ZN6TagLib5ID3v230GeneralEncapsulatedObjectFrameD2Ev@Base 1.5
 _ZN6TagLib5ID3v23Tag10TagPrivate13stringHandlerE@Base 1.8
 _ZN6TagLib5ID3v23Tag10setCommentERKNS_6StringE@Base 1.4 1
 _ZN6TagLib5ID3v23Tag11removeFrameEPNS0_5FrameEb@Base 1.4 1
 _ZN6TagLib5ID3v23Tag12removeFramesERKNS_10ByteVectorE@Base 1.4 1
 _ZN6TagLib5ID3v23Tag12setTextFrameERKNS_10ByteVectorERKNS_6StringE@Base 1.4 1
 _ZN6TagLib5ID3v23Tag13setPropertiesERKNS_11PropertyMapE@Base 1.8
 _ZN6TagLib5ID3v23Tag19latin1StringHandlerEv@Base 1.8
 _ZN6TagLib5ID3v23Tag22setLatin1StringHandlerEPKNS0_19Latin1StringHandlerE@Base 1.8
 _ZN6TagLib5ID3v23Tag27removeUnsupportedPropertiesERKNS_10StringListE@Base 1.8
 _ZN6TagLib5ID3v23Tag4readEv@Base 1.4 1
 _ZN6TagLib5ID3v23Tag5parseERKNS_10ByteVectorE@Base 1.4 1
 _ZN6TagLib5ID3v23Tag7setYearEj@Base 1.4 1
 _ZN6TagLib5ID3v23Tag8addFrameEPNS0_5FrameE@Base 1.4 1
 _ZN6TagLib5ID3v23Tag8setAlbumERKNS_6StringE@Base 1.4 1
 _ZN6TagLib5ID3v23Tag8setGenreERKNS_6StringE@Base 1.4 1
 _ZN6TagLib5ID3v23Tag8setTitleERKNS_6StringE@Base 1.4 1
 _ZN6TagLib5ID3v23Tag8setTrackEj@Base 1.4 1
 _ZN6TagLib5ID3v23Tag9setArtistERKNS_6StringE@Base 1.4 1
 _ZN6TagLib5ID3v23TagC1EPNS_4FileElPKNS0_12FrameFactoryE@Base 1.4 1
 _ZN6TagLib5ID3v23TagC1Ev@Base 1.4 1
 _ZN6TagLib5ID3v23TagC2EPNS_4FileElPKNS0_12FrameFactoryE@Base 1.4 1
 _ZN6TagLib5ID3v23TagC2Ev@Base 1.4 1
 _ZN6TagLib5ID3v23TagD0Ev@Base 1.4 1
 _ZN6TagLib5ID3v23TagD1Ev@Base 1.4 1
 _ZN6TagLib5ID3v23TagD2Ev@Base 1.4 1
 _ZN6TagLib5ID3v25Frame10headerSizeEj@Base 1.4 1
 _ZN6TagLib5ID3v25Frame10headerSizeEv@Base 1.4 1
 _ZN6TagLib5ID3v25Frame12frameIDToKeyERKNS_10ByteVectorE@Base 1.8
 _ZN6TagLib5ID3v25Frame12keyToFrameIDERKNS_6StringE@Base 1.8
 _ZN6TagLib5ID3v25Frame12lyricsPrefixE@Base 1.8
 _ZN6TagLib5ID3v25Frame13checkEncodingERKNS_10StringListENS_6String4TypeE@Base 1.5
 _ZN6TagLib5ID3v25Frame13checkEncodingERKNS_10StringListENS_6String4TypeEj@Base 1.8
 _ZN6TagLib5ID3v25Frame13commentPrefixE@Base 1.8
 _ZN6TagLib5ID3v25Frame13textDelimiterENS_6String4TypeE@Base 1.4 1
 _ZN6TagLib5ID3v25Frame15readStringFieldERKNS_10ByteVectorENS_6String4TypeEPi@Base 1.5
 _ZN6TagLib5ID3v25Frame15splitPropertiesERKNS_11PropertyMapERS2_S5_S5_@Base 1.8
 _ZN6TagLib5ID3v25Frame16instrumentPrefixE@Base 1.8
 _ZN6TagLib5ID3v25Frame18createTextualFrameERKNS_6StringERKNS_10StringListE@Base 1.8
 _ZN6TagLib5ID3v25Frame5parseERKNS_10ByteVectorE@Base 1.4 1
 _ZN6TagLib5ID3v25Frame6Header10setFrameIDERKNS_10ByteVectorE@Base 1.4 1
 _ZN6TagLib5ID3v25Frame6Header10setVersionEj@Base 1.8
 _ZN6TagLib5ID3v25Frame6Header12setFrameSizeEj@Base 1.4 1
 _ZN6TagLib5ID3v25Frame6Header23setTagAlterPreservationEb@Base 1.4 1
 _ZN6TagLib5ID3v25Frame6Header4sizeEj@Base 1.4 1
 _ZN6TagLib5ID3v25Frame6Header4sizeEv@Base 1.4 1
 _ZN6TagLib5ID3v25Frame6Header7setDataERKNS_10ByteVectorEb@Base 1.4 1
 _ZN6TagLib5ID3v25Frame6Header7setDataERKNS_10ByteVectorEj@Base 1.4 1
 _ZN6TagLib5ID3v25Frame6HeaderC1ERKNS_10ByteVectorEb@Base 1.4 1
 _ZN6TagLib5ID3v25Frame6HeaderC1ERKNS_10ByteVectorEj@Base 1.4 1
 _ZN6TagLib5ID3v25Frame6HeaderC2ERKNS_10ByteVectorEb@Base 1.4 1
 _ZN6TagLib5ID3v25Frame6HeaderC2ERKNS_10ByteVectorEj@Base 1.4 1
 _ZN6TagLib5ID3v25Frame6HeaderD0Ev@Base 1.4 1
 _ZN6TagLib5ID3v25Frame6HeaderD1Ev@Base 1.4 1
 _ZN6TagLib5ID3v25Frame6HeaderD2Ev@Base 1.4 1
 _ZN6TagLib5ID3v25Frame7setDataERKNS_10ByteVectorE@Base 1.4 1
 _ZN6TagLib5ID3v25Frame7setTextERKNS_6StringE@Base 1.4 1
 _ZN6TagLib5ID3v25Frame9keyToTXXXERKNS_6StringE@Base 1.9.1
 _ZN6TagLib5ID3v25Frame9setHeaderEPNS1_6HeaderEb@Base 1.4 1
 _ZN6TagLib5ID3v25Frame9txxxToKeyERKNS_6StringE@Base 1.9.1
 _ZN6TagLib5ID3v25Frame9urlPrefixE@Base 1.8
 _ZN6TagLib5ID3v25FrameC1EPNS1_6HeaderE@Base 1.4 1
 _ZN6TagLib5ID3v25FrameC1ERKNS_10ByteVectorE@Base 1.4 1
 _ZN6TagLib5ID3v25FrameC2EPNS1_6HeaderE@Base 1.4 1
 _ZN6TagLib5ID3v25FrameC2ERKNS_10ByteVectorE@Base 1.4 1
 _ZN6TagLib5ID3v25FrameD0Ev@Base 1.4 1
 _ZN6TagLib5ID3v25FrameD1Ev@Base 1.4 1
 _ZN6TagLib5ID3v25FrameD2Ev@Base 1.4 1
 _ZN6TagLib5ID3v26Footer4sizeEv@Base 1.4 1
 _ZN6TagLib5ID3v26FooterC1Ev@Base 1.4 1
 _ZN6TagLib5ID3v26FooterC2Ev@Base 1.4 1
 _ZN6TagLib5ID3v26FooterD0Ev@Base 1.4 1
 _ZN6TagLib5ID3v26FooterD1Ev@Base 1.4 1
 _ZN6TagLib5ID3v26FooterD2Ev@Base 1.4 1
 _ZN6TagLib5ID3v26Header10setTagSizeEj@Base 1.4 1
 _ZN6TagLib5ID3v26Header14fileIdentifierEv@Base 1.4 1
 _ZN6TagLib5ID3v26Header15setMajorVersionEj@Base 1.5
 _ZN6TagLib5ID3v26Header4sizeEv@Base 1.4 1
 _ZN6TagLib5ID3v26Header5parseERKNS_10ByteVectorE@Base 1.4 1
 _ZN6TagLib5ID3v26Header7setDataERKNS_10ByteVectorE@Base 1.4 1
 _ZN6TagLib5ID3v26HeaderC1ERKNS_10ByteVectorE@Base 1.4 1
 _ZN6TagLib5ID3v26HeaderC1Ev@Base 1.4 1
 _ZN6TagLib5ID3v26HeaderC2ERKNS_10ByteVectorE@Base 1.4 1
 _ZN6TagLib5ID3v26HeaderC2Ev@Base 1.4 1
 _ZN6TagLib5ID3v26HeaderD0Ev@Base 1.4 1
 _ZN6TagLib5ID3v26HeaderD1Ev@Base 1.4 1
 _ZN6TagLib5ID3v26HeaderD2Ev@Base 1.4 1
 _ZN6TagLib5ID3v29SynchData6decodeERKNS_10ByteVectorE@Base 1.5
 _ZN6TagLib5ID3v29SynchData6toUIntERKNS_10ByteVectorE@Base 1.4 1
 _ZN6TagLib5ID3v29SynchData8fromUIntEj@Base 1.4 1
 _ZN6TagLib6String12copyFromUTF8EPKcj@Base 1.9.1
 _ZN6TagLib6String13StringPrivateD0Ev@Base 1.9.1
 _ZN6TagLib6String13StringPrivateD1Ev@Base 1.9.1
 _ZN6TagLib6String13StringPrivateD2Ev@Base 1.9.1
 _ZN6TagLib6String13copyFromUTF16EPKcjNS0_4TypeE@Base 1.9.1
 _ZN6TagLib6String13copyFromUTF16EPKwjNS0_4TypeE@Base 1.9.1
 _ZN6TagLib6String14WCharByteOrderE@Base 1.9.1
 _ZN6TagLib6String14copyFromLatin1EPKcj@Base 1.9.1
 _ZN6TagLib6String3endEv@Base 1.4 1
 _ZN6TagLib6String4nullE@Base 1.4 1
 _ZN6TagLib6String5beginEv@Base 1.4 1
 _ZN6TagLib6String6appendERKS0_@Base 1.4 1
 _ZN6TagLib6String6detachEv@Base 1.4 1
 _ZN6TagLib6String6numberEi@Base 1.4 1
 _ZN6TagLib6StringC1EPKcNS0_4TypeE@Base 1.4 1
 _ZN6TagLib6StringC1EPKwNS0_4TypeE@Base 1.4 1
 _ZN6TagLib6StringC1ERKNS_10ByteVectorENS0_4TypeE@Base 1.4 1
 _ZN6TagLib6StringC1ERKS0_@Base 1.4 1
 _ZN6TagLib6StringC1ERKSbIwSt11char_traitsIwESaIwEENS0_4TypeE@Base 1.4 1
 _ZN6TagLib6StringC1ERKSsNS0_4TypeE@Base 1.4 1
 _ZN6TagLib6StringC1EcNS0_4TypeE@Base 1.4 1
 _ZN6TagLib6StringC1Ev@Base 1.4 1
 _ZN6TagLib6StringC1EwNS0_4TypeE@Base 1.4 1
 _ZN6TagLib6StringC2EPKcNS0_4TypeE@Base 1.4 1
 _ZN6TagLib6StringC2EPKwNS0_4TypeE@Base 1.4 1
 _ZN6TagLib6StringC2ERKNS_10ByteVectorENS0_4TypeE@Base 1.4 1
 _ZN6TagLib6StringC2ERKS0_@Base 1.4 1
 _ZN6TagLib6StringC2ERKSbIwSt11char_traitsIwESaIwEENS0_4TypeE@Base 1.4 1
 _ZN6TagLib6StringC2ERKSsNS0_4TypeE@Base 1.4 1
 _ZN6TagLib6StringC2EcNS0_4TypeE@Base 1.4 1
 _ZN6TagLib6StringC2Ev@Base 1.4 1
 _ZN6TagLib6StringC2EwNS0_4TypeE@Base 1.4 1
 _ZN6TagLib6StringD0Ev@Base 1.4 1
 _ZN6TagLib6StringD1Ev@Base 1.4 1
 _ZN6TagLib6StringD2Ev@Base 1.4 1
 _ZN6TagLib6StringaSEPKc@Base 1.4 1
 _ZN6TagLib6StringaSEPKw@Base 1.4 1
 _ZN6TagLib6StringaSERKNS_10ByteVectorE@Base 1.4 1
 _ZN6TagLib6StringaSERKS0_@Base 1.4 1
 _ZN6TagLib6StringaSERKSbIwSt11char_traitsIwESaIwEE@Base 1.4 1
 _ZN6TagLib6StringaSERKSs@Base 1.4 1
 _ZN6TagLib6StringaSEc@Base 1.4 1
 _ZN6TagLib6StringaSEw@Base 1.4 1
 _ZN6TagLib6StringixEi@Base 1.4 1
 _ZN6TagLib6StringpLEPKc@Base 1.4 1
 _ZN6TagLib6StringpLEPKw@Base 1.4 1
 _ZN6TagLib6StringpLERKS0_@Base 1.4 1
 _ZN6TagLib6StringpLEc@Base 1.4 1
 _ZN6TagLib6StringpLEw@Base 1.4 1
 _ZN6TagLib6Vorbis10Properties4readEv@Base 1.4 1
 _ZN6TagLib6Vorbis10PropertiesC1EPNS0_4FileENS_15AudioProperties9ReadStyleE@Base 1.4 1
 _ZN6TagLib6Vorbis10PropertiesC2EPNS0_4FileENS_15AudioProperties9ReadStyleE@Base 1.4 1
 _ZN6TagLib6Vorbis10PropertiesD0Ev@Base 1.4 1
 _ZN6TagLib6Vorbis10PropertiesD1Ev@Base 1.4 1
 _ZN6TagLib6Vorbis10PropertiesD2Ev@Base 1.4 1
 _ZN6TagLib6Vorbis4File13setPropertiesERKNS_11PropertyMapE@Base 1.8
 _ZN6TagLib6Vorbis4File4readEbNS_15AudioProperties9ReadStyleE@Base 1.4 1
 _ZN6TagLib6Vorbis4File4saveEv@Base 1.4 1
 _ZN6TagLib6Vorbis4FileC1EPKcbNS_15AudioProperties9ReadStyleE@Base 1.4 1
 _ZN6TagLib6Vorbis4FileC1EPNS_8IOStreamEbNS_15AudioProperties9ReadStyleE@Base 1.8
 _ZN6TagLib6Vorbis4FileC2EPKcbNS_15AudioProperties9ReadStyleE@Base 1.4 1
 _ZN6TagLib6Vorbis4FileC2EPNS_8IOStreamEbNS_15AudioProperties9ReadStyleE@Base 1.8
 _ZN6TagLib6Vorbis4FileD0Ev@Base 1.4 1
 _ZN6TagLib6Vorbis4FileD1Ev@Base 1.4 1
 _ZN6TagLib6Vorbis4FileD2Ev@Base 1.4 1
 _ZN6TagLib7FileRef14FileRefPrivate17fileTypeResolversE@Base 1.4 1
 _ZN6TagLib7FileRef19addFileTypeResolverEPKNS0_16FileTypeResolverE@Base 1.4 1
 _ZN6TagLib7FileRef21defaultFileExtensionsEv@Base 1.4 1
 _ZN6TagLib7FileRef4saveEv@Base 1.4 1
 _ZN6TagLib7FileRef6createEPKcbNS_15AudioProperties9ReadStyleE@Base 1.4 1
 _ZN6TagLib7FileRefC1EPKcbNS_15AudioProperties9ReadStyleE@Base 1.4 1
 _ZN6TagLib7FileRefC1EPNS_4FileE@Base 1.4 1
 _ZN6TagLib7FileRefC1ERKS0_@Base 1.4 1
 _ZN6TagLib7FileRefC1Ev@Base 1.4 1
 _ZN6TagLib7FileRefC2EPKcbNS_15AudioProperties9ReadStyleE@Base 1.4 1
 _ZN6TagLib7FileRefC2EPNS_4FileE@Base 1.4 1
 _ZN6TagLib7FileRefC2ERKS0_@Base 1.4 1
 _ZN6TagLib7FileRefC2Ev@Base 1.4 1
 _ZN6TagLib7FileRefD0Ev@Base 1.4 1
 _ZN6TagLib7FileRefD1Ev@Base 1.4 1
 _ZN6TagLib7FileRefD2Ev@Base 1.4 1
 _ZN6TagLib7FileRefaSERKS0_@Base 1.4 1
 _ZN6TagLib7WavPack10Properties14seekFinalIndexEv@Base 1.7
 _ZN6TagLib7WavPack10Properties4readEv@Base 1.5
 _ZN6TagLib7WavPack10PropertiesC1EPNS0_4FileElNS_15AudioProperties9ReadStyleE@Base 1.7
 _ZN6TagLib7WavPack10PropertiesC1ERKNS_10ByteVectorElNS_15AudioProperties9ReadStyleE@Base 1.5
 _ZN6TagLib7WavPack10PropertiesC2EPNS0_4FileElNS_15AudioProperties9ReadStyleE@Base 1.7
 _ZN6TagLib7WavPack10PropertiesC2ERKNS_10ByteVectorElNS_15AudioProperties9ReadStyleE@Base 1.5
 _ZN6TagLib7WavPack10PropertiesD0Ev@Base 1.5
 _ZN6TagLib7WavPack10PropertiesD1Ev@Base 1.5
 _ZN6TagLib7WavPack10PropertiesD2Ev@Base 1.5
 _ZN6TagLib7WavPack4File13setPropertiesERKNS_11PropertyMapE@Base 1.8
 _ZN6TagLib7WavPack4File27removeUnsupportedPropertiesERKNS_10StringListE@Base 1.9.1
 _ZN6TagLib7WavPack4File4readEbNS_15AudioProperties9ReadStyleE@Base 1.5
 _ZN6TagLib7WavPack4File4saveEv@Base 1.5
 _ZN6TagLib7WavPack4File5stripEi@Base 1.5
 _ZN6TagLib7WavPack4File6APETagEb@Base 1.5
 _ZN6TagLib7WavPack4File7findAPEEv@Base 1.5
 _ZN6TagLib7WavPack4File8ID3v1TagEb@Base 1.5
 _ZN6TagLib7WavPack4File9findID3v1Ev@Base 1.5
 _ZN6TagLib7WavPack4FileC1EPKcbNS_15AudioProperties9ReadStyleE@Base 1.5
 _ZN6TagLib7WavPack4FileC1EPNS_8IOStreamEbNS_15AudioProperties9ReadStyleE@Base 1.8
 _ZN6TagLib7WavPack4FileC2EPKcbNS_15AudioProperties9ReadStyleE@Base 1.5
 _ZN6TagLib7WavPack4FileC2EPNS_8IOStreamEbNS_15AudioProperties9ReadStyleE@Base 1.8
 _ZN6TagLib7WavPack4FileD0Ev@Base 1.5
 _ZN6TagLib7WavPack4FileD1Ev@Base 1.5
 _ZN6TagLib7WavPack4FileD2Ev@Base 1.5
 _ZN6TagLib8IOStream5clearEv@Base 1.8
 _ZN6TagLib8IOStreamC1Ev@Base 1.8
 _ZN6TagLib8IOStreamC2Ev@Base 1.8
 _ZN6TagLib8IOStreamD0Ev@Base 1.8
 _ZN6TagLib8IOStreamD1Ev@Base 1.8
 _ZN6TagLib8IOStreamD2Ev@Base 1.8
 _ZN6TagLib9TrueAudio10Properties4readEv@Base 1.5
 _ZN6TagLib9TrueAudio10PropertiesC1ERKNS_10ByteVectorElNS_15AudioProperties9ReadStyleE@Base 1.5
 _ZN6TagLib9TrueAudio10PropertiesC2ERKNS_10ByteVectorElNS_15AudioProperties9ReadStyleE@Base 1.5
 _ZN6TagLib9TrueAudio10PropertiesD0Ev@Base 1.5
 _ZN6TagLib9TrueAudio10PropertiesD1Ev@Base 1.5
 _ZN6TagLib9TrueAudio10PropertiesD2Ev@Base 1.5
 _ZN6TagLib9TrueAudio4File13setPropertiesERKNS_11PropertyMapE@Base 1.8
 _ZN6TagLib9TrueAudio4File20setID3v2FrameFactoryEPKNS_5ID3v212FrameFactoryE@Base 1.5
 _ZN6TagLib9TrueAudio4File27removeUnsupportedPropertiesERKNS_10StringListE@Base 1.9.1
 _ZN6TagLib9TrueAudio4File4readEbNS_15AudioProperties9ReadStyleE@Base 1.5
 _ZN6TagLib9TrueAudio4File4saveEv@Base 1.5
 _ZN6TagLib9TrueAudio4File5stripEi@Base 1.5
 _ZN6TagLib9TrueAudio4File8ID3v1TagEb@Base 1.5
 _ZN6TagLib9TrueAudio4File8ID3v2TagEb@Base 1.5
 _ZN6TagLib9TrueAudio4File9findID3v1Ev@Base 1.5
 _ZN6TagLib9TrueAudio4File9findID3v2Ev@Base 1.5
 _ZN6TagLib9TrueAudio4FileC1EPKcPNS_5ID3v212FrameFactoryEbNS_15AudioProperties9ReadStyleE@Base 1.5
 _ZN6TagLib9TrueAudio4FileC1EPKcbNS_15AudioProperties9ReadStyleE@Base 1.5
 _ZN6TagLib9TrueAudio4FileC1EPNS_8IOStreamEPNS_5ID3v212FrameFactoryEbNS_15AudioProperties9ReadStyleE@Base 1.8
 _ZN6TagLib9TrueAudio4FileC1EPNS_8IOStreamEbNS_15AudioProperties9ReadStyleE@Base 1.8
 _ZN6TagLib9TrueAudio4FileC2EPKcPNS_5ID3v212FrameFactoryEbNS_15AudioProperties9ReadStyleE@Base 1.5
 _ZN6TagLib9TrueAudio4FileC2EPKcbNS_15AudioProperties9ReadStyleE@Base 1.5
 _ZN6TagLib9TrueAudio4FileC2EPNS_8IOStreamEPNS_5ID3v212FrameFactoryEbNS_15AudioProperties9ReadStyleE@Base 1.8
 _ZN6TagLib9TrueAudio4FileC2EPNS_8IOStreamEbNS_15AudioProperties9ReadStyleE@Base 1.8
 _ZN6TagLib9TrueAudio4FileD0Ev@Base 1.5
 _ZN6TagLib9TrueAudio4FileD1Ev@Base 1.5
 _ZN6TagLib9TrueAudio4FileD2Ev@Base 1.5
 _ZNK6TagLib10ByteVector10containsAtERKS0_jjj@Base 1.4 1
 _ZNK6TagLib10ByteVector10startsWithERKS0_@Base 1.4 1
 _ZNK6TagLib10ByteVector10toLongLongEb@Base 1.4 1
 _ZNK6TagLib10ByteVector10toLongLongEjb@Base 1.9.1
 _ZNK6TagLib10ByteVector20endsWithPartialMatchERKS0_@Base 1.4 1
 _ZNK6TagLib10ByteVector2atEj@Base 1.4 1
 _ZNK6TagLib10ByteVector3endEv@Base 1.4 1
 _ZNK6TagLib10ByteVector3midEjj@Base 1.4 1
 _ZNK6TagLib10ByteVector4dataEv@Base 1.4 1
 _ZNK6TagLib10ByteVector4findERKS0_ji@Base 1.4 1
 _ZNK6TagLib10ByteVector4findEcji@Base 1.9.1
 _ZNK6TagLib10ByteVector4rendEv@Base 1.9.1
 _ZNK6TagLib10ByteVector4sizeEv@Base 1.4 1
 _ZNK6TagLib10ByteVector5beginEv@Base 1.4 1
 _ZNK6TagLib10ByteVector5rfindERKS0_ji@Base 1.4 1
 _ZNK6TagLib10ByteVector5toHexEv@Base 1.7
 _ZNK6TagLib10ByteVector6isNullEv@Base 1.4 1
 _ZNK6TagLib10ByteVector6rbeginEv@Base 1.9.1
 _ZNK6TagLib10ByteVector6toUIntEb@Base 1.4 1
 _ZNK6TagLib10ByteVector6toUIntEjb@Base 1.9.1
 _ZNK6TagLib10ByteVector6toUIntEjjb@Base 1.9.1
 _ZNK6TagLib10ByteVector7isEmptyEv@Base 1.4 1
 _ZNK6TagLib10ByteVector7toShortEb@Base 1.4 1
 _ZNK6TagLib10ByteVector7toShortEjb@Base 1.9.1
 _ZNK6TagLib10ByteVector8checksumEv@Base 1.4 1
 _ZNK6TagLib10ByteVector8endsWithERKS0_@Base 1.4 1
 _ZNK6TagLib10ByteVector8toUShortEb@Base 1.7
 _ZNK6TagLib10ByteVector8toUShortEjb@Base 1.9.1
 _ZNK6TagLib10ByteVectoreqEPKc@Base 1.4 1
 _ZNK6TagLib10ByteVectoreqERKS0_@Base 1.4 1
 _ZNK6TagLib10ByteVectorgtERKS0_@Base 1.4 1
 _ZNK6TagLib10ByteVectorixEi@Base 1.4 1
 _ZNK6TagLib10ByteVectorltERKS0_@Base 1.4 1
 _ZNK6TagLib10ByteVectorneEPKc@Base 1.4 1
 _ZNK6TagLib10ByteVectorneERKS0_@Base 1.4 1
 _ZNK6TagLib10ByteVectorplERKS0_@Base 1.4 1
 _ZNK6TagLib10FileStream4nameEv@Base 1.8
 _ZNK6TagLib10FileStream4tellEv@Base 1.8
 _ZNK6TagLib10FileStream6isOpenEv@Base 1.8
 _ZNK6TagLib10FileStream8readOnlyEv@Base 1.8
 _ZNK6TagLib10RefCounter5countEv@Base 1.9.1
 _ZNK6TagLib10StringList8toStringERKNS_6StringE@Base 1.4 1
 _ZNK6TagLib11PropertyMap15unsupportedDataEv@Base 1.8
 _ZNK6TagLib11PropertyMap4findERKNS_6StringE@Base 1.8
 _ZNK6TagLib11PropertyMap8containsERKNS_6StringE@Base 1.8
 _ZNK6TagLib11PropertyMap8containsERKS0_@Base 1.8
 _ZNK6TagLib11PropertyMap8toStringEv@Base 1.8
 _ZNK6TagLib11PropertyMapeqERKS0_@Base 1.8
 _ZNK6TagLib11PropertyMapixERKNS_6StringE@Base 1.8
 _ZNK6TagLib11PropertyMapneERKS0_@Base 1.8
 _ZNK6TagLib14ByteVectorList12toByteVectorERKNS_10ByteVectorE@Base 1.4 1
 _ZNK6TagLib16ByteVectorStream4nameEv@Base 1.8
 _ZNK6TagLib16ByteVectorStream4tellEv@Base 1.8
 _ZNK6TagLib16ByteVectorStream6isOpenEv@Base 1.8
 _ZNK6TagLib16ByteVectorStream8readOnlyEv@Base 1.8
 _ZNK6TagLib2IT10Properties10sampleRateEv@Base 1.8
 _ZNK6TagLib2IT10Properties11sampleCountEv@Base 1.8
 _ZNK6TagLib2IT10Properties12globalVolumeEv@Base 1.8
 _ZNK6TagLib2IT10Properties12patternCountEv@Base 1.8
 _ZNK6TagLib2IT10Properties15instrumentCountEv@Base 1.8
 _ZNK6TagLib2IT10Properties15pitchWheelDepthEv@Base 1.8
 _ZNK6TagLib2IT10Properties16lengthInPatternsEv@Base 1.8
 _ZNK6TagLib2IT10Properties17compatibleVersionEv@Base 1.8
 _ZNK6TagLib2IT10Properties17panningSeparationEv@Base 1.8
 _ZNK6TagLib2IT10Properties5flagsEv@Base 1.8
 _ZNK6TagLib2IT10Properties5tempoEv@Base 1.8
 _ZNK6TagLib2IT10Properties6lengthEv@Base 1.8
 _ZNK6TagLib2IT10Properties6stereoEv@Base 1.8
 _ZNK6TagLib2IT10Properties7bitrateEv@Base 1.8
 _ZNK6TagLib2IT10Properties7specialEv@Base 1.8
 _ZNK6TagLib2IT10Properties7versionEv@Base 1.8
 _ZNK6TagLib2IT10Properties8bpmSpeedEv@Base 1.8
 _ZNK6TagLib2IT10Properties8channelsEv@Base 1.8
 _ZNK6TagLib2IT10Properties9mixVolumeEv@Base 1.8
 _ZNK6TagLib2IT4File10propertiesEv@Base 1.8
 _ZNK6TagLib2IT4File15audioPropertiesEv@Base 1.8
 _ZNK6TagLib2IT4File3tagEv@Base 1.8
 _ZNK6TagLib2XM4File10propertiesEv@Base 1.8
 _ZNK6TagLib2XM4File15audioPropertiesEv@Base 1.8
 _ZNK6TagLib2XM4File3tagEv@Base 1.8
 _ZNK6TagLib3APE10Properties10sampleRateEv@Base 1.7
 _ZNK6TagLib3APE10Properties12sampleFramesEv@Base 1.8
 _ZNK6TagLib3APE10Properties13bitsPerSampleEv@Base 1.7
 _ZNK6TagLib3APE10Properties6lengthEv@Base 1.7
 _ZNK6TagLib3APE10Properties7bitrateEv@Base 1.7
 _ZNK6TagLib3APE10Properties7versionEv@Base 1.7
 _ZNK6TagLib3APE10Properties8channelsEv@Base 1.7
 _ZNK6TagLib3APE3Tag10propertiesEv@Base 1.8
 _ZNK6TagLib3APE3Tag11itemListMapEv@Base 1.4 1
 _ZNK6TagLib3APE3Tag4yearEv@Base 1.4 1
 _ZNK6TagLib3APE3Tag5albumEv@Base 1.4 1
 _ZNK6TagLib3APE3Tag5genreEv@Base 1.4 1
 _ZNK6TagLib3APE3Tag5titleEv@Base 1.4 1
 _ZNK6TagLib3APE3Tag5trackEv@Base 1.4 1
 _ZNK6TagLib3APE3Tag6artistEv@Base 1.4 1
 _ZNK6TagLib3APE3Tag6footerEv@Base 1.4 1
 _ZNK6TagLib3APE3Tag6renderEv@Base 1.4 1
 _ZNK6TagLib3APE3Tag7commentEv@Base 1.4 1
 _ZNK6TagLib3APE3Tag7isEmptyEv@Base 1.7
 _ZNK6TagLib3APE4File10propertiesEv@Base 1.8
 _ZNK6TagLib3APE4File11hasID3v1TagEv@Base 1.9.1
 _ZNK6TagLib3APE4File15audioPropertiesEv@Base 1.7
 _ZNK6TagLib3APE4File3tagEv@Base 1.7
 _ZNK6TagLib3APE4File9hasAPETagEv@Base 1.9.1
 _ZNK6TagLib3APE4Item10binaryDataEv@Base 1.8
 _ZNK6TagLib3APE4Item10isReadOnlyEv@Base 1.4 1
 _ZNK6TagLib3APE4Item12toStringListEv@Base 1.4 1
 _ZNK6TagLib3APE4Item3keyEv@Base 1.4 1
 _ZNK6TagLib3APE4Item4sizeEv@Base 1.4 1
 _ZNK6TagLib3APE4Item4typeEv@Base 1.4 1
 _ZNK6TagLib3APE4Item5valueEv@Base 1.4 1
 _ZNK6TagLib3APE4Item6renderEv@Base 1.4 1
 _ZNK6TagLib3APE4Item6valuesEv@Base 1.5
 _ZNK6TagLib3APE4Item7isEmptyEv@Base 1.4 1
 _ZNK6TagLib3APE4Item8toStringEv@Base 1.4 1
 _ZNK6TagLib3APE6Footer12renderFooterEv@Base 1.4 1
 _ZNK6TagLib3APE6Footer12renderHeaderEv@Base 1.4 1
 _ZNK6TagLib3APE6Footer13footerPresentEv@Base 1.4 1
 _ZNK6TagLib3APE6Footer13headerPresentEv@Base 1.4 1
 _ZNK6TagLib3APE6Footer15completeTagSizeEv@Base 1.4 1
 _ZNK6TagLib3APE6Footer16setHeaderPresentEb@Base 1.4 1
 _ZNK6TagLib3APE6Footer6renderEb@Base 1.4 1
 _ZNK6TagLib3APE6Footer7tagSizeEv@Base 1.4 1
 _ZNK6TagLib3APE6Footer7versionEv@Base 1.4 1
 _ZNK6TagLib3APE6Footer8isHeaderEv@Base 1.4 1
 _ZNK6TagLib3APE6Footer9itemCountEv@Base 1.4 1
 _ZNK6TagLib3ASF10Properties10sampleRateEv@Base 1.6-2~
 _ZNK6TagLib3ASF10Properties11isEncryptedEv@Base 1.8
 _ZNK6TagLib3ASF10Properties6lengthEv@Base 1.6-2~
 _ZNK6TagLib3ASF10Properties7bitrateEv@Base 1.6-2~
 _ZNK6TagLib3ASF10Properties8channelsEv@Base 1.6-2~
 _ZNK6TagLib3ASF3Tag10propertiesEv@Base 1.9.1
 _ZNK6TagLib3ASF3Tag4yearEv@Base 1.6-2~
 _ZNK6TagLib3ASF3Tag5albumEv@Base 1.6-2~
 _ZNK6TagLib3ASF3Tag5genreEv@Base 1.6-2~
 _ZNK6TagLib3ASF3Tag5titleEv@Base 1.6-2~
 _ZNK6TagLib3ASF3Tag5trackEv@Base 1.6-2~
 _ZNK6TagLib3ASF3Tag6artistEv@Base 1.6-2~
 _ZNK6TagLib3ASF3Tag6ratingEv@Base 1.6-2~
 _ZNK6TagLib3ASF3Tag7commentEv@Base 1.6-2~
 _ZNK6TagLib3ASF3Tag7isEmptyEv@Base 1.6-2~
 _ZNK6TagLib3ASF3Tag9copyrightEv@Base 1.6-2~
 _ZNK6TagLib3ASF4File10propertiesEv@Base 1.9.1
 _ZNK6TagLib3ASF4File15audioPropertiesEv@Base 1.6-2~
 _ZNK6TagLib3ASF4File3tagEv@Base 1.6-2~
 _ZNK6TagLib3ASF7Picture11descriptionEv@Base 1.7
 _ZNK6TagLib3ASF7Picture4typeEv@Base 1.7
 _ZNK6TagLib3ASF7Picture6renderEv@Base 1.7
 _ZNK6TagLib3ASF7Picture7isValidEv@Base 1.7
 _ZNK6TagLib3ASF7Picture7pictureEv@Base 1.7
 _ZNK6TagLib3ASF7Picture8dataSizeEv@Base 1.7
 _ZNK6TagLib3ASF7Picture8mimeTypeEv@Base 1.7
 _ZNK6TagLib3ASF9Attribute11toULongLongEv@Base 1.6-2~
 _ZNK6TagLib3ASF9Attribute12toByteVectorEv@Base 1.6-2~
 _ZNK6TagLib3ASF9Attribute4typeEv@Base 1.6-2~
 _ZNK6TagLib3ASF9Attribute6renderERKNS_6StringEi@Base 1.6-2~
 _ZNK6TagLib3ASF9Attribute6streamEv@Base 1.6-2~
 _ZNK6TagLib3ASF9Attribute6toBoolEv@Base 1.6-2~
 _ZNK6TagLib3ASF9Attribute6toUIntEv@Base 1.6-2~
 _ZNK6TagLib3ASF9Attribute8dataSizeEv@Base 1.6.2
 _ZNK6TagLib3ASF9Attribute8languageEv@Base 1.6-2~
 _ZNK6TagLib3ASF9Attribute8toStringEv@Base 1.6-2~
 _ZNK6TagLib3ASF9Attribute8toUShortEv@Base 1.6-2~
 _ZNK6TagLib3ASF9Attribute9toPictureEv@Base 1.7
 _ZNK6TagLib3MP410Properties10sampleRateEv@Base 1.6-2~
 _ZNK6TagLib3MP410Properties11isEncryptedEv@Base 1.8
 _ZNK6TagLib3MP410Properties13bitsPerSampleEv@Base 1.6-2~
 _ZNK6TagLib3MP410Properties5codecEv@Base 1.9.1
 _ZNK6TagLib3MP410Properties6lengthEv@Base 1.6-2~
 _ZNK6TagLib3MP410Properties7bitrateEv@Base 1.6-2~
 _ZNK6TagLib3MP410Properties8channelsEv@Base 1.6-2~
 _ZNK6TagLib3MP43Tag10propertiesEv@Base 1.9.1
 _ZNK6TagLib3MP43Tag4yearEv@Base 1.6-2~
 _ZNK6TagLib3MP43Tag5albumEv@Base 1.6-2~
 _ZNK6TagLib3MP43Tag5genreEv@Base 1.6-2~
 _ZNK6TagLib3MP43Tag5titleEv@Base 1.6-2~
 _ZNK6TagLib3MP43Tag5trackEv@Base 1.6-2~
 _ZNK6TagLib3MP43Tag6artistEv@Base 1.6-2~
 _ZNK6TagLib3MP43Tag7commentEv@Base 1.6-2~
 _ZNK6TagLib3MP44File10propertiesEv@Base 1.9.1
 _ZNK6TagLib3MP44File15audioPropertiesEv@Base 1.6-2~
 _ZNK6TagLib3MP44File3tagEv@Base 1.6-2~
 _ZNK6TagLib3MP44Item10toLongLongEv@Base 1.8
 _ZNK6TagLib3MP44Item12atomDataTypeEv@Base 1.8
 _ZNK6TagLib3MP44Item12toStringListEv@Base 1.6-2~
 _ZNK6TagLib3MP44Item14toCoverArtListEv@Base 1.6.1
 _ZNK6TagLib3MP44Item16toByteVectorListEv@Base 1.8
 _ZNK6TagLib3MP44Item5toIntEv@Base 1.6-2~
 _ZNK6TagLib3MP44Item6toBoolEv@Base 1.6-2~
 _ZNK6TagLib3MP44Item6toByteEv@Base 1.8
 _ZNK6TagLib3MP44Item6toUIntEv@Base 1.8
 _ZNK6TagLib3MP44Item7isValidEv@Base 1.6-2~
 _ZNK6TagLib3MP44Item9toIntPairEv@Base 1.6-2~
 _ZNK6TagLib3MP48CoverArt4dataEv@Base 1.6.1
 _ZNK6TagLib3MP48CoverArt6formatEv@Base 1.6.1
 _ZNK6TagLib3MPC10Properties10mpcVersionEv@Base 1.4 1
 _ZNK6TagLib3MPC10Properties10sampleRateEv@Base 1.4 1
 _ZNK6TagLib3MPC10Properties11totalFramesEv@Base 1.8
 _ZNK6TagLib3MPC10Properties12sampleFramesEv@Base 1.8
 _ZNK6TagLib3MPC10Properties6lengthEv@Base 1.4 1
 _ZNK6TagLib3MPC10Properties7bitrateEv@Base 1.4 1
 _ZNK6TagLib3MPC10Properties8channelsEv@Base 1.4 1
 _ZNK6TagLib3MPC10Properties9albumGainEv@Base 1.8
 _ZNK6TagLib3MPC10Properties9albumPeakEv@Base 1.8
 _ZNK6TagLib3MPC10Properties9trackGainEv@Base 1.8
 _ZNK6TagLib3MPC10Properties9trackPeakEv@Base 1.8
 _ZNK6TagLib3MPC4File10propertiesEv@Base 1.8
 _ZNK6TagLib3MPC4File11hasID3v1TagEv@Base 1.9.1
 _ZNK6TagLib3MPC4File15audioPropertiesEv@Base 1.4 1
 _ZNK6TagLib3MPC4File3tagEv@Base 1.4 1
 _ZNK6TagLib3MPC4File9hasAPETagEv@Base 1.9.1
 _ZNK6TagLib3Mod10Properties10sampleRateEv@Base 1.8
 _ZNK6TagLib3Mod10Properties15instrumentCountEv@Base 1.8
 _ZNK6TagLib3Mod10Properties16lengthInPatternsEv@Base 1.8
 _ZNK6TagLib3Mod10Properties6lengthEv@Base 1.8
 _ZNK6TagLib3Mod10Properties7bitrateEv@Base 1.8
 _ZNK6TagLib3Mod10Properties8channelsEv@Base 1.8
 _ZNK6TagLib3Mod3Tag10propertiesEv@Base 1.8
 _ZNK6TagLib3Mod3Tag11trackerNameEv@Base 1.8
 _ZNK6TagLib3Mod3Tag4yearEv@Base 1.8
 _ZNK6TagLib3Mod3Tag5albumEv@Base 1.8
 _ZNK6TagLib3Mod3Tag5genreEv@Base 1.8
 _ZNK6TagLib3Mod3Tag5titleEv@Base 1.8
 _ZNK6TagLib3Mod3Tag5trackEv@Base 1.8
 _ZNK6TagLib3Mod3Tag6artistEv@Base 1.8
 _ZNK6TagLib3Mod3Tag7commentEv@Base 1.8
 _ZNK6TagLib3Mod4File10propertiesEv@Base 1.8
 _ZNK6TagLib3Mod4File15audioPropertiesEv@Base 1.8
 _ZNK6TagLib3Mod4File3tagEv@Base 1.8
 _ZNK6TagLib3Ogg10PageHeader11packetSizesEv@Base 1.4 1
 _ZNK6TagLib3Ogg10PageHeader12lacingValuesEv@Base 1.4 1
 _ZNK6TagLib3Ogg10PageHeader16lastPageOfStreamEv@Base 1.4 1
 _ZNK6TagLib3Ogg10PageHeader17firstPageOfStreamEv@Base 1.4 1
 _ZNK6TagLib3Ogg10PageHeader18pageSequenceNumberEv@Base 1.4 1
 _ZNK6TagLib3Ogg10PageHeader18streamSerialNumberEv@Base 1.4 1
 _ZNK6TagLib3Ogg10PageHeader19lastPacketCompletedEv@Base 1.4 1
 _ZNK6TagLib3Ogg10PageHeader20firstPacketContinuedEv@Base 1.4 1
 _ZNK6TagLib3Ogg10PageHeader24absoluteGranularPositionEv@Base 1.4 1
 _ZNK6TagLib3Ogg10PageHeader4sizeEv@Base 1.4 1
 _ZNK6TagLib3Ogg10PageHeader6renderEv@Base 1.4 1
 _ZNK6TagLib3Ogg10PageHeader7isValidEv@Base 1.4 1
 _ZNK6TagLib3Ogg10PageHeader8dataSizeEv@Base 1.4 1
 _ZNK6TagLib3Ogg11XiphComment10fieldCountEv@Base 1.4 1
 _ZNK6TagLib3Ogg11XiphComment10propertiesEv@Base 1.8
 _ZNK6TagLib3Ogg11XiphComment12fieldListMapEv@Base 1.4 1
 _ZNK6TagLib3Ogg11XiphComment4yearEv@Base 1.4 1
 _ZNK6TagLib3Ogg11XiphComment5albumEv@Base 1.4 1
 _ZNK6TagLib3Ogg11XiphComment5genreEv@Base 1.4 1
 _ZNK6TagLib3Ogg11XiphComment5titleEv@Base 1.4 1
 _ZNK6TagLib3Ogg11XiphComment5trackEv@Base 1.4 1
 _ZNK6TagLib3Ogg11XiphComment6artistEv@Base 1.4 1
 _ZNK6TagLib3Ogg11XiphComment6renderEb@Base 1.4 1
 _ZNK6TagLib3Ogg11XiphComment6renderEv@Base 1.4 1
 _ZNK6TagLib3Ogg11XiphComment7commentEv@Base 1.4 1
 _ZNK6TagLib3Ogg11XiphComment7isEmptyEv@Base 1.4 1
 _ZNK6TagLib3Ogg11XiphComment8containsERKNS_6StringE@Base 1.5
 _ZNK6TagLib3Ogg11XiphComment8vendorIDEv@Base 1.4 1
 _ZNK6TagLib3Ogg4FLAC4File10propertiesEv@Base 1.9.1
 _ZNK6TagLib3Ogg4FLAC4File14hasXiphCommentEv@Base 1.9.1
 _ZNK6TagLib3Ogg4FLAC4File15audioPropertiesEv@Base 1.4 1
 _ZNK6TagLib3Ogg4FLAC4File3tagEv@Base 1.4 1
 _ZNK6TagLib3Ogg4Opus10Properties10sampleRateEv@Base 1.9.1
 _ZNK6TagLib3Ogg4Opus10Properties11opusVersionEv@Base 1.9.1
 _ZNK6TagLib3Ogg4Opus10Properties15inputSampleRateEv@Base 1.9.1
 _ZNK6TagLib3Ogg4Opus10Properties6lengthEv@Base 1.9.1
 _ZNK6TagLib3Ogg4Opus10Properties7bitrateEv@Base 1.9.1
 _ZNK6TagLib3Ogg4Opus10Properties8channelsEv@Base 1.9.1
 _ZNK6TagLib3Ogg4Opus4File10propertiesEv@Base 1.9.1
 _ZNK6TagLib3Ogg4Opus4File15audioPropertiesEv@Base 1.9.1
 _ZNK6TagLib3Ogg4Opus4File3tagEv@Base 1.9.1
 _ZNK6TagLib3Ogg4Page10fileOffsetEv@Base 1.4 1
 _ZNK6TagLib3Ogg4Page11packetCountEv@Base 1.4 1
 _ZNK6TagLib3Ogg4Page14containsPacketEi@Base 1.4 1
 _ZNK6TagLib3Ogg4Page16firstPacketIndexEv@Base 1.4 1
 _ZNK6TagLib3Ogg4Page4sizeEv@Base 1.4 1
 _ZNK6TagLib3Ogg4Page6headerEv@Base 1.4 1
 _ZNK6TagLib3Ogg4Page6renderEv@Base 1.4 1
 _ZNK6TagLib3Ogg4Page7packetsEv@Base 1.4 1
 _ZNK6TagLib3Ogg5Speex10Properties10sampleRateEv@Base 1.5
 _ZNK6TagLib3Ogg5Speex10Properties12speexVersionEv@Base 1.5
 _ZNK6TagLib3Ogg5Speex10Properties6lengthEv@Base 1.5
 _ZNK6TagLib3Ogg5Speex10Properties7bitrateEv@Base 1.5
 _ZNK6TagLib3Ogg5Speex10Properties8channelsEv@Base 1.5
 _ZNK6TagLib3Ogg5Speex4File10propertiesEv@Base 1.9.1
 _ZNK6TagLib3Ogg5Speex4File15audioPropertiesEv@Base 1.5
 _ZNK6TagLib3Ogg5Speex4File3tagEv@Base 1.5
 _ZNK6TagLib3S3M10Properties10sampleRateEv@Base 1.8
 _ZNK6TagLib3S3M10Properties11sampleCountEv@Base 1.8
 _ZNK6TagLib3S3M10Properties12globalVolumeEv@Base 1.8
 _ZNK6TagLib3S3M10Properties12masterVolumeEv@Base 1.8
 _ZNK6TagLib3S3M10Properties12patternCountEv@Base 1.8
 _ZNK6TagLib3S3M10Properties14trackerVersionEv@Base 1.8
 _ZNK6TagLib3S3M10Properties16lengthInPatternsEv@Base 1.8
 _ZNK6TagLib3S3M10Properties17fileFormatVersionEv@Base 1.8
 _ZNK6TagLib3S3M10Properties5flagsEv@Base 1.8
 _ZNK6TagLib3S3M10Properties5tempoEv@Base 1.8
 _ZNK6TagLib3S3M10Properties6lengthEv@Base 1.8
 _ZNK6TagLib3S3M10Properties6stereoEv@Base 1.8
 _ZNK6TagLib3S3M10Properties7bitrateEv@Base 1.8
 _ZNK6TagLib3S3M10Properties8bpmSpeedEv@Base 1.8
 _ZNK6TagLib3S3M10Properties8channelsEv@Base 1.8
 _ZNK6TagLib3S3M4File10propertiesEv@Base 1.8
 _ZNK6TagLib3S3M4File15audioPropertiesEv@Base 1.8
 _ZNK6TagLib3S3M4File3tagEv@Base 1.8
 _ZNK6TagLib3Tag10propertiesEv@Base 1.8
 _ZNK6TagLib3Tag7isEmptyEv@Base 1.4 1
 _ZNK6TagLib4FLAC10Properties10sampleRateEv@Base 1.4 1
 _ZNK6TagLib4FLAC10Properties11sampleWidthEv@Base 1.4 1
 _ZNK6TagLib4FLAC10Properties12sampleFramesEv@Base 1.8
 _ZNK6TagLib4FLAC10Properties6lengthEv@Base 1.4 1
 _ZNK6TagLib4FLAC10Properties7bitrateEv@Base 1.4 1
 _ZNK6TagLib4FLAC10Properties8channelsEv@Base 1.4 1
 _ZNK6TagLib4FLAC10Properties9signatureEv@Base 1.7
 _ZNK6TagLib4FLAC20UnknownMetadataBlock4codeEv@Base 1.7
 _ZNK6TagLib4FLAC20UnknownMetadataBlock4dataEv@Base 1.7
 _ZNK6TagLib4FLAC20UnknownMetadataBlock6renderEv@Base 1.7
 _ZNK6TagLib4FLAC4File10propertiesEv@Base 1.8
 _ZNK6TagLib4FLAC4File11hasID3v1TagEv@Base 1.9.1
 _ZNK6TagLib4FLAC4File11hasID3v2TagEv@Base 1.9.1
 _ZNK6TagLib4FLAC4File14hasXiphCommentEv@Base 1.9.1
 _ZNK6TagLib4FLAC4File15audioPropertiesEv@Base 1.4 1
 _ZNK6TagLib4FLAC4File15xiphCommentDataEv@Base 1.5
 _ZNK6TagLib4FLAC4File3tagEv@Base 1.4 1
 _ZNK6TagLib4FLAC7Picture10colorDepthEv@Base 1.7
 _ZNK6TagLib4FLAC7Picture11descriptionEv@Base 1.7
 _ZNK6TagLib4FLAC7Picture4codeEv@Base 1.7
 _ZNK6TagLib4FLAC7Picture4dataEv@Base 1.7
 _ZNK6TagLib4FLAC7Picture4typeEv@Base 1.7
 _ZNK6TagLib4FLAC7Picture5widthEv@Base 1.7
 _ZNK6TagLib4FLAC7Picture6heightEv@Base 1.7
 _ZNK6TagLib4FLAC7Picture6renderEv@Base 1.7
 _ZNK6TagLib4FLAC7Picture8mimeTypeEv@Base 1.7
 _ZNK6TagLib4FLAC7Picture9numColorsEv@Base 1.7
 _ZNK6TagLib4File10propertiesEv@Base 1.8
 _ZNK6TagLib4File4nameEv@Base 1.4 1
 _ZNK6TagLib4File4tellEv@Base 1.4 1
 _ZNK6TagLib4File6isOpenEv@Base 1.4 1
 _ZNK6TagLib4File7isValidEv@Base 1.4 1
 _ZNK6TagLib4File8readOnlyEv@Base 1.4 1
 _ZNK6TagLib4MPEG10Properties10isOriginalEv@Base 1.4 1
 _ZNK6TagLib4MPEG10Properties10sampleRateEv@Base 1.4 1
 _ZNK6TagLib4MPEG10Properties10xingHeaderEv@Base 1.5
 _ZNK6TagLib4MPEG10Properties11channelModeEv@Base 1.4 1
 _ZNK6TagLib4MPEG10Properties13isCopyrightedEv@Base 1.4 1
 _ZNK6TagLib4MPEG10Properties17protectionEnabledEv@Base 1.5
 _ZNK6TagLib4MPEG10Properties5layerEv@Base 1.4 1
 _ZNK6TagLib4MPEG10Properties6lengthEv@Base 1.4 1
 _ZNK6TagLib4MPEG10Properties7bitrateEv@Base 1.4 1
 _ZNK6TagLib4MPEG10Properties7versionEv@Base 1.4 1
 _ZNK6TagLib4MPEG10Properties8channelsEv@Base 1.4 1
 _ZNK6TagLib4MPEG10XingHeader11totalFramesEv@Base 1.4 1
 _ZNK6TagLib4MPEG10XingHeader7isValidEv@Base 1.4 1
 _ZNK6TagLib4MPEG10XingHeader9totalSizeEv@Base 1.4 1
 _ZNK6TagLib4MPEG4File10propertiesEv@Base 1.8
 _ZNK6TagLib4MPEG4File11hasID3v1TagEv@Base 1.9.1
 _ZNK6TagLib4MPEG4File11hasID3v2TagEv@Base 1.9.1
 _ZNK6TagLib4MPEG4File15audioPropertiesEv@Base 1.4 1
 _ZNK6TagLib4MPEG4File3tagEv@Base 1.4 1
 _ZNK6TagLib4MPEG4File9hasAPETagEv@Base 1.9.1
 _ZNK6TagLib4MPEG6Header10isOriginalEv@Base 1.4 1
 _ZNK6TagLib4MPEG6Header10sampleRateEv@Base 1.4 1
 _ZNK6TagLib4MPEG6Header11channelModeEv@Base 1.4 1
 _ZNK6TagLib4MPEG6Header11frameLengthEv@Base 1.4 1
 _ZNK6TagLib4MPEG6Header13isCopyrightedEv@Base 1.4 1
 _ZNK6TagLib4MPEG6Header15samplesPerFrameEv@Base 1.5
 _ZNK6TagLib4MPEG6Header17protectionEnabledEv@Base 1.4 1
 _ZNK6TagLib4MPEG6Header5layerEv@Base 1.4 1
 _ZNK6TagLib4MPEG6Header7bitrateEv@Base 1.4 1
 _ZNK6TagLib4MPEG6Header7isValidEv@Base 1.4 1
 _ZNK6TagLib4MPEG6Header7versionEv@Base 1.4 1
 _ZNK6TagLib4MPEG6Header8isPaddedEv@Base 1.4 1
 _ZNK6TagLib4RIFF3WAV10Properties10sampleRateEv@Base 1.6
 _ZNK6TagLib4RIFF3WAV10Properties11sampleWidthEv@Base 1.7
 _ZNK6TagLib4RIFF3WAV10Properties12sampleFramesEv@Base 1.8
 _ZNK6TagLib4RIFF3WAV10Properties6lengthEv@Base 1.6
 _ZNK6TagLib4RIFF3WAV10Properties7bitrateEv@Base 1.6
 _ZNK6TagLib4RIFF3WAV10Properties8channelsEv@Base 1.6
 _ZNK6TagLib4RIFF3WAV4File10hasInfoTagEv@Base 1.9.1
 _ZNK6TagLib4RIFF3WAV4File10propertiesEv@Base 1.8
 _ZNK6TagLib4RIFF3WAV4File11hasID3v2TagEv@Base 1.9.1
 _ZNK6TagLib4RIFF3WAV4File15audioPropertiesEv@Base 1.6
 _ZNK6TagLib4RIFF3WAV4File3tagEv@Base 1.6
 _ZNK6TagLib4RIFF3WAV4File7InfoTagEv@Base 1.9.1
 _ZNK6TagLib4RIFF3WAV4File8ID3v2TagEv@Base 1.9.1
 _ZNK6TagLib4RIFF4AIFF10Properties10sampleRateEv@Base 1.6
 _ZNK6TagLib4RIFF4AIFF10Properties11sampleWidthEv@Base 1.7
 _ZNK6TagLib4RIFF4AIFF10Properties12sampleFramesEv@Base 1.8
 _ZNK6TagLib4RIFF4AIFF10Properties6lengthEv@Base 1.6
 _ZNK6TagLib4RIFF4AIFF10Properties7bitrateEv@Base 1.6
 _ZNK6TagLib4RIFF4AIFF10Properties8channelsEv@Base 1.6
 _ZNK6TagLib4RIFF4AIFF4File10propertiesEv@Base 1.8
 _ZNK6TagLib4RIFF4AIFF4File15audioPropertiesEv@Base 1.6
 _ZNK6TagLib4RIFF4AIFF4File3tagEv@Base 1.6
 _ZNK6TagLib4RIFF4File10chunkCountEv@Base 1.6
 _ZNK6TagLib4RIFF4File11chunkOffsetEj@Base 1.6
 _ZNK6TagLib4RIFF4File12chunkPaddingEj@Base 1.7
 _ZNK6TagLib4RIFF4File13chunkDataSizeEj@Base 1.7
 _ZNK6TagLib4RIFF4File8riffSizeEv@Base 1.7
 _ZNK6TagLib4RIFF4File9chunkNameEj@Base 1.6
 _ZNK6TagLib4RIFF4Info13StringHandler5parseERKNS_10ByteVectorE@Base 1.9.1
 _ZNK6TagLib4RIFF4Info13StringHandler6renderERKNS_6StringE@Base 1.9.1
 _ZNK6TagLib4RIFF4Info3Tag12fieldListMapEv@Base 1.9.1
 _ZNK6TagLib4RIFF4Info3Tag4yearEv@Base 1.9.1
 _ZNK6TagLib4RIFF4Info3Tag5albumEv@Base 1.9.1
 _ZNK6TagLib4RIFF4Info3Tag5genreEv@Base 1.9.1
 _ZNK6TagLib4RIFF4Info3Tag5titleEv@Base 1.9.1
 _ZNK6TagLib4RIFF4Info3Tag5trackEv@Base 1.9.1
 _ZNK6TagLib4RIFF4Info3Tag6artistEv@Base 1.9.1
 _ZNK6TagLib4RIFF4Info3Tag6renderEv@Base 1.9.1
 _ZNK6TagLib4RIFF4Info3Tag7commentEv@Base 1.9.1
 _ZNK6TagLib4RIFF4Info3Tag7isEmptyEv@Base 1.9.1
 _ZNK6TagLib4RIFF4Info3Tag9fieldTextERKNS_10ByteVectorE@Base 1.9.1
 _ZNK6TagLib5ID3v113StringHandler5parseERKNS_10ByteVectorE@Base 1.4 1
 _ZNK6TagLib5ID3v113StringHandler6renderERKNS_6StringE@Base 1.4 1
 _ZNK6TagLib5ID3v13Tag11genreNumberEv@Base 1.9.1
 _ZNK6TagLib5ID3v13Tag4yearEv@Base 1.4 1
 _ZNK6TagLib5ID3v13Tag5albumEv@Base 1.4 1
 _ZNK6TagLib5ID3v13Tag5genreEv@Base 1.4 1
 _ZNK6TagLib5ID3v13Tag5titleEv@Base 1.4 1
 _ZNK6TagLib5ID3v13Tag5trackEv@Base 1.4 1
 _ZNK6TagLib5ID3v13Tag6artistEv@Base 1.4 1
 _ZNK6TagLib5ID3v13Tag6renderEv@Base 1.4 1
 _ZNK6TagLib5ID3v13Tag7commentEv@Base 1.4 1
 _ZNK6TagLib5ID3v212FrameFactory11createFrameERKNS_10ByteVectorEPNS0_6HeaderE@Base 1.5
 _ZNK6TagLib5ID3v212FrameFactory11createFrameERKNS_10ByteVectorEb@Base 1.4 1
 _ZNK6TagLib5ID3v212FrameFactory11createFrameERKNS_10ByteVectorEj@Base 1.4 1
 _ZNK6TagLib5ID3v212FrameFactory11updateFrameEPNS0_5Frame6HeaderE@Base 1.4 1
 _ZNK6TagLib5ID3v212FrameFactory11updateGenreEPNS0_23TextIdentificationFrameE@Base 1.5
 _ZNK6TagLib5ID3v212FrameFactory12convertFrameEPKcS3_PNS0_5Frame6HeaderE@Base 1.4 1
 _ZNK6TagLib5ID3v212FrameFactory19defaultTextEncodingEv@Base 1.4 1
 _ZNK6TagLib5ID3v212PrivateFrame12renderFieldsEv@Base 1.6
 _ZNK6TagLib5ID3v212PrivateFrame4dataEv@Base 1.6
 _ZNK6TagLib5ID3v212PrivateFrame5ownerEv@Base 1.6
 _ZNK6TagLib5ID3v212PrivateFrame8toStringEv@Base 1.6
 _ZNK6TagLib5ID3v212UnknownFrame12renderFieldsEv@Base 1.4 1
 _ZNK6TagLib5ID3v212UnknownFrame4dataEv@Base 1.4 1
 _ZNK6TagLib5ID3v212UnknownFrame8toStringEv@Base 1.4 1
 _ZNK6TagLib5ID3v212UrlLinkFrame12asPropertiesEv@Base 1.8
 _ZNK6TagLib5ID3v212UrlLinkFrame12renderFieldsEv@Base 1.5
 _ZNK6TagLib5ID3v212UrlLinkFrame3urlEv@Base 1.5
 _ZNK6TagLib5ID3v212UrlLinkFrame8toStringEv@Base 1.5
 _ZNK6TagLib5ID3v213CommentsFrame11descriptionEv@Base 1.4 1
 _ZNK6TagLib5ID3v213CommentsFrame12asPropertiesEv@Base 1.8
 _ZNK6TagLib5ID3v213CommentsFrame12renderFieldsEv@Base 1.4 1
 _ZNK6TagLib5ID3v213CommentsFrame12textEncodingEv@Base 1.4 1
 _ZNK6TagLib5ID3v213CommentsFrame4textEv@Base 1.4 1
 _ZNK6TagLib5ID3v213CommentsFrame8languageEv@Base 1.4 1
 _ZNK6TagLib5ID3v213CommentsFrame8toStringEv@Base 1.4 1
 _ZNK6TagLib5ID3v214ExtendedHeader4sizeEv@Base 1.4 1
 _ZNK6TagLib5ID3v214OwnershipFrame12renderFieldsEv@Base 1.8
 _ZNK6TagLib5ID3v214OwnershipFrame12textEncodingEv@Base 1.8
 _ZNK6TagLib5ID3v214OwnershipFrame13datePurchasedEv@Base 1.8
 _ZNK6TagLib5ID3v214OwnershipFrame6sellerEv@Base 1.8
 _ZNK6TagLib5ID3v214OwnershipFrame8toStringEv@Base 1.8
 _ZNK6TagLib5ID3v214OwnershipFrame9pricePaidEv@Base 1.8
 _ZNK6TagLib5ID3v216UserUrlLinkFrame11descriptionEv@Base 1.5
 _ZNK6TagLib5ID3v216UserUrlLinkFrame12asPropertiesEv@Base 1.8
 _ZNK6TagLib5ID3v216UserUrlLinkFrame12renderFieldsEv@Base 1.5
 _ZNK6TagLib5ID3v216UserUrlLinkFrame12textEncodingEv@Base 1.5
 _ZNK6TagLib5ID3v216UserUrlLinkFrame8toStringEv@Base 1.5
 _ZNK6TagLib5ID3v218PopularimeterFrame12renderFieldsEv@Base 1.6
 _ZNK6TagLib5ID3v218PopularimeterFrame5emailEv@Base 1.6
 _ZNK6TagLib5ID3v218PopularimeterFrame6ratingEv@Base 1.6
 _ZNK6TagLib5ID3v218PopularimeterFrame7counterEv@Base 1.6
 _ZNK6TagLib5ID3v218PopularimeterFrame8toStringEv@Base 1.6
 _ZNK6TagLib5ID3v219Latin1StringHandler5parseERKNS_10ByteVectorE@Base 1.8
 _ZNK6TagLib5ID3v219RelativeVolumeFrame10peakVolumeENS1_11ChannelTypeE@Base 1.4 1
 _ZNK6TagLib5ID3v219RelativeVolumeFrame10peakVolumeEv@Base 1.4 1
 _ZNK6TagLib5ID3v219RelativeVolumeFrame11channelTypeEv@Base 1.4 1
 _ZNK6TagLib5ID3v219RelativeVolumeFrame12renderFieldsEv@Base 1.4 1
 _ZNK6TagLib5ID3v219RelativeVolumeFrame14identificationEv@Base 1.5
 _ZNK6TagLib5ID3v219RelativeVolumeFrame16volumeAdjustmentENS1_11ChannelTypeE@Base 1.4 1
 _ZNK6TagLib5ID3v219RelativeVolumeFrame16volumeAdjustmentEv@Base 1.4 1
 _ZNK6TagLib5ID3v219RelativeVolumeFrame21volumeAdjustmentIndexENS1_11ChannelTypeE@Base 1.4 1
 _ZNK6TagLib5ID3v219RelativeVolumeFrame21volumeAdjustmentIndexEv@Base 1.4 1
 _ZNK6TagLib5ID3v219RelativeVolumeFrame8channelsEv@Base 1.4 1
 _ZNK6TagLib5ID3v219RelativeVolumeFrame8toStringEv@Base 1.4 1
 _ZNK6TagLib5ID3v220AttachedPictureFrame11descriptionEv@Base 1.4 1
 _ZNK6TagLib5ID3v220AttachedPictureFrame12renderFieldsEv@Base 1.4 1
 _ZNK6TagLib5ID3v220AttachedPictureFrame12textEncodingEv@Base 1.4 1
 _ZNK6TagLib5ID3v220AttachedPictureFrame4typeEv@Base 1.4 1
 _ZNK6TagLib5ID3v220AttachedPictureFrame7pictureEv@Base 1.4 1
 _ZNK6TagLib5ID3v220AttachedPictureFrame8mimeTypeEv@Base 1.4 1
 _ZNK6TagLib5ID3v220AttachedPictureFrame8toStringEv@Base 1.4 1
 _ZNK6TagLib5ID3v223TextIdentificationFrame12asPropertiesEv@Base 1.8
 _ZNK6TagLib5ID3v223TextIdentificationFrame12renderFieldsEv@Base 1.4 1
 _ZNK6TagLib5ID3v223TextIdentificationFrame12textEncodingEv@Base 1.4 1
 _ZNK6TagLib5ID3v223TextIdentificationFrame18makeTIPLPropertiesEv@Base 1.8
 _ZNK6TagLib5ID3v223TextIdentificationFrame18makeTMCLPropertiesEv@Base 1.8
 _ZNK6TagLib5ID3v223TextIdentificationFrame8toStringEv@Base 1.4 1
 _ZNK6TagLib5ID3v223TextIdentificationFrame9fieldListEv@Base 1.4 1
 _ZNK6TagLib5ID3v225UniqueFileIdentifierFrame10identifierEv@Base 1.4 1
 _ZNK6TagLib5ID3v225UniqueFileIdentifierFrame12asPropertiesEv@Base 1.9.1
 _ZNK6TagLib5ID3v225UniqueFileIdentifierFrame12renderFieldsEv@Base 1.4 1
 _ZNK6TagLib5ID3v225UniqueFileIdentifierFrame5ownerEv@Base 1.4 1
 _ZNK6TagLib5ID3v225UniqueFileIdentifierFrame8toStringEv@Base 1.4 1
 _ZNK6TagLib5ID3v225UnsynchronizedLyricsFrame11descriptionEv@Base 1.5
 _ZNK6TagLib5ID3v225UnsynchronizedLyricsFrame12asPropertiesEv@Base 1.8
 _ZNK6TagLib5ID3v225UnsynchronizedLyricsFrame12renderFieldsEv@Base 1.5
 _ZNK6TagLib5ID3v225UnsynchronizedLyricsFrame12textEncodingEv@Base 1.5
 _ZNK6TagLib5ID3v225UnsynchronizedLyricsFrame4textEv@Base 1.5
 _ZNK6TagLib5ID3v225UnsynchronizedLyricsFrame8languageEv@Base 1.5
 _ZNK6TagLib5ID3v225UnsynchronizedLyricsFrame8toStringEv@Base 1.5
 _ZNK6TagLib5ID3v227UserTextIdentificationFrame11descriptionEv@Base 1.4 1
 _ZNK6TagLib5ID3v227UserTextIdentificationFrame12asPropertiesEv@Base 1.8
 _ZNK6TagLib5ID3v227UserTextIdentificationFrame8toStringEv@Base 1.4 1
 _ZNK6TagLib5ID3v227UserTextIdentificationFrame9fieldListEv@Base 1.4 1
 _ZNK6TagLib5ID3v230GeneralEncapsulatedObjectFrame11descriptionEv@Base 1.5
 _ZNK6TagLib5ID3v230GeneralEncapsulatedObjectFrame12renderFieldsEv@Base 1.5
 _ZNK6TagLib5ID3v230GeneralEncapsulatedObjectFrame12textEncodingEv@Base 1.5
 _ZNK6TagLib5ID3v230GeneralEncapsulatedObjectFrame6objectEv@Base 1.5
 _ZNK6TagLib5ID3v230GeneralEncapsulatedObjectFrame8fileNameEv@Base 1.5
 _ZNK6TagLib5ID3v230GeneralEncapsulatedObjectFrame8mimeTypeEv@Base 1.5
 _ZNK6TagLib5ID3v230GeneralEncapsulatedObjectFrame8toStringEv@Base 1.5
 _ZNK6TagLib5ID3v23Tag10propertiesEv@Base 1.8
 _ZNK6TagLib5ID3v23Tag12frameListMapEv@Base 1.4 1
 _ZNK6TagLib5ID3v23Tag14extendedHeaderEv@Base 1.4 1
 _ZNK6TagLib5ID3v23Tag15downgradeFramesEPNS_4ListIPNS0_5FrameEEES6_@Base 1.8
 _ZNK6TagLib5ID3v23Tag4yearEv@Base 1.4 1
 _ZNK6TagLib5ID3v23Tag5albumEv@Base 1.4 1
 _ZNK6TagLib5ID3v23Tag5genreEv@Base 1.4 1
 _ZNK6TagLib5ID3v23Tag5titleEv@Base 1.4 1
 _ZNK6TagLib5ID3v23Tag5trackEv@Base 1.4 1
 _ZNK6TagLib5ID3v23Tag6artistEv@Base 1.4 1
 _ZNK6TagLib5ID3v23Tag6footerEv@Base 1.4 1
 _ZNK6TagLib5ID3v23Tag6headerEv@Base 1.4 1
 _ZNK6TagLib5ID3v23Tag6renderEi@Base 1.8
 _ZNK6TagLib5ID3v23Tag6renderEv@Base 1.4 1
 _ZNK6TagLib5ID3v23Tag7commentEv@Base 1.4 1
 _ZNK6TagLib5ID3v23Tag7isEmptyEv@Base 1.4 1
 _ZNK6TagLib5ID3v23Tag9frameListERKNS_10ByteVectorE@Base 1.4 1
 _ZNK6TagLib5ID3v23Tag9frameListEv@Base 1.4 1
 _ZNK6TagLib5ID3v25Frame12asPropertiesEv@Base 1.8
 _ZNK6TagLib5ID3v25Frame17checkTextEncodingERKNS_10StringListENS_6String4TypeE@Base 1.8
 _ZNK6TagLib5ID3v25Frame4sizeEv@Base 1.4 1
 _ZNK6TagLib5ID3v25Frame6Header10encryptionEv@Base 1.4 1
 _ZNK6TagLib5ID3v25Frame6Header11compressionEv@Base 1.4 1
 _ZNK6TagLib5ID3v25Frame6Header15unsycronisationEv@Base 1.4 1
 _ZNK6TagLib5ID3v25Frame6Header16groupingIdentityEv@Base 1.4 1
 _ZNK6TagLib5ID3v25Frame6Header17unsynchronisationEv@Base 1.5
 _ZNK6TagLib5ID3v25Frame6Header19dataLengthIndicatorEv@Base 1.4 1
 _ZNK6TagLib5ID3v25Frame6Header20tagAlterPreservationEv@Base 1.4 1
 _ZNK6TagLib5ID3v25Frame6Header21fileAlterPreservationEv@Base 1.4 1
 _ZNK6TagLib5ID3v25Frame6Header22frameAlterPreservationEv@Base 1.4 1
 _ZNK6TagLib5ID3v25Frame6Header6renderEv@Base 1.4 1
 _ZNK6TagLib5ID3v25Frame6Header7frameIDEv@Base 1.4 1
 _ZNK6TagLib5ID3v25Frame6Header7versionEv@Base 1.4 1
 _ZNK6TagLib5ID3v25Frame6Header8readOnlyEv@Base 1.4 1
 _ZNK6TagLib5ID3v25Frame6Header9frameSizeEv@Base 1.4 1
 _ZNK6TagLib5ID3v25Frame6headerEv@Base 1.4 1
 _ZNK6TagLib5ID3v25Frame6renderEv@Base 1.4 1
 _ZNK6TagLib5ID3v25Frame7frameIDEv@Base 1.4 1
 _ZNK6TagLib5ID3v25Frame9fieldDataERKNS_10ByteVectorE@Base 1.4 1
 _ZNK6TagLib5ID3v26Footer6renderEPKNS0_6HeaderE@Base 1.4 1
 _ZNK6TagLib5ID3v26Header12majorVersionEv@Base 1.4 1
 _ZNK6TagLib5ID3v26Header13footerPresentEv@Base 1.4 1
 _ZNK6TagLib5ID3v26Header14extendedHeaderEv@Base 1.4 1
 _ZNK6TagLib5ID3v26Header14revisionNumberEv@Base 1.4 1
 _ZNK6TagLib5ID3v26Header15completeTagSizeEv@Base 1.4 1
 _ZNK6TagLib5ID3v26Header17unsynchronisationEv@Base 1.4 1
 _ZNK6TagLib5ID3v26Header21experimentalIndicatorEv@Base 1.4 1
 _ZNK6TagLib5ID3v26Header6renderEv@Base 1.4 1
 _ZNK6TagLib5ID3v26Header7tagSizeEv@Base 1.4 1
 _ZNK6TagLib6String10startsWithERKS0_@Base 1.5
 _ZNK6TagLib6String10toCWStringEv@Base 1.9.1
 _ZNK6TagLib6String15stripWhiteSpaceEv@Base 1.4 1
 _ZNK6TagLib6String3endEv@Base 1.4 1
 _ZNK6TagLib6String4dataENS0_4TypeE@Base 1.4 1
 _ZNK6TagLib6String4findERKS0_i@Base 1.4 1
 _ZNK6TagLib6String4sizeEv@Base 1.4 1
 _ZNK6TagLib6String5beginEv@Base 1.4 1
 _ZNK6TagLib6String5rfindERKS0_i@Base 1.6
 _ZNK6TagLib6String5splitERKS0_@Base 1.8
 _ZNK6TagLib6String5toIntEPb@Base 1.6.3
 _ZNK6TagLib6String5toIntEv@Base 1.4 1
 _ZNK6TagLib6String5upperEv@Base 1.4 1
 _ZNK6TagLib6String6isNullEv@Base 1.4 1
 _ZNK6TagLib6String6lengthEv@Base 1.5
 _ZNK6TagLib6String6substrEjj@Base 1.4 1
 _ZNK6TagLib6String6to8BitEb@Base 1.4 1
 _ZNK6TagLib6String7isAsciiEv@Base 1.5
 _ZNK6TagLib6String7isEmptyEv@Base 1.4 1
 _ZNK6TagLib6String8isLatin1Ev@Base 1.5
 _ZNK6TagLib6String9toCStringEb@Base 1.4 1
 _ZNK6TagLib6String9toWStringEv@Base 1.5
 _ZNK6TagLib6StringeqERKS0_@Base 1.4 1
 _ZNK6TagLib6StringixEi@Base 1.4 1
 _ZNK6TagLib6StringltERKS0_@Base 1.4 1
 _ZNK6TagLib6StringneERKS0_@Base 1.8
 _ZNK6TagLib6Vorbis10Properties10sampleRateEv@Base 1.4 1
 _ZNK6TagLib6Vorbis10Properties13vorbisVersionEv@Base 1.4 1
 _ZNK6TagLib6Vorbis10Properties14bitrateMaximumEv@Base 1.4 1
 _ZNK6TagLib6Vorbis10Properties14bitrateMinimumEv@Base 1.4 1
 _ZNK6TagLib6Vorbis10Properties14bitrateNominalEv@Base 1.4 1
 _ZNK6TagLib6Vorbis10Properties6lengthEv@Base 1.4 1
 _ZNK6TagLib6Vorbis10Properties7bitrateEv@Base 1.4 1
 _ZNK6TagLib6Vorbis10Properties8channelsEv@Base 1.4 1
 _ZNK6TagLib6Vorbis4File10propertiesEv@Base 1.8
 _ZNK6TagLib6Vorbis4File15audioPropertiesEv@Base 1.4 1
 _ZNK6TagLib6Vorbis4File3tagEv@Base 1.4 1
 _ZNK6TagLib7FileRef15audioPropertiesEv@Base 1.4 1
 _ZNK6TagLib7FileRef3tagEv@Base 1.4 1
 _ZNK6TagLib7FileRef4fileEv@Base 1.4 1
 _ZNK6TagLib7FileRef6isNullEv@Base 1.4 1
 _ZNK6TagLib7FileRefeqERKS0_@Base 1.4 1
 _ZNK6TagLib7FileRefneERKS0_@Base 1.4 1
 _ZNK6TagLib7WavPack10Properties10sampleRateEv@Base 1.5
 _ZNK6TagLib7WavPack10Properties12sampleFramesEv@Base 1.8
 _ZNK6TagLib7WavPack10Properties13bitsPerSampleEv@Base 1.5
 _ZNK6TagLib7WavPack10Properties6lengthEv@Base 1.5
 _ZNK6TagLib7WavPack10Properties7bitrateEv@Base 1.5
 _ZNK6TagLib7WavPack10Properties7versionEv@Base 1.5
 _ZNK6TagLib7WavPack10Properties8channelsEv@Base 1.5
 _ZNK6TagLib7WavPack4File10propertiesEv@Base 1.8
 _ZNK6TagLib7WavPack4File11hasID3v1TagEv@Base 1.9.1
 _ZNK6TagLib7WavPack4File15audioPropertiesEv@Base 1.5
 _ZNK6TagLib7WavPack4File3tagEv@Base 1.5
 _ZNK6TagLib7WavPack4File9hasAPETagEv@Base 1.9.1
 _ZNK6TagLib9TrueAudio10Properties10sampleRateEv@Base 1.5
 _ZNK6TagLib9TrueAudio10Properties10ttaVersionEv@Base 1.5
 _ZNK6TagLib9TrueAudio10Properties12sampleFramesEv@Base 1.8
 _ZNK6TagLib9TrueAudio10Properties13bitsPerSampleEv@Base 1.5
 _ZNK6TagLib9TrueAudio10Properties6lengthEv@Base 1.5
 _ZNK6TagLib9TrueAudio10Properties7bitrateEv@Base 1.5
 _ZNK6TagLib9TrueAudio10Properties8channelsEv@Base 1.5
 _ZNK6TagLib9TrueAudio4File10propertiesEv@Base 1.8
 _ZNK6TagLib9TrueAudio4File11hasID3v1TagEv@Base 1.9.1
 _ZNK6TagLib9TrueAudio4File11hasID3v2TagEv@Base 1.9.1
 _ZNK6TagLib9TrueAudio4File15audioPropertiesEv@Base 1.5
 _ZNK6TagLib9TrueAudio4File3tagEv@Base 1.5
 _ZNSt10_List_baseIN6TagLib10ByteVectorESaIS1_EE8_M_clearEv@Base 1.7.1
 _ZNSt10_List_baseIN6TagLib3ASF9AttributeESaIS2_EE8_M_clearEv@Base 1.7.1
 _ZNSt10_List_baseIN6TagLib3MP48CoverArtESaIS2_EE8_M_clearEv@Base 1.7.1
 _ZNSt10_List_baseIN6TagLib6StringESaIS1_EE8_M_clearEv@Base 1.4 1
 _ZNSt4pairIKN6TagLib10ByteVectorENS0_6StringEED1Ev@Base 1.9.1
 _ZNSt4pairIKN6TagLib10ByteVectorENS0_6StringEED2Ev@Base 1.9.1
 _ZNSt4pairIKN6TagLib6StringENS0_10StringListEED1Ev@Base 1.9.1
 _ZNSt4pairIKN6TagLib6StringENS0_10StringListEED2Ev@Base 1.9.1
 _ZNSt4pairIKN6TagLib6StringENS0_3APE4ItemEED1Ev@Base 1.7-2~
 _ZNSt4pairIKN6TagLib6StringENS0_3APE4ItemEED2Ev@Base 1.7-2~
 _ZNSt4pairIKN6TagLib6StringENS0_3MP44ItemEED1Ev@Base 1.7-2~
 _ZNSt4pairIKN6TagLib6StringENS0_3MP44ItemEED2Ev@Base 1.7-2~
 _ZNSt4pairIKN6TagLib6StringES1_ED1Ev@Base 1.9.1
 _ZNSt4pairIKN6TagLib6StringES1_ED2Ev@Base 1.9.1
 _ZNSt6vectorIcSaIcEE14_M_fill_insertEN9__gnu_cxx17__normal_iteratorIPcS1_EEjRKc@Base 1.9.1-2.1
 _ZNSt8_Rb_treeIKN6TagLib6StringESt4pairIS2_NS0_3APE4ItemEESt10_Select1stIS6_ESt4lessIS2_ESaIS6_EE17_M_insert_unique_ESt23_Rb_tree_const_iteratorIS6_ERKS6_@Base 1.9.1
 _ZNSt8_Rb_treeIKN6TagLib6StringESt4pairIS2_NS0_3APE4ItemEESt10_Select1stIS6_ESt4lessIS2_ESaIS6_EE24_M_get_insert_unique_posERS2_@Base 1.9.1
 _ZNSt8_Rb_treeIKN6TagLib6StringESt4pairIS2_NS0_3APE4ItemEESt10_Select1stIS6_ESt4lessIS2_ESaIS6_EE4findERS2_@Base 1.7.1
 _ZNSt8_Rb_treeIKN6TagLib6StringESt4pairIS2_NS0_3APE4ItemEESt10_Select1stIS6_ESt4lessIS2_ESaIS6_EE7_M_copyEPKSt13_Rb_tree_nodeIS6_EPSE_@Base 1.4 1
 _ZNSt8_Rb_treeIKN6TagLib6StringESt4pairIS2_NS0_3APE4ItemEESt10_Select1stIS6_ESt4lessIS2_ESaIS6_EE8_M_eraseEPSt13_Rb_tree_nodeIS6_E@Base 1.4 1
 _ZNSt8_Rb_treeIN6TagLib10ByteVectorESt4pairIKS1_NS0_6StringEESt10_Select1stIS5_ESt4lessIS1_ESaIS5_EE17_M_insert_unique_ESt23_Rb_tree_const_iteratorIS5_ERKS5_@Base 1.9.1
 _ZNSt8_Rb_treeIN6TagLib10ByteVectorESt4pairIKS1_NS0_6StringEESt10_Select1stIS5_ESt4lessIS1_ESaIS5_EE24_M_get_insert_unique_posERS3_@Base 1.9.1
 _ZNSt8_Rb_treeIN6TagLib10ByteVectorESt4pairIKS1_NS0_6StringEESt10_Select1stIS5_ESt4lessIS1_ESaIS5_EE4findERS3_@Base 1.9.1
 _ZNSt8_Rb_treeIN6TagLib10ByteVectorESt4pairIKS1_NS0_6StringEESt10_Select1stIS5_ESt4lessIS1_ESaIS5_EE7_M_copyEPKSt13_Rb_tree_nodeIS5_EPSD_@Base 1.8
 _ZNSt8_Rb_treeIN6TagLib10ByteVectorESt4pairIKS1_NS0_6StringEESt10_Select1stIS5_ESt4lessIS1_ESaIS5_EE8_M_eraseEPSt13_Rb_tree_nodeIS5_E@Base 1.8
 _ZNSt8_Rb_treeIN6TagLib10ByteVectorESt4pairIKS1_S1_ESt10_Select1stIS4_ESt4lessIS1_ESaIS4_EE17_M_insert_unique_ESt23_Rb_tree_const_iteratorIS4_ERKS4_@Base 1.9.1
 _ZNSt8_Rb_treeIN6TagLib10ByteVectorESt4pairIKS1_S1_ESt10_Select1stIS4_ESt4lessIS1_ESaIS4_EE24_M_get_insert_unique_posERS3_@Base 1.9.1
 _ZNSt8_Rb_treeIN6TagLib10ByteVectorESt4pairIKS1_S1_ESt10_Select1stIS4_ESt4lessIS1_ESaIS4_EE7_M_copyEPKSt13_Rb_tree_nodeIS4_EPSC_@Base 1.8
 _ZNSt8_Rb_treeIN6TagLib10ByteVectorESt4pairIKS1_S1_ESt10_Select1stIS4_ESt4lessIS1_ESaIS4_EE8_M_eraseEPSt13_Rb_tree_nodeIS4_E@Base 1.8
 _ZNSt8_Rb_treeIN6TagLib6StringESt4pairIKS1_NS0_10ByteVectorEESt10_Select1stIS5_ESt4lessIS1_ESaIS5_EE17_M_insert_unique_ESt23_Rb_tree_const_iteratorIS5_ERKS5_@Base 1.9.1
 _ZNSt8_Rb_treeIN6TagLib6StringESt4pairIKS1_NS0_10ByteVectorEESt10_Select1stIS5_ESt4lessIS1_ESaIS5_EE24_M_get_insert_unique_posERS3_@Base 1.9.1
 _ZNSt8_Rb_treeIN6TagLib6StringESt4pairIKS1_NS0_10ByteVectorEESt10_Select1stIS5_ESt4lessIS1_ESaIS5_EE7_M_copyEPKSt13_Rb_tree_nodeIS5_EPSD_@Base 1.8
 _ZNSt8_Rb_treeIN6TagLib6StringESt4pairIKS1_NS0_10ByteVectorEESt10_Select1stIS5_ESt4lessIS1_ESaIS5_EE8_M_eraseEPSt13_Rb_tree_nodeIS5_E@Base 1.8
 _ZNSt8_Rb_treeIN6TagLib6StringESt4pairIKS1_NS0_10StringListEESt10_Select1stIS5_ESt4lessIS1_ESaIS5_EE17_M_insert_unique_ESt23_Rb_tree_const_iteratorIS5_ERKS5_@Base 1.9.1
 _ZNSt8_Rb_treeIN6TagLib6StringESt4pairIKS1_NS0_10StringListEESt10_Select1stIS5_ESt4lessIS1_ESaIS5_EE24_M_get_insert_unique_posERS3_@Base 1.9.1
 _ZNSt8_Rb_treeIN6TagLib6StringESt4pairIKS1_NS0_10StringListEESt10_Select1stIS5_ESt4lessIS1_ESaIS5_EE4findERS3_@Base 1.7.1
 _ZNSt8_Rb_treeIN6TagLib6StringESt4pairIKS1_NS0_10StringListEESt10_Select1stIS5_ESt4lessIS1_ESaIS5_EE7_M_copyEPKSt13_Rb_tree_nodeIS5_EPSD_@Base 1.4 1
 _ZNSt8_Rb_treeIN6TagLib6StringESt4pairIKS1_NS0_10StringListEESt10_Select1stIS5_ESt4lessIS1_ESaIS5_EE8_M_eraseEPSt13_Rb_tree_nodeIS5_E@Base 1.4 1
 _ZNSt8_Rb_treeIN6TagLib6StringESt4pairIKS1_NS0_3MP44ItemEESt10_Select1stIS6_ESt4lessIS1_ESaIS6_EE17_M_insert_unique_ESt23_Rb_tree_const_iteratorIS6_ERKS6_@Base 1.9.1
 _ZNSt8_Rb_treeIN6TagLib6StringESt4pairIKS1_NS0_3MP44ItemEESt10_Select1stIS6_ESt4lessIS1_ESaIS6_EE24_M_get_insert_unique_posERS3_@Base 1.9.1
 _ZNSt8_Rb_treeIN6TagLib6StringESt4pairIKS1_NS0_3MP44ItemEESt10_Select1stIS6_ESt4lessIS1_ESaIS6_EE4findERS3_@Base 1.9.1
 _ZNSt8_Rb_treeIN6TagLib6StringESt4pairIKS1_NS0_3MP44ItemEESt10_Select1stIS6_ESt4lessIS1_ESaIS6_EE7_M_copyEPKSt13_Rb_tree_nodeIS6_EPSE_@Base 1.6-2~
 _ZNSt8_Rb_treeIN6TagLib6StringESt4pairIKS1_NS0_3MP44ItemEESt10_Select1stIS6_ESt4lessIS1_ESaIS6_EE8_M_eraseEPSt13_Rb_tree_nodeIS6_E@Base 1.6-2~
 _ZNSt8_Rb_treeIN6TagLib6StringESt4pairIKS1_S1_ESt10_Select1stIS4_ESt4lessIS1_ESaIS4_EE17_M_insert_unique_ESt23_Rb_tree_const_iteratorIS4_ERKS4_@Base 1.9.1
 _ZNSt8_Rb_treeIN6TagLib6StringESt4pairIKS1_S1_ESt10_Select1stIS4_ESt4lessIS1_ESaIS4_EE24_M_get_insert_unique_posERS3_@Base 1.9.1
 _ZNSt8_Rb_treeIN6TagLib6StringESt4pairIKS1_S1_ESt10_Select1stIS4_ESt4lessIS1_ESaIS4_EE4findERS3_@Base 1.9.1
 _ZNSt8_Rb_treeIN6TagLib6StringESt4pairIKS1_S1_ESt10_Select1stIS4_ESt4lessIS1_ESaIS4_EE7_M_copyEPKSt13_Rb_tree_nodeIS4_EPSC_@Base 1.8
 _ZNSt8_Rb_treeIN6TagLib6StringESt4pairIKS1_S1_ESt10_Select1stIS4_ESt4lessIS1_ESaIS4_EE8_M_eraseEPSt13_Rb_tree_nodeIS4_E@Base 1.8
 _ZNSt8_Rb_treeIN6TagLib6StringESt4pairIKS1_iESt10_Select1stIS4_ESt4lessIS1_ESaIS4_EE17_M_insert_unique_ESt23_Rb_tree_const_iteratorIS4_ERKS4_@Base 1.9.1
 _ZNSt8_Rb_treeIN6TagLib6StringESt4pairIKS1_iESt10_Select1stIS4_ESt4lessIS1_ESaIS4_EE24_M_get_insert_unique_posERS3_@Base 1.9.1
 _ZNSt8_Rb_treeIN6TagLib6StringESt4pairIKS1_iESt10_Select1stIS4_ESt4lessIS1_ESaIS4_EE7_M_copyEPKSt13_Rb_tree_nodeIS4_EPSC_@Base 1.4 1
 _ZNSt8_Rb_treeIN6TagLib6StringESt4pairIKS1_iESt10_Select1stIS4_ESt4lessIS1_ESaIS4_EE8_M_eraseEPSt13_Rb_tree_nodeIS4_E@Base 1.4 1
 _ZNSt8_Rb_treeIiSt4pairIKiN6TagLib10ByteVectorEESt10_Select1stIS4_ESt4lessIiESaIS4_EE17_M_insert_unique_ESt23_Rb_tree_const_iteratorIS4_ERKS4_@Base 1.9.1
 _ZNSt8_Rb_treeIiSt4pairIKiN6TagLib10ByteVectorEESt10_Select1stIS4_ESt4lessIiESaIS4_EE24_M_get_insert_unique_posERS1_@Base 1.9.1
 _ZNSt8_Rb_treeIiSt4pairIKiN6TagLib10ByteVectorEESt10_Select1stIS4_ESt4lessIiESaIS4_EE7_M_copyEPKSt13_Rb_tree_nodeIS4_EPSC_@Base 1.4 1
 _ZNSt8_Rb_treeIiSt4pairIKiN6TagLib10ByteVectorEESt10_Select1stIS4_ESt4lessIiESaIS4_EE8_M_eraseEPSt13_Rb_tree_nodeIS4_E@Base 1.4 1
 _ZTIN6TagLib10ByteVector17ByteVectorPrivateE@Base 1.9.1
 _ZTIN6TagLib10ByteVectorE@Base 1.4 1
 _ZTIN6TagLib10FileStreamE@Base 1.8
 _ZTIN6TagLib10RefCounterE@Base 1.9.1
 _ZTIN6TagLib10StringListE@Base 1.4 1
 _ZTIN6TagLib11PropertyMapE@Base 1.8
 _ZTIN6TagLib13DebugListenerE@Base 1.9.1
 _ZTIN6TagLib14ByteVectorListE@Base 1.4 1
 _ZTIN6TagLib15AudioPropertiesE@Base 1.4 1
 _ZTIN6TagLib16ByteVectorStreamE@Base 1.8
 _ZTIN6TagLib2IT10PropertiesE@Base 1.8
 _ZTIN6TagLib2IT4FileE@Base 1.8
 _ZTIN6TagLib2XM4FileE@Base 1.8
 _ZTIN6TagLib3APE10PropertiesE@Base 1.7
 _ZTIN6TagLib3APE3TagE@Base 1.4 1
 _ZTIN6TagLib3APE4FileE@Base 1.7
 _ZTIN6TagLib3APE4ItemE@Base 1.4 1
 _ZTIN6TagLib3APE6FooterE@Base 1.4 1
 _ZTIN6TagLib3ASF10PropertiesE@Base 1.6-2~
 _ZTIN6TagLib3ASF3TagE@Base 1.6-2~
 _ZTIN6TagLib3ASF4File10BaseObjectE@Base 1.6-2~
 _ZTIN6TagLib3ASF4File13UnknownObjectE@Base 1.6-2~
 _ZTIN6TagLib3ASF4File14MetadataObjectE@Base 1.6-2~
 _ZTIN6TagLib3ASF4File20FilePropertiesObjectE@Base 1.6-2~
 _ZTIN6TagLib3ASF4File21HeaderExtensionObjectE@Base 1.6-2~
 _ZTIN6TagLib3ASF4File21MetadataLibraryObjectE@Base 1.6-2~
 _ZTIN6TagLib3ASF4File22StreamPropertiesObjectE@Base 1.6-2~
 _ZTIN6TagLib3ASF4File24ContentDescriptionObjectE@Base 1.6-2~
 _ZTIN6TagLib3ASF4File32ExtendedContentDescriptionObjectE@Base 1.6-2~
 _ZTIN6TagLib3ASF4FileE@Base 1.6-2~
 _ZTIN6TagLib3ASF7Picture14PicturePrivateE@Base 1.9.1
 _ZTIN6TagLib3ASF7PictureE@Base 1.7
 _ZTIN6TagLib3ASF9Attribute16AttributePrivateE@Base 1.9.1
 _ZTIN6TagLib3ASF9AttributeE@Base 1.6-2~
 _ZTIN6TagLib3MP410PropertiesE@Base 1.6-2~
 _ZTIN6TagLib3MP43TagE@Base 1.6-2~
 _ZTIN6TagLib3MP44FileE@Base 1.6-2~
 _ZTIN6TagLib3MP44Item11ItemPrivateE@Base 1.9.1
 _ZTIN6TagLib3MP48CoverArt15CoverArtPrivateE@Base 1.9.1
 _ZTIN6TagLib3MPC10PropertiesE@Base 1.4 1
 _ZTIN6TagLib3MPC4FileE@Base 1.4 1
 _ZTIN6TagLib3Mod10PropertiesE@Base 1.8
 _ZTIN6TagLib3Mod3TagE@Base 1.8
 _ZTIN6TagLib3Mod4FileE@Base 1.8
 _ZTIN6TagLib3Mod8FileBaseE@Base 1.8
 _ZTIN6TagLib3Ogg10PageHeaderE@Base 1.4 1
 _ZTIN6TagLib3Ogg11XiphCommentE@Base 1.4 1
 _ZTIN6TagLib3Ogg4FLAC4FileE@Base 1.4 1
 _ZTIN6TagLib3Ogg4FileE@Base 1.4 1
 _ZTIN6TagLib3Ogg4Opus10PropertiesE@Base 1.9.1
 _ZTIN6TagLib3Ogg4Opus4FileE@Base 1.9.1
 _ZTIN6TagLib3Ogg4PageE@Base 1.4 1
 _ZTIN6TagLib3Ogg5Speex10PropertiesE@Base 1.5
 _ZTIN6TagLib3Ogg5Speex4FileE@Base 1.5
 _ZTIN6TagLib3S3M10PropertiesE@Base 1.8
 _ZTIN6TagLib3S3M4FileE@Base 1.8
 _ZTIN6TagLib3TagE@Base 1.4 1
 _ZTIN6TagLib4FLAC10PropertiesE@Base 1.4 1
 _ZTIN6TagLib4FLAC13MetadataBlockE@Base 1.7
 _ZTIN6TagLib4FLAC20UnknownMetadataBlockE@Base 1.7
 _ZTIN6TagLib4FLAC4FileE@Base 1.4 1
 _ZTIN6TagLib4FLAC7PictureE@Base 1.7
 _ZTIN6TagLib4FileE@Base 1.4 1
 _ZTIN6TagLib4MPEG10PropertiesE@Base 1.4 1
 _ZTIN6TagLib4MPEG10XingHeaderE@Base 1.4 1
 _ZTIN6TagLib4MPEG4FileE@Base 1.4 1
 _ZTIN6TagLib4MPEG6Header13HeaderPrivateE@Base 1.9.1
 _ZTIN6TagLib4MPEG6HeaderE@Base 1.4 1
 _ZTIN6TagLib4RIFF3WAV10PropertiesE@Base 1.6
 _ZTIN6TagLib4RIFF3WAV4FileE@Base 1.6
 _ZTIN6TagLib4RIFF4AIFF10PropertiesE@Base 1.6
 _ZTIN6TagLib4RIFF4AIFF4FileE@Base 1.6
 _ZTIN6TagLib4RIFF4FileE@Base 1.6
 _ZTIN6TagLib4RIFF4Info13StringHandlerE@Base 1.9.1
 _ZTIN6TagLib4RIFF4Info3TagE@Base 1.9.1
 _ZTIN6TagLib5ID3v113StringHandlerE@Base 1.4 1
 _ZTIN6TagLib5ID3v13TagE@Base 1.4 1
 _ZTIN6TagLib5ID3v212FrameFactoryE@Base 1.4 1
 _ZTIN6TagLib5ID3v212PrivateFrameE@Base 1.6
 _ZTIN6TagLib5ID3v212UnknownFrameE@Base 1.4 1
 _ZTIN6TagLib5ID3v212UrlLinkFrameE@Base 1.5
 _ZTIN6TagLib5ID3v213CommentsFrameE@Base 1.4 1
 _ZTIN6TagLib5ID3v214ExtendedHeaderE@Base 1.4 1
 _ZTIN6TagLib5ID3v214OwnershipFrameE@Base 1.8
 _ZTIN6TagLib5ID3v216UserUrlLinkFrameE@Base 1.5
 _ZTIN6TagLib5ID3v218PopularimeterFrameE@Base 1.6
 _ZTIN6TagLib5ID3v219Latin1StringHandlerE@Base 1.8
 _ZTIN6TagLib5ID3v219RelativeVolumeFrameE@Base 1.4 1
 _ZTIN6TagLib5ID3v220AttachedPictureFrameE@Base 1.4 1
 _ZTIN6TagLib5ID3v223AttachedPictureFrameV22E@Base 1.6
 _ZTIN6TagLib5ID3v223TextIdentificationFrameE@Base 1.4 1
 _ZTIN6TagLib5ID3v225UniqueFileIdentifierFrameE@Base 1.4 1
 _ZTIN6TagLib5ID3v225UnsynchronizedLyricsFrameE@Base 1.5
 _ZTIN6TagLib5ID3v227UserTextIdentificationFrameE@Base 1.4 1
 _ZTIN6TagLib5ID3v230GeneralEncapsulatedObjectFrameE@Base 1.5
 _ZTIN6TagLib5ID3v23TagE@Base 1.4 1
 _ZTIN6TagLib5ID3v25Frame6HeaderE@Base 1.4 1
 _ZTIN6TagLib5ID3v25FrameE@Base 1.4 1
 _ZTIN6TagLib5ID3v26FooterE@Base 1.4 1
 _ZTIN6TagLib5ID3v26HeaderE@Base 1.4 1
 _ZTIN6TagLib6String13StringPrivateE@Base 1.9.1
 _ZTIN6TagLib6StringE@Base 1.4 1
 _ZTIN6TagLib6Vorbis10PropertiesE@Base 1.4 1
 _ZTIN6TagLib6Vorbis4FileE@Base 1.4 1
 _ZTIN6TagLib7FileRef14FileRefPrivateE@Base 1.9.1
 _ZTIN6TagLib7FileRefE@Base 1.4 1
 _ZTIN6TagLib7WavPack10PropertiesE@Base 1.5
 _ZTIN6TagLib7WavPack4FileE@Base 1.5
 _ZTIN6TagLib8IOStreamE@Base 1.8
 _ZTIN6TagLib9TrueAudio10PropertiesE@Base 1.5
 _ZTIN6TagLib9TrueAudio4FileE@Base 1.5
 _ZTSN6TagLib10ByteVector17ByteVectorPrivateE@Base 1.9.1
 _ZTSN6TagLib10ByteVectorE@Base 1.4 1
 _ZTSN6TagLib10FileStreamE@Base 1.8
 _ZTSN6TagLib10RefCounterE@Base 1.9.1
 _ZTSN6TagLib10StringListE@Base 1.4 1
 _ZTSN6TagLib11PropertyMapE@Base 1.8
 _ZTSN6TagLib13DebugListenerE@Base 1.9.1
 _ZTSN6TagLib14ByteVectorListE@Base 1.4 1
 _ZTSN6TagLib15AudioPropertiesE@Base 1.4 1
 _ZTSN6TagLib16ByteVectorStreamE@Base 1.8
 _ZTSN6TagLib2IT10PropertiesE@Base 1.8
 _ZTSN6TagLib2IT4FileE@Base 1.8
 _ZTSN6TagLib2XM4FileE@Base 1.8
 _ZTSN6TagLib3APE10PropertiesE@Base 1.7
 _ZTSN6TagLib3APE3TagE@Base 1.4 1
 _ZTSN6TagLib3APE4FileE@Base 1.7
 _ZTSN6TagLib3APE4ItemE@Base 1.4 1
 _ZTSN6TagLib3APE6FooterE@Base 1.4 1
 _ZTSN6TagLib3ASF10PropertiesE@Base 1.6-2~
 _ZTSN6TagLib3ASF3TagE@Base 1.6-2~
 _ZTSN6TagLib3ASF4File10BaseObjectE@Base 1.6-2~
 _ZTSN6TagLib3ASF4File13UnknownObjectE@Base 1.6-2~
 _ZTSN6TagLib3ASF4File14MetadataObjectE@Base 1.6-2~
 _ZTSN6TagLib3ASF4File20FilePropertiesObjectE@Base 1.6-2~
 _ZTSN6TagLib3ASF4File21HeaderExtensionObjectE@Base 1.6-2~
 _ZTSN6TagLib3ASF4File21MetadataLibraryObjectE@Base 1.6-2~
 _ZTSN6TagLib3ASF4File22StreamPropertiesObjectE@Base 1.6-2~
 _ZTSN6TagLib3ASF4File24ContentDescriptionObjectE@Base 1.6-2~
 _ZTSN6TagLib3ASF4File32ExtendedContentDescriptionObjectE@Base 1.6-2~
 _ZTSN6TagLib3ASF4FileE@Base 1.6-2~
 _ZTSN6TagLib3ASF7Picture14PicturePrivateE@Base 1.9.1
 _ZTSN6TagLib3ASF7PictureE@Base 1.7
 _ZTSN6TagLib3ASF9Attribute16AttributePrivateE@Base 1.9.1
 _ZTSN6TagLib3ASF9AttributeE@Base 1.6-2~
 _ZTSN6TagLib3MP410PropertiesE@Base 1.6-2~
 _ZTSN6TagLib3MP43TagE@Base 1.6-2~
 _ZTSN6TagLib3MP44FileE@Base 1.6-2~
 _ZTSN6TagLib3MP44Item11ItemPrivateE@Base 1.9.1
 _ZTSN6TagLib3MP48CoverArt15CoverArtPrivateE@Base 1.9.1
 _ZTSN6TagLib3MPC10PropertiesE@Base 1.4 1
 _ZTSN6TagLib3MPC4FileE@Base 1.4 1
 _ZTSN6TagLib3Mod10PropertiesE@Base 1.8
 _ZTSN6TagLib3Mod3TagE@Base 1.8
 _ZTSN6TagLib3Mod4FileE@Base 1.8
 _ZTSN6TagLib3Mod8FileBaseE@Base 1.8
 _ZTSN6TagLib3Ogg10PageHeaderE@Base 1.4 1
 _ZTSN6TagLib3Ogg11XiphCommentE@Base 1.4 1
 _ZTSN6TagLib3Ogg4FLAC4FileE@Base 1.4 1
 _ZTSN6TagLib3Ogg4FileE@Base 1.4 1
 _ZTSN6TagLib3Ogg4Opus10PropertiesE@Base 1.9.1
 _ZTSN6TagLib3Ogg4Opus4FileE@Base 1.9.1
 _ZTSN6TagLib3Ogg4PageE@Base 1.4 1
 _ZTSN6TagLib3Ogg5Speex10PropertiesE@Base 1.5
 _ZTSN6TagLib3Ogg5Speex4FileE@Base 1.5
 _ZTSN6TagLib3S3M10PropertiesE@Base 1.8
 _ZTSN6TagLib3S3M4FileE@Base 1.8
 _ZTSN6TagLib3TagE@Base 1.4 1
 _ZTSN6TagLib4FLAC10PropertiesE@Base 1.4 1
 _ZTSN6TagLib4FLAC13MetadataBlockE@Base 1.7
 _ZTSN6TagLib4FLAC20UnknownMetadataBlockE@Base 1.7
 _ZTSN6TagLib4FLAC4FileE@Base 1.4 1
 _ZTSN6TagLib4FLAC7PictureE@Base 1.7
 _ZTSN6TagLib4FileE@Base 1.4 1
 _ZTSN6TagLib4MPEG10PropertiesE@Base 1.4 1
 _ZTSN6TagLib4MPEG10XingHeaderE@Base 1.4 1
 _ZTSN6TagLib4MPEG4FileE@Base 1.4 1
 _ZTSN6TagLib4MPEG6Header13HeaderPrivateE@Base 1.9.1
 _ZTSN6TagLib4MPEG6HeaderE@Base 1.4 1
 _ZTSN6TagLib4RIFF3WAV10PropertiesE@Base 1.6
 _ZTSN6TagLib4RIFF3WAV4FileE@Base 1.6
 _ZTSN6TagLib4RIFF4AIFF10PropertiesE@Base 1.6
 _ZTSN6TagLib4RIFF4AIFF4FileE@Base 1.6
 _ZTSN6TagLib4RIFF4FileE@Base 1.6
 _ZTSN6TagLib4RIFF4Info13StringHandlerE@Base 1.9.1
 _ZTSN6TagLib4RIFF4Info3TagE@Base 1.9.1
 _ZTSN6TagLib5ID3v113StringHandlerE@Base 1.4 1
 _ZTSN6TagLib5ID3v13TagE@Base 1.4 1
 _ZTSN6TagLib5ID3v212FrameFactoryE@Base 1.4 1
 _ZTSN6TagLib5ID3v212PrivateFrameE@Base 1.6
 _ZTSN6TagLib5ID3v212UnknownFrameE@Base 1.4 1
 _ZTSN6TagLib5ID3v212UrlLinkFrameE@Base 1.5
 _ZTSN6TagLib5ID3v213CommentsFrameE@Base 1.4 1
 _ZTSN6TagLib5ID3v214ExtendedHeaderE@Base 1.4 1
 _ZTSN6TagLib5ID3v214OwnershipFrameE@Base 1.8
 _ZTSN6TagLib5ID3v216UserUrlLinkFrameE@Base 1.5
 _ZTSN6TagLib5ID3v218PopularimeterFrameE@Base 1.6
 _ZTSN6TagLib5ID3v219Latin1StringHandlerE@Base 1.8
 _ZTSN6TagLib5ID3v219RelativeVolumeFrameE@Base 1.4 1
 _ZTSN6TagLib5ID3v220AttachedPictureFrameE@Base 1.4 1
 _ZTSN6TagLib5ID3v223AttachedPictureFrameV22E@Base 1.6
 _ZTSN6TagLib5ID3v223TextIdentificationFrameE@Base 1.4 1
 _ZTSN6TagLib5ID3v225UniqueFileIdentifierFrameE@Base 1.4 1
 _ZTSN6TagLib5ID3v225UnsynchronizedLyricsFrameE@Base 1.5
 _ZTSN6TagLib5ID3v227UserTextIdentificationFrameE@Base 1.4 1
 _ZTSN6TagLib5ID3v230GeneralEncapsulatedObjectFrameE@Base 1.5
 _ZTSN6TagLib5ID3v23TagE@Base 1.4 1
 _ZTSN6TagLib5ID3v25Frame6HeaderE@Base 1.4 1
 _ZTSN6TagLib5ID3v25FrameE@Base 1.4 1
 _ZTSN6TagLib5ID3v26FooterE@Base 1.4 1
 _ZTSN6TagLib5ID3v26HeaderE@Base 1.4 1
 _ZTSN6TagLib6String13StringPrivateE@Base 1.9.1
 _ZTSN6TagLib6StringE@Base 1.4 1
 _ZTSN6TagLib6Vorbis10PropertiesE@Base 1.4 1
 _ZTSN6TagLib6Vorbis4FileE@Base 1.4 1
 _ZTSN6TagLib7FileRef14FileRefPrivateE@Base 1.9.1
 _ZTSN6TagLib7FileRefE@Base 1.4 1
 _ZTSN6TagLib7WavPack10PropertiesE@Base 1.5
 _ZTSN6TagLib7WavPack4FileE@Base 1.5
 _ZTSN6TagLib8IOStreamE@Base 1.8
 _ZTSN6TagLib9TrueAudio10PropertiesE@Base 1.5
 _ZTSN6TagLib9TrueAudio4FileE@Base 1.5
 _ZTVN6TagLib10ByteVector17ByteVectorPrivateE@Base 1.9.1
 _ZTVN6TagLib10ByteVectorE@Base 1.4 1
 _ZTVN6TagLib10FileStreamE@Base 1.8
 _ZTVN6TagLib10RefCounterE@Base 1.9.1
 _ZTVN6TagLib10StringListE@Base 1.4 1
 _ZTVN6TagLib11PropertyMapE@Base 1.8
 _ZTVN6TagLib13DebugListenerE@Base 1.9.1
 _ZTVN6TagLib14ByteVectorListE@Base 1.4 1
 _ZTVN6TagLib15AudioPropertiesE@Base 1.4 1
 _ZTVN6TagLib16ByteVectorStreamE@Base 1.8
 _ZTVN6TagLib2IT10PropertiesE@Base 1.8
 _ZTVN6TagLib2IT4FileE@Base 1.8
 _ZTVN6TagLib2XM4FileE@Base 1.8
 _ZTVN6TagLib3APE10PropertiesE@Base 1.7
 _ZTVN6TagLib3APE3TagE@Base 1.4 1
 _ZTVN6TagLib3APE4FileE@Base 1.7
 _ZTVN6TagLib3APE4ItemE@Base 1.4 1
 _ZTVN6TagLib3APE6FooterE@Base 1.4 1
 _ZTVN6TagLib3ASF10PropertiesE@Base 1.6-2~
 _ZTVN6TagLib3ASF3TagE@Base 1.6-2~
 _ZTVN6TagLib3ASF4File10BaseObjectE@Base 1.6-2~
 _ZTVN6TagLib3ASF4File13UnknownObjectE@Base 1.6-2~
 _ZTVN6TagLib3ASF4File14MetadataObjectE@Base 1.6-2~
 _ZTVN6TagLib3ASF4File20FilePropertiesObjectE@Base 1.6-2~
 _ZTVN6TagLib3ASF4File21HeaderExtensionObjectE@Base 1.6-2~
 _ZTVN6TagLib3ASF4File21MetadataLibraryObjectE@Base 1.6-2~
 _ZTVN6TagLib3ASF4File22StreamPropertiesObjectE@Base 1.6-2~
 _ZTVN6TagLib3ASF4File24ContentDescriptionObjectE@Base 1.6-2~
 _ZTVN6TagLib3ASF4File32ExtendedContentDescriptionObjectE@Base 1.6-2~
 _ZTVN6TagLib3ASF4FileE@Base 1.6-2~
 _ZTVN6TagLib3ASF7Picture14PicturePrivateE@Base 1.9.1
 _ZTVN6TagLib3ASF7PictureE@Base 1.7
 _ZTVN6TagLib3ASF9Attribute16AttributePrivateE@Base 1.9.1
 _ZTVN6TagLib3ASF9AttributeE@Base 1.6-2~
 _ZTVN6TagLib3MP410PropertiesE@Base 1.6-2~
 _ZTVN6TagLib3MP43TagE@Base 1.6-2~
 _ZTVN6TagLib3MP44FileE@Base 1.6-2~
 _ZTVN6TagLib3MP44Item11ItemPrivateE@Base 1.9.1
 _ZTVN6TagLib3MP48CoverArt15CoverArtPrivateE@Base 1.9.1
 _ZTVN6TagLib3MPC10PropertiesE@Base 1.4 1
 _ZTVN6TagLib3MPC4FileE@Base 1.4 1
 _ZTVN6TagLib3Mod10PropertiesE@Base 1.8
 _ZTVN6TagLib3Mod3TagE@Base 1.8
 _ZTVN6TagLib3Mod4FileE@Base 1.8
 _ZTVN6TagLib3Mod8FileBaseE@Base 1.8
 _ZTVN6TagLib3Ogg10PageHeaderE@Base 1.4 1
 _ZTVN6TagLib3Ogg11XiphCommentE@Base 1.4 1
 _ZTVN6TagLib3Ogg4FLAC4FileE@Base 1.4 1
 _ZTVN6TagLib3Ogg4FileE@Base 1.4 1
 _ZTVN6TagLib3Ogg4Opus10PropertiesE@Base 1.9.1
 _ZTVN6TagLib3Ogg4Opus4FileE@Base 1.9.1
 _ZTVN6TagLib3Ogg4PageE@Base 1.4 1
 _ZTVN6TagLib3Ogg5Speex10PropertiesE@Base 1.5
 _ZTVN6TagLib3Ogg5Speex4FileE@Base 1.5
 _ZTVN6TagLib3S3M10PropertiesE@Base 1.8
 _ZTVN6TagLib3S3M4FileE@Base 1.8
 _ZTVN6TagLib3TagE@Base 1.4 1
 _ZTVN6TagLib4FLAC10PropertiesE@Base 1.4 1
 _ZTVN6TagLib4FLAC13MetadataBlockE@Base 1.7
 _ZTVN6TagLib4FLAC20UnknownMetadataBlockE@Base 1.7
 _ZTVN6TagLib4FLAC4FileE@Base 1.4 1
 _ZTVN6TagLib4FLAC7PictureE@Base 1.7
 _ZTVN6TagLib4FileE@Base 1.4 1
 _ZTVN6TagLib4MPEG10PropertiesE@Base 1.4 1
 _ZTVN6TagLib4MPEG10XingHeaderE@Base 1.4 1
 _ZTVN6TagLib4MPEG4FileE@Base 1.4 1
 _ZTVN6TagLib4MPEG6Header13HeaderPrivateE@Base 1.9.1
 _ZTVN6TagLib4MPEG6HeaderE@Base 1.4 1
 _ZTVN6TagLib4RIFF3WAV10PropertiesE@Base 1.6
 _ZTVN6TagLib4RIFF3WAV4FileE@Base 1.6
 _ZTVN6TagLib4RIFF4AIFF10PropertiesE@Base 1.6
 _ZTVN6TagLib4RIFF4AIFF4FileE@Base 1.6
 _ZTVN6TagLib4RIFF4FileE@Base 1.6
 _ZTVN6TagLib4RIFF4Info13StringHandlerE@Base 1.9.1
 _ZTVN6TagLib4RIFF4Info3TagE@Base 1.9.1
 _ZTVN6TagLib5ID3v113StringHandlerE@Base 1.4 1
 _ZTVN6TagLib5ID3v13TagE@Base 1.4 1
 _ZTVN6TagLib5ID3v212FrameFactoryE@Base 1.4 1
 _ZTVN6TagLib5ID3v212PrivateFrameE@Base 1.6
 _ZTVN6TagLib5ID3v212UnknownFrameE@Base 1.4 1
 _ZTVN6TagLib5ID3v212UrlLinkFrameE@Base 1.5
 _ZTVN6TagLib5ID3v213CommentsFrameE@Base 1.4 1
 _ZTVN6TagLib5ID3v214ExtendedHeaderE@Base 1.4 1
 _ZTVN6TagLib5ID3v214OwnershipFrameE@Base 1.8
 _ZTVN6TagLib5ID3v216UserUrlLinkFrameE@Base 1.5
 _ZTVN6TagLib5ID3v218PopularimeterFrameE@Base 1.6
 _ZTVN6TagLib5ID3v219Latin1StringHandlerE@Base 1.8
 _ZTVN6TagLib5ID3v219RelativeVolumeFrameE@Base 1.4 1
 _ZTVN6TagLib5ID3v220AttachedPictureFrameE@Base 1.4 1
 _ZTVN6TagLib5ID3v223AttachedPictureFrameV22E@Base 1.6
 _ZTVN6TagLib5ID3v223TextIdentificationFrameE@Base 1.4 1
 _ZTVN6TagLib5ID3v225UniqueFileIdentifierFrameE@Base 1.4 1
 _ZTVN6TagLib5ID3v225UnsynchronizedLyricsFrameE@Base 1.5
 _ZTVN6TagLib5ID3v227UserTextIdentificationFrameE@Base 1.4 1
 _ZTVN6TagLib5ID3v230GeneralEncapsulatedObjectFrameE@Base 1.5
 _ZTVN6TagLib5ID3v23TagE@Base 1.4 1
 _ZTVN6TagLib5ID3v25Frame6HeaderE@Base 1.4 1
 _ZTVN6TagLib5ID3v25FrameE@Base 1.4 1
 _ZTVN6TagLib5ID3v26FooterE@Base 1.4 1
 _ZTVN6TagLib5ID3v26HeaderE@Base 1.4 1
 _ZTVN6TagLib6String13StringPrivateE@Base 1.9.1
 _ZTVN6TagLib6StringE@Base 1.4 1
 _ZTVN6TagLib6Vorbis10PropertiesE@Base 1.4 1
 _ZTVN6TagLib6Vorbis4FileE@Base 1.4 1
 _ZTVN6TagLib7FileRef14FileRefPrivateE@Base 1.9.1
 _ZTVN6TagLib7FileRefE@Base 1.4 1
 _ZTVN6TagLib7WavPack10PropertiesE@Base 1.5
 _ZTVN6TagLib7WavPack4FileE@Base 1.5
 _ZTVN6TagLib8IOStreamE@Base 1.8
 _ZTVN6TagLib9TrueAudio10PropertiesE@Base 1.5
 _ZTVN6TagLib9TrueAudio4FileE@Base 1.5
 _ZlsRSoRKN6TagLib10ByteVectorE@Base 1.4 1
 _ZlsRSoRKN6TagLib6StringE@Base 1.4 1
 _ZplPKcRKN6TagLib6StringE@Base 1.4 1
 _ZplRKN6TagLib6StringEPKc@Base 1.4 1
 _ZplRKN6TagLib6StringES2_@Base 1.4 1
