libx265.so.165 libx265-165 #MINVER#
| libx265-165 (>= 2.9), libx265-165 (<< 2.10)
* Build-Depends-Package: libx265-dev
 _Z10copy_countILi16EEjPsPKsi@Base 0 1
 _Z10copy_countILi32EEjPsPKsi@Base 0 1
 _Z10copy_countILi4EEjPsPKsi@Base 0 1
 _Z10copy_countILi8EEjPsPKsi@Base 0 1
 _Z15count_nonzero_cILi16EEiPKs@Base 0 1
 _Z15count_nonzero_cILi32EEiPKs@Base 0 1
 _Z15count_nonzero_cILi4EEiPKs@Base 0 1
 _Z15count_nonzero_cILi8EEiPKs@Base 0 1
 _ZN10x265_10bit10BitCounter13writeAlignOneEv@Base 0 1
 _ZN10x265_10bit10BitCounter14writeAlignZeroEv@Base 0 1
 _ZN10x265_10bit10BitCounter5writeEjj@Base 0 1
 _ZN10x265_10bit10BitCounter9resetBitsEv@Base 0 1
 _ZN10x265_10bit10BitCounter9writeByteEj@Base 0 1
 _ZN10x265_10bit10BitCounterD0Ev@Base 0 1
 _ZN10x265_10bit10BitCounterD1Ev@Base 0 1
 _ZN10x265_10bit10BitCounterD2Ev@Base 0 1
 _ZN10x265_10bit10ThreadPool11getCpuCountEv@Base 0 1
 _ZN10x265_10bit10ThreadPool11stopWorkersEv@Base 0 1
 _ZN10x265_10bit10ThreadPool12tryBondPeersEijRNS_15BondedTaskGroupE@Base 0 1
 _ZN10x265_10bit10ThreadPool16allocThreadPoolsEP10x265_paramRib@Base 0 1
 _ZN10x265_10bit10ThreadPool16getNumaNodeCountEv@Base 0 1
 _ZN10x265_10bit10ThreadPool20getFrameThreadsCountEP10x265_parami@Base 0 1
 _ZN10x265_10bit10ThreadPool21setThreadNodeAffinityEPv@Base 0 1
 _ZN10x265_10bit10ThreadPool24setCurrentThreadAffinityEv@Base 0 1
 _ZN10x265_10bit10ThreadPool24tryAcquireSleepingThreadEjj@Base 0 1
 _ZN10x265_10bit10ThreadPool5startEv@Base 0 1
 _ZN10x265_10bit10ThreadPool6createEiiy@Base 0 1
 _ZN10x265_10bit10ThreadPoolC1Ev@Base 0 1
 _ZN10x265_10bit10ThreadPoolC2Ev@Base 0 1
 _ZN10x265_10bit10ThreadPoolD1Ev@Base 0 1
 _ZN10x265_10bit10ThreadPoolD2Ev@Base 0 1
 _ZN10x265_10bit10cpu_detectEb@Base 0 1
 _ZN10x265_10bit10g_log2SizeE@Base 0 1
 _ZN10x265_10bit10g_lpsTableE@Base 0 1
 _ZN10x265_10bit10primitivesE@Base 0 1
 _ZN10x265_10bit10x265_mdateEv@Base 0 1
 _ZN10x265_10bit11FrameFilter10processRowEi@Base 0 1
 _ZN10x265_10bit11FrameFilter14ParallelFilter12processTasksEi@Base 0 1
 _ZN10x265_10bit11FrameFilter14ParallelFilter13processSaoCTUEPNS_8SAOParamEi@Base 0 1
 _ZN10x265_10bit11FrameFilter14ParallelFilter15copySaoAboveRefEPKNS_6CUDataEPNS_6PicYuvEji@Base 0 1
 _ZN10x265_10bit11FrameFilter14processPostRowEi@Base 0 1
 _ZN10x265_10bit11FrameFilter17computeMEIntegralEi@Base 0 1
 _ZN10x265_10bit11FrameFilter4initEPNS_7EncoderEPNS_12FrameEncoderEij@Base 0 1
 _ZN10x265_10bit11FrameFilter5startEPNS_5FrameERNS_7EntropyE@Base 0 1
 _ZN10x265_10bit11FrameFilter7destroyEv@Base 0 1
 _ZN10x265_10bit11JobProvider10tryWakeOneEv@Base 0 1
 _ZN10x265_10bit11RateControl10clipQscaleEPNS_5FrameEPNS_16RateControlEntryEd@Base 0 1
 _ZN10x265_10bit11RateControl10splitbUsedEPcPNS_16RateControlEntryE@Base 0 1
 _ZN10x265_10bit11RateControl11hrdFullnessEPNS_18SEIBufferingPeriodE@Base 0 1
 _ZN10x265_10bit11RateControl11predictSizeEPNS_9PredictorEdd@Base 0 1
 _ZN10x265_10bit11RateControl12fixUnderflowEiiddd@Base 0 1
 _ZN10x265_10bit11RateControl13findUnderflowEPdPiS2_ii@Base 0 1
 _ZN10x265_10bit11RateControl13reconfigureRCEv@Base 0 1
 _ZN10x265_10bit11RateControl13splitdeltaPOCEPcPNS_16RateControlEntryE@Base 0 1
 _ZN10x265_10bit11RateControl13updateVbvPlanEPNS_7EncoderE@Base 0 1
 _ZN10x265_10bit11RateControl14accumPQpUpdateEv@Base 0 1
 _ZN10x265_10bit11RateControl14rateControlEndEPNS_5FrameExPNS_16RateControlEntryEPi@Base 0 1
 _ZN10x265_10bit11RateControl15analyseABR2PassEy@Base 0 1
 _ZN10x265_10bit11RateControl15updatePredictorEPNS_9PredictorEddd@Base 0 1
 _ZN10x265_10bit11RateControl16checkAndResetABREPNS_16RateControlEntryEb@Base 0 1
 _ZN10x265_10bit11RateControl16getPredictorTypeEii@Base 0 1
 _ZN10x265_10bit11RateControl16rateControlStartEPNS_5FrameEPNS_16RateControlEntryEPNS_7EncoderE@Base 0 1
 _ZN10x265_10bit11RateControl17countExpectedBitsEii@Base 0 1
 _ZN10x265_10bit11RateControl17rowVbvRateControlEPNS_5FrameEjPNS_16RateControlEntryERdPjj@Base 0 1
 _ZN10x265_10bit11RateControl18cuTreeReadFor2PassEPNS_5FrameE@Base 0 1
 _ZN10x265_10bit11RateControl18predictRowsSizeSumEPNS_5FrameEPNS_16RateControlEntryEdRi@Base 0 1
 _ZN10x265_10bit11RateControl18rateEstimateQscaleEPNS_5FrameEPNS_16RateControlEntryE@Base 0 1
 _ZN10x265_10bit11RateControl18setFinalFrameCountEi@Base 0 1
 _ZN10x265_10bit11RateControl18tuneQScaleForGrainEd@Base 0 1
 _ZN10x265_10bit11RateControl19initFramePredictorsEv@Base 0 1
 _ZN10x265_10bit11RateControl20getDiffLimitedQScaleEPNS_16RateControlEntryEd@Base 0 1
 _ZN10x265_10bit11RateControl20rateControlSliceTypeEi@Base 0 1
 _ZN10x265_10bit11RateControl21s_defaultStatFileNameE@Base 0 1
 _ZN10x265_10bit11RateControl21s_slidingWindowFramesE@Base 0 1
 _ZN10x265_10bit11RateControl22rateControlUpdateStatsEPNS_16RateControlEntryE@Base 0 1
 _ZN10x265_10bit11RateControl25tuneAbrQScaleFromFeedbackEd@Base 0 1
 _ZN10x265_10bit11RateControl26writeRateControlFrameStatsEPNS_5FrameEPNS_16RateControlEntryE@Base 0 1
 _ZN10x265_10bit11RateControl4initERKNS_3SPSE@Base 0 1
 _ZN10x265_10bit11RateControl7destroyEv@Base 0 1
 _ZN10x265_10bit11RateControl7getZoneEv@Base 0 1
 _ZN10x265_10bit11RateControl7initHRDERNS_3SPSE@Base 0 1
 _ZN10x265_10bit11RateControl8vbv2PassEyii@Base 0 1
 _ZN10x265_10bit11RateControl9getQScaleEPNS_16RateControlEntryEd@Base 0 1
 _ZN10x265_10bit11RateControl9initPass2Ev@Base 0 1
 _ZN10x265_10bit11RateControl9terminateEv@Base 0 1
 _ZN10x265_10bit11RateControl9updateVbvExPNS_16RateControlEntryE@Base 0 1
 _ZN10x265_10bit11RateControlC1ER10x265_param@Base 0 1
 _ZN10x265_10bit11RateControlC2ER10x265_param@Base 0 1
 _ZN10x265_10bit11ScalingList10MatrixTypeE@Base 0 1
 _ZN10x265_10bit11ScalingList13MatrixType_DCE@Base 0 1
 _ZN10x265_10bit11ScalingList13s_quantScalesE@Base 0 1
 _ZN10x265_10bit11ScalingList16parseScalingListEPKc@Base 0 1
 _ZN10x265_10bit11ScalingList16s_invQuantScalesE@Base 0 1
 _ZN10x265_10bit11ScalingList16s_numCoefPerSizeE@Base 0 1
 _ZN10x265_10bit11ScalingList18setupQuantMatricesEi@Base 0 1
 _ZN10x265_10bit11ScalingList19processDefaultMarixEii@Base 0 1
 _ZN10x265_10bit11ScalingList21processScalingListDecEPiS1_iiiiii@Base 0 1
 _ZN10x265_10bit11ScalingList21processScalingListEncEPiS1_iiiiii@Base 0 1
 _ZN10x265_10bit11ScalingList21setDefaultScalingListEv@Base 0 1
 _ZN10x265_10bit11ScalingList4initEv@Base 0 1
 _ZN10x265_10bit11ScalingListC1Ev@Base 0 1
 _ZN10x265_10bit11ScalingListC2Ev@Base 0 1
 _ZN10x265_10bit11ScalingListD1Ev@Base 0 1
 _ZN10x265_10bit11ScalingListD2Ev@Base 0 1
 _ZN10x265_10bit11g_maxCUSizeE@Base 0 1
 _ZN10x265_10bit11g_maxSlicesE@Base 0 1
 _ZN10x265_10bit11g_nextStateE@Base 0 1
 _ZN10x265_10bit11g_scanOrderE@Base 0 1
 _ZN10x265_10bit11general_logEPK10x265_paramPKciS4_z@Base 0 1
 _ZN10x265_10bit11getBsLengthEi@Base 0 1
 _ZN10x265_10bit11x265_mallocEj@Base 0 1
 _ZN10x265_10bit12FrameEncoder10processRowEii@Base 0 1
 _ZN10x265_10bit12FrameEncoder10threadMainEv@Base 0 1
 _ZN10x265_10bit12FrameEncoder11encodeSliceEj@Base 0 1
 _ZN10x265_10bit12FrameEncoder13compressFrameEv@Base 0 1
 _ZN10x265_10bit12FrameEncoder14WeightAnalysis12processTasksEi@Base 0 1
 _ZN10x265_10bit12FrameEncoder15initializeGeomsEv@Base 0 1
 _ZN10x265_10bit12FrameEncoder16writeToneMapInfoEP16x265_sei_payload@Base 0 1
 _ZN10x265_10bit12FrameEncoder17collectDynDataRowERNS_6CUDataEPNS_10FrameStatsE@Base 0 1
 _ZN10x265_10bit12FrameEncoder17getEncodedPictureERNS_7NALListE@Base 0 1
 _ZN10x265_10bit12FrameEncoder17processRowEncoderEiRNS_15ThreadLocalDataE@Base 0 1
 _ZN10x265_10bit12FrameEncoder18startCompressFrameEPNS_5FrameE@Base 0 1
 _ZN10x265_10bit12FrameEncoder19collectDynDataFrameEv@Base 0 1
 _ZN10x265_10bit12FrameEncoder20collectCTUStatisticsERKNS_6CUDataEPNS_10FrameStatsE@Base 0 1
 _ZN10x265_10bit12FrameEncoder20noiseReductionUpdateEv@Base 0 1
 _ZN10x265_10bit12FrameEncoder22computeAvgTrainingDataEv@Base 0 1
 _ZN10x265_10bit12FrameEncoder24writeTrailingSEIMessagesEv@Base 0 1
 _ZN10x265_10bit12FrameEncoder25initDecodedPictureHashSEIEiii@Base 0 1
 _ZN10x265_10bit12FrameEncoder4initEPNS_7EncoderEii@Base 0 1
 _ZN10x265_10bit12FrameEncoder7destroyEv@Base 0 1
 _ZN10x265_10bit12FrameEncoderC1Ev@Base 0 1
 _ZN10x265_10bit12FrameEncoderC2Ev@Base 0 1
 _ZN10x265_10bit12FrameEncoderD0Ev@Base 0 1
 _ZN10x265_10bit12FrameEncoderD1Ev@Base 0 1
 _ZN10x265_10bit12FrameEncoderD2Ev@Base 0 1
 _ZN10x265_10bit12LookaheadTLD10acEnergyCuEPNS_5FrameEjjij@Base 0 1
 _ZN10x265_10bit12LookaheadTLD14weightCostLumaERNS_6LowresES2_RNS_11WeightParamE@Base 0 1
 _ZN10x265_10bit12LookaheadTLD14weightsAnalyseERNS_6LowresES2_@Base 0 1
 _ZN10x265_10bit12LookaheadTLD16allocWeightedRefERNS_6LowresE@Base 0 1
 _ZN10x265_10bit12LookaheadTLD19lowresIntraEstimateERNS_6LowresEj@Base 0 1
 _ZN10x265_10bit12LookaheadTLD22calcAdaptiveQuantFrameEPNS_5FrameEP10x265_param@Base 0 1
 _ZN10x265_10bit12LookaheadTLD9lumaSumCuEPNS_5FrameEjjj@Base 0 1
 _ZN10x265_10bit12MD5TransformEPjS0_@Base 0 1
 _ZN10x265_10bit12WorkerThread10threadMainEv@Base 0 1
 _ZN10x265_10bit12WorkerThreadD0Ev@Base 0 1
 _ZN10x265_10bit12WorkerThreadD1Ev@Base 0 1
 _ZN10x265_10bit12WorkerThreadD2Ev@Base 0 1
 _ZN10x265_10bit12enforceLevelER10x265_paramRNS_3VPSE@Base 0 1
 _ZN10x265_10bit12g_lumaFilterE@Base 0 1
 _ZN10x265_10bit12g_maxCUDepthE@Base 0 1
 _ZN10x265_10bit12parseCpuNameEPKcRbb@Base 0 1
 _ZN10x265_10bit12x265_cleanupEv@Base 0 1
 _ZN10x265_10bit12x265_ssim2dBEd@Base 0 1
 _ZN10x265_10bit13g_chromaScaleE@Base 0 1
 _ZN10x265_10bit13g_entropyBitsE@Base 0 1
 _ZN10x265_10bit13g_goRiceRangeE@Base 0 1
 _ZN10x265_10bit13g_scan8x8diagE@Base 0 1
 _ZN10x265_10bit13g_scanOrderCGE@Base 0 1
 _ZN10x265_10bit13g_zscanToPelXE@Base 0 1
 _ZN10x265_10bit13g_zscanToPelYE@Base 0 1
 _ZN10x265_10bit13weightAnalyseERNS_5SliceERNS_5FrameER10x265_param@Base 0 1
 _ZN10x265_10bit13x265_exp2_lutE@Base 0 1
 _ZN10x265_10bit13x265_exp2fix8Ed@Base 0 1
 _ZN10x265_10bit14MotionEstimate10initScalesEv@Base 0 1
 _ZN10x265_10bit14MotionEstimate11setSourcePUEPtiiiiii@Base 0 1
 _ZN10x265_10bit14MotionEstimate11setSourcePUERKNS_3YuvEiiiiiiib@Base 0 1
 _ZN10x265_10bit14MotionEstimate13subpelCompareEPNS_15ReferencePlanesERKNS_2MVEPFiPKtiS7_iE@Base 0 1
 _ZN10x265_10bit14MotionEstimate14motionEstimateEPNS_15ReferencePlanesERKNS_2MVES5_S5_iPS4_iRS3_jPt@Base 0 1
 _ZN10x265_10bit14MotionEstimate17StarPatternSearchEPNS_15ReferencePlanesERKNS_2MVES5_RS3_RiS7_S7_ii@Base 0 1
 _ZN10x265_10bit14MotionEstimate18hpelIterationCountEi@Base 0 1
 _ZN10x265_10bit14MotionEstimate4initEi@Base 0 1
 _ZN10x265_10bit14MotionEstimate8refineMVEPNS_15ReferencePlanesERKNS_2MVES5_S5_RS3_@Base 0 1
 _ZN10x265_10bit14MotionEstimateC1Ev@Base 0 1
 _ZN10x265_10bit14MotionEstimateC2Ev@Base 0 1
 _ZN10x265_10bit14MotionEstimateD1Ev@Base 0 1
 _ZN10x265_10bit14MotionEstimateD2Ev@Base 0 1
 _ZN10x265_10bit14PredictionUnitC1ERKNS_6CUDataERKNS_6CUGeomEi@Base 0 1
 _ZN10x265_10bit14PredictionUnitC2ERKNS_6CUDataERKNS_6CUGeomEi@Base 0 1
 _ZN10x265_10bit14checksumFinishEjPh@Base 0 1
 _ZN10x265_10bit14determineLevelERK10x265_paramRNS_3VPSE@Base 0 1
 _ZN10x265_10bit14g_chromaFilterE@Base 0 1
 _ZN10x265_10bit14g_depthScanIdxE@Base 0 1
 _ZN10x265_10bit14saoCuStatsBO_cEPKsPKtiiiPiS4_@Base 0 1
 _ZN10x265_10bit14saoCuStatsE0_cEPKsPKtiiiPiS4_@Base 0 1
 _ZN10x265_10bit14saoCuStatsE1_cEPKsPKtiPaiiPiS5_@Base 0 1
 _ZN10x265_10bit14saoCuStatsE2_cEPKsPKtiPaS4_iiPiS5_@Base 0 1
 _ZN10x265_10bit14saoCuStatsE3_cEPKsPKtiPaiiPiS5_@Base 0 1
 _ZN10x265_10bit14updateChecksumEPKtRjjjiij@Base 0 1
 _ZN10x265_10bit14updateMD5PlaneERNS_10MD5ContextEPKtjji@Base 0 1
 _ZN10x265_10bit14x265_api_queryEiiPi@Base 0 1
 _ZN10x265_10bit14x265_qScale2qpEd@Base 0 1
 _ZN10x265_10bit14x265_qp2qScaleEd@Base 0 1
 _ZN10x265_10bit15MotionReference11applyWeightEjjjj@Base 0 1
 _ZN10x265_10bit15MotionReference4initEPNS_6PicYuvEPNS_11WeightParamERK10x265_param@Base 0 1
 _ZN10x265_10bit15MotionReferenceC1Ev@Base 0 1
 _ZN10x265_10bit15MotionReferenceC2Ev@Base 0 1
 _ZN10x265_10bit15MotionReferenceD1Ev@Base 0 1
 _ZN10x265_10bit15MotionReferenceD2Ev@Base 0 1
 _ZN10x265_10bit15extendPicBorderEPtiiiii@Base 0 1
 _ZN10x265_10bit15g_maxLog2CUSizeE@Base 0 1
 _ZN10x265_10bit15g_rasterToZscanE@Base 0 1
 _ZN10x265_10bit15g_unitSizeDepthE@Base 0 1
 _ZN10x265_10bit15g_zscanToRasterE@Base 0 1
 _ZN10x265_10bit15parseLambdaFileEP10x265_param@Base 0 1
 _ZN10x265_10bit15x265_lambda_tabE@Base 0 1
 _ZN10x265_10bit15x265_param_freeEP10x265_param@Base 0 1
 _ZN10x265_10bit15x265_slurp_fileEPKc@Base 0 1
 _ZN10x265_10bit16SEIAlternativeTC8writeSEIERKNS_3SPSE@Base 0 1
 _ZN10x265_10bit16SEIAlternativeTCD0Ev@Base 0 1
 _ZN10x265_10bit16SEIAlternativeTCD1Ev@Base 0 1
 _ZN10x265_10bit16SEIAlternativeTCD2Ev@Base 0 1
 _ZN10x265_10bit16SEIPictureTiming8writeSEIERKNS_3SPSE@Base 0 1
 _ZN10x265_10bit16SEIPictureTimingD0Ev@Base 0 1
 _ZN10x265_10bit16SEIPictureTimingD1Ev@Base 0 1
 _ZN10x265_10bit16SEIPictureTimingD2Ev@Base 0 1
 _ZN10x265_10bit16SEIRecoveryPoint8writeSEIERKNS_3SPSE@Base 0 1
 _ZN10x265_10bit16SEIRecoveryPointD0Ev@Base 0 1
 _ZN10x265_10bit16SEIRecoveryPointD1Ev@Base 0 1
 _ZN10x265_10bit16SEIRecoveryPointD2Ev@Base 0 1
 _ZN10x265_10bit16g_ST2084_PQTableE@Base 0 1
 _ZN10x265_10bit16g_lastCoeffTableE@Base 0 1
 _ZN10x265_10bit16setupCPrimitivesERNS_17EncoderPrimitivesE@Base 0 1
 _ZN10x265_10bit16x265_api_get_165Ei@Base 0 1
 _ZN10x265_10bit16x265_csvlog_openEPK10x265_param@Base 0 1
 _ZN10x265_10bit16x265_encoder_logEP12x265_encoderiPPc@Base 0 1
 _ZN10x265_10bit16x265_lambda2_tabE@Base 0 1
 _ZN10x265_10bit16x265_param_allocEv@Base 0 1
 _ZN10x265_10bit16x265_param_parseEP10x265_paramPKcS3_@Base 0 1
 _ZN10x265_10bit16x265_report_simdEP10x265_param@Base 0 1
 _ZN10x265_10bit17CostEstimateGroup10singleCostEiiib@Base 0 1
 _ZN10x265_10bit17CostEstimateGroup11finishBatchEv@Base 0 1
 _ZN10x265_10bit17CostEstimateGroup12processTasksEi@Base 0 1
 _ZN10x265_10bit17CostEstimateGroup14estimateCUCostERNS_12LookaheadTLDEiiiiiPbbi@Base 0 1
 _ZN10x265_10bit17CostEstimateGroup17estimateFrameCostERNS_12LookaheadTLDEiiib@Base 0 1
 _ZN10x265_10bit17CostEstimateGroup3addEiii@Base 0 1
 _ZN10x265_10bit17PreLookaheadGroup12processTasksEi@Base 0 1
 _ZN10x265_10bit17g_YUVtoRGB_BT2020E@Base 0 1
 _ZN10x265_10bit17g_sliceTypeToCharE@Base 0 1
 _ZN10x265_10bit17x265_check_paramsEP10x265_param@Base 0 1
 _ZN10x265_10bit17x265_csvlog_frameEPK10x265_paramPK12x265_picture@Base 0 1
 _ZN10x265_10bit17x265_dither_imageEP12x265_pictureiiPsi@Base 0 1
 _ZN10x265_10bit17x265_param2stringEP10x265_paramii@Base 0 1
 _ZN10x265_10bit17x265_picture_freeEP12x265_picture@Base 0 1
 _ZN10x265_10bit17x265_picture_initEP10x265_paramP12x265_picture@Base 0 1
 _ZN10x265_10bit17x265_print_paramsEP10x265_param@Base 0 1
 _ZN10x265_10bit18SEIBufferingPeriod8writeSEIERKNS_3SPSE@Base 0 1
 _ZN10x265_10bit18SEIBufferingPeriodD0Ev@Base 0 1
 _ZN10x265_10bit18SEIBufferingPeriodD1Ev@Base 0 1
 _ZN10x265_10bit18SEIBufferingPeriodD2Ev@Base 0 1
 _ZN10x265_10bit18g_intraFilterFlagsE@Base 0 1
 _ZN10x265_10bit18x265_csvlog_encodeEPK10x265_paramPK10x265_statsiiiPPc@Base 0 1
 _ZN10x265_10bit18x265_encoder_closeEP12x265_encoder@Base 0 1
 _ZN10x265_10bit18x265_param_defaultEP10x265_param@Base 0 1
 _ZN10x265_10bit18x265_picture_allocEv@Base 0 1
 _ZN10x265_10bit19SyntaxElementWriter9writeUvlcEj@Base 0 1
 _ZN10x265_10bit19getParamAspectRatioEP10x265_paramRiS2_@Base 0 1
 _ZN10x265_10bit19setParamAspectRatioEP10x265_paramii@Base 0 1
 _ZN10x265_10bit19x265_encoder_encodeEP12x265_encoderPP8x265_nalPjP12x265_pictureS7_@Base 0 1
 _ZN10x265_10bit20SEIContentLightLevel8writeSEIERKNS_3SPSE@Base 0 1
 _ZN10x265_10bit20SEIContentLightLevelD0Ev@Base 0 1
 _ZN10x265_10bit20SEIContentLightLevelD1Ev@Base 0 1
 _ZN10x265_10bit20SEIContentLightLevelD2Ev@Base 0 1
 _ZN10x265_10bit20setupAliasPrimitivesERNS_17EncoderPrimitivesE@Base 0 1
 _ZN10x265_10bit20setupDCTPrimitives_cERNS_17EncoderPrimitivesE@Base 0 1
 _ZN10x265_10bit20setupSaoPrimitives_cERNS_17EncoderPrimitivesE@Base 0 1
 _ZN10x265_10bit20x265_encoder_headersEP12x265_encoderPP8x265_nalPj@Base 0 1
 _ZN10x265_10bit21SEIDecodedPictureHash8writeSEIERKNS_3SPSE@Base 0 1
 _ZN10x265_10bit21SEIDecodedPictureHashD0Ev@Base 0 1
 _ZN10x265_10bit21SEIDecodedPictureHashD1Ev@Base 0 1
 _ZN10x265_10bit21SEIDecodedPictureHashD2Ev@Base 0 1
 _ZN10x265_10bit21SEIuserDataRegistered8writeSEIERKNS_3SPSE@Base 0 1
 _ZN10x265_10bit21SEIuserDataRegisteredD0Ev@Base 0 1
 _ZN10x265_10bit21SEIuserDataRegisteredD1Ev@Base 0 1
 _ZN10x265_10bit21SEIuserDataRegisteredD2Ev@Base 0 1
 _ZN10x265_10bit21lumaPartitionMapTableE@Base 0 1
 _ZN10x265_10bit21x265_encoder_ctu_infoEP12x265_encoderiPP15x265_ctu_info_t@Base 0 1
 _ZN10x265_10bit21x265_encoder_open_165EP10x265_param@Base 0 1
 _ZN10x265_10bit21x265_encoder_reconfigEP12x265_encoderP10x265_param@Base 0 1
 _ZN10x265_10bit21x265_picturePlaneSizeEiiii@Base 0 1
 _ZN10x265_10bit21x265_setup_primitivesEP10x265_param@Base 0 1
 _ZN10x265_10bit22SEIActiveParameterSets8writeSEIERKNS_3SPSE@Base 0 1
 _ZN10x265_10bit22SEIActiveParameterSetsD0Ev@Base 0 1
 _ZN10x265_10bit22SEIActiveParameterSetsD1Ev@Base 0 1
 _ZN10x265_10bit22SEIActiveParameterSetsD2Ev@Base 0 1
 _ZN10x265_10bit22setupIntraPrimitives_cERNS_17EncoderPrimitivesE@Base 0 1
 _ZN10x265_10bit22setupPixelPrimitives_cERNS_17EncoderPrimitivesE@Base 0 1
 _ZN10x265_10bit22x265_encoder_get_statsEP12x265_encoderP10x265_statsj@Base 0 1
 _ZN10x265_10bit22x265_set_analysis_dataEP12x265_encoderP18x265_analysis_dataij@Base 0 1
 _ZN10x265_10bit23SEIuserDataUnregistered20m_uuid_iso_iec_11578E@Base 0 1
 _ZN10x265_10bit23SEIuserDataUnregistered8writeSEIERKNS_3SPSE@Base 0 1
 _ZN10x265_10bit23SEIuserDataUnregisteredD0Ev@Base 0 1
 _ZN10x265_10bit23SEIuserDataUnregisteredD1Ev@Base 0 1
 _ZN10x265_10bit23SEIuserDataUnregisteredD2Ev@Base 0 1
 _ZN10x265_10bit23setupFilterPrimitives_cERNS_17EncoderPrimitivesE@Base 0 1
 _ZN10x265_10bit23x265_encoder_parametersEP12x265_encoderP10x265_param@Base 0 1
 _ZN10x265_10bit23x265_free_analysis_dataEP10x265_paramP18x265_analysis_data@Base 0 1
 _ZN10x265_10bit23x265_get_ref_frame_listEP12x265_encoderPP11x265_picyuvS4_iiPiS5_@Base 0 1
 _ZN10x265_10bit24setupLowPassPrimitives_cERNS_17EncoderPrimitivesE@Base 0 1
 _ZN10x265_10bit24x265_alloc_analysis_dataEP10x265_paramP18x265_analysis_data@Base 0 1
 _ZN10x265_10bit24x265_param_apply_profileEP10x265_paramPKc@Base 0 1
 _ZN10x265_10bit25x265_param_default_presetEP10x265_paramPKcS3_@Base 0 1
 _ZN10x265_10bit26enableLowpassDCTPrimitivesERNS_17EncoderPrimitivesE@Base 0 1
 _ZN10x265_10bit26x265_encoder_intra_refreshEP12x265_encoder@Base 0 1
 _ZN10x265_10bit27setupLoopFilterPrimitives_cERNS_17EncoderPrimitivesE@Base 0 1
 _ZN10x265_10bit28setupSeaIntegralPrimitives_cERNS_17EncoderPrimitivesE@Base 0 1
 _ZN10x265_10bit30SEIMasteringDisplayColorVolume8writeSEIERKNS_3SPSE@Base 0 1
 _ZN10x265_10bit30SEIMasteringDisplayColorVolumeD0Ev@Base 0 1
 _ZN10x265_10bit30SEIMasteringDisplayColorVolumeD1Ev@Base 0 1
 _ZN10x265_10bit30SEIMasteringDisplayColorVolumeD2Ev@Base 0 1
 _ZN10x265_10bit30x265_chroma_lambda2_offset_tabE@Base 0 1
 _ZN10x265_10bit30x265_param_apply_fastfirstpassEP10x265_param@Base 0 1
 _ZN10x265_10bit33g_chroma422IntraAngleMappingTableE@Base 0 1
 _ZN10x265_10bit35x265_get_slicetype_poc_and_scenecutEP12x265_encoderPiS2_S2_@Base 0 1
 _ZN10x265_10bit3DPB10computeRPSEibPNS_3RPSEj@Base 0 1
 _ZN10x265_10bit3DPB13prepareEncodeEPNS_5FrameE@Base 0 1
 _ZN10x265_10bit3DPB14getNalUnitTypeEib@Base 0 1
 _ZN10x265_10bit3DPB19recycleUnreferencedEv@Base 0 1
 _ZN10x265_10bit3DPB22decodingRefreshMarkingEi11NalUnitType@Base 0 1
 _ZN10x265_10bit3DPB24applyReferencePictureSetEPNS_3RPSEi@Base 0 1
 _ZN10x265_10bit3DPBD1Ev@Base 0 1
 _ZN10x265_10bit3DPBD2Ev@Base 0 1
 _ZN10x265_10bit3RPS12sortDeltaPOCEv@Base 0 1
 _ZN10x265_10bit3SAO10resetStatsEv@Base 0 1
 _ZN10x265_10bit3SAO10startSliceEPNS_5FrameERNS_7EntropyE@Base 0 1
 _ZN10x265_10bit3SAO12rdoSaoUnitCuEPNS_8SAOParamEiii@Base 0 1
 _ZN10x265_10bit3SAO13estIterOffsetEixiiRiS1_Rx@Base 0 1
 _ZN10x265_10bit3SAO15calcSaoStatsCTUEii@Base 0 1
 _ZN10x265_10bit3SAO16rdoSaoUnitRowEndEPKNS_8SAOParamEi@Base 0 1
 _ZN10x265_10bit3SAO17applyPixelOffsetsEiii@Base 0 1
 _ZN10x265_10bit3SAO18createFromRootNodeEPS0_@Base 0 1
 _ZN10x265_10bit3SAO19generateLumaOffsetsEPNS_11SaoCtuParamEii@Base 0 1
 _ZN10x265_10bit3SAO21generateChromaOffsetsEPPNS_11SaoCtuParamEii@Base 0 1
 _ZN10x265_10bit3SAO21saoStatsInitialOffsetEii@Base 0 1
 _ZN10x265_10bit3SAO25calcSaoStatsCu_BeforeDblkEPNS_5FrameEii@Base 0 1
 _ZN10x265_10bit3SAO25saoLumaComponentParamDistEPNS_8SAOParamEiRxPxS3_@Base 0 1
 _ZN10x265_10bit3SAO27saoChromaComponentParamDistEPNS_8SAOParamEiRxPxS3_@Base 0 1
 _ZN10x265_10bit3SAO6createEP10x265_parami@Base 0 1
 _ZN10x265_10bit3SAO7destroyEi@Base 0 1
 _ZN10x265_10bit3SAO9s_eoTableE@Base 0 1
 _ZN10x265_10bit3SAOC1Ev@Base 0 1
 _ZN10x265_10bit3SAOC2Ev@Base 0 1
 _ZN10x265_10bit3SEI12base64DecodeEPci@Base 0 1
 _ZN10x265_10bit3SEI14writeByteAlignEv@Base 0 1
 _ZN10x265_10bit3SEI16writeSEImessagesERNS_9BitstreamERKNS_3SPSE11NalUnitTypeRNS_7NALListEi@Base 0 1
 _ZN10x265_10bit3SEI7setSizeEj@Base 0 1
 _ZN10x265_10bit3Yuv11copyFromYuvERKS0_@Base 0 1
 _ZN10x265_10bit3Yuv13copyPUFromYuvERKS0_jib@Base 0 1
 _ZN10x265_10bit3Yuv14copyFromPicYuvERKNS_6PicYuvEjj@Base 0 1
 _ZN10x265_10bit3Yuv6addAvgERKNS_8ShortYuvES3_jjjbb@Base 0 1
 _ZN10x265_10bit3Yuv6createEji@Base 0 1
 _ZN10x265_10bit3Yuv7addClipERKS0_RKNS_8ShortYuvEji@Base 0 1
 _ZN10x265_10bit3Yuv7destroyEv@Base 0 1
 _ZN10x265_10bit3YuvC1Ev@Base 0 1
 _ZN10x265_10bit3YuvC2Ev@Base 0 1
 _ZN10x265_10bit4LockD1Ev@Base 0 1
 _ZN10x265_10bit4LockD2Ev@Base 0 1
 _ZN10x265_10bit4g_t4E@Base 0 1
 _ZN10x265_10bit4g_t8E@Base 0 1
 _ZN10x265_10bit5Frame15allocEncodeDataEP10x265_paramRKNS_3SPSE@Base 0 1
 _ZN10x265_10bit5Frame6createEP10x265_paramPf@Base 0 1
 _ZN10x265_10bit5Frame6reinitERKNS_3SPSE@Base 0 1
 _ZN10x265_10bit5Frame7destroyEv@Base 0 1
 _ZN10x265_10bit5FrameC1Ev@Base 0 1
 _ZN10x265_10bit5FrameC2Ev@Base 0 1
 _ZN10x265_10bit5Quant11setChromaQPEiNS_8TextTypeEi@Base 0 1
 _ZN10x265_10bit5Quant12getSigCtxIncEjjjjbj@Base 0 1
 _ZN10x265_10bit5Quant12transformNxNERKNS_6CUDataEPKtjPKsjPsjNS_8TextTypeEjb@Base 0 1
 _ZN10x265_10bit5Quant13rdoQuant_funcE@Base 0 1
 _ZN10x265_10bit5Quant13setQPforQuantERKNS_6CUDataEi@Base 0 1
 _ZN10x265_10bit5Quant14ssimDistortionERKNS_6CUDataEPKtjS5_ijNS_8TextTypeEj@Base 0 1
 _ZN10x265_10bit5Quant15invtransformNxNERKNS_6CUDataEPsjPKsjNS_8TextTypeEbbj@Base 0 1
 _ZN10x265_10bit5Quant16signBitHidingHDQEPsPijRKNS_25TUEntropyCodingParametersEj@Base 0 1
 _ZN10x265_10bit5Quant19allocNoiseReductionERK10x265_param@Base 0 1
 _ZN10x265_10bit5Quant4initEdRKNS_11ScalingListERNS_7EntropyE@Base 0 1
 _ZN10x265_10bit5Quant8rdoQuantILj2EEEjRKNS_6CUDataEPsNS_8TextTypeEjb@Base 0 1
 _ZN10x265_10bit5Quant8rdoQuantILj3EEEjRKNS_6CUDataEPsNS_8TextTypeEjb@Base 0 1
 _ZN10x265_10bit5Quant8rdoQuantILj4EEEjRKNS_6CUDataEPsNS_8TextTypeEjb@Base 0 1
 _ZN10x265_10bit5Quant8rdoQuantILj5EEEjRKNS_6CUDataEPsNS_8TextTypeEjb@Base 0 1
 _ZN10x265_10bit5QuantC1Ev@Base 0 1
 _ZN10x265_10bit5QuantC2Ev@Base 0 1
 _ZN10x265_10bit5QuantD1Ev@Base 0 1
 _ZN10x265_10bit5QuantD2Ev@Base 0 1
 _ZN10x265_10bit5Slice13setRefPicListERNS_7PicListE@Base 0 1
 _ZN10x265_10bit5Slice14disableWeightsEv@Base 0 1
 _ZN10x265_10bit5g_t16E@Base 0 1
 _ZN10x265_10bit5g_t32E@Base 0 1
 _ZN10x265_10bit6CUData10initializeERKNS_13CUDataMemPoolEjRK10x265_parami@Base 0 1
 _ZN10x265_10bit6CUData11copyFromPicERKS0_RKNS_6CUGeomEib@Base 0 1
 _ZN10x265_10bit6CUData11setPURefIdxEiaii@Base 0 1
 _ZN10x265_10bit6CUData11setQPSubCUsEajj@Base 0 1
 _ZN10x265_10bit6CUData12calcCTUGeomsEjjjjPNS_6CUGeomE@Base 0 1
 _ZN10x265_10bit6CUData12copyPartFromERKS0_RKNS_6CUGeomEj@Base 0 1
 _ZN10x265_10bit6CUData12setEmptyPartERKNS_6CUGeomEj@Base 0 1
 _ZN10x265_10bit6CUData13setPUInterDirEhjj@Base 0 1
 _ZN10x265_10bit6CUData14initLosslessCUERKS0_RKNS_6CUGeomE@Base 0 1
 _ZN10x265_10bit6CUData7initCTUERKNS_5FrameEjijjj@Base 0 1
 _ZN10x265_10bit6CUData7setPUMvEiRKNS_2MVEii@Base 0 1
 _ZN10x265_10bit6CUData8setAllPUINS_2MVEEEvPT_RKS3_ii@Base 0 1
 _ZN10x265_10bit6CUData8setAllPUIaEEvPT_RKS2_ii@Base 0 1
 _ZN10x265_10bit6CUData9initSubCUERKS0_RKNS_6CUGeomEi@Base 0 1
 _ZN10x265_10bit6CUDataC1Ev@Base 0 1
 _ZN10x265_10bit6CUDataC2Ev@Base 0 1
 _ZN10x265_10bit6Lowres4initEPNS_6PicYuvEi@Base 0 1
 _ZN10x265_10bit6Lowres6createEP10x265_paramPNS_6PicYuvEj@Base 0 1
 _ZN10x265_10bit6Lowres7destroyEv@Base 0 1
 _ZN10x265_10bit6PicYuv13createOffsetsERKNS_3SPSE@Base 0 1
 _ZN10x265_10bit6PicYuv13getLumaBufLenEjjj@Base 0 1
 _ZN10x265_10bit6PicYuv15copyFromPictureERK12x265_pictureRK10x265_paramii@Base 0 1
 _ZN10x265_10bit6PicYuv6createEP10x265_parambPt@Base 0 1
 _ZN10x265_10bit6PicYuv7destroyEv@Base 0 1
 _ZN10x265_10bit6PicYuvC1Ev@Base 0 1
 _ZN10x265_10bit6PicYuvC2Ev@Base 0 1
 _ZN10x265_10bit6Search10checkIntraERNS_4ModeERKNS_6CUGeomENS_8PartSizeE@Base 0 1
 _ZN10x265_10bit6Search10getBlkBitsENS_8PartSizeEbijPj@Base 0 1
 _ZN10x265_10bit6Search10initSearchERK10x265_paramRNS_11ScalingListE@Base 0 1
 _ZN10x265_10bit6Search10processPMEERNS0_3PMEERS0_@Base 0 1
 _ZN10x265_10bit6Search11getLowresMVERKNS_6CUDataERKNS_14PredictionUnitEii@Base 0 1
 _ZN10x265_10bit6Search14estIntraPredQTERNS_4ModeERKNS_6CUGeomEPKj@Base 0 1
 _ZN10x265_10bit6Search14updateCandListEjyiPjPy@Base 0 1
 _ZN10x265_10bit6Search15codeIntraLumaQTERNS_4ModeERKNS_6CUGeomEjjbRNS0_4CostEPKj@Base 0 1
 _ZN10x265_10bit6Search15mergeEstimationERNS_6CUDataERKNS_6CUGeomERKNS_14PredictionUnitEiRNS0_9MergeDataE@Base 0 1
 _ZN10x265_10bit6Search15offsetSubTUCBFsERNS_6CUDataENS_8TextTypeEjj@Base 0 1
 _ZN10x265_10bit6Search15predInterSearchERNS_4ModeERKNS_6CUGeomEbPj@Base 0 1
 _ZN10x265_10bit6Search15setLambdaFromQPERKNS_6CUDataEii@Base 0 1
 _ZN10x265_10bit6Search17checkIntraInInterERNS_4ModeERKNS_6CUGeomE@Base 0 1
 _ZN10x265_10bit6Search17codeCoeffQTChromaERKNS_6CUDataEjjNS_8TextTypeE@Base 0 1
 _ZN10x265_10bit6Search17codeIntraChromaQtERNS_4ModeERKNS_6CUGeomEjjRNS0_4CostE@Base 0 1
 _ZN10x265_10bit6Search18codeIntraLumaTSkipERNS_4ModeERKNS_6CUGeomEjjRNS0_4CostE@Base 0 1
 _ZN10x265_10bit6Search18encodeIntraInInterERNS_4ModeERKNS_6CUGeomE@Base 0 1
 _ZN10x265_10bit6Search18estimateResidualQTERNS_4ModeERKNS_6CUGeomEjjRNS_8ShortYuvERNS0_4CostEPKji@Base 0 1
 _ZN10x265_10bit6Search18invalidateContextsEi@Base 0 1
 _ZN10x265_10bit6Search18saveResidualQTDataERNS_6CUDataERNS_8ShortYuvEjj@Base 0 1
 _ZN10x265_10bit6Search19estimateNullCbfCostEyjjNS_8TextTypeE@Base 0 1
 _ZN10x265_10bit6Search20checkDQPForSplitPredERNS_4ModeERKNS_6CUGeomE@Base 0 1
 _ZN10x265_10bit6Search20codeInterSubdivCbfQTERNS_6CUDataEjjPKj@Base 0 1
 _ZN10x265_10bit6Search20codeIntraChromaTSkipERNS_4ModeERKNS_6CUGeomEjjjRNS0_4CostE@Base 0 1
 _ZN10x265_10bit6Search20estIntraPredChromaQTERNS_4ModeERKNS_6CUGeomE@Base 0 1
 _ZN10x265_10bit6Search20extractIntraResultQTERNS_6CUDataERNS_3YuvEjj@Base 0 1
 _ZN10x265_10bit6Search21codeSubdivCbfQTChromaERKNS_6CUDataEjj@Base 0 1
 _ZN10x265_10bit6Search21residualQTIntraChromaERNS_4ModeERKNS_6CUGeomEjj@Base 0 1
 _ZN10x265_10bit6Search22getBestIntraModeChromaERNS_4ModeERKNS_6CUGeomE@Base 0 1
 _ZN10x265_10bit6Search22singleMotionEstimationERS0_RNS_4ModeERKNS_14PredictionUnitEiii@Base 0 1
 _ZN10x265_10bit6Search24encodeResAndCalcRdSkipCUERNS_4ModeE@Base 0 1
 _ZN10x265_10bit6Search25encodeResAndCalcRdInterCUERNS_4ModeERKNS_6CUGeomE@Base 0 1
 _ZN10x265_10bit6Search26extractIntraResultChromaQTERNS_6CUDataERNS_3YuvEjj@Base 0 1
 _ZN10x265_10bit6Search27residualTransformQuantInterERNS_4ModeERKNS_6CUGeomEjjPKj@Base 0 1
 _ZN10x265_10bit6Search27residualTransformQuantIntraERNS_4ModeERKNS_6CUGeomEjjPKj@Base 0 1
 _ZN10x265_10bit6Search3PME12processTasksEi@Base 0 1
 _ZN10x265_10bit6Search7splitTUERNS_4ModeERKNS_6CUGeomEjjRNS_8ShortYuvERNS0_4CostEPKji@Base 0 1
 _ZN10x265_10bit6Search8checkDQPERNS_4ModeERKNS_6CUGeomE@Base 0 1
 _ZN10x265_10bit6Search8searchMVERNS_4ModeERKNS_14PredictionUnitEiiRNS_2MVES6_iPS6_@Base 0 1
 _ZN10x265_10bit6Search9selectMVPERKNS_6CUDataERKNS_14PredictionUnitEPKNS_2MVEii@Base 0 1
 _ZN10x265_10bit6Search9zeroShortE@Base 0 1
 _ZN10x265_10bit6SearchC1Ev@Base 0 1
 _ZN10x265_10bit6SearchC2Ev@Base 0 1
 _ZN10x265_10bit6SearchD1Ev@Base 0 1
 _ZN10x265_10bit6SearchD2Ev@Base 0 1
 _ZN10x265_10bit6Thread4stopEv@Base 0 1
 _ZN10x265_10bit6Thread5startEv@Base 0 1
 _ZN10x265_10bit6ThreadC1Ev@Base 0 1
 _ZN10x265_10bit6ThreadC2Ev@Base 0 1
 _ZN10x265_10bit6ThreadD0Ev@Base 0 1
 _ZN10x265_10bit6ThreadD1Ev@Base 0 1
 _ZN10x265_10bit6ThreadD2Ev@Base 0 1
 _ZN10x265_10bit6levelsE@Base 0 1
 _ZN10x265_10bit7BitCost10s_bitsizesE@Base 0 1
 _ZN10x265_10bit7BitCost13CalculateLogsEv@Base 0 1
 _ZN10x265_10bit7BitCost13s_fpelMvCostsE@Base 0 1
 _ZN10x265_10bit7BitCost14s_costCalcLockE@Base 0 1
 _ZN10x265_10bit7BitCost5setQPEj@Base 0 1
 _ZN10x265_10bit7BitCost7destroyEv@Base 0 1
 _ZN10x265_10bit7BitCost7s_costsE@Base 0 1
 _ZN10x265_10bit7Deblock10deblockCTUEPKNS_6CUDataERKNS_6CUGeomEi@Base 0 1
 _ZN10x265_10bit7Deblock11s_betaTableE@Base 0 1
 _ZN10x265_10bit7Deblock14edgeFilterLumaEPKNS_6CUDataEjjiiPKh@Base 0 1
 _ZN10x265_10bit7Deblock15setEdgefilterPUEPKNS_6CUDataEjiPhj@Base 0 1
 _ZN10x265_10bit7Deblock15setEdgefilterTUEPKNS_6CUDataEjjiPh@Base 0 1
 _ZN10x265_10bit7Deblock16edgeFilterChromaEPKNS_6CUDataEjjiiPKh@Base 0 1
 _ZN10x265_10bit7Deblock19getBoundaryStrengthEPKNS_6CUDataEijPKh@Base 0 1
 _ZN10x265_10bit7Deblock21setEdgefilterMultipleEjiihPhj@Base 0 1
 _ZN10x265_10bit7Deblock9deblockCUEPKNS_6CUDataERKNS_6CUGeomEiPh@Base 0 1
 _ZN10x265_10bit7Deblock9s_tcTableE@Base 0 1
 _ZN10x265_10bit7Encoder10fetchStatsEP10x265_statsj@Base 0 1
 _ZN10x265_10bit7Encoder10getCUIndexEPNS_10cuLocationEPjii@Base 0 1
 _ZN10x265_10bit7Encoder10getPuShapeEPNS_13puOrientationEii@Base 0 1
 _ZN10x265_10bit7Encoder10initRefIdxEv@Base 0 1
 _ZN10x265_10bit7Encoder11copyCtuInfoEPP15x265_ctu_info_ti@Base 0 1
 _ZN10x265_10bit7Encoder11statsStringERNS_8EncStatsEPc@Base 0 1
 _ZN10x265_10bit7Encoder12printSummaryEv@Base 0 1
 _ZN10x265_10bit7Encoder12updateRefIdxEv@Base 0 1
 _ZN10x265_10bit7Encoder13analyseRefIdxEPi@Base 0 1
 _ZN10x265_10bit7Encoder13updateVbvPlanEPNS_11RateControlE@Base 0 1
 _ZN10x265_10bit7Encoder15getRefFrameListEPPNS_6PicYuvES3_iiPiS4_@Base 0 1
 _ZN10x265_10bit7Encoder15isReconfigureRcEP10x265_paramS2_@Base 0 1
 _ZN10x265_10bit7Encoder15readUserSeiFileER16x265_sei_payloadi@Base 0 1
 _ZN10x265_10bit7Encoder15setAnalysisDataEP18x265_analysis_dataij@Base 0 1
 _ZN10x265_10bit7Encoder16finishFrameStatsEPNS_5FrameEPNS_12FrameEncoderEP16x265_frame_statsi@Base 0 1
 _ZN10x265_10bit7Encoder16getStreamHeadersERNS_7NALListERNS_7EntropyERNS_9BitstreamE@Base 0 1
 _ZN10x265_10bit7Encoder16readAnalysisFileEP18x265_analysis_dataiPK12x265_picturei@Base 0 1
 _ZN10x265_10bit7Encoder16readAnalysisFileEP18x265_analysis_dataiPK12x265_pictureiNS_10cuLocationE@Base 0 1
 _ZN10x265_10bit7Encoder16readAnalysisFileEP18x265_analysis_dataii@Base 0 1
 _ZN10x265_10bit7Encoder16reconfigureParamEP10x265_paramS2_@Base 0 1
 _ZN10x265_10bit7Encoder17writeAnalysisFileEP18x265_analysis_dataRNS_9FrameDataE@Base 0 1
 _ZN10x265_10bit7Encoder18computeSPSRPSIndexEv@Base 0 1
 _ZN10x265_10bit7Encoder19calcRefreshIntervalEPNS_5FrameE@Base 0 1
 _ZN10x265_10bit7Encoder19copyUserSEIMessagesEPNS_5FrameEPK12x265_picture@Base 0 1
 _ZN10x265_10bit7Encoder20validateAnalysisDataEP18x265_analysis_datai@Base 0 1
 _ZN10x265_10bit7Encoder22printReconfigureParamsEv@Base 0 1
 _ZN10x265_10bit7Encoder23writeAnalysisFileRefineEP18x265_analysis_dataRNS_9FrameDataE@Base 0 1
 _ZN10x265_10bit7Encoder25setAnalysisDataAfterZScanEP18x265_analysis_dataPNS_5FrameE@Base 0 1
 _ZN10x265_10bit7Encoder27copySlicetypePocAndSceneCutEPiS1_S1_@Base 0 1
 _ZN10x265_10bit7Encoder6createEv@Base 0 1
 _ZN10x265_10bit7Encoder6encodeEPK12x265_picturePS1_@Base 0 1
 _ZN10x265_10bit7Encoder7destroyEv@Base 0 1
 _ZN10x265_10bit7Encoder7initPPSEPNS_3PPSE@Base 0 1
 _ZN10x265_10bit7Encoder7initSPSEPNS_3SPSE@Base 0 1
 _ZN10x265_10bit7Encoder7initVPSEPNS_3VPSE@Base 0 1
 _ZN10x265_10bit7Encoder8stopJobsEv@Base 0 1
 _ZN10x265_10bit7Encoder9configureEP10x265_param@Base 0 1
 _ZN10x265_10bit7EncoderC1Ev@Base 0 1
 _ZN10x265_10bit7EncoderC2Ev@Base 0 1
 _ZN10x265_10bit7Entropy10codePUWiseERKNS_6CUDataEj@Base 0 1
 _ZN10x265_10bit7Entropy11codeDeltaQPERKNS_6CUDataEj@Base 0 1
 _ZN10x265_10bit7Entropy11encodeBinEPEj@Base 0 1
 _ZN10x265_10bit7Entropy12codeCoeffNxNERKNS_6CUDataEPKsjjNS_8TextTypeE@Base 0 1
 _ZN10x265_10bit7Entropy12codeInterDirERKNS_6CUDataEj@Base 0 1
 _ZN10x265_10bit7Entropy12codePartSizeERKNS_6CUDataEjj@Base 0 1
 _ZN10x265_10bit7Entropy12codePredInfoERKNS_6CUDataEj@Base 0 1
 _ZN10x265_10bit7Entropy12encodeBinTrmEj@Base 0 1
 _ZN10x265_10bit7Entropy12encodeBinsEPEji@Base 0 1
 _ZN10x265_10bit7Entropy12resetEntropyERKNS_5SliceE@Base 0 1
 _ZN10x265_10bit7Entropy13codeRefFrmIdxERKNS_6CUDataEji@Base 0 1
 _ZN10x265_10bit7Entropy13codeSaoOffsetERKNS_11SaoCtuParamEi@Base 0 1
 _ZN10x265_10bit7Entropy14codeMergeIndexERKNS_6CUDataEj@Base 0 1
 _ZN10x265_10bit7Entropy14codeSaoMaxUvlcEjj@Base 0 1
 _ZN10x265_10bit7Entropy15codeProfileTierERKNS_16ProfileTierLevelEi@Base 0 1
 _ZN10x265_10bit7Entropy15codeQtCbfChromaERKNS_6CUDataEjNS_8TextTypeEjb@Base 0 1
 _ZN10x265_10bit7Entropy15codeRefFrmIdxPUERKNS_6CUDataEji@Base 0 1
 _ZN10x265_10bit7Entropy15codeSaoOffsetBOEPiii@Base 0 1
 _ZN10x265_10bit7Entropy15codeSaoOffsetEOEPiii@Base 0 1
 _ZN10x265_10bit7Entropy15codeScalingListERKNS_11ScalingListE@Base 0 1
 _ZN10x265_10bit7Entropy15codeScalingListERKNS_11ScalingListEjj@Base 0 1
 _ZN10x265_10bit7Entropy15codeSliceHeaderERKNS_5SliceERNS_9FrameDataEjji@Base 0 1
 _ZN10x265_10bit7Entropy15encodeTransformERKNS_6CUDataEjjjRbPKj@Base 0 1
 _ZN10x265_10bit7Entropy15writeEpExGolombEjj@Base 0 1
 _ZN10x265_10bit7Entropy16copyContextsFromERKS0_@Base 0 1
 _ZN10x265_10bit7Entropy17codeHrdParametersERKNS_7HRDInfoEi@Base 0 1
 _ZN10x265_10bit7Entropy18codeIntraDirChromaERKNS_6CUDataEjPj@Base 0 1
 _ZN10x265_10bit7Entropy19codeIntraDirLumaAngERKNS_6CUDataEjb@Base 0 1
 _ZN10x265_10bit7Entropy19codePredWeightTableERKNS_5SliceE@Base 0 1
 _ZN10x265_10bit7Entropy19encodeTransformLumaERKNS_6CUDataEjjjRbPKj@Base 0 1
 _ZN10x265_10bit7Entropy19writeUnaryMaxSymbolEjPhij@Base 0 1
 _ZN10x265_10bit7Entropy20loadIntraDirModeLumaERKS0_@Base 0 1
 _ZN10x265_10bit7Entropy22codeShortTermRefPicSetERKNS_3RPSEi@Base 0 1
 _ZN10x265_10bit7Entropy23writeCoefRemainExGolombEjj@Base 0 1
 _ZN10x265_10bit7Entropy29codeSliceHeaderWPPEntryPointsEPKjjj@Base 0 1
 _ZN10x265_10bit7Entropy5startEv@Base 0 1
 _ZN10x265_10bit7Entropy6finishEv@Base 0 1
 _ZN10x265_10bit7Entropy7codeAUDERKNS_5SliceE@Base 0 1
 _ZN10x265_10bit7Entropy7codeMvdERKNS_6CUDataEji@Base 0 1
 _ZN10x265_10bit7Entropy7codePPSERKNS_3PPSEbi@Base 0 1
 _ZN10x265_10bit7Entropy7codeSPSERKNS_3SPSERKNS_11ScalingListERKNS_16ProfileTierLevelE@Base 0 1
 _ZN10x265_10bit7Entropy7codeVPSERKNS_3VPSE@Base 0 1
 _ZN10x265_10bit7Entropy7codeVUIERKNS_3VUIEibb@Base 0 1
 _ZN10x265_10bit7Entropy8copyFromERKS0_@Base 0 1
 _ZN10x265_10bit7Entropy8encodeCUERKNS_6CUDataERKNS_6CUGeomEjjRb@Base 0 1
 _ZN10x265_10bit7Entropy8finishCUERKNS_6CUDataEjjb@Base 0 1
 _ZN10x265_10bit7Entropy8writeOutEv@Base 0 1
 _ZN10x265_10bit7Entropy9codeCoeffERKNS_6CUDataEjRbPKj@Base 0 1
 _ZN10x265_10bit7Entropy9copyStateERKS0_@Base 0 1
 _ZN10x265_10bit7Entropy9encodeBinEjRh@Base 0 1
 _ZN10x265_10bit7Entropy9encodeCTUERKNS_6CUDataERKNS_6CUGeomE@Base 0 1
 _ZN10x265_10bit7Entropy9resetBitsEv@Base 0 1
 _ZN10x265_10bit7EntropyC1Ev@Base 0 1
 _ZN10x265_10bit7EntropyC2Ev@Base 0 1
 _ZN10x265_10bit7MD5InitEPNS_10MD5ContextE@Base 0 1
 _ZN10x265_10bit7NALList12takeContentsERS0_@Base 0 1
 _ZN10x265_10bit7NALList19serializeSubstreamsEPjjPKNS_9BitstreamE@Base 0 1
 _ZN10x265_10bit7NALList9serializeE11NalUnitTypeRKNS_9BitstreamE@Base 0 1
 _ZN10x265_10bit7NALListC1Ev@Base 0 1
 _ZN10x265_10bit7NALListC2Ev@Base 0 1
 _ZN10x265_10bit7PicList11getCurFrameEv@Base 0 1
 _ZN10x265_10bit7PicList6getPOCEi@Base 0 1
 _ZN10x265_10bit7PicList6removeERNS_5FrameE@Base 0 1
 _ZN10x265_10bit7PicList7popBackEv@Base 0 1
 _ZN10x265_10bit7PicList8popFrontEv@Base 0 1
 _ZN10x265_10bit7PicList8pushBackERNS_5FrameE@Base 0 1
 _ZN10x265_10bit7PicList9pushFrontERNS_5FrameE@Base 0 1
 _ZN10x265_10bit7Predict12allocBuffersEi@Base 0 1
 _ZN10x265_10bit7Predict14initAdiPatternERKNS_6CUDataERKNS_6CUGeomEjRKNS0_14IntraNeighborsEi@Base 0 1
 _ZN10x265_10bit7Predict16predIntraLumaAngEjPtij@Base 0 1
 _ZN10x265_10bit7Predict18initIntraNeighborsERKNS_6CUDataEjjbPNS0_14IntraNeighborsE@Base 0 1
 _ZN10x265_10bit7Predict18motionCompensationERKNS_6CUDataERKNS_14PredictionUnitERNS_3YuvEbb@Base 0 1
 _ZN10x265_10bit7Predict18predIntraChromaAngEjPtij@Base 0 1
 _ZN10x265_10bit7Predict20fillReferenceSamplesEPKtiRKNS0_14IntraNeighborsEPt@Base 0 1
 _ZN10x265_10bit7Predict20initAdiPatternChromaERKNS_6CUDataERKNS_6CUGeomEjRKNS0_14IntraNeighborsEj@Base 0 1
 _ZN10x265_10bit7PredictC1Ev@Base 0 1
 _ZN10x265_10bit7PredictC2Ev@Base 0 1
 _ZN10x265_10bit7PredictD1Ev@Base 0 1
 _ZN10x265_10bit7PredictD2Ev@Base 0 1
 _ZN10x265_10bit8Analysis10classifyCUERKNS_6CUDataERKNS_6CUGeomERKNS_4ModeERNS0_12TrainingDataE@Base 0 1
 _ZN10x265_10bit8Analysis10normFactorEPKtjRNS_6CUDataEiNS_8TextTypeE@Base 0 1
 _ZN10x265_10bit8Analysis10qprdRefineERKNS_6CUDataERKNS_6CUGeomEii@Base 0 1
 _ZN10x265_10bit8Analysis11compressCTUERNS_6CUDataERNS_5FrameERKNS_6CUGeomERKNS_7EntropyE@Base 0 1
 _ZN10x265_10bit8Analysis11loadTUDepthENS_6CUGeomENS_6CUDataE@Base 0 1
 _ZN10x265_10bit8Analysis11tryLosslessERKNS_6CUGeomE@Base 0 1
 _ZN10x265_10bit8Analysis12processPmodeERNS0_5PMODEERS0_@Base 0 1
 _ZN10x265_10bit8Analysis13encodeResidueERKNS_6CUDataERKNS_6CUGeomE@Base 0 1
 _ZN10x265_10bit8Analysis15checkBidir2Nx2NERNS_4ModeES2_RKNS_6CUGeomE@Base 0 1
 _ZN10x265_10bit8Analysis15compressIntraCUERKNS_6CUDataERKNS_6CUGeomEi@Base 0 1
 _ZN10x265_10bit8Analysis15topSkipMinDepthERKNS_6CUDataERKNS_6CUGeomE@Base 0 1
 _ZN10x265_10bit8Analysis16addSplitFlagCostERNS_4ModeEj@Base 0 1
 _ZN10x265_10bit8Analysis16checkInter_rd0_4ERNS_4ModeERKNS_6CUGeomENS_8PartSizeEPj@Base 0 1
 _ZN10x265_10bit8Analysis16checkInter_rd5_6ERNS_4ModeERKNS_6CUGeomENS_8PartSizeEPj@Base 0 1
 _ZN10x265_10bit8Analysis17complexityCheckCUERKNS_4ModeE@Base 0 1
 _ZN10x265_10bit8Analysis19calculateCUVarianceERKNS_6CUDataERKNS_6CUGeomE@Base 0 1
 _ZN10x265_10bit8Analysis19calculateNormFactorERNS_6CUDataEi@Base 0 1
 _ZN10x265_10bit8Analysis19collectPUStatisticsERKNS_6CUDataERKNS_6CUGeomE@Base 0 1
 _ZN10x265_10bit8Analysis19recursionDepthCheckERKNS_6CUDataERKNS_6CUGeomERKNS_4ModeE@Base 0 1
 _ZN10x265_10bit8Analysis20calculateQpforCuSizeERKNS_6CUDataERKNS_6CUGeomEid@Base 0 1
 _ZN10x265_10bit8Analysis20compressInterCU_distERKNS_6CUDataERKNS_6CUGeomEi@Base 0 1
 _ZN10x265_10bit8Analysis21checkMerge2Nx2N_rd0_4ERNS_4ModeES2_RKNS_6CUGeomE@Base 0 1
 _ZN10x265_10bit8Analysis21checkMerge2Nx2N_rd5_6ERNS_4ModeES2_RKNS_6CUGeomE@Base 0 1
 _ZN10x265_10bit8Analysis21compressInterCU_rd0_4ERKNS_6CUDataERKNS_6CUGeomEi@Base 0 1
 _ZN10x265_10bit8Analysis21compressInterCU_rd5_6ERKNS_6CUDataERKNS_6CUGeomEi@Base 0 1
 _ZN10x265_10bit8Analysis23findSameContentRefCountERKNS_6CUDataERKNS_6CUGeomE@Base 0 1
 _ZN10x265_10bit8Analysis5PMODE12processTasksEi@Base 0 1
 _ZN10x265_10bit8Analysis6createEPNS_15ThreadLocalDataE@Base 0 1
 _ZN10x265_10bit8Analysis7destroyEv@Base 0 1
 _ZN10x265_10bit8Analysis7trainCUERKNS_6CUDataERKNS_6CUGeomERKNS_4ModeERNS0_12TrainingDataE@Base 0 1
 _ZN10x265_10bit8Analysis8recodeCUERKNS_6CUDataERKNS_6CUGeomEii@Base 0 1
 _ZN10x265_10bit8AnalysisC1Ev@Base 0 1
 _ZN10x265_10bit8AnalysisC2Ev@Base 0 1
 _ZN10x265_10bit8EncStats5addQPEd@Base 0 1
 _ZN10x265_10bit8EncStats7addBitsEy@Base 0 1
 _ZN10x265_10bit8EncStats7addPsnrEddd@Base 0 1
 _ZN10x265_10bit8EncStats7addSsimEd@Base 0 1
 _ZN10x265_10bit8MD5FinalEPNS_10MD5ContextEPh@Base 0 1
 _ZN10x265_10bit8ShortYuv5clearEv@Base 0 1
 _ZN10x265_10bit8ShortYuv6createEji@Base 0 1
 _ZN10x265_10bit8ShortYuv7destroyEv@Base 0 1
 _ZN10x265_10bit8ShortYuv8subtractERKNS_3YuvES3_ji@Base 0 1
 _ZN10x265_10bit8ShortYuvC1Ev@Base 0 1
 _ZN10x265_10bit8ShortYuvC2Ev@Base 0 1
 _ZN10x265_10bit8sbacInitEii@Base 0 1
 _ZN10x265_10bit9Bitstream13writeAlignOneEv@Base 0 1
 _ZN10x265_10bit9Bitstream14writeAlignZeroEv@Base 0 1
 _ZN10x265_10bit9Bitstream18writeByteAlignmentEv@Base 0 1
 _ZN10x265_10bit9Bitstream5writeEjj@Base 0 1
 _ZN10x265_10bit9Bitstream9push_backEh@Base 0 1
 _ZN10x265_10bit9Bitstream9resetBitsEv@Base 0 1
 _ZN10x265_10bit9Bitstream9writeByteEj@Base 0 1
 _ZN10x265_10bit9BitstreamC1Ev@Base 0 1
 _ZN10x265_10bit9BitstreamC2Ev@Base 0 1
 _ZN10x265_10bit9BitstreamD0Ev@Base 0 1
 _ZN10x265_10bit9BitstreamD1Ev@Base 0 1
 _ZN10x265_10bit9BitstreamD2Ev@Base 0 1
 _ZN10x265_10bit9FrameData6createERK10x265_paramRKNS_3SPSEi@Base 0 1
 _ZN10x265_10bit9FrameData6reinitERKNS_3SPSE@Base 0 1
 _ZN10x265_10bit9FrameData7destroyEv@Base 0 1
 _ZN10x265_10bit9FrameDataC1Ev@Base 0 1
 _ZN10x265_10bit9FrameDataC2Ev@Base 0 1
 _ZN10x265_10bit9Lookahead10addPictureERNS_5FrameE@Base 0 1
 _ZN10x265_10bit9Lookahead10addPictureERNS_5FrameEi@Base 0 1
 _ZN10x265_10bit9Lookahead12cuTreeFinishEPNS_6LowresEdi@Base 0 1
 _ZN10x265_10bit9Lookahead12vbvFrameCostEPPNS_6LowresEiii@Base 0 1
 _ZN10x265_10bit9Lookahead12vbvLookaheadEPPNS_6LowresEii@Base 0 1
 _ZN10x265_10bit9Lookahead13slicetypePathEPPNS_6LowresEiPA251_c@Base 0 1
 _ZN10x265_10bit9Lookahead15slicetypeDecideEv@Base 0 1
 _ZN10x265_10bit9Lookahead16scenecutInternalEPPNS_6LowresEiib@Base 0 1
 _ZN10x265_10bit9Lookahead16slicetypeAnalyseEPPNS_6LowresEb@Base 0 1
 _ZN10x265_10bit9Lookahead17getDecidedPictureEv@Base 0 1
 _ZN10x265_10bit9Lookahead17setLookaheadQueueEv@Base 0 1
 _ZN10x265_10bit9Lookahead17slicetypePathCostEPPNS_6LowresEPcx@Base 0 1
 _ZN10x265_10bit9Lookahead19checkLookaheadQueueERi@Base 0 1
 _ZN10x265_10bit9Lookahead19estimateCUPropagateEPPNS_6LowresEdiiii@Base 0 1
 _ZN10x265_10bit9Lookahead20frameCostRecalculateEPPNS_6LowresEiii@Base 0 1
 _ZN10x265_10bit9Lookahead23getEstimatedPictureCostEPNS_5FrameE@Base 0 1
 _ZN10x265_10bit9Lookahead28calcMotionAdaptiveQuantFrameEPPNS_6LowresEiii@Base 0 1
 _ZN10x265_10bit9Lookahead5flushEv@Base 0 1
 _ZN10x265_10bit9Lookahead6createEv@Base 0 1
 _ZN10x265_10bit9Lookahead6cuTreeEPPNS_6LowresEib@Base 0 1
 _ZN10x265_10bit9Lookahead7destroyEv@Base 0 1
 _ZN10x265_10bit9Lookahead7findJobEi@Base 0 1
 _ZN10x265_10bit9Lookahead8aqMotionEPPNS_6LowresEb@Base 0 1
 _ZN10x265_10bit9Lookahead8scenecutEPPNS_6LowresEiibi@Base 0 1
 _ZN10x265_10bit9Lookahead8stopJobsEv@Base 0 1
 _ZN10x265_10bit9LookaheadC1EP10x265_paramPNS_10ThreadPoolE@Base 0 1
 _ZN10x265_10bit9LookaheadC2EP10x265_paramPNS_10ThreadPoolE@Base 0 1
 _ZN10x265_10bit9LookaheadD0Ev@Base 0 1
 _ZN10x265_10bit9LookaheadD1Ev@Base 0 1
 _ZN10x265_10bit9LookaheadD2Ev@Base 0 1
 _ZN10x265_10bit9MD5UpdateEPNS_10MD5ContextEPhj@Base 0 1
 _ZN10x265_10bit9WaveFront10dequeueRowEi@Base 0 1
 _ZN10x265_10bit9WaveFront10enqueueRowEi@Base 0 1
 _ZN10x265_10bit9WaveFront13enableAllRowsEv@Base 0 1
 _ZN10x265_10bit9WaveFront19clearEnabledRowMaskEv@Base 0 1
 _ZN10x265_10bit9WaveFront4initEi@Base 0 1
 _ZN10x265_10bit9WaveFront7findJobEi@Base 0 1
 _ZN10x265_10bit9WaveFront9enableRowEi@Base 0 1
 _ZN10x265_10bit9WaveFrontD0Ev@Base 0 1
 _ZN10x265_10bit9WaveFrontD1Ev@Base 0 1
 _ZN10x265_10bit9WaveFrontD2Ev@Base 0 1
 _ZN10x265_10bit9cpu_namesE@Base 0 1
 _ZN10x265_10bit9crcFinishERjPh@Base 0 1
 _ZN10x265_10bit9detect512Ev@Base 0 1
 _ZN10x265_10bit9g_scan4x4E@Base 0 1
 _ZN10x265_10bit9updateCRCEPKtRjjji@Base 0 1
 _ZN10x265_10bit9x265_atofEPKcRb@Base 0 1
 _ZN10x265_10bit9x265_atoiEPKcRb@Base 0 1
 _ZN10x265_10bit9x265_freeEPv@Base 0 1
 _ZN10x265_12bit10BitCounter13writeAlignOneEv@Base 0 1
 _ZN10x265_12bit10BitCounter14writeAlignZeroEv@Base 0 1
 _ZN10x265_12bit10BitCounter5writeEjj@Base 0 1
 _ZN10x265_12bit10BitCounter9resetBitsEv@Base 0 1
 _ZN10x265_12bit10BitCounter9writeByteEj@Base 0 1
 _ZN10x265_12bit10BitCounterD0Ev@Base 0 1
 _ZN10x265_12bit10BitCounterD1Ev@Base 0 1
 _ZN10x265_12bit10BitCounterD2Ev@Base 0 1
 _ZN10x265_12bit10ThreadPool11getCpuCountEv@Base 0 1
 _ZN10x265_12bit10ThreadPool11stopWorkersEv@Base 0 1
 _ZN10x265_12bit10ThreadPool12tryBondPeersEijRNS_15BondedTaskGroupE@Base 0 1
 _ZN10x265_12bit10ThreadPool16allocThreadPoolsEP10x265_paramRib@Base 0 1
 _ZN10x265_12bit10ThreadPool16getNumaNodeCountEv@Base 0 1
 _ZN10x265_12bit10ThreadPool20getFrameThreadsCountEP10x265_parami@Base 0 1
 _ZN10x265_12bit10ThreadPool21setThreadNodeAffinityEPv@Base 0 1
 _ZN10x265_12bit10ThreadPool24setCurrentThreadAffinityEv@Base 0 1
 _ZN10x265_12bit10ThreadPool24tryAcquireSleepingThreadEjj@Base 0 1
 _ZN10x265_12bit10ThreadPool5startEv@Base 0 1
 _ZN10x265_12bit10ThreadPool6createEiiy@Base 0 1
 _ZN10x265_12bit10ThreadPoolC1Ev@Base 0 1
 _ZN10x265_12bit10ThreadPoolC2Ev@Base 0 1
 _ZN10x265_12bit10ThreadPoolD1Ev@Base 0 1
 _ZN10x265_12bit10ThreadPoolD2Ev@Base 0 1
 _ZN10x265_12bit10cpu_detectEb@Base 0 1
 _ZN10x265_12bit10g_log2SizeE@Base 0 1
 _ZN10x265_12bit10g_lpsTableE@Base 0 1
 _ZN10x265_12bit10primitivesE@Base 0 1
 _ZN10x265_12bit10x265_mdateEv@Base 0 1
 _ZN10x265_12bit11FrameFilter10processRowEi@Base 0 1
 _ZN10x265_12bit11FrameFilter14ParallelFilter12processTasksEi@Base 0 1
 _ZN10x265_12bit11FrameFilter14ParallelFilter13processSaoCTUEPNS_8SAOParamEi@Base 0 1
 _ZN10x265_12bit11FrameFilter14ParallelFilter15copySaoAboveRefEPKNS_6CUDataEPNS_6PicYuvEji@Base 0 1
 _ZN10x265_12bit11FrameFilter14processPostRowEi@Base 0 1
 _ZN10x265_12bit11FrameFilter17computeMEIntegralEi@Base 0 1
 _ZN10x265_12bit11FrameFilter4initEPNS_7EncoderEPNS_12FrameEncoderEij@Base 0 1
 _ZN10x265_12bit11FrameFilter5startEPNS_5FrameERNS_7EntropyE@Base 0 1
 _ZN10x265_12bit11FrameFilter7destroyEv@Base 0 1
 _ZN10x265_12bit11JobProvider10tryWakeOneEv@Base 0 1
 _ZN10x265_12bit11RateControl10clipQscaleEPNS_5FrameEPNS_16RateControlEntryEd@Base 0 1
 _ZN10x265_12bit11RateControl10splitbUsedEPcPNS_16RateControlEntryE@Base 0 1
 _ZN10x265_12bit11RateControl11hrdFullnessEPNS_18SEIBufferingPeriodE@Base 0 1
 _ZN10x265_12bit11RateControl11predictSizeEPNS_9PredictorEdd@Base 0 1
 _ZN10x265_12bit11RateControl12fixUnderflowEiiddd@Base 0 1
 _ZN10x265_12bit11RateControl13findUnderflowEPdPiS2_ii@Base 0 1
 _ZN10x265_12bit11RateControl13reconfigureRCEv@Base 0 1
 _ZN10x265_12bit11RateControl13splitdeltaPOCEPcPNS_16RateControlEntryE@Base 0 1
 _ZN10x265_12bit11RateControl13updateVbvPlanEPNS_7EncoderE@Base 0 1
 _ZN10x265_12bit11RateControl14accumPQpUpdateEv@Base 0 1
 _ZN10x265_12bit11RateControl14rateControlEndEPNS_5FrameExPNS_16RateControlEntryEPi@Base 0 1
 _ZN10x265_12bit11RateControl15analyseABR2PassEy@Base 0 1
 _ZN10x265_12bit11RateControl15updatePredictorEPNS_9PredictorEddd@Base 0 1
 _ZN10x265_12bit11RateControl16checkAndResetABREPNS_16RateControlEntryEb@Base 0 1
 _ZN10x265_12bit11RateControl16getPredictorTypeEii@Base 0 1
 _ZN10x265_12bit11RateControl16rateControlStartEPNS_5FrameEPNS_16RateControlEntryEPNS_7EncoderE@Base 0 1
 _ZN10x265_12bit11RateControl17countExpectedBitsEii@Base 0 1
 _ZN10x265_12bit11RateControl17rowVbvRateControlEPNS_5FrameEjPNS_16RateControlEntryERdPjj@Base 0 1
 _ZN10x265_12bit11RateControl18cuTreeReadFor2PassEPNS_5FrameE@Base 0 1
 _ZN10x265_12bit11RateControl18predictRowsSizeSumEPNS_5FrameEPNS_16RateControlEntryEdRi@Base 0 1
 _ZN10x265_12bit11RateControl18rateEstimateQscaleEPNS_5FrameEPNS_16RateControlEntryE@Base 0 1
 _ZN10x265_12bit11RateControl18setFinalFrameCountEi@Base 0 1
 _ZN10x265_12bit11RateControl18tuneQScaleForGrainEd@Base 0 1
 _ZN10x265_12bit11RateControl19initFramePredictorsEv@Base 0 1
 _ZN10x265_12bit11RateControl20getDiffLimitedQScaleEPNS_16RateControlEntryEd@Base 0 1
 _ZN10x265_12bit11RateControl20rateControlSliceTypeEi@Base 0 1
 _ZN10x265_12bit11RateControl21s_defaultStatFileNameE@Base 0 1
 _ZN10x265_12bit11RateControl21s_slidingWindowFramesE@Base 0 1
 _ZN10x265_12bit11RateControl22rateControlUpdateStatsEPNS_16RateControlEntryE@Base 0 1
 _ZN10x265_12bit11RateControl25tuneAbrQScaleFromFeedbackEd@Base 0 1
 _ZN10x265_12bit11RateControl26writeRateControlFrameStatsEPNS_5FrameEPNS_16RateControlEntryE@Base 0 1
 _ZN10x265_12bit11RateControl4initERKNS_3SPSE@Base 0 1
 _ZN10x265_12bit11RateControl7destroyEv@Base 0 1
 _ZN10x265_12bit11RateControl7getZoneEv@Base 0 1
 _ZN10x265_12bit11RateControl7initHRDERNS_3SPSE@Base 0 1
 _ZN10x265_12bit11RateControl8vbv2PassEyii@Base 0 1
 _ZN10x265_12bit11RateControl9getQScaleEPNS_16RateControlEntryEd@Base 0 1
 _ZN10x265_12bit11RateControl9initPass2Ev@Base 0 1
 _ZN10x265_12bit11RateControl9terminateEv@Base 0 1
 _ZN10x265_12bit11RateControl9updateVbvExPNS_16RateControlEntryE@Base 0 1
 _ZN10x265_12bit11RateControlC1ER10x265_param@Base 0 1
 _ZN10x265_12bit11RateControlC2ER10x265_param@Base 0 1
 _ZN10x265_12bit11ScalingList10MatrixTypeE@Base 0 1
 _ZN10x265_12bit11ScalingList13MatrixType_DCE@Base 0 1
 _ZN10x265_12bit11ScalingList13s_quantScalesE@Base 0 1
 _ZN10x265_12bit11ScalingList16parseScalingListEPKc@Base 0 1
 _ZN10x265_12bit11ScalingList16s_invQuantScalesE@Base 0 1
 _ZN10x265_12bit11ScalingList16s_numCoefPerSizeE@Base 0 1
 _ZN10x265_12bit11ScalingList18setupQuantMatricesEi@Base 0 1
 _ZN10x265_12bit11ScalingList19processDefaultMarixEii@Base 0 1
 _ZN10x265_12bit11ScalingList21processScalingListDecEPiS1_iiiiii@Base 0 1
 _ZN10x265_12bit11ScalingList21processScalingListEncEPiS1_iiiiii@Base 0 1
 _ZN10x265_12bit11ScalingList21setDefaultScalingListEv@Base 0 1
 _ZN10x265_12bit11ScalingList4initEv@Base 0 1
 _ZN10x265_12bit11ScalingListC1Ev@Base 0 1
 _ZN10x265_12bit11ScalingListC2Ev@Base 0 1
 _ZN10x265_12bit11ScalingListD1Ev@Base 0 1
 _ZN10x265_12bit11ScalingListD2Ev@Base 0 1
 _ZN10x265_12bit11g_maxCUSizeE@Base 0 1
 _ZN10x265_12bit11g_maxSlicesE@Base 0 1
 _ZN10x265_12bit11g_nextStateE@Base 0 1
 _ZN10x265_12bit11g_scanOrderE@Base 0 1
 _ZN10x265_12bit11general_logEPK10x265_paramPKciS4_z@Base 0 1
 _ZN10x265_12bit11getBsLengthEi@Base 0 1
 _ZN10x265_12bit11x265_mallocEj@Base 0 1
 _ZN10x265_12bit12FrameEncoder10processRowEii@Base 0 1
 _ZN10x265_12bit12FrameEncoder10threadMainEv@Base 0 1
 _ZN10x265_12bit12FrameEncoder11encodeSliceEj@Base 0 1
 _ZN10x265_12bit12FrameEncoder13compressFrameEv@Base 0 1
 _ZN10x265_12bit12FrameEncoder14WeightAnalysis12processTasksEi@Base 0 1
 _ZN10x265_12bit12FrameEncoder15initializeGeomsEv@Base 0 1
 _ZN10x265_12bit12FrameEncoder16writeToneMapInfoEP16x265_sei_payload@Base 0 1
 _ZN10x265_12bit12FrameEncoder17collectDynDataRowERNS_6CUDataEPNS_10FrameStatsE@Base 0 1
 _ZN10x265_12bit12FrameEncoder17getEncodedPictureERNS_7NALListE@Base 0 1
 _ZN10x265_12bit12FrameEncoder17processRowEncoderEiRNS_15ThreadLocalDataE@Base 0 1
 _ZN10x265_12bit12FrameEncoder18startCompressFrameEPNS_5FrameE@Base 0 1
 _ZN10x265_12bit12FrameEncoder19collectDynDataFrameEv@Base 0 1
 _ZN10x265_12bit12FrameEncoder20collectCTUStatisticsERKNS_6CUDataEPNS_10FrameStatsE@Base 0 1
 _ZN10x265_12bit12FrameEncoder20noiseReductionUpdateEv@Base 0 1
 _ZN10x265_12bit12FrameEncoder22computeAvgTrainingDataEv@Base 0 1
 _ZN10x265_12bit12FrameEncoder24writeTrailingSEIMessagesEv@Base 0 1
 _ZN10x265_12bit12FrameEncoder25initDecodedPictureHashSEIEiii@Base 0 1
 _ZN10x265_12bit12FrameEncoder4initEPNS_7EncoderEii@Base 0 1
 _ZN10x265_12bit12FrameEncoder7destroyEv@Base 0 1
 _ZN10x265_12bit12FrameEncoderC1Ev@Base 0 1
 _ZN10x265_12bit12FrameEncoderC2Ev@Base 0 1
 _ZN10x265_12bit12FrameEncoderD0Ev@Base 0 1
 _ZN10x265_12bit12FrameEncoderD1Ev@Base 0 1
 _ZN10x265_12bit12FrameEncoderD2Ev@Base 0 1
 _ZN10x265_12bit12LookaheadTLD10acEnergyCuEPNS_5FrameEjjij@Base 0 1
 _ZN10x265_12bit12LookaheadTLD14weightCostLumaERNS_6LowresES2_RNS_11WeightParamE@Base 0 1
 _ZN10x265_12bit12LookaheadTLD14weightsAnalyseERNS_6LowresES2_@Base 0 1
 _ZN10x265_12bit12LookaheadTLD16allocWeightedRefERNS_6LowresE@Base 0 1
 _ZN10x265_12bit12LookaheadTLD19lowresIntraEstimateERNS_6LowresEj@Base 0 1
 _ZN10x265_12bit12LookaheadTLD22calcAdaptiveQuantFrameEPNS_5FrameEP10x265_param@Base 0 1
 _ZN10x265_12bit12LookaheadTLD9lumaSumCuEPNS_5FrameEjjj@Base 0 1
 _ZN10x265_12bit12MD5TransformEPjS0_@Base 0 1
 _ZN10x265_12bit12WorkerThread10threadMainEv@Base 0 1
 _ZN10x265_12bit12WorkerThreadD0Ev@Base 0 1
 _ZN10x265_12bit12WorkerThreadD1Ev@Base 0 1
 _ZN10x265_12bit12WorkerThreadD2Ev@Base 0 1
 _ZN10x265_12bit12enforceLevelER10x265_paramRNS_3VPSE@Base 0 1
 _ZN10x265_12bit12g_lumaFilterE@Base 0 1
 _ZN10x265_12bit12g_maxCUDepthE@Base 0 1
 _ZN10x265_12bit12parseCpuNameEPKcRbb@Base 0 1
 _ZN10x265_12bit12x265_cleanupEv@Base 0 1
 _ZN10x265_12bit12x265_ssim2dBEd@Base 0 1
 _ZN10x265_12bit13g_chromaScaleE@Base 0 1
 _ZN10x265_12bit13g_entropyBitsE@Base 0 1
 _ZN10x265_12bit13g_goRiceRangeE@Base 0 1
 _ZN10x265_12bit13g_scan8x8diagE@Base 0 1
 _ZN10x265_12bit13g_scanOrderCGE@Base 0 1
 _ZN10x265_12bit13g_zscanToPelXE@Base 0 1
 _ZN10x265_12bit13g_zscanToPelYE@Base 0 1
 _ZN10x265_12bit13weightAnalyseERNS_5SliceERNS_5FrameER10x265_param@Base 0 1
 _ZN10x265_12bit13x265_exp2_lutE@Base 0 1
 _ZN10x265_12bit13x265_exp2fix8Ed@Base 0 1
 _ZN10x265_12bit14MotionEstimate10initScalesEv@Base 0 1
 _ZN10x265_12bit14MotionEstimate11setSourcePUEPtiiiiii@Base 0 1
 _ZN10x265_12bit14MotionEstimate11setSourcePUERKNS_3YuvEiiiiiiib@Base 0 1
 _ZN10x265_12bit14MotionEstimate13subpelCompareEPNS_15ReferencePlanesERKNS_2MVEPFiPKtiS7_iE@Base 0 1
 _ZN10x265_12bit14MotionEstimate14motionEstimateEPNS_15ReferencePlanesERKNS_2MVES5_S5_iPS4_iRS3_jPt@Base 0 1
 _ZN10x265_12bit14MotionEstimate17StarPatternSearchEPNS_15ReferencePlanesERKNS_2MVES5_RS3_RiS7_S7_ii@Base 0 1
 _ZN10x265_12bit14MotionEstimate18hpelIterationCountEi@Base 0 1
 _ZN10x265_12bit14MotionEstimate4initEi@Base 0 1
 _ZN10x265_12bit14MotionEstimate8refineMVEPNS_15ReferencePlanesERKNS_2MVES5_S5_RS3_@Base 0 1
 _ZN10x265_12bit14MotionEstimateC1Ev@Base 0 1
 _ZN10x265_12bit14MotionEstimateC2Ev@Base 0 1
 _ZN10x265_12bit14MotionEstimateD1Ev@Base 0 1
 _ZN10x265_12bit14MotionEstimateD2Ev@Base 0 1
 _ZN10x265_12bit14PredictionUnitC1ERKNS_6CUDataERKNS_6CUGeomEi@Base 0 1
 _ZN10x265_12bit14PredictionUnitC2ERKNS_6CUDataERKNS_6CUGeomEi@Base 0 1
 _ZN10x265_12bit14checksumFinishEjPh@Base 0 1
 _ZN10x265_12bit14determineLevelERK10x265_paramRNS_3VPSE@Base 0 1
 _ZN10x265_12bit14g_chromaFilterE@Base 0 1
 _ZN10x265_12bit14g_depthScanIdxE@Base 0 1
 _ZN10x265_12bit14saoCuStatsBO_cEPKsPKtiiiPiS4_@Base 0 1
 _ZN10x265_12bit14saoCuStatsE0_cEPKsPKtiiiPiS4_@Base 0 1
 _ZN10x265_12bit14saoCuStatsE1_cEPKsPKtiPaiiPiS5_@Base 0 1
 _ZN10x265_12bit14saoCuStatsE2_cEPKsPKtiPaS4_iiPiS5_@Base 0 1
 _ZN10x265_12bit14saoCuStatsE3_cEPKsPKtiPaiiPiS5_@Base 0 1
 _ZN10x265_12bit14updateChecksumEPKtRjjjiij@Base 0 1
 _ZN10x265_12bit14updateMD5PlaneERNS_10MD5ContextEPKtjji@Base 0 1
 _ZN10x265_12bit14x265_api_queryEiiPi@Base 0 1
 _ZN10x265_12bit14x265_qScale2qpEd@Base 0 1
 _ZN10x265_12bit14x265_qp2qScaleEd@Base 0 1
 _ZN10x265_12bit15MotionReference11applyWeightEjjjj@Base 0 1
 _ZN10x265_12bit15MotionReference4initEPNS_6PicYuvEPNS_11WeightParamERK10x265_param@Base 0 1
 _ZN10x265_12bit15MotionReferenceC1Ev@Base 0 1
 _ZN10x265_12bit15MotionReferenceC2Ev@Base 0 1
 _ZN10x265_12bit15MotionReferenceD1Ev@Base 0 1
 _ZN10x265_12bit15MotionReferenceD2Ev@Base 0 1
 _ZN10x265_12bit15extendPicBorderEPtiiiii@Base 0 1
 _ZN10x265_12bit15g_maxLog2CUSizeE@Base 0 1
 _ZN10x265_12bit15g_rasterToZscanE@Base 0 1
 _ZN10x265_12bit15g_unitSizeDepthE@Base 0 1
 _ZN10x265_12bit15g_zscanToRasterE@Base 0 1
 _ZN10x265_12bit15parseLambdaFileEP10x265_param@Base 0 1
 _ZN10x265_12bit15x265_lambda_tabE@Base 0 1
 _ZN10x265_12bit15x265_param_freeEP10x265_param@Base 0 1
 _ZN10x265_12bit15x265_slurp_fileEPKc@Base 0 1
 _ZN10x265_12bit16SEIAlternativeTC8writeSEIERKNS_3SPSE@Base 0 1
 _ZN10x265_12bit16SEIAlternativeTCD0Ev@Base 0 1
 _ZN10x265_12bit16SEIAlternativeTCD1Ev@Base 0 1
 _ZN10x265_12bit16SEIAlternativeTCD2Ev@Base 0 1
 _ZN10x265_12bit16SEIPictureTiming8writeSEIERKNS_3SPSE@Base 0 1
 _ZN10x265_12bit16SEIPictureTimingD0Ev@Base 0 1
 _ZN10x265_12bit16SEIPictureTimingD1Ev@Base 0 1
 _ZN10x265_12bit16SEIPictureTimingD2Ev@Base 0 1
 _ZN10x265_12bit16SEIRecoveryPoint8writeSEIERKNS_3SPSE@Base 0 1
 _ZN10x265_12bit16SEIRecoveryPointD0Ev@Base 0 1
 _ZN10x265_12bit16SEIRecoveryPointD1Ev@Base 0 1
 _ZN10x265_12bit16SEIRecoveryPointD2Ev@Base 0 1
 _ZN10x265_12bit16g_ST2084_PQTableE@Base 0 1
 _ZN10x265_12bit16g_lastCoeffTableE@Base 0 1
 _ZN10x265_12bit16setupCPrimitivesERNS_17EncoderPrimitivesE@Base 0 1
 _ZN10x265_12bit16x265_api_get_165Ei@Base 0 1
 _ZN10x265_12bit16x265_csvlog_openEPK10x265_param@Base 0 1
 _ZN10x265_12bit16x265_encoder_logEP12x265_encoderiPPc@Base 0 1
 _ZN10x265_12bit16x265_lambda2_tabE@Base 0 1
 _ZN10x265_12bit16x265_param_allocEv@Base 0 1
 _ZN10x265_12bit16x265_param_parseEP10x265_paramPKcS3_@Base 0 1
 _ZN10x265_12bit16x265_report_simdEP10x265_param@Base 0 1
 _ZN10x265_12bit17CostEstimateGroup10singleCostEiiib@Base 0 1
 _ZN10x265_12bit17CostEstimateGroup11finishBatchEv@Base 0 1
 _ZN10x265_12bit17CostEstimateGroup12processTasksEi@Base 0 1
 _ZN10x265_12bit17CostEstimateGroup14estimateCUCostERNS_12LookaheadTLDEiiiiiPbbi@Base 0 1
 _ZN10x265_12bit17CostEstimateGroup17estimateFrameCostERNS_12LookaheadTLDEiiib@Base 0 1
 _ZN10x265_12bit17CostEstimateGroup3addEiii@Base 0 1
 _ZN10x265_12bit17PreLookaheadGroup12processTasksEi@Base 0 1
 _ZN10x265_12bit17g_YUVtoRGB_BT2020E@Base 0 1
 _ZN10x265_12bit17g_sliceTypeToCharE@Base 0 1
 _ZN10x265_12bit17x265_check_paramsEP10x265_param@Base 0 1
 _ZN10x265_12bit17x265_csvlog_frameEPK10x265_paramPK12x265_picture@Base 0 1
 _ZN10x265_12bit17x265_dither_imageEP12x265_pictureiiPsi@Base 0 1
 _ZN10x265_12bit17x265_param2stringEP10x265_paramii@Base 0 1
 _ZN10x265_12bit17x265_picture_freeEP12x265_picture@Base 0 1
 _ZN10x265_12bit17x265_picture_initEP10x265_paramP12x265_picture@Base 0 1
 _ZN10x265_12bit17x265_print_paramsEP10x265_param@Base 0 1
 _ZN10x265_12bit18SEIBufferingPeriod8writeSEIERKNS_3SPSE@Base 0 1
 _ZN10x265_12bit18SEIBufferingPeriodD0Ev@Base 0 1
 _ZN10x265_12bit18SEIBufferingPeriodD1Ev@Base 0 1
 _ZN10x265_12bit18SEIBufferingPeriodD2Ev@Base 0 1
 _ZN10x265_12bit18g_intraFilterFlagsE@Base 0 1
 _ZN10x265_12bit18x265_csvlog_encodeEPK10x265_paramPK10x265_statsiiiPPc@Base 0 1
 _ZN10x265_12bit18x265_encoder_closeEP12x265_encoder@Base 0 1
 _ZN10x265_12bit18x265_param_defaultEP10x265_param@Base 0 1
 _ZN10x265_12bit18x265_picture_allocEv@Base 0 1
 _ZN10x265_12bit19SyntaxElementWriter9writeUvlcEj@Base 0 1
 _ZN10x265_12bit19getParamAspectRatioEP10x265_paramRiS2_@Base 0 1
 _ZN10x265_12bit19setParamAspectRatioEP10x265_paramii@Base 0 1
 _ZN10x265_12bit19x265_encoder_encodeEP12x265_encoderPP8x265_nalPjP12x265_pictureS7_@Base 0 1
 _ZN10x265_12bit20SEIContentLightLevel8writeSEIERKNS_3SPSE@Base 0 1
 _ZN10x265_12bit20SEIContentLightLevelD0Ev@Base 0 1
 _ZN10x265_12bit20SEIContentLightLevelD1Ev@Base 0 1
 _ZN10x265_12bit20SEIContentLightLevelD2Ev@Base 0 1
 _ZN10x265_12bit20setupAliasPrimitivesERNS_17EncoderPrimitivesE@Base 0 1
 _ZN10x265_12bit20setupDCTPrimitives_cERNS_17EncoderPrimitivesE@Base 0 1
 _ZN10x265_12bit20setupSaoPrimitives_cERNS_17EncoderPrimitivesE@Base 0 1
 _ZN10x265_12bit20x265_encoder_headersEP12x265_encoderPP8x265_nalPj@Base 0 1
 _ZN10x265_12bit21SEIDecodedPictureHash8writeSEIERKNS_3SPSE@Base 0 1
 _ZN10x265_12bit21SEIDecodedPictureHashD0Ev@Base 0 1
 _ZN10x265_12bit21SEIDecodedPictureHashD1Ev@Base 0 1
 _ZN10x265_12bit21SEIDecodedPictureHashD2Ev@Base 0 1
 _ZN10x265_12bit21SEIuserDataRegistered8writeSEIERKNS_3SPSE@Base 0 1
 _ZN10x265_12bit21SEIuserDataRegisteredD0Ev@Base 0 1
 _ZN10x265_12bit21SEIuserDataRegisteredD1Ev@Base 0 1
 _ZN10x265_12bit21SEIuserDataRegisteredD2Ev@Base 0 1
 _ZN10x265_12bit21lumaPartitionMapTableE@Base 0 1
 _ZN10x265_12bit21x265_encoder_ctu_infoEP12x265_encoderiPP15x265_ctu_info_t@Base 0 1
 _ZN10x265_12bit21x265_encoder_open_165EP10x265_param@Base 0 1
 _ZN10x265_12bit21x265_encoder_reconfigEP12x265_encoderP10x265_param@Base 0 1
 _ZN10x265_12bit21x265_picturePlaneSizeEiiii@Base 0 1
 _ZN10x265_12bit21x265_setup_primitivesEP10x265_param@Base 0 1
 _ZN10x265_12bit22SEIActiveParameterSets8writeSEIERKNS_3SPSE@Base 0 1
 _ZN10x265_12bit22SEIActiveParameterSetsD0Ev@Base 0 1
 _ZN10x265_12bit22SEIActiveParameterSetsD1Ev@Base 0 1
 _ZN10x265_12bit22SEIActiveParameterSetsD2Ev@Base 0 1
 _ZN10x265_12bit22setupIntraPrimitives_cERNS_17EncoderPrimitivesE@Base 0 1
 _ZN10x265_12bit22setupPixelPrimitives_cERNS_17EncoderPrimitivesE@Base 0 1
 _ZN10x265_12bit22x265_encoder_get_statsEP12x265_encoderP10x265_statsj@Base 0 1
 _ZN10x265_12bit22x265_set_analysis_dataEP12x265_encoderP18x265_analysis_dataij@Base 0 1
 _ZN10x265_12bit23SEIuserDataUnregistered20m_uuid_iso_iec_11578E@Base 0 1
 _ZN10x265_12bit23SEIuserDataUnregistered8writeSEIERKNS_3SPSE@Base 0 1
 _ZN10x265_12bit23SEIuserDataUnregisteredD0Ev@Base 0 1
 _ZN10x265_12bit23SEIuserDataUnregisteredD1Ev@Base 0 1
 _ZN10x265_12bit23SEIuserDataUnregisteredD2Ev@Base 0 1
 _ZN10x265_12bit23setupFilterPrimitives_cERNS_17EncoderPrimitivesE@Base 0 1
 _ZN10x265_12bit23x265_encoder_parametersEP12x265_encoderP10x265_param@Base 0 1
 _ZN10x265_12bit23x265_free_analysis_dataEP10x265_paramP18x265_analysis_data@Base 0 1
 _ZN10x265_12bit23x265_get_ref_frame_listEP12x265_encoderPP11x265_picyuvS4_iiPiS5_@Base 0 1
 _ZN10x265_12bit24setupLowPassPrimitives_cERNS_17EncoderPrimitivesE@Base 0 1
 _ZN10x265_12bit24x265_alloc_analysis_dataEP10x265_paramP18x265_analysis_data@Base 0 1
 _ZN10x265_12bit24x265_param_apply_profileEP10x265_paramPKc@Base 0 1
 _ZN10x265_12bit25x265_param_default_presetEP10x265_paramPKcS3_@Base 0 1
 _ZN10x265_12bit26enableLowpassDCTPrimitivesERNS_17EncoderPrimitivesE@Base 0 1
 _ZN10x265_12bit26x265_encoder_intra_refreshEP12x265_encoder@Base 0 1
 _ZN10x265_12bit27setupLoopFilterPrimitives_cERNS_17EncoderPrimitivesE@Base 0 1
 _ZN10x265_12bit28setupSeaIntegralPrimitives_cERNS_17EncoderPrimitivesE@Base 0 1
 _ZN10x265_12bit30SEIMasteringDisplayColorVolume8writeSEIERKNS_3SPSE@Base 0 1
 _ZN10x265_12bit30SEIMasteringDisplayColorVolumeD0Ev@Base 0 1
 _ZN10x265_12bit30SEIMasteringDisplayColorVolumeD1Ev@Base 0 1
 _ZN10x265_12bit30SEIMasteringDisplayColorVolumeD2Ev@Base 0 1
 _ZN10x265_12bit30x265_chroma_lambda2_offset_tabE@Base 0 1
 _ZN10x265_12bit30x265_param_apply_fastfirstpassEP10x265_param@Base 0 1
 _ZN10x265_12bit33g_chroma422IntraAngleMappingTableE@Base 0 1
 _ZN10x265_12bit35x265_get_slicetype_poc_and_scenecutEP12x265_encoderPiS2_S2_@Base 0 1
 _ZN10x265_12bit3DPB10computeRPSEibPNS_3RPSEj@Base 0 1
 _ZN10x265_12bit3DPB13prepareEncodeEPNS_5FrameE@Base 0 1
 _ZN10x265_12bit3DPB14getNalUnitTypeEib@Base 0 1
 _ZN10x265_12bit3DPB19recycleUnreferencedEv@Base 0 1
 _ZN10x265_12bit3DPB22decodingRefreshMarkingEi11NalUnitType@Base 0 1
 _ZN10x265_12bit3DPB24applyReferencePictureSetEPNS_3RPSEi@Base 0 1
 _ZN10x265_12bit3DPBD1Ev@Base 0 1
 _ZN10x265_12bit3DPBD2Ev@Base 0 1
 _ZN10x265_12bit3RPS12sortDeltaPOCEv@Base 0 1
 _ZN10x265_12bit3SAO10resetStatsEv@Base 0 1
 _ZN10x265_12bit3SAO10startSliceEPNS_5FrameERNS_7EntropyE@Base 0 1
 _ZN10x265_12bit3SAO12rdoSaoUnitCuEPNS_8SAOParamEiii@Base 0 1
 _ZN10x265_12bit3SAO13estIterOffsetEixiiRiS1_Rx@Base 0 1
 _ZN10x265_12bit3SAO15calcSaoStatsCTUEii@Base 0 1
 _ZN10x265_12bit3SAO16rdoSaoUnitRowEndEPKNS_8SAOParamEi@Base 0 1
 _ZN10x265_12bit3SAO17applyPixelOffsetsEiii@Base 0 1
 _ZN10x265_12bit3SAO18createFromRootNodeEPS0_@Base 0 1
 _ZN10x265_12bit3SAO19generateLumaOffsetsEPNS_11SaoCtuParamEii@Base 0 1
 _ZN10x265_12bit3SAO21generateChromaOffsetsEPPNS_11SaoCtuParamEii@Base 0 1
 _ZN10x265_12bit3SAO21saoStatsInitialOffsetEii@Base 0 1
 _ZN10x265_12bit3SAO25calcSaoStatsCu_BeforeDblkEPNS_5FrameEii@Base 0 1
 _ZN10x265_12bit3SAO25saoLumaComponentParamDistEPNS_8SAOParamEiRxPxS3_@Base 0 1
 _ZN10x265_12bit3SAO27saoChromaComponentParamDistEPNS_8SAOParamEiRxPxS3_@Base 0 1
 _ZN10x265_12bit3SAO6createEP10x265_parami@Base 0 1
 _ZN10x265_12bit3SAO7destroyEi@Base 0 1
 _ZN10x265_12bit3SAO9s_eoTableE@Base 0 1
 _ZN10x265_12bit3SAOC1Ev@Base 0 1
 _ZN10x265_12bit3SAOC2Ev@Base 0 1
 _ZN10x265_12bit3SEI12base64DecodeEPci@Base 0 1
 _ZN10x265_12bit3SEI14writeByteAlignEv@Base 0 1
 _ZN10x265_12bit3SEI16writeSEImessagesERNS_9BitstreamERKNS_3SPSE11NalUnitTypeRNS_7NALListEi@Base 0 1
 _ZN10x265_12bit3SEI7setSizeEj@Base 0 1
 _ZN10x265_12bit3Yuv11copyFromYuvERKS0_@Base 0 1
 _ZN10x265_12bit3Yuv13copyPUFromYuvERKS0_jib@Base 0 1
 _ZN10x265_12bit3Yuv14copyFromPicYuvERKNS_6PicYuvEjj@Base 0 1
 _ZN10x265_12bit3Yuv6addAvgERKNS_8ShortYuvES3_jjjbb@Base 0 1
 _ZN10x265_12bit3Yuv6createEji@Base 0 1
 _ZN10x265_12bit3Yuv7addClipERKS0_RKNS_8ShortYuvEji@Base 0 1
 _ZN10x265_12bit3Yuv7destroyEv@Base 0 1
 _ZN10x265_12bit3YuvC1Ev@Base 0 1
 _ZN10x265_12bit3YuvC2Ev@Base 0 1
 _ZN10x265_12bit4LockD1Ev@Base 0 1
 _ZN10x265_12bit4LockD2Ev@Base 0 1
 _ZN10x265_12bit4g_t4E@Base 0 1
 _ZN10x265_12bit4g_t8E@Base 0 1
 _ZN10x265_12bit5Frame15allocEncodeDataEP10x265_paramRKNS_3SPSE@Base 0 1
 _ZN10x265_12bit5Frame6createEP10x265_paramPf@Base 0 1
 _ZN10x265_12bit5Frame6reinitERKNS_3SPSE@Base 0 1
 _ZN10x265_12bit5Frame7destroyEv@Base 0 1
 _ZN10x265_12bit5FrameC1Ev@Base 0 1
 _ZN10x265_12bit5FrameC2Ev@Base 0 1
 _ZN10x265_12bit5Quant11setChromaQPEiNS_8TextTypeEi@Base 0 1
 _ZN10x265_12bit5Quant12getSigCtxIncEjjjjbj@Base 0 1
 _ZN10x265_12bit5Quant12transformNxNERKNS_6CUDataEPKtjPKsjPsjNS_8TextTypeEjb@Base 0 1
 _ZN10x265_12bit5Quant13rdoQuant_funcE@Base 0 1
 _ZN10x265_12bit5Quant13setQPforQuantERKNS_6CUDataEi@Base 0 1
 _ZN10x265_12bit5Quant14ssimDistortionERKNS_6CUDataEPKtjS5_ijNS_8TextTypeEj@Base 0 1
 _ZN10x265_12bit5Quant15invtransformNxNERKNS_6CUDataEPsjPKsjNS_8TextTypeEbbj@Base 0 1
 _ZN10x265_12bit5Quant16signBitHidingHDQEPsPijRKNS_25TUEntropyCodingParametersEj@Base 0 1
 _ZN10x265_12bit5Quant19allocNoiseReductionERK10x265_param@Base 0 1
 _ZN10x265_12bit5Quant4initEdRKNS_11ScalingListERNS_7EntropyE@Base 0 1
 _ZN10x265_12bit5Quant8rdoQuantILj2EEEjRKNS_6CUDataEPsNS_8TextTypeEjb@Base 0 1
 _ZN10x265_12bit5Quant8rdoQuantILj3EEEjRKNS_6CUDataEPsNS_8TextTypeEjb@Base 0 1
 _ZN10x265_12bit5Quant8rdoQuantILj4EEEjRKNS_6CUDataEPsNS_8TextTypeEjb@Base 0 1
 _ZN10x265_12bit5Quant8rdoQuantILj5EEEjRKNS_6CUDataEPsNS_8TextTypeEjb@Base 0 1
 _ZN10x265_12bit5QuantC1Ev@Base 0 1
 _ZN10x265_12bit5QuantC2Ev@Base 0 1
 _ZN10x265_12bit5QuantD1Ev@Base 0 1
 _ZN10x265_12bit5QuantD2Ev@Base 0 1
 _ZN10x265_12bit5Slice13setRefPicListERNS_7PicListE@Base 0 1
 _ZN10x265_12bit5Slice14disableWeightsEv@Base 0 1
 _ZN10x265_12bit5g_t16E@Base 0 1
 _ZN10x265_12bit5g_t32E@Base 0 1
 _ZN10x265_12bit6CUData10initializeERKNS_13CUDataMemPoolEjRK10x265_parami@Base 0 1
 _ZN10x265_12bit6CUData11copyFromPicERKS0_RKNS_6CUGeomEib@Base 0 1
 _ZN10x265_12bit6CUData11setPURefIdxEiaii@Base 0 1
 _ZN10x265_12bit6CUData11setQPSubCUsEajj@Base 0 1
 _ZN10x265_12bit6CUData12calcCTUGeomsEjjjjPNS_6CUGeomE@Base 0 1
 _ZN10x265_12bit6CUData12copyPartFromERKS0_RKNS_6CUGeomEj@Base 0 1
 _ZN10x265_12bit6CUData12setEmptyPartERKNS_6CUGeomEj@Base 0 1
 _ZN10x265_12bit6CUData13setPUInterDirEhjj@Base 0 1
 _ZN10x265_12bit6CUData14initLosslessCUERKS0_RKNS_6CUGeomE@Base 0 1
 _ZN10x265_12bit6CUData7initCTUERKNS_5FrameEjijjj@Base 0 1
 _ZN10x265_12bit6CUData7setPUMvEiRKNS_2MVEii@Base 0 1
 _ZN10x265_12bit6CUData8setAllPUINS_2MVEEEvPT_RKS3_ii@Base 0 1
 _ZN10x265_12bit6CUData8setAllPUIaEEvPT_RKS2_ii@Base 0 1
 _ZN10x265_12bit6CUData9initSubCUERKS0_RKNS_6CUGeomEi@Base 0 1
 _ZN10x265_12bit6CUDataC1Ev@Base 0 1
 _ZN10x265_12bit6CUDataC2Ev@Base 0 1
 _ZN10x265_12bit6Lowres4initEPNS_6PicYuvEi@Base 0 1
 _ZN10x265_12bit6Lowres6createEP10x265_paramPNS_6PicYuvEj@Base 0 1
 _ZN10x265_12bit6Lowres7destroyEv@Base 0 1
 _ZN10x265_12bit6PicYuv13createOffsetsERKNS_3SPSE@Base 0 1
 _ZN10x265_12bit6PicYuv13getLumaBufLenEjjj@Base 0 1
 _ZN10x265_12bit6PicYuv15copyFromPictureERK12x265_pictureRK10x265_paramii@Base 0 1
 _ZN10x265_12bit6PicYuv6createEP10x265_parambPt@Base 0 1
 _ZN10x265_12bit6PicYuv7destroyEv@Base 0 1
 _ZN10x265_12bit6PicYuvC1Ev@Base 0 1
 _ZN10x265_12bit6PicYuvC2Ev@Base 0 1
 _ZN10x265_12bit6Search10checkIntraERNS_4ModeERKNS_6CUGeomENS_8PartSizeE@Base 0 1
 _ZN10x265_12bit6Search10getBlkBitsENS_8PartSizeEbijPj@Base 0 1
 _ZN10x265_12bit6Search10initSearchERK10x265_paramRNS_11ScalingListE@Base 0 1
 _ZN10x265_12bit6Search10processPMEERNS0_3PMEERS0_@Base 0 1
 _ZN10x265_12bit6Search11getLowresMVERKNS_6CUDataERKNS_14PredictionUnitEii@Base 0 1
 _ZN10x265_12bit6Search14estIntraPredQTERNS_4ModeERKNS_6CUGeomEPKj@Base 0 1
 _ZN10x265_12bit6Search14updateCandListEjyiPjPy@Base 0 1
 _ZN10x265_12bit6Search15codeIntraLumaQTERNS_4ModeERKNS_6CUGeomEjjbRNS0_4CostEPKj@Base 0 1
 _ZN10x265_12bit6Search15mergeEstimationERNS_6CUDataERKNS_6CUGeomERKNS_14PredictionUnitEiRNS0_9MergeDataE@Base 0 1
 _ZN10x265_12bit6Search15offsetSubTUCBFsERNS_6CUDataENS_8TextTypeEjj@Base 0 1
 _ZN10x265_12bit6Search15predInterSearchERNS_4ModeERKNS_6CUGeomEbPj@Base 0 1
 _ZN10x265_12bit6Search15setLambdaFromQPERKNS_6CUDataEii@Base 0 1
 _ZN10x265_12bit6Search17checkIntraInInterERNS_4ModeERKNS_6CUGeomE@Base 0 1
 _ZN10x265_12bit6Search17codeCoeffQTChromaERKNS_6CUDataEjjNS_8TextTypeE@Base 0 1
 _ZN10x265_12bit6Search17codeIntraChromaQtERNS_4ModeERKNS_6CUGeomEjjRNS0_4CostE@Base 0 1
 _ZN10x265_12bit6Search18codeIntraLumaTSkipERNS_4ModeERKNS_6CUGeomEjjRNS0_4CostE@Base 0 1
 _ZN10x265_12bit6Search18encodeIntraInInterERNS_4ModeERKNS_6CUGeomE@Base 0 1
 _ZN10x265_12bit6Search18estimateResidualQTERNS_4ModeERKNS_6CUGeomEjjRNS_8ShortYuvERNS0_4CostEPKji@Base 0 1
 _ZN10x265_12bit6Search18invalidateContextsEi@Base 0 1
 _ZN10x265_12bit6Search18saveResidualQTDataERNS_6CUDataERNS_8ShortYuvEjj@Base 0 1
 _ZN10x265_12bit6Search19estimateNullCbfCostEyjjNS_8TextTypeE@Base 0 1
 _ZN10x265_12bit6Search20checkDQPForSplitPredERNS_4ModeERKNS_6CUGeomE@Base 0 1
 _ZN10x265_12bit6Search20codeInterSubdivCbfQTERNS_6CUDataEjjPKj@Base 0 1
 _ZN10x265_12bit6Search20codeIntraChromaTSkipERNS_4ModeERKNS_6CUGeomEjjjRNS0_4CostE@Base 0 1
 _ZN10x265_12bit6Search20estIntraPredChromaQTERNS_4ModeERKNS_6CUGeomE@Base 0 1
 _ZN10x265_12bit6Search20extractIntraResultQTERNS_6CUDataERNS_3YuvEjj@Base 0 1
 _ZN10x265_12bit6Search21codeSubdivCbfQTChromaERKNS_6CUDataEjj@Base 0 1
 _ZN10x265_12bit6Search21residualQTIntraChromaERNS_4ModeERKNS_6CUGeomEjj@Base 0 1
 _ZN10x265_12bit6Search22getBestIntraModeChromaERNS_4ModeERKNS_6CUGeomE@Base 0 1
 _ZN10x265_12bit6Search22singleMotionEstimationERS0_RNS_4ModeERKNS_14PredictionUnitEiii@Base 0 1
 _ZN10x265_12bit6Search24encodeResAndCalcRdSkipCUERNS_4ModeE@Base 0 1
 _ZN10x265_12bit6Search25encodeResAndCalcRdInterCUERNS_4ModeERKNS_6CUGeomE@Base 0 1
 _ZN10x265_12bit6Search26extractIntraResultChromaQTERNS_6CUDataERNS_3YuvEjj@Base 0 1
 _ZN10x265_12bit6Search27residualTransformQuantInterERNS_4ModeERKNS_6CUGeomEjjPKj@Base 0 1
 _ZN10x265_12bit6Search27residualTransformQuantIntraERNS_4ModeERKNS_6CUGeomEjjPKj@Base 0 1
 _ZN10x265_12bit6Search3PME12processTasksEi@Base 0 1
 _ZN10x265_12bit6Search7splitTUERNS_4ModeERKNS_6CUGeomEjjRNS_8ShortYuvERNS0_4CostEPKji@Base 0 1
 _ZN10x265_12bit6Search8checkDQPERNS_4ModeERKNS_6CUGeomE@Base 0 1
 _ZN10x265_12bit6Search8searchMVERNS_4ModeERKNS_14PredictionUnitEiiRNS_2MVES6_iPS6_@Base 0 1
 _ZN10x265_12bit6Search9selectMVPERKNS_6CUDataERKNS_14PredictionUnitEPKNS_2MVEii@Base 0 1
 _ZN10x265_12bit6Search9zeroShortE@Base 0 1
 _ZN10x265_12bit6SearchC1Ev@Base 0 1
 _ZN10x265_12bit6SearchC2Ev@Base 0 1
 _ZN10x265_12bit6SearchD1Ev@Base 0 1
 _ZN10x265_12bit6SearchD2Ev@Base 0 1
 _ZN10x265_12bit6Thread4stopEv@Base 0 1
 _ZN10x265_12bit6Thread5startEv@Base 0 1
 _ZN10x265_12bit6ThreadC1Ev@Base 0 1
 _ZN10x265_12bit6ThreadC2Ev@Base 0 1
 _ZN10x265_12bit6ThreadD0Ev@Base 0 1
 _ZN10x265_12bit6ThreadD1Ev@Base 0 1
 _ZN10x265_12bit6ThreadD2Ev@Base 0 1
 _ZN10x265_12bit6levelsE@Base 0 1
 _ZN10x265_12bit7BitCost10s_bitsizesE@Base 0 1
 _ZN10x265_12bit7BitCost13CalculateLogsEv@Base 0 1
 _ZN10x265_12bit7BitCost13s_fpelMvCostsE@Base 0 1
 _ZN10x265_12bit7BitCost14s_costCalcLockE@Base 0 1
 _ZN10x265_12bit7BitCost5setQPEj@Base 0 1
 _ZN10x265_12bit7BitCost7destroyEv@Base 0 1
 _ZN10x265_12bit7BitCost7s_costsE@Base 0 1
 _ZN10x265_12bit7Deblock10deblockCTUEPKNS_6CUDataERKNS_6CUGeomEi@Base 0 1
 _ZN10x265_12bit7Deblock11s_betaTableE@Base 0 1
 _ZN10x265_12bit7Deblock14edgeFilterLumaEPKNS_6CUDataEjjiiPKh@Base 0 1
 _ZN10x265_12bit7Deblock15setEdgefilterPUEPKNS_6CUDataEjiPhj@Base 0 1
 _ZN10x265_12bit7Deblock15setEdgefilterTUEPKNS_6CUDataEjjiPh@Base 0 1
 _ZN10x265_12bit7Deblock16edgeFilterChromaEPKNS_6CUDataEjjiiPKh@Base 0 1
 _ZN10x265_12bit7Deblock19getBoundaryStrengthEPKNS_6CUDataEijPKh@Base 0 1
 _ZN10x265_12bit7Deblock21setEdgefilterMultipleEjiihPhj@Base 0 1
 _ZN10x265_12bit7Deblock9deblockCUEPKNS_6CUDataERKNS_6CUGeomEiPh@Base 0 1
 _ZN10x265_12bit7Deblock9s_tcTableE@Base 0 1
 _ZN10x265_12bit7Encoder10fetchStatsEP10x265_statsj@Base 0 1
 _ZN10x265_12bit7Encoder10getCUIndexEPNS_10cuLocationEPjii@Base 0 1
 _ZN10x265_12bit7Encoder10getPuShapeEPNS_13puOrientationEii@Base 0 1
 _ZN10x265_12bit7Encoder10initRefIdxEv@Base 0 1
 _ZN10x265_12bit7Encoder11copyCtuInfoEPP15x265_ctu_info_ti@Base 0 1
 _ZN10x265_12bit7Encoder11statsStringERNS_8EncStatsEPc@Base 0 1
 _ZN10x265_12bit7Encoder12printSummaryEv@Base 0 1
 _ZN10x265_12bit7Encoder12updateRefIdxEv@Base 0 1
 _ZN10x265_12bit7Encoder13analyseRefIdxEPi@Base 0 1
 _ZN10x265_12bit7Encoder13updateVbvPlanEPNS_11RateControlE@Base 0 1
 _ZN10x265_12bit7Encoder15getRefFrameListEPPNS_6PicYuvES3_iiPiS4_@Base 0 1
 _ZN10x265_12bit7Encoder15isReconfigureRcEP10x265_paramS2_@Base 0 1
 _ZN10x265_12bit7Encoder15readUserSeiFileER16x265_sei_payloadi@Base 0 1
 _ZN10x265_12bit7Encoder15setAnalysisDataEP18x265_analysis_dataij@Base 0 1
 _ZN10x265_12bit7Encoder16finishFrameStatsEPNS_5FrameEPNS_12FrameEncoderEP16x265_frame_statsi@Base 0 1
 _ZN10x265_12bit7Encoder16getStreamHeadersERNS_7NALListERNS_7EntropyERNS_9BitstreamE@Base 0 1
 _ZN10x265_12bit7Encoder16readAnalysisFileEP18x265_analysis_dataiPK12x265_picturei@Base 0 1
 _ZN10x265_12bit7Encoder16readAnalysisFileEP18x265_analysis_dataiPK12x265_pictureiNS_10cuLocationE@Base 0 1
 _ZN10x265_12bit7Encoder16readAnalysisFileEP18x265_analysis_dataii@Base 0 1
 _ZN10x265_12bit7Encoder16reconfigureParamEP10x265_paramS2_@Base 0 1
 _ZN10x265_12bit7Encoder17writeAnalysisFileEP18x265_analysis_dataRNS_9FrameDataE@Base 0 1
 _ZN10x265_12bit7Encoder18computeSPSRPSIndexEv@Base 0 1
 _ZN10x265_12bit7Encoder19calcRefreshIntervalEPNS_5FrameE@Base 0 1
 _ZN10x265_12bit7Encoder19copyUserSEIMessagesEPNS_5FrameEPK12x265_picture@Base 0 1
 _ZN10x265_12bit7Encoder20validateAnalysisDataEP18x265_analysis_datai@Base 0 1
 _ZN10x265_12bit7Encoder22printReconfigureParamsEv@Base 0 1
 _ZN10x265_12bit7Encoder23writeAnalysisFileRefineEP18x265_analysis_dataRNS_9FrameDataE@Base 0 1
 _ZN10x265_12bit7Encoder25setAnalysisDataAfterZScanEP18x265_analysis_dataPNS_5FrameE@Base 0 1
 _ZN10x265_12bit7Encoder27copySlicetypePocAndSceneCutEPiS1_S1_@Base 0 1
 _ZN10x265_12bit7Encoder6createEv@Base 0 1
 _ZN10x265_12bit7Encoder6encodeEPK12x265_picturePS1_@Base 0 1
 _ZN10x265_12bit7Encoder7destroyEv@Base 0 1
 _ZN10x265_12bit7Encoder7initPPSEPNS_3PPSE@Base 0 1
 _ZN10x265_12bit7Encoder7initSPSEPNS_3SPSE@Base 0 1
 _ZN10x265_12bit7Encoder7initVPSEPNS_3VPSE@Base 0 1
 _ZN10x265_12bit7Encoder8stopJobsEv@Base 0 1
 _ZN10x265_12bit7Encoder9configureEP10x265_param@Base 0 1
 _ZN10x265_12bit7EncoderC1Ev@Base 0 1
 _ZN10x265_12bit7EncoderC2Ev@Base 0 1
 _ZN10x265_12bit7Entropy10codePUWiseERKNS_6CUDataEj@Base 0 1
 _ZN10x265_12bit7Entropy11codeDeltaQPERKNS_6CUDataEj@Base 0 1
 _ZN10x265_12bit7Entropy11encodeBinEPEj@Base 0 1
 _ZN10x265_12bit7Entropy12codeCoeffNxNERKNS_6CUDataEPKsjjNS_8TextTypeE@Base 0 1
 _ZN10x265_12bit7Entropy12codeInterDirERKNS_6CUDataEj@Base 0 1
 _ZN10x265_12bit7Entropy12codePartSizeERKNS_6CUDataEjj@Base 0 1
 _ZN10x265_12bit7Entropy12codePredInfoERKNS_6CUDataEj@Base 0 1
 _ZN10x265_12bit7Entropy12encodeBinTrmEj@Base 0 1
 _ZN10x265_12bit7Entropy12encodeBinsEPEji@Base 0 1
 _ZN10x265_12bit7Entropy12resetEntropyERKNS_5SliceE@Base 0 1
 _ZN10x265_12bit7Entropy13codeRefFrmIdxERKNS_6CUDataEji@Base 0 1
 _ZN10x265_12bit7Entropy13codeSaoOffsetERKNS_11SaoCtuParamEi@Base 0 1
 _ZN10x265_12bit7Entropy14codeMergeIndexERKNS_6CUDataEj@Base 0 1
 _ZN10x265_12bit7Entropy14codeSaoMaxUvlcEjj@Base 0 1
 _ZN10x265_12bit7Entropy15codeProfileTierERKNS_16ProfileTierLevelEi@Base 0 1
 _ZN10x265_12bit7Entropy15codeQtCbfChromaERKNS_6CUDataEjNS_8TextTypeEjb@Base 0 1
 _ZN10x265_12bit7Entropy15codeRefFrmIdxPUERKNS_6CUDataEji@Base 0 1
 _ZN10x265_12bit7Entropy15codeSaoOffsetBOEPiii@Base 0 1
 _ZN10x265_12bit7Entropy15codeSaoOffsetEOEPiii@Base 0 1
 _ZN10x265_12bit7Entropy15codeScalingListERKNS_11ScalingListE@Base 0 1
 _ZN10x265_12bit7Entropy15codeScalingListERKNS_11ScalingListEjj@Base 0 1
 _ZN10x265_12bit7Entropy15codeSliceHeaderERKNS_5SliceERNS_9FrameDataEjji@Base 0 1
 _ZN10x265_12bit7Entropy15encodeTransformERKNS_6CUDataEjjjRbPKj@Base 0 1
 _ZN10x265_12bit7Entropy15writeEpExGolombEjj@Base 0 1
 _ZN10x265_12bit7Entropy16copyContextsFromERKS0_@Base 0 1
 _ZN10x265_12bit7Entropy17codeHrdParametersERKNS_7HRDInfoEi@Base 0 1
 _ZN10x265_12bit7Entropy18codeIntraDirChromaERKNS_6CUDataEjPj@Base 0 1
 _ZN10x265_12bit7Entropy19codeIntraDirLumaAngERKNS_6CUDataEjb@Base 0 1
 _ZN10x265_12bit7Entropy19codePredWeightTableERKNS_5SliceE@Base 0 1
 _ZN10x265_12bit7Entropy19encodeTransformLumaERKNS_6CUDataEjjjRbPKj@Base 0 1
 _ZN10x265_12bit7Entropy19writeUnaryMaxSymbolEjPhij@Base 0 1
 _ZN10x265_12bit7Entropy20loadIntraDirModeLumaERKS0_@Base 0 1
 _ZN10x265_12bit7Entropy22codeShortTermRefPicSetERKNS_3RPSEi@Base 0 1
 _ZN10x265_12bit7Entropy23writeCoefRemainExGolombEjj@Base 0 1
 _ZN10x265_12bit7Entropy29codeSliceHeaderWPPEntryPointsEPKjjj@Base 0 1
 _ZN10x265_12bit7Entropy5startEv@Base 0 1
 _ZN10x265_12bit7Entropy6finishEv@Base 0 1
 _ZN10x265_12bit7Entropy7codeAUDERKNS_5SliceE@Base 0 1
 _ZN10x265_12bit7Entropy7codeMvdERKNS_6CUDataEji@Base 0 1
 _ZN10x265_12bit7Entropy7codePPSERKNS_3PPSEbi@Base 0 1
 _ZN10x265_12bit7Entropy7codeSPSERKNS_3SPSERKNS_11ScalingListERKNS_16ProfileTierLevelE@Base 0 1
 _ZN10x265_12bit7Entropy7codeVPSERKNS_3VPSE@Base 0 1
 _ZN10x265_12bit7Entropy7codeVUIERKNS_3VUIEibb@Base 0 1
 _ZN10x265_12bit7Entropy8copyFromERKS0_@Base 0 1
 _ZN10x265_12bit7Entropy8encodeCUERKNS_6CUDataERKNS_6CUGeomEjjRb@Base 0 1
 _ZN10x265_12bit7Entropy8finishCUERKNS_6CUDataEjjb@Base 0 1
 _ZN10x265_12bit7Entropy8writeOutEv@Base 0 1
 _ZN10x265_12bit7Entropy9codeCoeffERKNS_6CUDataEjRbPKj@Base 0 1
 _ZN10x265_12bit7Entropy9copyStateERKS0_@Base 0 1
 _ZN10x265_12bit7Entropy9encodeBinEjRh@Base 0 1
 _ZN10x265_12bit7Entropy9encodeCTUERKNS_6CUDataERKNS_6CUGeomE@Base 0 1
 _ZN10x265_12bit7Entropy9resetBitsEv@Base 0 1
 _ZN10x265_12bit7EntropyC1Ev@Base 0 1
 _ZN10x265_12bit7EntropyC2Ev@Base 0 1
 _ZN10x265_12bit7MD5InitEPNS_10MD5ContextE@Base 0 1
 _ZN10x265_12bit7NALList12takeContentsERS0_@Base 0 1
 _ZN10x265_12bit7NALList19serializeSubstreamsEPjjPKNS_9BitstreamE@Base 0 1
 _ZN10x265_12bit7NALList9serializeE11NalUnitTypeRKNS_9BitstreamE@Base 0 1
 _ZN10x265_12bit7NALListC1Ev@Base 0 1
 _ZN10x265_12bit7NALListC2Ev@Base 0 1
 _ZN10x265_12bit7PicList11getCurFrameEv@Base 0 1
 _ZN10x265_12bit7PicList6getPOCEi@Base 0 1
 _ZN10x265_12bit7PicList6removeERNS_5FrameE@Base 0 1
 _ZN10x265_12bit7PicList7popBackEv@Base 0 1
 _ZN10x265_12bit7PicList8popFrontEv@Base 0 1
 _ZN10x265_12bit7PicList8pushBackERNS_5FrameE@Base 0 1
 _ZN10x265_12bit7PicList9pushFrontERNS_5FrameE@Base 0 1
 _ZN10x265_12bit7Predict12allocBuffersEi@Base 0 1
 _ZN10x265_12bit7Predict14initAdiPatternERKNS_6CUDataERKNS_6CUGeomEjRKNS0_14IntraNeighborsEi@Base 0 1
 _ZN10x265_12bit7Predict16predIntraLumaAngEjPtij@Base 0 1
 _ZN10x265_12bit7Predict18initIntraNeighborsERKNS_6CUDataEjjbPNS0_14IntraNeighborsE@Base 0 1
 _ZN10x265_12bit7Predict18motionCompensationERKNS_6CUDataERKNS_14PredictionUnitERNS_3YuvEbb@Base 0 1
 _ZN10x265_12bit7Predict18predIntraChromaAngEjPtij@Base 0 1
 _ZN10x265_12bit7Predict20fillReferenceSamplesEPKtiRKNS0_14IntraNeighborsEPt@Base 0 1
 _ZN10x265_12bit7Predict20initAdiPatternChromaERKNS_6CUDataERKNS_6CUGeomEjRKNS0_14IntraNeighborsEj@Base 0 1
 _ZN10x265_12bit7PredictC1Ev@Base 0 1
 _ZN10x265_12bit7PredictC2Ev@Base 0 1
 _ZN10x265_12bit7PredictD1Ev@Base 0 1
 _ZN10x265_12bit7PredictD2Ev@Base 0 1
 _ZN10x265_12bit8Analysis10classifyCUERKNS_6CUDataERKNS_6CUGeomERKNS_4ModeERNS0_12TrainingDataE@Base 0 1
 _ZN10x265_12bit8Analysis10normFactorEPKtjRNS_6CUDataEiNS_8TextTypeE@Base 0 1
 _ZN10x265_12bit8Analysis10qprdRefineERKNS_6CUDataERKNS_6CUGeomEii@Base 0 1
 _ZN10x265_12bit8Analysis11compressCTUERNS_6CUDataERNS_5FrameERKNS_6CUGeomERKNS_7EntropyE@Base 0 1
 _ZN10x265_12bit8Analysis11loadTUDepthENS_6CUGeomENS_6CUDataE@Base 0 1
 _ZN10x265_12bit8Analysis11tryLosslessERKNS_6CUGeomE@Base 0 1
 _ZN10x265_12bit8Analysis12processPmodeERNS0_5PMODEERS0_@Base 0 1
 _ZN10x265_12bit8Analysis13encodeResidueERKNS_6CUDataERKNS_6CUGeomE@Base 0 1
 _ZN10x265_12bit8Analysis15checkBidir2Nx2NERNS_4ModeES2_RKNS_6CUGeomE@Base 0 1
 _ZN10x265_12bit8Analysis15compressIntraCUERKNS_6CUDataERKNS_6CUGeomEi@Base 0 1
 _ZN10x265_12bit8Analysis15topSkipMinDepthERKNS_6CUDataERKNS_6CUGeomE@Base 0 1
 _ZN10x265_12bit8Analysis16addSplitFlagCostERNS_4ModeEj@Base 0 1
 _ZN10x265_12bit8Analysis16checkInter_rd0_4ERNS_4ModeERKNS_6CUGeomENS_8PartSizeEPj@Base 0 1
 _ZN10x265_12bit8Analysis16checkInter_rd5_6ERNS_4ModeERKNS_6CUGeomENS_8PartSizeEPj@Base 0 1
 _ZN10x265_12bit8Analysis17complexityCheckCUERKNS_4ModeE@Base 0 1
 _ZN10x265_12bit8Analysis19calculateCUVarianceERKNS_6CUDataERKNS_6CUGeomE@Base 0 1
 _ZN10x265_12bit8Analysis19calculateNormFactorERNS_6CUDataEi@Base 0 1
 _ZN10x265_12bit8Analysis19collectPUStatisticsERKNS_6CUDataERKNS_6CUGeomE@Base 0 1
 _ZN10x265_12bit8Analysis19recursionDepthCheckERKNS_6CUDataERKNS_6CUGeomERKNS_4ModeE@Base 0 1
 _ZN10x265_12bit8Analysis20calculateQpforCuSizeERKNS_6CUDataERKNS_6CUGeomEid@Base 0 1
 _ZN10x265_12bit8Analysis20compressInterCU_distERKNS_6CUDataERKNS_6CUGeomEi@Base 0 1
 _ZN10x265_12bit8Analysis21checkMerge2Nx2N_rd0_4ERNS_4ModeES2_RKNS_6CUGeomE@Base 0 1
 _ZN10x265_12bit8Analysis21checkMerge2Nx2N_rd5_6ERNS_4ModeES2_RKNS_6CUGeomE@Base 0 1
 _ZN10x265_12bit8Analysis21compressInterCU_rd0_4ERKNS_6CUDataERKNS_6CUGeomEi@Base 0 1
 _ZN10x265_12bit8Analysis21compressInterCU_rd5_6ERKNS_6CUDataERKNS_6CUGeomEi@Base 0 1
 _ZN10x265_12bit8Analysis23findSameContentRefCountERKNS_6CUDataERKNS_6CUGeomE@Base 0 1
 _ZN10x265_12bit8Analysis5PMODE12processTasksEi@Base 0 1
 _ZN10x265_12bit8Analysis6createEPNS_15ThreadLocalDataE@Base 0 1
 _ZN10x265_12bit8Analysis7destroyEv@Base 0 1
 _ZN10x265_12bit8Analysis7trainCUERKNS_6CUDataERKNS_6CUGeomERKNS_4ModeERNS0_12TrainingDataE@Base 0 1
 _ZN10x265_12bit8Analysis8recodeCUERKNS_6CUDataERKNS_6CUGeomEii@Base 0 1
 _ZN10x265_12bit8AnalysisC1Ev@Base 0 1
 _ZN10x265_12bit8AnalysisC2Ev@Base 0 1
 _ZN10x265_12bit8EncStats5addQPEd@Base 0 1
 _ZN10x265_12bit8EncStats7addBitsEy@Base 0 1
 _ZN10x265_12bit8EncStats7addPsnrEddd@Base 0 1
 _ZN10x265_12bit8EncStats7addSsimEd@Base 0 1
 _ZN10x265_12bit8MD5FinalEPNS_10MD5ContextEPh@Base 0 1
 _ZN10x265_12bit8ShortYuv5clearEv@Base 0 1
 _ZN10x265_12bit8ShortYuv6createEji@Base 0 1
 _ZN10x265_12bit8ShortYuv7destroyEv@Base 0 1
 _ZN10x265_12bit8ShortYuv8subtractERKNS_3YuvES3_ji@Base 0 1
 _ZN10x265_12bit8ShortYuvC1Ev@Base 0 1
 _ZN10x265_12bit8ShortYuvC2Ev@Base 0 1
 _ZN10x265_12bit8sbacInitEii@Base 0 1
 _ZN10x265_12bit9Bitstream13writeAlignOneEv@Base 0 1
 _ZN10x265_12bit9Bitstream14writeAlignZeroEv@Base 0 1
 _ZN10x265_12bit9Bitstream18writeByteAlignmentEv@Base 0 1
 _ZN10x265_12bit9Bitstream5writeEjj@Base 0 1
 _ZN10x265_12bit9Bitstream9push_backEh@Base 0 1
 _ZN10x265_12bit9Bitstream9resetBitsEv@Base 0 1
 _ZN10x265_12bit9Bitstream9writeByteEj@Base 0 1
 _ZN10x265_12bit9BitstreamC1Ev@Base 0 1
 _ZN10x265_12bit9BitstreamC2Ev@Base 0 1
 _ZN10x265_12bit9BitstreamD0Ev@Base 0 1
 _ZN10x265_12bit9BitstreamD1Ev@Base 0 1
 _ZN10x265_12bit9BitstreamD2Ev@Base 0 1
 _ZN10x265_12bit9FrameData6createERK10x265_paramRKNS_3SPSEi@Base 0 1
 _ZN10x265_12bit9FrameData6reinitERKNS_3SPSE@Base 0 1
 _ZN10x265_12bit9FrameData7destroyEv@Base 0 1
 _ZN10x265_12bit9FrameDataC1Ev@Base 0 1
 _ZN10x265_12bit9FrameDataC2Ev@Base 0 1
 _ZN10x265_12bit9Lookahead10addPictureERNS_5FrameE@Base 0 1
 _ZN10x265_12bit9Lookahead10addPictureERNS_5FrameEi@Base 0 1
 _ZN10x265_12bit9Lookahead12cuTreeFinishEPNS_6LowresEdi@Base 0 1
 _ZN10x265_12bit9Lookahead12vbvFrameCostEPPNS_6LowresEiii@Base 0 1
 _ZN10x265_12bit9Lookahead12vbvLookaheadEPPNS_6LowresEii@Base 0 1
 _ZN10x265_12bit9Lookahead13slicetypePathEPPNS_6LowresEiPA251_c@Base 0 1
 _ZN10x265_12bit9Lookahead15slicetypeDecideEv@Base 0 1
 _ZN10x265_12bit9Lookahead16scenecutInternalEPPNS_6LowresEiib@Base 0 1
 _ZN10x265_12bit9Lookahead16slicetypeAnalyseEPPNS_6LowresEb@Base 0 1
 _ZN10x265_12bit9Lookahead17getDecidedPictureEv@Base 0 1
 _ZN10x265_12bit9Lookahead17setLookaheadQueueEv@Base 0 1
 _ZN10x265_12bit9Lookahead17slicetypePathCostEPPNS_6LowresEPcx@Base 0 1
 _ZN10x265_12bit9Lookahead19checkLookaheadQueueERi@Base 0 1
 _ZN10x265_12bit9Lookahead19estimateCUPropagateEPPNS_6LowresEdiiii@Base 0 1
 _ZN10x265_12bit9Lookahead20frameCostRecalculateEPPNS_6LowresEiii@Base 0 1
 _ZN10x265_12bit9Lookahead23getEstimatedPictureCostEPNS_5FrameE@Base 0 1
 _ZN10x265_12bit9Lookahead28calcMotionAdaptiveQuantFrameEPPNS_6LowresEiii@Base 0 1
 _ZN10x265_12bit9Lookahead5flushEv@Base 0 1
 _ZN10x265_12bit9Lookahead6createEv@Base 0 1
 _ZN10x265_12bit9Lookahead6cuTreeEPPNS_6LowresEib@Base 0 1
 _ZN10x265_12bit9Lookahead7destroyEv@Base 0 1
 _ZN10x265_12bit9Lookahead7findJobEi@Base 0 1
 _ZN10x265_12bit9Lookahead8aqMotionEPPNS_6LowresEb@Base 0 1
 _ZN10x265_12bit9Lookahead8scenecutEPPNS_6LowresEiibi@Base 0 1
 _ZN10x265_12bit9Lookahead8stopJobsEv@Base 0 1
 _ZN10x265_12bit9LookaheadC1EP10x265_paramPNS_10ThreadPoolE@Base 0 1
 _ZN10x265_12bit9LookaheadC2EP10x265_paramPNS_10ThreadPoolE@Base 0 1
 _ZN10x265_12bit9LookaheadD0Ev@Base 0 1
 _ZN10x265_12bit9LookaheadD1Ev@Base 0 1
 _ZN10x265_12bit9LookaheadD2Ev@Base 0 1
 _ZN10x265_12bit9MD5UpdateEPNS_10MD5ContextEPhj@Base 0 1
 _ZN10x265_12bit9WaveFront10dequeueRowEi@Base 0 1
 _ZN10x265_12bit9WaveFront10enqueueRowEi@Base 0 1
 _ZN10x265_12bit9WaveFront13enableAllRowsEv@Base 0 1
 _ZN10x265_12bit9WaveFront19clearEnabledRowMaskEv@Base 0 1
 _ZN10x265_12bit9WaveFront4initEi@Base 0 1
 _ZN10x265_12bit9WaveFront7findJobEi@Base 0 1
 _ZN10x265_12bit9WaveFront9enableRowEi@Base 0 1
 _ZN10x265_12bit9WaveFrontD0Ev@Base 0 1
 _ZN10x265_12bit9WaveFrontD1Ev@Base 0 1
 _ZN10x265_12bit9WaveFrontD2Ev@Base 0 1
 _ZN10x265_12bit9cpu_namesE@Base 0 1
 _ZN10x265_12bit9crcFinishERjPh@Base 0 1
 _ZN10x265_12bit9detect512Ev@Base 0 1
 _ZN10x265_12bit9g_scan4x4E@Base 0 1
 _ZN10x265_12bit9updateCRCEPKtRjjji@Base 0 1
 _ZN10x265_12bit9x265_atofEPKcRb@Base 0 1
 _ZN10x265_12bit9x265_atoiEPKcRb@Base 0 1
 _ZN10x265_12bit9x265_freeEPv@Base 0 1
 _ZN4x26510BitCounter13writeAlignOneEv@Base 0 1
 _ZN4x26510BitCounter14writeAlignZeroEv@Base 0 1
 _ZN4x26510BitCounter5writeEjj@Base 0 1
 _ZN4x26510BitCounter9resetBitsEv@Base 0 1
 _ZN4x26510BitCounter9writeByteEj@Base 0 1
 _ZN4x26510BitCounterD0Ev@Base 0 1
 _ZN4x26510BitCounterD1Ev@Base 0 1
 _ZN4x26510BitCounterD2Ev@Base 0 1
 _ZN4x26510ThreadPool11getCpuCountEv@Base 0 1
 _ZN4x26510ThreadPool11stopWorkersEv@Base 0 1
 _ZN4x26510ThreadPool12tryBondPeersEijRNS_15BondedTaskGroupE@Base 0 1
 _ZN4x26510ThreadPool16allocThreadPoolsEP10x265_paramRib@Base 0 1
 _ZN4x26510ThreadPool16getNumaNodeCountEv@Base 0 1
 _ZN4x26510ThreadPool20getFrameThreadsCountEP10x265_parami@Base 0 1
 _ZN4x26510ThreadPool21setThreadNodeAffinityEPv@Base 0 1
 _ZN4x26510ThreadPool24setCurrentThreadAffinityEv@Base 0 1
 _ZN4x26510ThreadPool24tryAcquireSleepingThreadEjj@Base 0 1
 _ZN4x26510ThreadPool5startEv@Base 0 1
 _ZN4x26510ThreadPool6createEiiy@Base 0 1
 _ZN4x26510ThreadPoolC1Ev@Base 0 1
 _ZN4x26510ThreadPoolC2Ev@Base 0 1
 _ZN4x26510ThreadPoolD1Ev@Base 0 1
 _ZN4x26510ThreadPoolD2Ev@Base 0 1
 _ZN4x26510cpu_detectEb@Base 0 1
 _ZN4x26510g_log2SizeE@Base 0 1
 _ZN4x26510g_lpsTableE@Base 0 1
 _ZN4x26510primitivesE@Base 0 1
 _ZN4x26510x265_mdateEv@Base 0 1
 _ZN4x26511FrameFilter10processRowEi@Base 0 1
 _ZN4x26511FrameFilter14ParallelFilter12processTasksEi@Base 0 1
 _ZN4x26511FrameFilter14ParallelFilter13processSaoCTUEPNS_8SAOParamEi@Base 0 1
 _ZN4x26511FrameFilter14ParallelFilter15copySaoAboveRefEPKNS_6CUDataEPNS_6PicYuvEji@Base 0 1
 _ZN4x26511FrameFilter14processPostRowEi@Base 0 1
 _ZN4x26511FrameFilter17computeMEIntegralEi@Base 0 1
 _ZN4x26511FrameFilter4initEPNS_7EncoderEPNS_12FrameEncoderEij@Base 0 1
 _ZN4x26511FrameFilter5startEPNS_5FrameERNS_7EntropyE@Base 0 1
 _ZN4x26511FrameFilter7destroyEv@Base 0 1
 _ZN4x26511JobProvider10tryWakeOneEv@Base 0 1
 _ZN4x26511RateControl10clipQscaleEPNS_5FrameEPNS_16RateControlEntryEd@Base 0 1
 _ZN4x26511RateControl10splitbUsedEPcPNS_16RateControlEntryE@Base 0 1
 _ZN4x26511RateControl11hrdFullnessEPNS_18SEIBufferingPeriodE@Base 0 1
 _ZN4x26511RateControl11predictSizeEPNS_9PredictorEdd@Base 0 1
 _ZN4x26511RateControl12fixUnderflowEiiddd@Base 0 1
 _ZN4x26511RateControl13findUnderflowEPdPiS2_ii@Base 0 1
 _ZN4x26511RateControl13reconfigureRCEv@Base 0 1
 _ZN4x26511RateControl13splitdeltaPOCEPcPNS_16RateControlEntryE@Base 0 1
 _ZN4x26511RateControl13updateVbvPlanEPNS_7EncoderE@Base 0 1
 _ZN4x26511RateControl14accumPQpUpdateEv@Base 0 1
 _ZN4x26511RateControl14rateControlEndEPNS_5FrameExPNS_16RateControlEntryEPi@Base 0 1
 _ZN4x26511RateControl15analyseABR2PassEy@Base 0 1
 _ZN4x26511RateControl15updatePredictorEPNS_9PredictorEddd@Base 0 1
 _ZN4x26511RateControl16checkAndResetABREPNS_16RateControlEntryEb@Base 0 1
 _ZN4x26511RateControl16getPredictorTypeEii@Base 0 1
 _ZN4x26511RateControl16rateControlStartEPNS_5FrameEPNS_16RateControlEntryEPNS_7EncoderE@Base 0 1
 _ZN4x26511RateControl17countExpectedBitsEii@Base 0 1
 _ZN4x26511RateControl17rowVbvRateControlEPNS_5FrameEjPNS_16RateControlEntryERdPjj@Base 0 1
 _ZN4x26511RateControl18cuTreeReadFor2PassEPNS_5FrameE@Base 0 1
 _ZN4x26511RateControl18predictRowsSizeSumEPNS_5FrameEPNS_16RateControlEntryEdRi@Base 0 1
 _ZN4x26511RateControl18rateEstimateQscaleEPNS_5FrameEPNS_16RateControlEntryE@Base 0 1
 _ZN4x26511RateControl18setFinalFrameCountEi@Base 0 1
 _ZN4x26511RateControl18tuneQScaleForGrainEd@Base 0 1
 _ZN4x26511RateControl19initFramePredictorsEv@Base 0 1
 _ZN4x26511RateControl20getDiffLimitedQScaleEPNS_16RateControlEntryEd@Base 0 1
 _ZN4x26511RateControl20rateControlSliceTypeEi@Base 0 1
 _ZN4x26511RateControl21s_defaultStatFileNameE@Base 0 1
 _ZN4x26511RateControl21s_slidingWindowFramesE@Base 0 1
 _ZN4x26511RateControl22rateControlUpdateStatsEPNS_16RateControlEntryE@Base 0 1
 _ZN4x26511RateControl25tuneAbrQScaleFromFeedbackEd@Base 0 1
 _ZN4x26511RateControl26writeRateControlFrameStatsEPNS_5FrameEPNS_16RateControlEntryE@Base 0 1
 _ZN4x26511RateControl4initERKNS_3SPSE@Base 0 1
 _ZN4x26511RateControl7destroyEv@Base 0 1
 _ZN4x26511RateControl7getZoneEv@Base 0 1
 _ZN4x26511RateControl7initHRDERNS_3SPSE@Base 0 1
 _ZN4x26511RateControl8vbv2PassEyii@Base 0 1
 _ZN4x26511RateControl9getQScaleEPNS_16RateControlEntryEd@Base 0 1
 _ZN4x26511RateControl9initPass2Ev@Base 0 1
 _ZN4x26511RateControl9terminateEv@Base 0 1
 _ZN4x26511RateControl9updateVbvExPNS_16RateControlEntryE@Base 0 1
 _ZN4x26511RateControlC1ER10x265_param@Base 0 1
 _ZN4x26511RateControlC2ER10x265_param@Base 0 1
 _ZN4x26511ScalingList10MatrixTypeE@Base 0 1
 _ZN4x26511ScalingList13MatrixType_DCE@Base 0 1
 _ZN4x26511ScalingList13s_quantScalesE@Base 0 1
 _ZN4x26511ScalingList16parseScalingListEPKc@Base 0 1
 _ZN4x26511ScalingList16s_invQuantScalesE@Base 0 1
 _ZN4x26511ScalingList16s_numCoefPerSizeE@Base 0 1
 _ZN4x26511ScalingList18setupQuantMatricesEi@Base 0 1
 _ZN4x26511ScalingList19processDefaultMarixEii@Base 0 1
 _ZN4x26511ScalingList21processScalingListDecEPiS1_iiiiii@Base 0 1
 _ZN4x26511ScalingList21processScalingListEncEPiS1_iiiiii@Base 0 1
 _ZN4x26511ScalingList21setDefaultScalingListEv@Base 0 1
 _ZN4x26511ScalingList4initEv@Base 0 1
 _ZN4x26511ScalingListC1Ev@Base 0 1
 _ZN4x26511ScalingListC2Ev@Base 0 1
 _ZN4x26511ScalingListD1Ev@Base 0 1
 _ZN4x26511ScalingListD2Ev@Base 0 1
 _ZN4x26511g_maxCUSizeE@Base 0 1
 _ZN4x26511g_maxSlicesE@Base 0 1
 _ZN4x26511g_nextStateE@Base 0 1
 _ZN4x26511g_scanOrderE@Base 0 1
 _ZN4x26511general_logEPK10x265_paramPKciS4_z@Base 0 1
 _ZN4x26511getBsLengthEi@Base 0 1
 _ZN4x26511x265_mallocEj@Base 0 1
 _ZN4x26512FrameEncoder10processRowEii@Base 0 1
 _ZN4x26512FrameEncoder10threadMainEv@Base 0 1
 _ZN4x26512FrameEncoder11encodeSliceEj@Base 0 1
 _ZN4x26512FrameEncoder13compressFrameEv@Base 0 1
 _ZN4x26512FrameEncoder14WeightAnalysis12processTasksEi@Base 0 1
 _ZN4x26512FrameEncoder15initializeGeomsEv@Base 0 1
 _ZN4x26512FrameEncoder16writeToneMapInfoEP16x265_sei_payload@Base 0 1
 _ZN4x26512FrameEncoder17collectDynDataRowERNS_6CUDataEPNS_10FrameStatsE@Base 0 1
 _ZN4x26512FrameEncoder17getEncodedPictureERNS_7NALListE@Base 0 1
 _ZN4x26512FrameEncoder17processRowEncoderEiRNS_15ThreadLocalDataE@Base 0 1
 _ZN4x26512FrameEncoder18startCompressFrameEPNS_5FrameE@Base 0 1
 _ZN4x26512FrameEncoder19collectDynDataFrameEv@Base 0 1
 _ZN4x26512FrameEncoder20collectCTUStatisticsERKNS_6CUDataEPNS_10FrameStatsE@Base 0 1
 _ZN4x26512FrameEncoder20noiseReductionUpdateEv@Base 0 1
 _ZN4x26512FrameEncoder22computeAvgTrainingDataEv@Base 0 1
 _ZN4x26512FrameEncoder24writeTrailingSEIMessagesEv@Base 0 1
 _ZN4x26512FrameEncoder25initDecodedPictureHashSEIEiii@Base 0 1
 _ZN4x26512FrameEncoder4initEPNS_7EncoderEii@Base 0 1
 _ZN4x26512FrameEncoder7destroyEv@Base 0 1
 _ZN4x26512FrameEncoderC1Ev@Base 0 1
 _ZN4x26512FrameEncoderC2Ev@Base 0 1
 _ZN4x26512FrameEncoderD0Ev@Base 0 1
 _ZN4x26512FrameEncoderD1Ev@Base 0 1
 _ZN4x26512FrameEncoderD2Ev@Base 0 1
 _ZN4x26512LookaheadTLD10acEnergyCuEPNS_5FrameEjjij@Base 0 1
 _ZN4x26512LookaheadTLD14weightCostLumaERNS_6LowresES2_RNS_11WeightParamE@Base 0 1
 _ZN4x26512LookaheadTLD14weightsAnalyseERNS_6LowresES2_@Base 0 1
 _ZN4x26512LookaheadTLD16allocWeightedRefERNS_6LowresE@Base 0 1
 _ZN4x26512LookaheadTLD19lowresIntraEstimateERNS_6LowresEj@Base 0 1
 _ZN4x26512LookaheadTLD22calcAdaptiveQuantFrameEPNS_5FrameEP10x265_param@Base 0 1
 _ZN4x26512LookaheadTLD9lumaSumCuEPNS_5FrameEjjj@Base 0 1
 _ZN4x26512MD5TransformEPjS0_@Base 0 1
 _ZN4x26512WorkerThread10threadMainEv@Base 0 1
 _ZN4x26512WorkerThreadD0Ev@Base 0 1
 _ZN4x26512WorkerThreadD1Ev@Base 0 1
 _ZN4x26512WorkerThreadD2Ev@Base 0 1
 _ZN4x26512enforceLevelER10x265_paramRNS_3VPSE@Base 0 1
 _ZN4x26512g_lumaFilterE@Base 0 1
 _ZN4x26512g_maxCUDepthE@Base 0 1
 _ZN4x26512parseCpuNameEPKcRbb@Base 0 1
 _ZN4x26512x265_ssim2dBEd@Base 0 1
 _ZN4x26513g_chromaScaleE@Base 0 1
 _ZN4x26513g_entropyBitsE@Base 0 1
 _ZN4x26513g_goRiceRangeE@Base 0 1
 _ZN4x26513g_scan8x8diagE@Base 0 1
 _ZN4x26513g_scanOrderCGE@Base 0 1
 _ZN4x26513g_zscanToPelXE@Base 0 1
 _ZN4x26513g_zscanToPelYE@Base 0 1
 _ZN4x26513weightAnalyseERNS_5SliceERNS_5FrameER10x265_param@Base 0 1
 _ZN4x26513x265_exp2_lutE@Base 0 1
 _ZN4x26513x265_exp2fix8Ed@Base 0 1
 _ZN4x26514MotionEstimate10initScalesEv@Base 0 1
 _ZN4x26514MotionEstimate11setSourcePUEPhiiiiii@Base 0 1
 _ZN4x26514MotionEstimate11setSourcePUERKNS_3YuvEiiiiiiib@Base 0 1
 _ZN4x26514MotionEstimate13subpelCompareEPNS_15ReferencePlanesERKNS_2MVEPFiPKhiS7_iE@Base 0 1
 _ZN4x26514MotionEstimate14motionEstimateEPNS_15ReferencePlanesERKNS_2MVES5_S5_iPS4_iRS3_jPh@Base 0 1
 _ZN4x26514MotionEstimate17StarPatternSearchEPNS_15ReferencePlanesERKNS_2MVES5_RS3_RiS7_S7_ii@Base 0 1
 _ZN4x26514MotionEstimate18hpelIterationCountEi@Base 0 1
 _ZN4x26514MotionEstimate4initEi@Base 0 1
 _ZN4x26514MotionEstimate8refineMVEPNS_15ReferencePlanesERKNS_2MVES5_S5_RS3_@Base 0 1
 _ZN4x26514MotionEstimateC1Ev@Base 0 1
 _ZN4x26514MotionEstimateC2Ev@Base 0 1
 _ZN4x26514MotionEstimateD1Ev@Base 0 1
 _ZN4x26514MotionEstimateD2Ev@Base 0 1
 _ZN4x26514PredictionUnitC1ERKNS_6CUDataERKNS_6CUGeomEi@Base 0 1
 _ZN4x26514PredictionUnitC2ERKNS_6CUDataERKNS_6CUGeomEi@Base 0 1
 _ZN4x26514checksumFinishEjPh@Base 0 1
 _ZN4x26514determineLevelERK10x265_paramRNS_3VPSE@Base 0 1
 _ZN4x26514g_chromaFilterE@Base 0 1
 _ZN4x26514g_depthScanIdxE@Base 0 1
 _ZN4x26514saoCuStatsBO_cEPKsPKhiiiPiS4_@Base 0 1
 _ZN4x26514saoCuStatsE0_cEPKsPKhiiiPiS4_@Base 0 1
 _ZN4x26514saoCuStatsE1_cEPKsPKhiPaiiPiS5_@Base 0 1
 _ZN4x26514saoCuStatsE2_cEPKsPKhiPaS4_iiPiS5_@Base 0 1
 _ZN4x26514saoCuStatsE3_cEPKsPKhiPaiiPiS5_@Base 0 1
 _ZN4x26514updateChecksumEPKhRjjjiij@Base 0 1
 _ZN4x26514updateMD5PlaneERNS_10MD5ContextEPKhjji@Base 0 1
 _ZN4x26514x265_qScale2qpEd@Base 0 1
 _ZN4x26514x265_qp2qScaleEd@Base 0 1
 _ZN4x26515MotionReference11applyWeightEjjjj@Base 0 1
 _ZN4x26515MotionReference4initEPNS_6PicYuvEPNS_11WeightParamERK10x265_param@Base 0 1
 _ZN4x26515MotionReferenceC1Ev@Base 0 1
 _ZN4x26515MotionReferenceC2Ev@Base 0 1
 _ZN4x26515MotionReferenceD1Ev@Base 0 1
 _ZN4x26515MotionReferenceD2Ev@Base 0 1
 _ZN4x26515extendPicBorderEPhiiiii@Base 0 1
 _ZN4x26515g_maxLog2CUSizeE@Base 0 1
 _ZN4x26515g_rasterToZscanE@Base 0 1
 _ZN4x26515g_unitSizeDepthE@Base 0 1
 _ZN4x26515g_zscanToRasterE@Base 0 1
 _ZN4x26515parseLambdaFileEP10x265_param@Base 0 1
 _ZN4x26515x265_lambda_tabE@Base 0 1
 _ZN4x26515x265_slurp_fileEPKc@Base 0 1
 _ZN4x26516SEIAlternativeTC8writeSEIERKNS_3SPSE@Base 0 1
 _ZN4x26516SEIAlternativeTCD0Ev@Base 0 1
 _ZN4x26516SEIAlternativeTCD1Ev@Base 0 1
 _ZN4x26516SEIAlternativeTCD2Ev@Base 0 1
 _ZN4x26516SEIPictureTiming8writeSEIERKNS_3SPSE@Base 0 1
 _ZN4x26516SEIPictureTimingD0Ev@Base 0 1
 _ZN4x26516SEIPictureTimingD1Ev@Base 0 1
 _ZN4x26516SEIPictureTimingD2Ev@Base 0 1
 _ZN4x26516SEIRecoveryPoint8writeSEIERKNS_3SPSE@Base 0 1
 _ZN4x26516SEIRecoveryPointD0Ev@Base 0 1
 _ZN4x26516SEIRecoveryPointD1Ev@Base 0 1
 _ZN4x26516SEIRecoveryPointD2Ev@Base 0 1
 _ZN4x26516g_ST2084_PQTableE@Base 0 1
 _ZN4x26516g_lastCoeffTableE@Base 0 1
 _ZN4x26516setupCPrimitivesERNS_17EncoderPrimitivesE@Base 0 1
 _ZN4x26516x265_lambda2_tabE@Base 0 1
 _ZN4x26516x265_report_simdEP10x265_param@Base 0 1
 _ZN4x26517CostEstimateGroup10singleCostEiiib@Base 0 1
 _ZN4x26517CostEstimateGroup11finishBatchEv@Base 0 1
 _ZN4x26517CostEstimateGroup12processTasksEi@Base 0 1
 _ZN4x26517CostEstimateGroup14estimateCUCostERNS_12LookaheadTLDEiiiiiPbbi@Base 0 1
 _ZN4x26517CostEstimateGroup17estimateFrameCostERNS_12LookaheadTLDEiiib@Base 0 1
 _ZN4x26517CostEstimateGroup3addEiii@Base 0 1
 _ZN4x26517PreLookaheadGroup12processTasksEi@Base 0 1
 _ZN4x26517g_YUVtoRGB_BT2020E@Base 0 1
 _ZN4x26517g_sliceTypeToCharE@Base 0 1
 _ZN4x26517x265_check_paramsEP10x265_param@Base 0 1
 _ZN4x26517x265_param2stringEP10x265_paramii@Base 0 1
 _ZN4x26517x265_print_paramsEP10x265_param@Base 0 1
 _ZN4x26518SEIBufferingPeriod8writeSEIERKNS_3SPSE@Base 0 1
 _ZN4x26518SEIBufferingPeriodD0Ev@Base 0 1
 _ZN4x26518SEIBufferingPeriodD1Ev@Base 0 1
 _ZN4x26518SEIBufferingPeriodD2Ev@Base 0 1
 _ZN4x26518g_intraFilterFlagsE@Base 0 1
 _ZN4x26519SyntaxElementWriter9writeUvlcEj@Base 0 1
 _ZN4x26519getParamAspectRatioEP10x265_paramRiS2_@Base 0 1
 _ZN4x26519setParamAspectRatioEP10x265_paramii@Base 0 1
 _ZN4x26520SEIContentLightLevel8writeSEIERKNS_3SPSE@Base 0 1
 _ZN4x26520SEIContentLightLevelD0Ev@Base 0 1
 _ZN4x26520SEIContentLightLevelD1Ev@Base 0 1
 _ZN4x26520SEIContentLightLevelD2Ev@Base 0 1
 _ZN4x26520setupAliasPrimitivesERNS_17EncoderPrimitivesE@Base 0 1
 _ZN4x26520setupDCTPrimitives_cERNS_17EncoderPrimitivesE@Base 0 1
 _ZN4x26520setupSaoPrimitives_cERNS_17EncoderPrimitivesE@Base 0 1
 _ZN4x26521SEIDecodedPictureHash8writeSEIERKNS_3SPSE@Base 0 1
 _ZN4x26521SEIDecodedPictureHashD0Ev@Base 0 1
 _ZN4x26521SEIDecodedPictureHashD1Ev@Base 0 1
 _ZN4x26521SEIDecodedPictureHashD2Ev@Base 0 1
 _ZN4x26521SEIuserDataRegistered8writeSEIERKNS_3SPSE@Base 0 1
 _ZN4x26521SEIuserDataRegisteredD0Ev@Base 0 1
 _ZN4x26521SEIuserDataRegisteredD1Ev@Base 0 1
 _ZN4x26521SEIuserDataRegisteredD2Ev@Base 0 1
 _ZN4x26521lumaPartitionMapTableE@Base 0 1
 _ZN4x26521x265_picturePlaneSizeEiiii@Base 0 1
 _ZN4x26521x265_setup_primitivesEP10x265_param@Base 0 1
 _ZN4x26522SEIActiveParameterSets8writeSEIERKNS_3SPSE@Base 0 1
 _ZN4x26522SEIActiveParameterSetsD0Ev@Base 0 1
 _ZN4x26522SEIActiveParameterSetsD1Ev@Base 0 1
 _ZN4x26522SEIActiveParameterSetsD2Ev@Base 0 1
 _ZN4x26522setupIntraPrimitives_cERNS_17EncoderPrimitivesE@Base 0 1
 _ZN4x26522setupPixelPrimitives_cERNS_17EncoderPrimitivesE@Base 0 1
 _ZN4x26523SEIuserDataUnregistered20m_uuid_iso_iec_11578E@Base 0 1
 _ZN4x26523SEIuserDataUnregistered8writeSEIERKNS_3SPSE@Base 0 1
 _ZN4x26523SEIuserDataUnregisteredD0Ev@Base 0 1
 _ZN4x26523SEIuserDataUnregisteredD1Ev@Base 0 1
 _ZN4x26523SEIuserDataUnregisteredD2Ev@Base 0 1
 _ZN4x26523setupFilterPrimitives_cERNS_17EncoderPrimitivesE@Base 0 1
 _ZN4x26524setupLowPassPrimitives_cERNS_17EncoderPrimitivesE@Base 0 1
 _ZN4x26526enableLowpassDCTPrimitivesERNS_17EncoderPrimitivesE@Base 0 1
 _ZN4x26527setupLoopFilterPrimitives_cERNS_17EncoderPrimitivesE@Base 0 1
 _ZN4x26528setupSeaIntegralPrimitives_cERNS_17EncoderPrimitivesE@Base 0 1
 _ZN4x26530SEIMasteringDisplayColorVolume8writeSEIERKNS_3SPSE@Base 0 1
 _ZN4x26530SEIMasteringDisplayColorVolumeD0Ev@Base 0 1
 _ZN4x26530SEIMasteringDisplayColorVolumeD1Ev@Base 0 1
 _ZN4x26530SEIMasteringDisplayColorVolumeD2Ev@Base 0 1
 _ZN4x26530x265_chroma_lambda2_offset_tabE@Base 0 1
 _ZN4x26530x265_param_apply_fastfirstpassEP10x265_param@Base 0 1
 _ZN4x26533g_chroma422IntraAngleMappingTableE@Base 0 1
 _ZN4x2653DPB10computeRPSEibPNS_3RPSEj@Base 0 1
 _ZN4x2653DPB13prepareEncodeEPNS_5FrameE@Base 0 1
 _ZN4x2653DPB14getNalUnitTypeEib@Base 0 1
 _ZN4x2653DPB19recycleUnreferencedEv@Base 0 1
 _ZN4x2653DPB22decodingRefreshMarkingEi11NalUnitType@Base 0 1
 _ZN4x2653DPB24applyReferencePictureSetEPNS_3RPSEi@Base 0 1
 _ZN4x2653DPBD1Ev@Base 0 1
 _ZN4x2653DPBD2Ev@Base 0 1
 _ZN4x2653RPS12sortDeltaPOCEv@Base 0 1
 _ZN4x2653SAO10resetStatsEv@Base 0 1
 _ZN4x2653SAO10startSliceEPNS_5FrameERNS_7EntropyE@Base 0 1
 _ZN4x2653SAO12rdoSaoUnitCuEPNS_8SAOParamEiii@Base 0 1
 _ZN4x2653SAO13estIterOffsetEixiiRiS1_Rx@Base 0 1
 _ZN4x2653SAO15calcSaoStatsCTUEii@Base 0 1
 _ZN4x2653SAO16rdoSaoUnitRowEndEPKNS_8SAOParamEi@Base 0 1
 _ZN4x2653SAO17applyPixelOffsetsEiii@Base 0 1
 _ZN4x2653SAO18createFromRootNodeEPS0_@Base 0 1
 _ZN4x2653SAO19generateLumaOffsetsEPNS_11SaoCtuParamEii@Base 0 1
 _ZN4x2653SAO21generateChromaOffsetsEPPNS_11SaoCtuParamEii@Base 0 1
 _ZN4x2653SAO21saoStatsInitialOffsetEii@Base 0 1
 _ZN4x2653SAO25calcSaoStatsCu_BeforeDblkEPNS_5FrameEii@Base 0 1
 _ZN4x2653SAO25saoLumaComponentParamDistEPNS_8SAOParamEiRxPxS3_@Base 0 1
 _ZN4x2653SAO27saoChromaComponentParamDistEPNS_8SAOParamEiRxPxS3_@Base 0 1
 _ZN4x2653SAO6createEP10x265_parami@Base 0 1
 _ZN4x2653SAO7destroyEi@Base 0 1
 _ZN4x2653SAO9s_eoTableE@Base 0 1
 _ZN4x2653SAOC1Ev@Base 0 1
 _ZN4x2653SAOC2Ev@Base 0 1
 _ZN4x2653SEI12base64DecodeEPci@Base 0 1
 _ZN4x2653SEI14writeByteAlignEv@Base 0 1
 _ZN4x2653SEI16writeSEImessagesERNS_9BitstreamERKNS_3SPSE11NalUnitTypeRNS_7NALListEi@Base 0 1
 _ZN4x2653SEI7setSizeEj@Base 0 1
 _ZN4x2653Yuv11copyFromYuvERKS0_@Base 0 1
 _ZN4x2653Yuv13copyPUFromYuvERKS0_jib@Base 0 1
 _ZN4x2653Yuv14copyFromPicYuvERKNS_6PicYuvEjj@Base 0 1
 _ZN4x2653Yuv6addAvgERKNS_8ShortYuvES3_jjjbb@Base 0 1
 _ZN4x2653Yuv6createEji@Base 0 1
 _ZN4x2653Yuv7addClipERKS0_RKNS_8ShortYuvEji@Base 0 1
 _ZN4x2653Yuv7destroyEv@Base 0 1
 _ZN4x2653YuvC1Ev@Base 0 1
 _ZN4x2653YuvC2Ev@Base 0 1
 _ZN4x2654LockD1Ev@Base 0 1
 _ZN4x2654LockD2Ev@Base 0 1
 _ZN4x2654g_t4E@Base 0 1
 _ZN4x2654g_t8E@Base 0 1
 _ZN4x2655Frame15allocEncodeDataEP10x265_paramRKNS_3SPSE@Base 0 1
 _ZN4x2655Frame6createEP10x265_paramPf@Base 0 1
 _ZN4x2655Frame6reinitERKNS_3SPSE@Base 0 1
 _ZN4x2655Frame7destroyEv@Base 0 1
 _ZN4x2655FrameC1Ev@Base 0 1
 _ZN4x2655FrameC2Ev@Base 0 1
 _ZN4x2655Quant11setChromaQPEiNS_8TextTypeEi@Base 0 1
 _ZN4x2655Quant12getSigCtxIncEjjjjbj@Base 0 1
 _ZN4x2655Quant12transformNxNERKNS_6CUDataEPKhjPKsjPsjNS_8TextTypeEjb@Base 0 1
 _ZN4x2655Quant13rdoQuant_funcE@Base 0 1
 _ZN4x2655Quant13setQPforQuantERKNS_6CUDataEi@Base 0 1
 _ZN4x2655Quant14ssimDistortionERKNS_6CUDataEPKhjS5_ijNS_8TextTypeEj@Base 0 1
 _ZN4x2655Quant15invtransformNxNERKNS_6CUDataEPsjPKsjNS_8TextTypeEbbj@Base 0 1
 _ZN4x2655Quant16signBitHidingHDQEPsPijRKNS_25TUEntropyCodingParametersEj@Base 0 1
 _ZN4x2655Quant19allocNoiseReductionERK10x265_param@Base 0 1
 _ZN4x2655Quant4initEdRKNS_11ScalingListERNS_7EntropyE@Base 0 1
 _ZN4x2655Quant8rdoQuantILj2EEEjRKNS_6CUDataEPsNS_8TextTypeEjb@Base 0 1
 _ZN4x2655Quant8rdoQuantILj3EEEjRKNS_6CUDataEPsNS_8TextTypeEjb@Base 0 1
 _ZN4x2655Quant8rdoQuantILj4EEEjRKNS_6CUDataEPsNS_8TextTypeEjb@Base 0 1
 _ZN4x2655Quant8rdoQuantILj5EEEjRKNS_6CUDataEPsNS_8TextTypeEjb@Base 0 1
 _ZN4x2655QuantC1Ev@Base 0 1
 _ZN4x2655QuantC2Ev@Base 0 1
 _ZN4x2655QuantD1Ev@Base 0 1
 _ZN4x2655QuantD2Ev@Base 0 1
 _ZN4x2655Slice13setRefPicListERNS_7PicListE@Base 0 1
 _ZN4x2655Slice14disableWeightsEv@Base 0 1
 _ZN4x2655g_t16E@Base 0 1
 _ZN4x2655g_t32E@Base 0 1
 _ZN4x2656CUData10initializeERKNS_13CUDataMemPoolEjRK10x265_parami@Base 0 1
 _ZN4x2656CUData11copyFromPicERKS0_RKNS_6CUGeomEib@Base 0 1
 _ZN4x2656CUData11setPURefIdxEiaii@Base 0 1
 _ZN4x2656CUData11setQPSubCUsEajj@Base 0 1
 _ZN4x2656CUData12calcCTUGeomsEjjjjPNS_6CUGeomE@Base 0 1
 _ZN4x2656CUData12copyPartFromERKS0_RKNS_6CUGeomEj@Base 0 1
 _ZN4x2656CUData12setEmptyPartERKNS_6CUGeomEj@Base 0 1
 _ZN4x2656CUData13setPUInterDirEhjj@Base 0 1
 _ZN4x2656CUData14initLosslessCUERKS0_RKNS_6CUGeomE@Base 0 1
 _ZN4x2656CUData7initCTUERKNS_5FrameEjijjj@Base 0 1
 _ZN4x2656CUData7setPUMvEiRKNS_2MVEii@Base 0 1
 _ZN4x2656CUData8setAllPUINS_2MVEEEvPT_RKS3_ii@Base 0 1
 _ZN4x2656CUData8setAllPUIaEEvPT_RKS2_ii@Base 0 1
 _ZN4x2656CUData9initSubCUERKS0_RKNS_6CUGeomEi@Base 0 1
 _ZN4x2656CUDataC1Ev@Base 0 1
 _ZN4x2656CUDataC2Ev@Base 0 1
 _ZN4x2656Lowres4initEPNS_6PicYuvEi@Base 0 1
 _ZN4x2656Lowres6createEP10x265_paramPNS_6PicYuvEj@Base 0 1
 _ZN4x2656Lowres7destroyEv@Base 0 1
 _ZN4x2656PicYuv13createOffsetsERKNS_3SPSE@Base 0 1
 _ZN4x2656PicYuv13getLumaBufLenEjjj@Base 0 1
 _ZN4x2656PicYuv15copyFromPictureERK12x265_pictureRK10x265_paramii@Base 0 1
 _ZN4x2656PicYuv6createEP10x265_parambPh@Base 0 1
 _ZN4x2656PicYuv7destroyEv@Base 0 1
 _ZN4x2656PicYuvC1Ev@Base 0 1
 _ZN4x2656PicYuvC2Ev@Base 0 1
 _ZN4x2656Search10checkIntraERNS_4ModeERKNS_6CUGeomENS_8PartSizeE@Base 0 1
 _ZN4x2656Search10getBlkBitsENS_8PartSizeEbijPj@Base 0 1
 _ZN4x2656Search10initSearchERK10x265_paramRNS_11ScalingListE@Base 0 1
 _ZN4x2656Search10processPMEERNS0_3PMEERS0_@Base 0 1
 _ZN4x2656Search11getLowresMVERKNS_6CUDataERKNS_14PredictionUnitEii@Base 0 1
 _ZN4x2656Search14estIntraPredQTERNS_4ModeERKNS_6CUGeomEPKj@Base 0 1
 _ZN4x2656Search14updateCandListEjyiPjPy@Base 0 1
 _ZN4x2656Search15codeIntraLumaQTERNS_4ModeERKNS_6CUGeomEjjbRNS0_4CostEPKj@Base 0 1
 _ZN4x2656Search15mergeEstimationERNS_6CUDataERKNS_6CUGeomERKNS_14PredictionUnitEiRNS0_9MergeDataE@Base 0 1
 _ZN4x2656Search15offsetSubTUCBFsERNS_6CUDataENS_8TextTypeEjj@Base 0 1
 _ZN4x2656Search15predInterSearchERNS_4ModeERKNS_6CUGeomEbPj@Base 0 1
 _ZN4x2656Search15setLambdaFromQPERKNS_6CUDataEii@Base 0 1
 _ZN4x2656Search17checkIntraInInterERNS_4ModeERKNS_6CUGeomE@Base 0 1
 _ZN4x2656Search17codeCoeffQTChromaERKNS_6CUDataEjjNS_8TextTypeE@Base 0 1
 _ZN4x2656Search17codeIntraChromaQtERNS_4ModeERKNS_6CUGeomEjjRNS0_4CostE@Base 0 1
 _ZN4x2656Search18codeIntraLumaTSkipERNS_4ModeERKNS_6CUGeomEjjRNS0_4CostE@Base 0 1
 _ZN4x2656Search18encodeIntraInInterERNS_4ModeERKNS_6CUGeomE@Base 0 1
 _ZN4x2656Search18estimateResidualQTERNS_4ModeERKNS_6CUGeomEjjRNS_8ShortYuvERNS0_4CostEPKji@Base 0 1
 _ZN4x2656Search18invalidateContextsEi@Base 0 1
 _ZN4x2656Search18saveResidualQTDataERNS_6CUDataERNS_8ShortYuvEjj@Base 0 1
 _ZN4x2656Search19estimateNullCbfCostEjjjNS_8TextTypeE@Base 0 1
 _ZN4x2656Search20checkDQPForSplitPredERNS_4ModeERKNS_6CUGeomE@Base 0 1
 _ZN4x2656Search20codeInterSubdivCbfQTERNS_6CUDataEjjPKj@Base 0 1
 _ZN4x2656Search20codeIntraChromaTSkipERNS_4ModeERKNS_6CUGeomEjjjRNS0_4CostE@Base 0 1
 _ZN4x2656Search20estIntraPredChromaQTERNS_4ModeERKNS_6CUGeomE@Base 0 1
 _ZN4x2656Search20extractIntraResultQTERNS_6CUDataERNS_3YuvEjj@Base 0 1
 _ZN4x2656Search21codeSubdivCbfQTChromaERKNS_6CUDataEjj@Base 0 1
 _ZN4x2656Search21residualQTIntraChromaERNS_4ModeERKNS_6CUGeomEjj@Base 0 1
 _ZN4x2656Search22getBestIntraModeChromaERNS_4ModeERKNS_6CUGeomE@Base 0 1
 _ZN4x2656Search22singleMotionEstimationERS0_RNS_4ModeERKNS_14PredictionUnitEiii@Base 0 1
 _ZN4x2656Search24encodeResAndCalcRdSkipCUERNS_4ModeE@Base 0 1
 _ZN4x2656Search25encodeResAndCalcRdInterCUERNS_4ModeERKNS_6CUGeomE@Base 0 1
 _ZN4x2656Search26extractIntraResultChromaQTERNS_6CUDataERNS_3YuvEjj@Base 0 1
 _ZN4x2656Search27residualTransformQuantInterERNS_4ModeERKNS_6CUGeomEjjPKj@Base 0 1
 _ZN4x2656Search27residualTransformQuantIntraERNS_4ModeERKNS_6CUGeomEjjPKj@Base 0 1
 _ZN4x2656Search3PME12processTasksEi@Base 0 1
 _ZN4x2656Search7splitTUERNS_4ModeERKNS_6CUGeomEjjRNS_8ShortYuvERNS0_4CostEPKji@Base 0 1
 _ZN4x2656Search8checkDQPERNS_4ModeERKNS_6CUGeomE@Base 0 1
 _ZN4x2656Search8searchMVERNS_4ModeERKNS_14PredictionUnitEiiRNS_2MVES6_iPS6_@Base 0 1
 _ZN4x2656Search9selectMVPERKNS_6CUDataERKNS_14PredictionUnitEPKNS_2MVEii@Base 0 1
 _ZN4x2656Search9zeroShortE@Base 0 1
 _ZN4x2656SearchC1Ev@Base 0 1
 _ZN4x2656SearchC2Ev@Base 0 1
 _ZN4x2656SearchD1Ev@Base 0 1
 _ZN4x2656SearchD2Ev@Base 0 1
 _ZN4x2656Thread4stopEv@Base 0 1
 _ZN4x2656Thread5startEv@Base 0 1
 _ZN4x2656ThreadC1Ev@Base 0 1
 _ZN4x2656ThreadC2Ev@Base 0 1
 _ZN4x2656ThreadD0Ev@Base 0 1
 _ZN4x2656ThreadD1Ev@Base 0 1
 _ZN4x2656ThreadD2Ev@Base 0 1
 _ZN4x2656levelsE@Base 0 1
 _ZN4x2657BitCost10s_bitsizesE@Base 0 1
 _ZN4x2657BitCost13CalculateLogsEv@Base 0 1
 _ZN4x2657BitCost13s_fpelMvCostsE@Base 0 1
 _ZN4x2657BitCost14s_costCalcLockE@Base 0 1
 _ZN4x2657BitCost5setQPEj@Base 0 1
 _ZN4x2657BitCost7destroyEv@Base 0 1
 _ZN4x2657BitCost7s_costsE@Base 0 1
 _ZN4x2657Deblock10deblockCTUEPKNS_6CUDataERKNS_6CUGeomEi@Base 0 1
 _ZN4x2657Deblock11s_betaTableE@Base 0 1
 _ZN4x2657Deblock14edgeFilterLumaEPKNS_6CUDataEjjiiPKh@Base 0 1
 _ZN4x2657Deblock15setEdgefilterPUEPKNS_6CUDataEjiPhj@Base 0 1
 _ZN4x2657Deblock15setEdgefilterTUEPKNS_6CUDataEjjiPh@Base 0 1
 _ZN4x2657Deblock16edgeFilterChromaEPKNS_6CUDataEjjiiPKh@Base 0 1
 _ZN4x2657Deblock19getBoundaryStrengthEPKNS_6CUDataEijPKh@Base 0 1
 _ZN4x2657Deblock21setEdgefilterMultipleEjiihPhj@Base 0 1
 _ZN4x2657Deblock9deblockCUEPKNS_6CUDataERKNS_6CUGeomEiPh@Base 0 1
 _ZN4x2657Deblock9s_tcTableE@Base 0 1
 _ZN4x2657Encoder10fetchStatsEP10x265_statsj@Base 0 1
 _ZN4x2657Encoder10getCUIndexEPNS_10cuLocationEPjii@Base 0 1
 _ZN4x2657Encoder10getPuShapeEPNS_13puOrientationEii@Base 0 1
 _ZN4x2657Encoder10initRefIdxEv@Base 0 1
 _ZN4x2657Encoder11copyCtuInfoEPP15x265_ctu_info_ti@Base 0 1
 _ZN4x2657Encoder11statsStringERNS_8EncStatsEPc@Base 0 1
 _ZN4x2657Encoder12printSummaryEv@Base 0 1
 _ZN4x2657Encoder12updateRefIdxEv@Base 0 1
 _ZN4x2657Encoder13analyseRefIdxEPi@Base 0 1
 _ZN4x2657Encoder13updateVbvPlanEPNS_11RateControlE@Base 0 1
 _ZN4x2657Encoder15getRefFrameListEPPNS_6PicYuvES3_iiPiS4_@Base 0 1
 _ZN4x2657Encoder15isReconfigureRcEP10x265_paramS2_@Base 0 1
 _ZN4x2657Encoder15readUserSeiFileER16x265_sei_payloadi@Base 0 1
 _ZN4x2657Encoder15setAnalysisDataEP18x265_analysis_dataij@Base 0 1
 _ZN4x2657Encoder16finishFrameStatsEPNS_5FrameEPNS_12FrameEncoderEP16x265_frame_statsi@Base 0 1
 _ZN4x2657Encoder16getStreamHeadersERNS_7NALListERNS_7EntropyERNS_9BitstreamE@Base 0 1
 _ZN4x2657Encoder16readAnalysisFileEP18x265_analysis_dataiPK12x265_picturei@Base 0 1
 _ZN4x2657Encoder16readAnalysisFileEP18x265_analysis_dataiPK12x265_pictureiNS_10cuLocationE@Base 0 1
 _ZN4x2657Encoder16readAnalysisFileEP18x265_analysis_dataii@Base 0 1
 _ZN4x2657Encoder16reconfigureParamEP10x265_paramS2_@Base 0 1
 _ZN4x2657Encoder17writeAnalysisFileEP18x265_analysis_dataRNS_9FrameDataE@Base 0 1
 _ZN4x2657Encoder18computeSPSRPSIndexEv@Base 0 1
 _ZN4x2657Encoder19calcRefreshIntervalEPNS_5FrameE@Base 0 1
 _ZN4x2657Encoder19copyUserSEIMessagesEPNS_5FrameEPK12x265_picture@Base 0 1
 _ZN4x2657Encoder20validateAnalysisDataEP18x265_analysis_datai@Base 0 1
 _ZN4x2657Encoder22printReconfigureParamsEv@Base 0 1
 _ZN4x2657Encoder23writeAnalysisFileRefineEP18x265_analysis_dataRNS_9FrameDataE@Base 0 1
 _ZN4x2657Encoder25setAnalysisDataAfterZScanEP18x265_analysis_dataPNS_5FrameE@Base 0 1
 _ZN4x2657Encoder27copySlicetypePocAndSceneCutEPiS1_S1_@Base 0 1
 _ZN4x2657Encoder6createEv@Base 0 1
 _ZN4x2657Encoder6encodeEPK12x265_picturePS1_@Base 0 1
 _ZN4x2657Encoder7destroyEv@Base 0 1
 _ZN4x2657Encoder7initPPSEPNS_3PPSE@Base 0 1
 _ZN4x2657Encoder7initSPSEPNS_3SPSE@Base 0 1
 _ZN4x2657Encoder7initVPSEPNS_3VPSE@Base 0 1
 _ZN4x2657Encoder8stopJobsEv@Base 0 1
 _ZN4x2657Encoder9configureEP10x265_param@Base 0 1
 _ZN4x2657EncoderC1Ev@Base 0 1
 _ZN4x2657EncoderC2Ev@Base 0 1
 _ZN4x2657Entropy10codePUWiseERKNS_6CUDataEj@Base 0 1
 _ZN4x2657Entropy11codeDeltaQPERKNS_6CUDataEj@Base 0 1
 _ZN4x2657Entropy11encodeBinEPEj@Base 0 1
 _ZN4x2657Entropy12codeCoeffNxNERKNS_6CUDataEPKsjjNS_8TextTypeE@Base 0 1
 _ZN4x2657Entropy12codeInterDirERKNS_6CUDataEj@Base 0 1
 _ZN4x2657Entropy12codePartSizeERKNS_6CUDataEjj@Base 0 1
 _ZN4x2657Entropy12codePredInfoERKNS_6CUDataEj@Base 0 1
 _ZN4x2657Entropy12encodeBinTrmEj@Base 0 1
 _ZN4x2657Entropy12encodeBinsEPEji@Base 0 1
 _ZN4x2657Entropy12resetEntropyERKNS_5SliceE@Base 0 1
 _ZN4x2657Entropy13codeRefFrmIdxERKNS_6CUDataEji@Base 0 1
 _ZN4x2657Entropy13codeSaoOffsetERKNS_11SaoCtuParamEi@Base 0 1
 _ZN4x2657Entropy14codeMergeIndexERKNS_6CUDataEj@Base 0 1
 _ZN4x2657Entropy14codeSaoMaxUvlcEjj@Base 0 1
 _ZN4x2657Entropy15codeProfileTierERKNS_16ProfileTierLevelEi@Base 0 1
 _ZN4x2657Entropy15codeQtCbfChromaERKNS_6CUDataEjNS_8TextTypeEjb@Base 0 1
 _ZN4x2657Entropy15codeRefFrmIdxPUERKNS_6CUDataEji@Base 0 1
 _ZN4x2657Entropy15codeSaoOffsetBOEPiii@Base 0 1
 _ZN4x2657Entropy15codeSaoOffsetEOEPiii@Base 0 1
 _ZN4x2657Entropy15codeScalingListERKNS_11ScalingListE@Base 0 1
 _ZN4x2657Entropy15codeScalingListERKNS_11ScalingListEjj@Base 0 1
 _ZN4x2657Entropy15codeSliceHeaderERKNS_5SliceERNS_9FrameDataEjji@Base 0 1
 _ZN4x2657Entropy15encodeTransformERKNS_6CUDataEjjjRbPKj@Base 0 1
 _ZN4x2657Entropy15writeEpExGolombEjj@Base 0 1
 _ZN4x2657Entropy16copyContextsFromERKS0_@Base 0 1
 _ZN4x2657Entropy17codeHrdParametersERKNS_7HRDInfoEi@Base 0 1
 _ZN4x2657Entropy18codeIntraDirChromaERKNS_6CUDataEjPj@Base 0 1
 _ZN4x2657Entropy19codeIntraDirLumaAngERKNS_6CUDataEjb@Base 0 1
 _ZN4x2657Entropy19codePredWeightTableERKNS_5SliceE@Base 0 1
 _ZN4x2657Entropy19encodeTransformLumaERKNS_6CUDataEjjjRbPKj@Base 0 1
 _ZN4x2657Entropy19writeUnaryMaxSymbolEjPhij@Base 0 1
 _ZN4x2657Entropy20loadIntraDirModeLumaERKS0_@Base 0 1
 _ZN4x2657Entropy22codeShortTermRefPicSetERKNS_3RPSEi@Base 0 1
 _ZN4x2657Entropy23writeCoefRemainExGolombEjj@Base 0 1
 _ZN4x2657Entropy29codeSliceHeaderWPPEntryPointsEPKjjj@Base 0 1
 _ZN4x2657Entropy5startEv@Base 0 1
 _ZN4x2657Entropy6finishEv@Base 0 1
 _ZN4x2657Entropy7codeAUDERKNS_5SliceE@Base 0 1
 _ZN4x2657Entropy7codeMvdERKNS_6CUDataEji@Base 0 1
 _ZN4x2657Entropy7codePPSERKNS_3PPSEbi@Base 0 1
 _ZN4x2657Entropy7codeSPSERKNS_3SPSERKNS_11ScalingListERKNS_16ProfileTierLevelE@Base 0 1
 _ZN4x2657Entropy7codeVPSERKNS_3VPSE@Base 0 1
 _ZN4x2657Entropy7codeVUIERKNS_3VUIEibb@Base 0 1
 _ZN4x2657Entropy8copyFromERKS0_@Base 0 1
 _ZN4x2657Entropy8encodeCUERKNS_6CUDataERKNS_6CUGeomEjjRb@Base 0 1
 _ZN4x2657Entropy8finishCUERKNS_6CUDataEjjb@Base 0 1
 _ZN4x2657Entropy8writeOutEv@Base 0 1
 _ZN4x2657Entropy9codeCoeffERKNS_6CUDataEjRbPKj@Base 0 1
 _ZN4x2657Entropy9copyStateERKS0_@Base 0 1
 _ZN4x2657Entropy9encodeBinEjRh@Base 0 1
 _ZN4x2657Entropy9encodeCTUERKNS_6CUDataERKNS_6CUGeomE@Base 0 1
 _ZN4x2657Entropy9resetBitsEv@Base 0 1
 _ZN4x2657EntropyC1Ev@Base 0 1
 _ZN4x2657EntropyC2Ev@Base 0 1
 _ZN4x2657MD5InitEPNS_10MD5ContextE@Base 0 1
 _ZN4x2657NALList12takeContentsERS0_@Base 0 1
 _ZN4x2657NALList19serializeSubstreamsEPjjPKNS_9BitstreamE@Base 0 1
 _ZN4x2657NALList9serializeE11NalUnitTypeRKNS_9BitstreamE@Base 0 1
 _ZN4x2657NALListC1Ev@Base 0 1
 _ZN4x2657NALListC2Ev@Base 0 1
 _ZN4x2657PicList11getCurFrameEv@Base 0 1
 _ZN4x2657PicList6getPOCEi@Base 0 1
 _ZN4x2657PicList6removeERNS_5FrameE@Base 0 1
 _ZN4x2657PicList7popBackEv@Base 0 1
 _ZN4x2657PicList8popFrontEv@Base 0 1
 _ZN4x2657PicList8pushBackERNS_5FrameE@Base 0 1
 _ZN4x2657PicList9pushFrontERNS_5FrameE@Base 0 1
 _ZN4x2657Predict12allocBuffersEi@Base 0 1
 _ZN4x2657Predict14initAdiPatternERKNS_6CUDataERKNS_6CUGeomEjRKNS0_14IntraNeighborsEi@Base 0 1
 _ZN4x2657Predict16predIntraLumaAngEjPhij@Base 0 1
 _ZN4x2657Predict18initIntraNeighborsERKNS_6CUDataEjjbPNS0_14IntraNeighborsE@Base 0 1
 _ZN4x2657Predict18motionCompensationERKNS_6CUDataERKNS_14PredictionUnitERNS_3YuvEbb@Base 0 1
 _ZN4x2657Predict18predIntraChromaAngEjPhij@Base 0 1
 _ZN4x2657Predict20fillReferenceSamplesEPKhiRKNS0_14IntraNeighborsEPh@Base 0 1
 _ZN4x2657Predict20initAdiPatternChromaERKNS_6CUDataERKNS_6CUGeomEjRKNS0_14IntraNeighborsEj@Base 0 1
 _ZN4x2657PredictC1Ev@Base 0 1
 _ZN4x2657PredictC2Ev@Base 0 1
 _ZN4x2657PredictD1Ev@Base 0 1
 _ZN4x2657PredictD2Ev@Base 0 1
 _ZN4x2658Analysis10classifyCUERKNS_6CUDataERKNS_6CUGeomERKNS_4ModeERNS0_12TrainingDataE@Base 0 1
 _ZN4x2658Analysis10normFactorEPKhjRNS_6CUDataEiNS_8TextTypeE@Base 0 1
 _ZN4x2658Analysis10qprdRefineERKNS_6CUDataERKNS_6CUGeomEii@Base 0 1
 _ZN4x2658Analysis11compressCTUERNS_6CUDataERNS_5FrameERKNS_6CUGeomERKNS_7EntropyE@Base 0 1
 _ZN4x2658Analysis11loadTUDepthENS_6CUGeomENS_6CUDataE@Base 0 1
 _ZN4x2658Analysis11tryLosslessERKNS_6CUGeomE@Base 0 1
 _ZN4x2658Analysis12processPmodeERNS0_5PMODEERS0_@Base 0 1
 _ZN4x2658Analysis13encodeResidueERKNS_6CUDataERKNS_6CUGeomE@Base 0 1
 _ZN4x2658Analysis15checkBidir2Nx2NERNS_4ModeES2_RKNS_6CUGeomE@Base 0 1
 _ZN4x2658Analysis15compressIntraCUERKNS_6CUDataERKNS_6CUGeomEi@Base 0 1
 _ZN4x2658Analysis15topSkipMinDepthERKNS_6CUDataERKNS_6CUGeomE@Base 0 1
 _ZN4x2658Analysis16addSplitFlagCostERNS_4ModeEj@Base 0 1
 _ZN4x2658Analysis16checkInter_rd0_4ERNS_4ModeERKNS_6CUGeomENS_8PartSizeEPj@Base 0 1
 _ZN4x2658Analysis16checkInter_rd5_6ERNS_4ModeERKNS_6CUGeomENS_8PartSizeEPj@Base 0 1
 _ZN4x2658Analysis17complexityCheckCUERKNS_4ModeE@Base 0 1
 _ZN4x2658Analysis19calculateCUVarianceERKNS_6CUDataERKNS_6CUGeomE@Base 0 1
 _ZN4x2658Analysis19calculateNormFactorERNS_6CUDataEi@Base 0 1
 _ZN4x2658Analysis19collectPUStatisticsERKNS_6CUDataERKNS_6CUGeomE@Base 0 1
 _ZN4x2658Analysis19recursionDepthCheckERKNS_6CUDataERKNS_6CUGeomERKNS_4ModeE@Base 0 1
 _ZN4x2658Analysis20calculateQpforCuSizeERKNS_6CUDataERKNS_6CUGeomEid@Base 0 1
 _ZN4x2658Analysis20compressInterCU_distERKNS_6CUDataERKNS_6CUGeomEi@Base 0 1
 _ZN4x2658Analysis21checkMerge2Nx2N_rd0_4ERNS_4ModeES2_RKNS_6CUGeomE@Base 0 1
 _ZN4x2658Analysis21checkMerge2Nx2N_rd5_6ERNS_4ModeES2_RKNS_6CUGeomE@Base 0 1
 _ZN4x2658Analysis21compressInterCU_rd0_4ERKNS_6CUDataERKNS_6CUGeomEi@Base 0 1
 _ZN4x2658Analysis21compressInterCU_rd5_6ERKNS_6CUDataERKNS_6CUGeomEi@Base 0 1
 _ZN4x2658Analysis23findSameContentRefCountERKNS_6CUDataERKNS_6CUGeomE@Base 0 1
 _ZN4x2658Analysis5PMODE12processTasksEi@Base 0 1
 _ZN4x2658Analysis6createEPNS_15ThreadLocalDataE@Base 0 1
 _ZN4x2658Analysis7destroyEv@Base 0 1
 _ZN4x2658Analysis7trainCUERKNS_6CUDataERKNS_6CUGeomERKNS_4ModeERNS0_12TrainingDataE@Base 0 1
 _ZN4x2658Analysis8recodeCUERKNS_6CUDataERKNS_6CUGeomEii@Base 0 1
 _ZN4x2658AnalysisC1Ev@Base 0 1
 _ZN4x2658AnalysisC2Ev@Base 0 1
 _ZN4x2658EncStats5addQPEd@Base 0 1
 _ZN4x2658EncStats7addBitsEy@Base 0 1
 _ZN4x2658EncStats7addPsnrEddd@Base 0 1
 _ZN4x2658EncStats7addSsimEd@Base 0 1
 _ZN4x2658MD5FinalEPNS_10MD5ContextEPh@Base 0 1
 _ZN4x2658ShortYuv5clearEv@Base 0 1
 _ZN4x2658ShortYuv6createEji@Base 0 1
 _ZN4x2658ShortYuv7destroyEv@Base 0 1
 _ZN4x2658ShortYuv8subtractERKNS_3YuvES3_ji@Base 0 1
 _ZN4x2658ShortYuvC1Ev@Base 0 1
 _ZN4x2658ShortYuvC2Ev@Base 0 1
 _ZN4x2658sbacInitEii@Base 0 1
 _ZN4x2659Bitstream13writeAlignOneEv@Base 0 1
 _ZN4x2659Bitstream14writeAlignZeroEv@Base 0 1
 _ZN4x2659Bitstream18writeByteAlignmentEv@Base 0 1
 _ZN4x2659Bitstream5writeEjj@Base 0 1
 _ZN4x2659Bitstream9push_backEh@Base 0 1
 _ZN4x2659Bitstream9resetBitsEv@Base 0 1
 _ZN4x2659Bitstream9writeByteEj@Base 0 1
 _ZN4x2659BitstreamC1Ev@Base 0 1
 _ZN4x2659BitstreamC2Ev@Base 0 1
 _ZN4x2659BitstreamD0Ev@Base 0 1
 _ZN4x2659BitstreamD1Ev@Base 0 1
 _ZN4x2659BitstreamD2Ev@Base 0 1
 _ZN4x2659FrameData6createERK10x265_paramRKNS_3SPSEi@Base 0 1
 _ZN4x2659FrameData6reinitERKNS_3SPSE@Base 0 1
 _ZN4x2659FrameData7destroyEv@Base 0 1
 _ZN4x2659FrameDataC1Ev@Base 0 1
 _ZN4x2659FrameDataC2Ev@Base 0 1
 _ZN4x2659Lookahead10addPictureERNS_5FrameE@Base 0 1
 _ZN4x2659Lookahead10addPictureERNS_5FrameEi@Base 0 1
 _ZN4x2659Lookahead12cuTreeFinishEPNS_6LowresEdi@Base 0 1
 _ZN4x2659Lookahead12vbvFrameCostEPPNS_6LowresEiii@Base 0 1
 _ZN4x2659Lookahead12vbvLookaheadEPPNS_6LowresEii@Base 0 1
 _ZN4x2659Lookahead13slicetypePathEPPNS_6LowresEiPA251_c@Base 0 1
 _ZN4x2659Lookahead15slicetypeDecideEv@Base 0 1
 _ZN4x2659Lookahead16scenecutInternalEPPNS_6LowresEiib@Base 0 1
 _ZN4x2659Lookahead16slicetypeAnalyseEPPNS_6LowresEb@Base 0 1
 _ZN4x2659Lookahead17getDecidedPictureEv@Base 0 1
 _ZN4x2659Lookahead17setLookaheadQueueEv@Base 0 1
 _ZN4x2659Lookahead17slicetypePathCostEPPNS_6LowresEPcx@Base 0 1
 _ZN4x2659Lookahead19checkLookaheadQueueERi@Base 0 1
 _ZN4x2659Lookahead19estimateCUPropagateEPPNS_6LowresEdiiii@Base 0 1
 _ZN4x2659Lookahead20frameCostRecalculateEPPNS_6LowresEiii@Base 0 1
 _ZN4x2659Lookahead23getEstimatedPictureCostEPNS_5FrameE@Base 0 1
 _ZN4x2659Lookahead28calcMotionAdaptiveQuantFrameEPPNS_6LowresEiii@Base 0 1
 _ZN4x2659Lookahead5flushEv@Base 0 1
 _ZN4x2659Lookahead6createEv@Base 0 1
 _ZN4x2659Lookahead6cuTreeEPPNS_6LowresEib@Base 0 1
 _ZN4x2659Lookahead7destroyEv@Base 0 1
 _ZN4x2659Lookahead7findJobEi@Base 0 1
 _ZN4x2659Lookahead8aqMotionEPPNS_6LowresEb@Base 0 1
 _ZN4x2659Lookahead8scenecutEPPNS_6LowresEiibi@Base 0 1
 _ZN4x2659Lookahead8stopJobsEv@Base 0 1
 _ZN4x2659LookaheadC1EP10x265_paramPNS_10ThreadPoolE@Base 0 1
 _ZN4x2659LookaheadC2EP10x265_paramPNS_10ThreadPoolE@Base 0 1
 _ZN4x2659LookaheadD0Ev@Base 0 1
 _ZN4x2659LookaheadD1Ev@Base 0 1
 _ZN4x2659LookaheadD2Ev@Base 0 1
 _ZN4x2659MD5UpdateEPNS_10MD5ContextEPhj@Base 0 1
 _ZN4x2659WaveFront10dequeueRowEi@Base 0 1
 _ZN4x2659WaveFront10enqueueRowEi@Base 0 1
 _ZN4x2659WaveFront13enableAllRowsEv@Base 0 1
 _ZN4x2659WaveFront19clearEnabledRowMaskEv@Base 0 1
 _ZN4x2659WaveFront4initEi@Base 0 1
 _ZN4x2659WaveFront7findJobEi@Base 0 1
 _ZN4x2659WaveFront9enableRowEi@Base 0 1
 _ZN4x2659WaveFrontD0Ev@Base 0 1
 _ZN4x2659WaveFrontD1Ev@Base 0 1
 _ZN4x2659WaveFrontD2Ev@Base 0 1
 _ZN4x2659cpu_namesE@Base 0 1
 _ZN4x2659crcFinishERjPh@Base 0 1
 _ZN4x2659detect512Ev@Base 0 1
 _ZN4x2659g_scan4x4E@Base 0 1
 _ZN4x2659updateCRCEPKhRjjji@Base 0 1
 _ZN4x2659x265_atofEPKcRb@Base 0 1
 _ZN4x2659x265_atoiEPKcRb@Base 0 1
 _ZN4x2659x265_freeEPv@Base 0 1
 _ZNK10x265_10bit10BitCounter22getNumberOfWrittenBitsEv@Base 0 1
 _ZNK10x265_10bit11FrameFilter14ParallelFilter13processPostCuEi@Base 0 1
 _ZNK10x265_10bit11ScalingList13checkPredModeEii@Base 0 1
 _ZNK10x265_10bit11ScalingList23checkDefaultScalingListEv@Base 0 1
 _ZNK10x265_10bit11ScalingList28getScalingListDefaultAddressEii@Base 0 1
 _ZNK10x265_10bit3SAO13allocSaoParamEPNS_8SAOParamE@Base 0 1
 _ZNK10x265_10bit3Yuv12copyToPicYuvERNS_6PicYuvEjj@Base 0 1
 _ZNK10x265_10bit3Yuv13copyPartToYuvERS0_j@Base 0 1
 _ZNK10x265_10bit3Yuv13copyToPartYuvERS0_j@Base 0 1
 _ZNK10x265_10bit3Yuv18copyPartToPartLumaERS0_jj@Base 0 1
 _ZNK10x265_10bit3Yuv20copyPartToPartChromaERS0_jj@Base 0 1
 _ZNK10x265_10bit5Slice14realEndAddressEj@Base 0 1
 _ZNK10x265_10bit6CUData10getMvFieldEPKS0_jiRNS_7MVFieldE@Base 0 1
 _ZNK10x265_10bit6CUData10getPUAboveERjj@Base 0 1
 _ZNK10x265_10bit6CUData12getDirectPMVERNS_2MVEPNS_16InterNeighbourMVEjj@Base 0 1
 _ZNK10x265_10bit6CUData14getCtxSkipFlagEj@Base 0 1
 _ZNK10x265_10bit6CUData14getIndirectPMVERNS_2MVEPNS_16InterNeighbourMVEjj@Base 0 1
 _ZNK10x265_10bit6CUData14getLastCodedQPEj@Base 0 1
 _ZNK10x265_10bit6CUData14getNeighbourMVEjjPNS_16InterNeighbourMVE@Base 0 1
 _ZNK10x265_10bit6CUData14getPUAboveLeftERjj@Base 0 1
 _ZNK10x265_10bit6CUData14getPUBelowLeftERjj@Base 0 1
 _ZNK10x265_10bit6CUData14getQpMinCuLeftERjj@Base 0 1
 _ZNK10x265_10bit6CUData14hasEqualMotionEjRKS0_j@Base 0 1
 _ZNK10x265_10bit6CUData15deriveCenterIdxEj@Base 0 1
 _ZNK10x265_10bit6CUData15getCollocatedMVEiiPNS_16InterNeighbourMVE@Base 0 1
 _ZNK10x265_10bit6CUData15getCtxSplitFlagEjj@Base 0 1
 _ZNK10x265_10bit6CUData15getPUAboveRightERjj@Base 0 1
 _ZNK10x265_10bit6CUData15getQpMinCuAboveERjj@Base 0 1
 _ZNK10x265_10bit6CUData16scaleMvByPOCDistERKNS_2MVEiiii@Base 0 1
 _ZNK10x265_10bit6CUData17getPUBelowLeftAdiERjjj@Base 0 1
 _ZNK10x265_10bit6CUData18getPUAboveRightAdiERjjj@Base 0 1
 _ZNK10x265_10bit6CUData19deriveLeftBottomIdxEj@Base 0 1
 _ZNK10x265_10bit6CUData19getAllowedChromaDirEjPj@Base 0 1
 _ZNK10x265_10bit6CUData19getInterNeighbourMVEPNS_16InterNeighbourMVEjNS_7MVP_DIRE@Base 0 1
 _ZNK10x265_10bit6CUData19getLastValidPartIdxEi@Base 0 1
 _ZNK10x265_10bit6CUData19getPartIndexAndSizeEjRjRiS2_@Base 0 1
 _ZNK10x265_10bit6CUData20deriveRightBottomIdxEj@Base 0 1
 _ZNK10x265_10bit6CUData21deriveLeftRightTopIdxEjRjS1_@Base 0 1
 _ZNK10x265_10bit6CUData22getInterTUQtDepthRangeEPjj@Base 0 1
 _ZNK10x265_10bit6CUData22getIntraTUQtDepthRangeEPjj@Base 0 1
 _ZNK10x265_10bit6CUData23getInterMergeCandidatesEjjPA2_NS_7MVFieldEPh@Base 0 1
 _ZNK10x265_10bit6CUData24getIntraDirLumaPredictorEjPj@Base 0 1
 _ZNK10x265_10bit6CUData28getTUEntropyCodingParametersERNS_25TUEntropyCodingParametersEjjb@Base 0 1
 _ZNK10x265_10bit6CUData6clipMvERNS_2MVE@Base 0 1
 _ZNK10x265_10bit6CUData6getPMVEPNS_16InterNeighbourMVEjjPNS_2MVES4_@Base 0 1
 _ZNK10x265_10bit6CUData8getRefQPEj@Base 0 1
 _ZNK10x265_10bit6CUData9copyToPicEj@Base 0 1
 _ZNK10x265_10bit6CUData9getColMVPERNS_2MVERiiii@Base 0 1
 _ZNK10x265_10bit6CUData9getPULeftERjj@Base 0 1
 _ZNK10x265_10bit6CUData9updatePicEji@Base 0 1
 _ZNK10x265_10bit6Search12checkBestMVPEPKNS_2MVERS2_RiRjS6_@Base 0 1
 _ZNK10x265_10bit6Search14setSearchRangeERKNS_6CUDataERKNS_2MVEiRS4_S7_@Base 0 1
 _ZNK10x265_10bit6Search19getIntraRemModeBitsERNS_6CUDataEjPjRy@Base 0 1
 _ZNK10x265_10bit7Entropy13bitsInterModeERKNS_6CUDataEjj@Base 0 1
 _ZNK10x265_10bit7Entropy20estSignificantMapBitERNS_11EstBitsSbacEjb@Base 0 1
 _ZNK10x265_10bit7Entropy29estSignificantCoefficientsBitERNS_11EstBitsSbacEb@Base 0 1
 _ZNK10x265_10bit7Entropy30estSignificantCoeffGroupMapBitERNS_11EstBitsSbacEb@Base 0 1
 _ZNK10x265_10bit7Entropy6estBitERNS_11EstBitsSbacEjb@Base 0 1
 _ZNK10x265_10bit7Entropy9estCBFBitERNS_11EstBitsSbacE@Base 0 1
 _ZNK10x265_10bit7Predict11addWeightBiERKNS_14PredictionUnitERNS_3YuvERKNS_8ShortYuvES8_PKNS0_12WeightValuesESB_bb@Base 0 1
 _ZNK10x265_10bit7Predict12addWeightUniERKNS_14PredictionUnitERNS_3YuvERKNS_8ShortYuvEPKNS0_12WeightValuesEbb@Base 0 1
 _ZNK10x265_10bit7Predict18predInterLumaPixelERKNS_14PredictionUnitERNS_3YuvERKNS_6PicYuvERKNS_2MVE@Base 0 1
 _ZNK10x265_10bit7Predict18predInterLumaShortERKNS_14PredictionUnitERNS_8ShortYuvERKNS_6PicYuvERKNS_2MVE@Base 0 1
 _ZNK10x265_10bit7Predict20predInterChromaPixelERKNS_14PredictionUnitERNS_3YuvERKNS_6PicYuvERKNS_2MVE@Base 0 1
 _ZNK10x265_10bit7Predict20predInterChromaShortERKNS_14PredictionUnitERNS_8ShortYuvERKNS_6PicYuvERKNS_2MVE@Base 0 1
 _ZNK10x265_10bit8ShortYuv18copyPartToPartLumaERNS_3YuvEjj@Base 0 1
 _ZNK10x265_10bit8ShortYuv18copyPartToPartLumaERS0_jj@Base 0 1
 _ZNK10x265_10bit8ShortYuv20copyPartToPartChromaERNS_3YuvEjj@Base 0 1
 _ZNK10x265_10bit8ShortYuv20copyPartToPartChromaERS0_jj@Base 0 1
 _ZNK10x265_10bit9Bitstream22getNumberOfWrittenBitsEv@Base 0 1
 _ZNK10x265_12bit10BitCounter22getNumberOfWrittenBitsEv@Base 0 1
 _ZNK10x265_12bit11FrameFilter14ParallelFilter13processPostCuEi@Base 0 1
 _ZNK10x265_12bit11ScalingList13checkPredModeEii@Base 0 1
 _ZNK10x265_12bit11ScalingList23checkDefaultScalingListEv@Base 0 1
 _ZNK10x265_12bit11ScalingList28getScalingListDefaultAddressEii@Base 0 1
 _ZNK10x265_12bit3SAO13allocSaoParamEPNS_8SAOParamE@Base 0 1
 _ZNK10x265_12bit3Yuv12copyToPicYuvERNS_6PicYuvEjj@Base 0 1
 _ZNK10x265_12bit3Yuv13copyPartToYuvERS0_j@Base 0 1
 _ZNK10x265_12bit3Yuv13copyToPartYuvERS0_j@Base 0 1
 _ZNK10x265_12bit3Yuv18copyPartToPartLumaERS0_jj@Base 0 1
 _ZNK10x265_12bit3Yuv20copyPartToPartChromaERS0_jj@Base 0 1
 _ZNK10x265_12bit5Slice14realEndAddressEj@Base 0 1
 _ZNK10x265_12bit6CUData10getMvFieldEPKS0_jiRNS_7MVFieldE@Base 0 1
 _ZNK10x265_12bit6CUData10getPUAboveERjj@Base 0 1
 _ZNK10x265_12bit6CUData12getDirectPMVERNS_2MVEPNS_16InterNeighbourMVEjj@Base 0 1
 _ZNK10x265_12bit6CUData14getCtxSkipFlagEj@Base 0 1
 _ZNK10x265_12bit6CUData14getIndirectPMVERNS_2MVEPNS_16InterNeighbourMVEjj@Base 0 1
 _ZNK10x265_12bit6CUData14getLastCodedQPEj@Base 0 1
 _ZNK10x265_12bit6CUData14getNeighbourMVEjjPNS_16InterNeighbourMVE@Base 0 1
 _ZNK10x265_12bit6CUData14getPUAboveLeftERjj@Base 0 1
 _ZNK10x265_12bit6CUData14getPUBelowLeftERjj@Base 0 1
 _ZNK10x265_12bit6CUData14getQpMinCuLeftERjj@Base 0 1
 _ZNK10x265_12bit6CUData14hasEqualMotionEjRKS0_j@Base 0 1
 _ZNK10x265_12bit6CUData15deriveCenterIdxEj@Base 0 1
 _ZNK10x265_12bit6CUData15getCollocatedMVEiiPNS_16InterNeighbourMVE@Base 0 1
 _ZNK10x265_12bit6CUData15getCtxSplitFlagEjj@Base 0 1
 _ZNK10x265_12bit6CUData15getPUAboveRightERjj@Base 0 1
 _ZNK10x265_12bit6CUData15getQpMinCuAboveERjj@Base 0 1
 _ZNK10x265_12bit6CUData16scaleMvByPOCDistERKNS_2MVEiiii@Base 0 1
 _ZNK10x265_12bit6CUData17getPUBelowLeftAdiERjjj@Base 0 1
 _ZNK10x265_12bit6CUData18getPUAboveRightAdiERjjj@Base 0 1
 _ZNK10x265_12bit6CUData19deriveLeftBottomIdxEj@Base 0 1
 _ZNK10x265_12bit6CUData19getAllowedChromaDirEjPj@Base 0 1
 _ZNK10x265_12bit6CUData19getInterNeighbourMVEPNS_16InterNeighbourMVEjNS_7MVP_DIRE@Base 0 1
 _ZNK10x265_12bit6CUData19getLastValidPartIdxEi@Base 0 1
 _ZNK10x265_12bit6CUData19getPartIndexAndSizeEjRjRiS2_@Base 0 1
 _ZNK10x265_12bit6CUData20deriveRightBottomIdxEj@Base 0 1
 _ZNK10x265_12bit6CUData21deriveLeftRightTopIdxEjRjS1_@Base 0 1
 _ZNK10x265_12bit6CUData22getInterTUQtDepthRangeEPjj@Base 0 1
 _ZNK10x265_12bit6CUData22getIntraTUQtDepthRangeEPjj@Base 0 1
 _ZNK10x265_12bit6CUData23getInterMergeCandidatesEjjPA2_NS_7MVFieldEPh@Base 0 1
 _ZNK10x265_12bit6CUData24getIntraDirLumaPredictorEjPj@Base 0 1
 _ZNK10x265_12bit6CUData28getTUEntropyCodingParametersERNS_25TUEntropyCodingParametersEjjb@Base 0 1
 _ZNK10x265_12bit6CUData6clipMvERNS_2MVE@Base 0 1
 _ZNK10x265_12bit6CUData6getPMVEPNS_16InterNeighbourMVEjjPNS_2MVES4_@Base 0 1
 _ZNK10x265_12bit6CUData8getRefQPEj@Base 0 1
 _ZNK10x265_12bit6CUData9copyToPicEj@Base 0 1
 _ZNK10x265_12bit6CUData9getColMVPERNS_2MVERiiii@Base 0 1
 _ZNK10x265_12bit6CUData9getPULeftERjj@Base 0 1
 _ZNK10x265_12bit6CUData9updatePicEji@Base 0 1
 _ZNK10x265_12bit6Search12checkBestMVPEPKNS_2MVERS2_RiRjS6_@Base 0 1
 _ZNK10x265_12bit6Search14setSearchRangeERKNS_6CUDataERKNS_2MVEiRS4_S7_@Base 0 1
 _ZNK10x265_12bit6Search19getIntraRemModeBitsERNS_6CUDataEjPjRy@Base 0 1
 _ZNK10x265_12bit7Entropy13bitsInterModeERKNS_6CUDataEjj@Base 0 1
 _ZNK10x265_12bit7Entropy20estSignificantMapBitERNS_11EstBitsSbacEjb@Base 0 1
 _ZNK10x265_12bit7Entropy29estSignificantCoefficientsBitERNS_11EstBitsSbacEb@Base 0 1
 _ZNK10x265_12bit7Entropy30estSignificantCoeffGroupMapBitERNS_11EstBitsSbacEb@Base 0 1
 _ZNK10x265_12bit7Entropy6estBitERNS_11EstBitsSbacEjb@Base 0 1
 _ZNK10x265_12bit7Entropy9estCBFBitERNS_11EstBitsSbacE@Base 0 1
 _ZNK10x265_12bit7Predict11addWeightBiERKNS_14PredictionUnitERNS_3YuvERKNS_8ShortYuvES8_PKNS0_12WeightValuesESB_bb@Base 0 1
 _ZNK10x265_12bit7Predict12addWeightUniERKNS_14PredictionUnitERNS_3YuvERKNS_8ShortYuvEPKNS0_12WeightValuesEbb@Base 0 1
 _ZNK10x265_12bit7Predict18predInterLumaPixelERKNS_14PredictionUnitERNS_3YuvERKNS_6PicYuvERKNS_2MVE@Base 0 1
 _ZNK10x265_12bit7Predict18predInterLumaShortERKNS_14PredictionUnitERNS_8ShortYuvERKNS_6PicYuvERKNS_2MVE@Base 0 1
 _ZNK10x265_12bit7Predict20predInterChromaPixelERKNS_14PredictionUnitERNS_3YuvERKNS_6PicYuvERKNS_2MVE@Base 0 1
 _ZNK10x265_12bit7Predict20predInterChromaShortERKNS_14PredictionUnitERNS_8ShortYuvERKNS_6PicYuvERKNS_2MVE@Base 0 1
 _ZNK10x265_12bit8ShortYuv18copyPartToPartLumaERNS_3YuvEjj@Base 0 1
 _ZNK10x265_12bit8ShortYuv18copyPartToPartLumaERS0_jj@Base 0 1
 _ZNK10x265_12bit8ShortYuv20copyPartToPartChromaERNS_3YuvEjj@Base 0 1
 _ZNK10x265_12bit8ShortYuv20copyPartToPartChromaERS0_jj@Base 0 1
 _ZNK10x265_12bit9Bitstream22getNumberOfWrittenBitsEv@Base 0 1
 _ZNK4x26510BitCounter22getNumberOfWrittenBitsEv@Base 0 1
 _ZNK4x26511FrameFilter14ParallelFilter13processPostCuEi@Base 0 1
 _ZNK4x26511ScalingList13checkPredModeEii@Base 0 1
 _ZNK4x26511ScalingList23checkDefaultScalingListEv@Base 0 1
 _ZNK4x26511ScalingList28getScalingListDefaultAddressEii@Base 0 1
 _ZNK4x2653SAO13allocSaoParamEPNS_8SAOParamE@Base 0 1
 _ZNK4x2653Yuv12copyToPicYuvERNS_6PicYuvEjj@Base 0 1
 _ZNK4x2653Yuv13copyPartToYuvERS0_j@Base 0 1
 _ZNK4x2653Yuv13copyToPartYuvERS0_j@Base 0 1
 _ZNK4x2653Yuv18copyPartToPartLumaERS0_jj@Base 0 1
 _ZNK4x2653Yuv20copyPartToPartChromaERS0_jj@Base 0 1
 _ZNK4x2655Slice14realEndAddressEj@Base 0 1
 _ZNK4x2656CUData10getMvFieldEPKS0_jiRNS_7MVFieldE@Base 0 1
 _ZNK4x2656CUData10getPUAboveERjj@Base 0 1
 _ZNK4x2656CUData12getDirectPMVERNS_2MVEPNS_16InterNeighbourMVEjj@Base 0 1
 _ZNK4x2656CUData14getCtxSkipFlagEj@Base 0 1
 _ZNK4x2656CUData14getIndirectPMVERNS_2MVEPNS_16InterNeighbourMVEjj@Base 0 1
 _ZNK4x2656CUData14getLastCodedQPEj@Base 0 1
 _ZNK4x2656CUData14getNeighbourMVEjjPNS_16InterNeighbourMVE@Base 0 1
 _ZNK4x2656CUData14getPUAboveLeftERjj@Base 0 1
 _ZNK4x2656CUData14getPUBelowLeftERjj@Base 0 1
 _ZNK4x2656CUData14getQpMinCuLeftERjj@Base 0 1
 _ZNK4x2656CUData14hasEqualMotionEjRKS0_j@Base 0 1
 _ZNK4x2656CUData15deriveCenterIdxEj@Base 0 1
 _ZNK4x2656CUData15getCollocatedMVEiiPNS_16InterNeighbourMVE@Base 0 1
 _ZNK4x2656CUData15getCtxSplitFlagEjj@Base 0 1
 _ZNK4x2656CUData15getPUAboveRightERjj@Base 0 1
 _ZNK4x2656CUData15getQpMinCuAboveERjj@Base 0 1
 _ZNK4x2656CUData16scaleMvByPOCDistERKNS_2MVEiiii@Base 0 1
 _ZNK4x2656CUData17getPUBelowLeftAdiERjjj@Base 0 1
 _ZNK4x2656CUData18getPUAboveRightAdiERjjj@Base 0 1
 _ZNK4x2656CUData19deriveLeftBottomIdxEj@Base 0 1
 _ZNK4x2656CUData19getAllowedChromaDirEjPj@Base 0 1
 _ZNK4x2656CUData19getInterNeighbourMVEPNS_16InterNeighbourMVEjNS_7MVP_DIRE@Base 0 1
 _ZNK4x2656CUData19getLastValidPartIdxEi@Base 0 1
 _ZNK4x2656CUData19getPartIndexAndSizeEjRjRiS2_@Base 0 1
 _ZNK4x2656CUData20deriveRightBottomIdxEj@Base 0 1
 _ZNK4x2656CUData21deriveLeftRightTopIdxEjRjS1_@Base 0 1
 _ZNK4x2656CUData22getInterTUQtDepthRangeEPjj@Base 0 1
 _ZNK4x2656CUData22getIntraTUQtDepthRangeEPjj@Base 0 1
 _ZNK4x2656CUData23getInterMergeCandidatesEjjPA2_NS_7MVFieldEPh@Base 0 1
 _ZNK4x2656CUData24getIntraDirLumaPredictorEjPj@Base 0 1
 _ZNK4x2656CUData28getTUEntropyCodingParametersERNS_25TUEntropyCodingParametersEjjb@Base 0 1
 _ZNK4x2656CUData6clipMvERNS_2MVE@Base 0 1
 _ZNK4x2656CUData6getPMVEPNS_16InterNeighbourMVEjjPNS_2MVES4_@Base 0 1
 _ZNK4x2656CUData8getRefQPEj@Base 0 1
 _ZNK4x2656CUData9copyToPicEj@Base 0 1
 _ZNK4x2656CUData9getColMVPERNS_2MVERiiii@Base 0 1
 _ZNK4x2656CUData9getPULeftERjj@Base 0 1
 _ZNK4x2656CUData9updatePicEji@Base 0 1
 _ZNK4x2656Search12checkBestMVPEPKNS_2MVERS2_RiRjS6_@Base 0 1
 _ZNK4x2656Search14setSearchRangeERKNS_6CUDataERKNS_2MVEiRS4_S7_@Base 0 1
 _ZNK4x2656Search19getIntraRemModeBitsERNS_6CUDataEjPjRy@Base 0 1
 _ZNK4x2657Entropy13bitsInterModeERKNS_6CUDataEjj@Base 0 1
 _ZNK4x2657Entropy20estSignificantMapBitERNS_11EstBitsSbacEjb@Base 0 1
 _ZNK4x2657Entropy29estSignificantCoefficientsBitERNS_11EstBitsSbacEb@Base 0 1
 _ZNK4x2657Entropy30estSignificantCoeffGroupMapBitERNS_11EstBitsSbacEb@Base 0 1
 _ZNK4x2657Entropy6estBitERNS_11EstBitsSbacEjb@Base 0 1
 _ZNK4x2657Entropy9estCBFBitERNS_11EstBitsSbacE@Base 0 1
 _ZNK4x2657Predict11addWeightBiERKNS_14PredictionUnitERNS_3YuvERKNS_8ShortYuvES8_PKNS0_12WeightValuesESB_bb@Base 0 1
 _ZNK4x2657Predict12addWeightUniERKNS_14PredictionUnitERNS_3YuvERKNS_8ShortYuvEPKNS0_12WeightValuesEbb@Base 0 1
 _ZNK4x2657Predict18predInterLumaPixelERKNS_14PredictionUnitERNS_3YuvERKNS_6PicYuvERKNS_2MVE@Base 0 1
 _ZNK4x2657Predict18predInterLumaShortERKNS_14PredictionUnitERNS_8ShortYuvERKNS_6PicYuvERKNS_2MVE@Base 0 1
 _ZNK4x2657Predict20predInterChromaPixelERKNS_14PredictionUnitERNS_3YuvERKNS_6PicYuvERKNS_2MVE@Base 0 1
 _ZNK4x2657Predict20predInterChromaShortERKNS_14PredictionUnitERNS_8ShortYuvERKNS_6PicYuvERKNS_2MVE@Base 0 1
 _ZNK4x2658ShortYuv18copyPartToPartLumaERNS_3YuvEjj@Base 0 1
 _ZNK4x2658ShortYuv18copyPartToPartLumaERS0_jj@Base 0 1
 _ZNK4x2658ShortYuv20copyPartToPartChromaERNS_3YuvEjj@Base 0 1
 _ZNK4x2658ShortYuv20copyPartToPartChromaERS0_jj@Base 0 1
 _ZNK4x2659Bitstream22getNumberOfWrittenBitsEv@Base 0 1
 _ZTIN10x265_10bit10BitCounterE@Base 0 1
 _ZTIN10x265_10bit11JobProviderE@Base 0 1
 _ZTIN10x265_10bit12BitInterfaceE@Base 0 1
 _ZTIN10x265_10bit12FrameEncoder14WeightAnalysisE@Base 0 1
 _ZTIN10x265_10bit12FrameEncoderE@Base 0 1
 _ZTIN10x265_10bit12WorkerThreadE@Base 0 1
 _ZTIN10x265_10bit15BondedTaskGroupE@Base 0 1
 _ZTIN10x265_10bit16SEIAlternativeTCE@Base 0 1
 _ZTIN10x265_10bit16SEIPictureTimingE@Base 0 1
 _ZTIN10x265_10bit16SEIRecoveryPointE@Base 0 1
 _ZTIN10x265_10bit17CostEstimateGroupE@Base 0 1
 _ZTIN10x265_10bit17PreLookaheadGroupE@Base 0 1
 _ZTIN10x265_10bit18SEIBufferingPeriodE@Base 0 1
 _ZTIN10x265_10bit19SyntaxElementWriterE@Base 0 1
 _ZTIN10x265_10bit20SEIContentLightLevelE@Base 0 1
 _ZTIN10x265_10bit21SEIDecodedPictureHashE@Base 0 1
 _ZTIN10x265_10bit21SEIuserDataRegisteredE@Base 0 1
 _ZTIN10x265_10bit22SEIActiveParameterSetsE@Base 0 1
 _ZTIN10x265_10bit23SEIuserDataUnregisteredE@Base 0 1
 _ZTIN10x265_10bit30SEIMasteringDisplayColorVolumeE@Base 0 1
 _ZTIN10x265_10bit3SEIE@Base 0 1
 _ZTIN10x265_10bit6Search3PMEE@Base 0 1
 _ZTIN10x265_10bit6ThreadE@Base 0 1
 _ZTIN10x265_10bit8Analysis5PMODEE@Base 0 1
 _ZTIN10x265_10bit9BitstreamE@Base 0 1
 _ZTIN10x265_10bit9LookaheadE@Base 0 1
 _ZTIN10x265_10bit9WaveFrontE@Base 0 1
 _ZTIN10x265_12bit10BitCounterE@Base 0 1
 _ZTIN10x265_12bit11JobProviderE@Base 0 1
 _ZTIN10x265_12bit12BitInterfaceE@Base 0 1
 _ZTIN10x265_12bit12FrameEncoder14WeightAnalysisE@Base 0 1
 _ZTIN10x265_12bit12FrameEncoderE@Base 0 1
 _ZTIN10x265_12bit12WorkerThreadE@Base 0 1
 _ZTIN10x265_12bit15BondedTaskGroupE@Base 0 1
 _ZTIN10x265_12bit16SEIAlternativeTCE@Base 0 1
 _ZTIN10x265_12bit16SEIPictureTimingE@Base 0 1
 _ZTIN10x265_12bit16SEIRecoveryPointE@Base 0 1
 _ZTIN10x265_12bit17CostEstimateGroupE@Base 0 1
 _ZTIN10x265_12bit17PreLookaheadGroupE@Base 0 1
 _ZTIN10x265_12bit18SEIBufferingPeriodE@Base 0 1
 _ZTIN10x265_12bit19SyntaxElementWriterE@Base 0 1
 _ZTIN10x265_12bit20SEIContentLightLevelE@Base 0 1
 _ZTIN10x265_12bit21SEIDecodedPictureHashE@Base 0 1
 _ZTIN10x265_12bit21SEIuserDataRegisteredE@Base 0 1
 _ZTIN10x265_12bit22SEIActiveParameterSetsE@Base 0 1
 _ZTIN10x265_12bit23SEIuserDataUnregisteredE@Base 0 1
 _ZTIN10x265_12bit30SEIMasteringDisplayColorVolumeE@Base 0 1
 _ZTIN10x265_12bit3SEIE@Base 0 1
 _ZTIN10x265_12bit6Search3PMEE@Base 0 1
 _ZTIN10x265_12bit6ThreadE@Base 0 1
 _ZTIN10x265_12bit8Analysis5PMODEE@Base 0 1
 _ZTIN10x265_12bit9BitstreamE@Base 0 1
 _ZTIN10x265_12bit9LookaheadE@Base 0 1
 _ZTIN10x265_12bit9WaveFrontE@Base 0 1
 _ZTIN4x26510BitCounterE@Base 0 1
 _ZTIN4x26511JobProviderE@Base 0 1
 _ZTIN4x26512BitInterfaceE@Base 0 1
 _ZTIN4x26512FrameEncoder14WeightAnalysisE@Base 0 1
 _ZTIN4x26512FrameEncoderE@Base 0 1
 _ZTIN4x26512WorkerThreadE@Base 0 1
 _ZTIN4x26515BondedTaskGroupE@Base 0 1
 _ZTIN4x26516SEIAlternativeTCE@Base 0 1
 _ZTIN4x26516SEIPictureTimingE@Base 0 1
 _ZTIN4x26516SEIRecoveryPointE@Base 0 1
 _ZTIN4x26517CostEstimateGroupE@Base 0 1
 _ZTIN4x26517PreLookaheadGroupE@Base 0 1
 _ZTIN4x26518SEIBufferingPeriodE@Base 0 1
 _ZTIN4x26519SyntaxElementWriterE@Base 0 1
 _ZTIN4x26520SEIContentLightLevelE@Base 0 1
 _ZTIN4x26521SEIDecodedPictureHashE@Base 0 1
 _ZTIN4x26521SEIuserDataRegisteredE@Base 0 1
 _ZTIN4x26522SEIActiveParameterSetsE@Base 0 1
 _ZTIN4x26523SEIuserDataUnregisteredE@Base 0 1
 _ZTIN4x26530SEIMasteringDisplayColorVolumeE@Base 0 1
 _ZTIN4x2653SEIE@Base 0 1
 _ZTIN4x2656Search3PMEE@Base 0 1
 _ZTIN4x2656ThreadE@Base 0 1
 _ZTIN4x2658Analysis5PMODEE@Base 0 1
 _ZTIN4x2659BitstreamE@Base 0 1
 _ZTIN4x2659LookaheadE@Base 0 1
 _ZTIN4x2659WaveFrontE@Base 0 1
 _ZTSN10x265_10bit10BitCounterE@Base 0 1
 _ZTSN10x265_10bit11JobProviderE@Base 0 1
 _ZTSN10x265_10bit12BitInterfaceE@Base 0 1
 _ZTSN10x265_10bit12FrameEncoder14WeightAnalysisE@Base 0 1
 _ZTSN10x265_10bit12FrameEncoderE@Base 0 1
 _ZTSN10x265_10bit12WorkerThreadE@Base 0 1
 _ZTSN10x265_10bit15BondedTaskGroupE@Base 0 1
 _ZTSN10x265_10bit16SEIAlternativeTCE@Base 0 1
 _ZTSN10x265_10bit16SEIPictureTimingE@Base 0 1
 _ZTSN10x265_10bit16SEIRecoveryPointE@Base 0 1
 _ZTSN10x265_10bit17CostEstimateGroupE@Base 0 1
 _ZTSN10x265_10bit17PreLookaheadGroupE@Base 0 1
 _ZTSN10x265_10bit18SEIBufferingPeriodE@Base 0 1
 _ZTSN10x265_10bit19SyntaxElementWriterE@Base 0 1
 _ZTSN10x265_10bit20SEIContentLightLevelE@Base 0 1
 _ZTSN10x265_10bit21SEIDecodedPictureHashE@Base 0 1
 _ZTSN10x265_10bit21SEIuserDataRegisteredE@Base 0 1
 _ZTSN10x265_10bit22SEIActiveParameterSetsE@Base 0 1
 _ZTSN10x265_10bit23SEIuserDataUnregisteredE@Base 0 1
 _ZTSN10x265_10bit30SEIMasteringDisplayColorVolumeE@Base 0 1
 _ZTSN10x265_10bit3SEIE@Base 0 1
 _ZTSN10x265_10bit6Search3PMEE@Base 0 1
 _ZTSN10x265_10bit6ThreadE@Base 0 1
 _ZTSN10x265_10bit8Analysis5PMODEE@Base 0 1
 _ZTSN10x265_10bit9BitstreamE@Base 0 1
 _ZTSN10x265_10bit9LookaheadE@Base 0 1
 _ZTSN10x265_10bit9WaveFrontE@Base 0 1
 _ZTSN10x265_12bit10BitCounterE@Base 0 1
 _ZTSN10x265_12bit11JobProviderE@Base 0 1
 _ZTSN10x265_12bit12BitInterfaceE@Base 0 1
 _ZTSN10x265_12bit12FrameEncoder14WeightAnalysisE@Base 0 1
 _ZTSN10x265_12bit12FrameEncoderE@Base 0 1
 _ZTSN10x265_12bit12WorkerThreadE@Base 0 1
 _ZTSN10x265_12bit15BondedTaskGroupE@Base 0 1
 _ZTSN10x265_12bit16SEIAlternativeTCE@Base 0 1
 _ZTSN10x265_12bit16SEIPictureTimingE@Base 0 1
 _ZTSN10x265_12bit16SEIRecoveryPointE@Base 0 1
 _ZTSN10x265_12bit17CostEstimateGroupE@Base 0 1
 _ZTSN10x265_12bit17PreLookaheadGroupE@Base 0 1
 _ZTSN10x265_12bit18SEIBufferingPeriodE@Base 0 1
 _ZTSN10x265_12bit19SyntaxElementWriterE@Base 0 1
 _ZTSN10x265_12bit20SEIContentLightLevelE@Base 0 1
 _ZTSN10x265_12bit21SEIDecodedPictureHashE@Base 0 1
 _ZTSN10x265_12bit21SEIuserDataRegisteredE@Base 0 1
 _ZTSN10x265_12bit22SEIActiveParameterSetsE@Base 0 1
 _ZTSN10x265_12bit23SEIuserDataUnregisteredE@Base 0 1
 _ZTSN10x265_12bit30SEIMasteringDisplayColorVolumeE@Base 0 1
 _ZTSN10x265_12bit3SEIE@Base 0 1
 _ZTSN10x265_12bit6Search3PMEE@Base 0 1
 _ZTSN10x265_12bit6ThreadE@Base 0 1
 _ZTSN10x265_12bit8Analysis5PMODEE@Base 0 1
 _ZTSN10x265_12bit9BitstreamE@Base 0 1
 _ZTSN10x265_12bit9LookaheadE@Base 0 1
 _ZTSN10x265_12bit9WaveFrontE@Base 0 1
 _ZTSN4x26510BitCounterE@Base 0 1
 _ZTSN4x26511JobProviderE@Base 0 1
 _ZTSN4x26512BitInterfaceE@Base 0 1
 _ZTSN4x26512FrameEncoder14WeightAnalysisE@Base 0 1
 _ZTSN4x26512FrameEncoderE@Base 0 1
 _ZTSN4x26512WorkerThreadE@Base 0 1
 _ZTSN4x26515BondedTaskGroupE@Base 0 1
 _ZTSN4x26516SEIAlternativeTCE@Base 0 1
 _ZTSN4x26516SEIPictureTimingE@Base 0 1
 _ZTSN4x26516SEIRecoveryPointE@Base 0 1
 _ZTSN4x26517CostEstimateGroupE@Base 0 1
 _ZTSN4x26517PreLookaheadGroupE@Base 0 1
 _ZTSN4x26518SEIBufferingPeriodE@Base 0 1
 _ZTSN4x26519SyntaxElementWriterE@Base 0 1
 _ZTSN4x26520SEIContentLightLevelE@Base 0 1
 _ZTSN4x26521SEIDecodedPictureHashE@Base 0 1
 _ZTSN4x26521SEIuserDataRegisteredE@Base 0 1
 _ZTSN4x26522SEIActiveParameterSetsE@Base 0 1
 _ZTSN4x26523SEIuserDataUnregisteredE@Base 0 1
 _ZTSN4x26530SEIMasteringDisplayColorVolumeE@Base 0 1
 _ZTSN4x2653SEIE@Base 0 1
 _ZTSN4x2656Search3PMEE@Base 0 1
 _ZTSN4x2656ThreadE@Base 0 1
 _ZTSN4x2658Analysis5PMODEE@Base 0 1
 _ZTSN4x2659BitstreamE@Base 0 1
 _ZTSN4x2659LookaheadE@Base 0 1
 _ZTSN4x2659WaveFrontE@Base 0 1
 _ZTVN10x265_10bit10BitCounterE@Base 0 1
 _ZTVN10x265_10bit12FrameEncoder14WeightAnalysisE@Base 0 1
 _ZTVN10x265_10bit12FrameEncoderE@Base 0 1
 _ZTVN10x265_10bit12WorkerThreadE@Base 0 1
 _ZTVN10x265_10bit15BondedTaskGroupE@Base 0 1
 _ZTVN10x265_10bit16SEIAlternativeTCE@Base 0 1
 _ZTVN10x265_10bit16SEIPictureTimingE@Base 0 1
 _ZTVN10x265_10bit16SEIRecoveryPointE@Base 0 1
 _ZTVN10x265_10bit17CostEstimateGroupE@Base 0 1
 _ZTVN10x265_10bit17PreLookaheadGroupE@Base 0 1
 _ZTVN10x265_10bit18SEIBufferingPeriodE@Base 0 1
 _ZTVN10x265_10bit20SEIContentLightLevelE@Base 0 1
 _ZTVN10x265_10bit21SEIDecodedPictureHashE@Base 0 1
 _ZTVN10x265_10bit21SEIuserDataRegisteredE@Base 0 1
 _ZTVN10x265_10bit22SEIActiveParameterSetsE@Base 0 1
 _ZTVN10x265_10bit23SEIuserDataUnregisteredE@Base 0 1
 _ZTVN10x265_10bit30SEIMasteringDisplayColorVolumeE@Base 0 1
 _ZTVN10x265_10bit6Search3PMEE@Base 0 1
 _ZTVN10x265_10bit6ThreadE@Base 0 1
 _ZTVN10x265_10bit8Analysis5PMODEE@Base 0 1
 _ZTVN10x265_10bit9BitstreamE@Base 0 1
 _ZTVN10x265_10bit9LookaheadE@Base 0 1
 _ZTVN10x265_10bit9WaveFrontE@Base 0 1
 _ZTVN10x265_12bit10BitCounterE@Base 0 1
 _ZTVN10x265_12bit12FrameEncoder14WeightAnalysisE@Base 0 1
 _ZTVN10x265_12bit12FrameEncoderE@Base 0 1
 _ZTVN10x265_12bit12WorkerThreadE@Base 0 1
 _ZTVN10x265_12bit15BondedTaskGroupE@Base 0 1
 _ZTVN10x265_12bit16SEIAlternativeTCE@Base 0 1
 _ZTVN10x265_12bit16SEIPictureTimingE@Base 0 1
 _ZTVN10x265_12bit16SEIRecoveryPointE@Base 0 1
 _ZTVN10x265_12bit17CostEstimateGroupE@Base 0 1
 _ZTVN10x265_12bit17PreLookaheadGroupE@Base 0 1
 _ZTVN10x265_12bit18SEIBufferingPeriodE@Base 0 1
 _ZTVN10x265_12bit20SEIContentLightLevelE@Base 0 1
 _ZTVN10x265_12bit21SEIDecodedPictureHashE@Base 0 1
 _ZTVN10x265_12bit21SEIuserDataRegisteredE@Base 0 1
 _ZTVN10x265_12bit22SEIActiveParameterSetsE@Base 0 1
 _ZTVN10x265_12bit23SEIuserDataUnregisteredE@Base 0 1
 _ZTVN10x265_12bit30SEIMasteringDisplayColorVolumeE@Base 0 1
 _ZTVN10x265_12bit6Search3PMEE@Base 0 1
 _ZTVN10x265_12bit6ThreadE@Base 0 1
 _ZTVN10x265_12bit8Analysis5PMODEE@Base 0 1
 _ZTVN10x265_12bit9BitstreamE@Base 0 1
 _ZTVN10x265_12bit9LookaheadE@Base 0 1
 _ZTVN10x265_12bit9WaveFrontE@Base 0 1
 _ZTVN4x26510BitCounterE@Base 0 1
 _ZTVN4x26512FrameEncoder14WeightAnalysisE@Base 0 1
 _ZTVN4x26512FrameEncoderE@Base 0 1
 _ZTVN4x26512WorkerThreadE@Base 0 1
 _ZTVN4x26515BondedTaskGroupE@Base 0 1
 _ZTVN4x26516SEIAlternativeTCE@Base 0 1
 _ZTVN4x26516SEIPictureTimingE@Base 0 1
 _ZTVN4x26516SEIRecoveryPointE@Base 0 1
 _ZTVN4x26517CostEstimateGroupE@Base 0 1
 _ZTVN4x26517PreLookaheadGroupE@Base 0 1
 _ZTVN4x26518SEIBufferingPeriodE@Base 0 1
 _ZTVN4x26520SEIContentLightLevelE@Base 0 1
 _ZTVN4x26521SEIDecodedPictureHashE@Base 0 1
 _ZTVN4x26521SEIuserDataRegisteredE@Base 0 1
 _ZTVN4x26522SEIActiveParameterSetsE@Base 0 1
 _ZTVN4x26523SEIuserDataUnregisteredE@Base 0 1
 _ZTVN4x26530SEIMasteringDisplayColorVolumeE@Base 0 1
 _ZTVN4x2656Search3PMEE@Base 0 1
 _ZTVN4x2656ThreadE@Base 0 1
 _ZTVN4x2658Analysis5PMODEE@Base 0 1
 _ZTVN4x2659BitstreamE@Base 0 1
 _ZTVN4x2659LookaheadE@Base 0 1
 _ZTVN4x2659WaveFrontE@Base 0 1
 _ZThn48_N10x265_10bit12FrameEncoder10threadMainEv@Base 0 1
 _ZThn48_N10x265_10bit12FrameEncoderD0Ev@Base 0 1
 _ZThn48_N10x265_10bit12FrameEncoderD1Ev@Base 0 1
 _ZThn48_N10x265_12bit12FrameEncoder10threadMainEv@Base 0 1
 _ZThn48_N10x265_12bit12FrameEncoderD0Ev@Base 0 1
 _ZThn48_N10x265_12bit12FrameEncoderD1Ev@Base 0 1
 _ZThn48_N4x26512FrameEncoder10threadMainEv@Base 0 1
 _ZThn48_N4x26512FrameEncoderD0Ev@Base 0 1
 _ZThn48_N4x26512FrameEncoderD1Ev@Base 0 1
 _ZZN10x265_10bit5Quant8rdoQuantILj2EEEjRKNS_6CUDataEPsNS_8TextTypeEjbE9table_cnt@Base 0 1
 _ZZN10x265_10bit5Quant8rdoQuantILj3EEEjRKNS_6CUDataEPsNS_8TextTypeEjbE11table_cnt64@Base 0 1
 _ZZN10x265_10bit5Quant8rdoQuantILj3EEEjRKNS_6CUDataEPsNS_8TextTypeEjbE9table_cnt@Base 0 1
 _ZZN10x265_10bit5Quant8rdoQuantILj4EEEjRKNS_6CUDataEPsNS_8TextTypeEjbE11table_cnt64@Base 0 1
 _ZZN10x265_10bit5Quant8rdoQuantILj4EEEjRKNS_6CUDataEPsNS_8TextTypeEjbE9table_cnt@Base 0 1
 _ZZN10x265_10bit5Quant8rdoQuantILj5EEEjRKNS_6CUDataEPsNS_8TextTypeEjbE11table_cnt64@Base 0 1
 _ZZN10x265_10bit5Quant8rdoQuantILj5EEEjRKNS_6CUDataEPsNS_8TextTypeEjbE9table_cnt@Base 0 1
 _ZZN10x265_10bit6RDCost5setQPERKNS_5SliceEiE12psyScaleFix8@Base 0 1
 _ZZN10x265_10bit9TURecurseC4ENS_9SplitTypeEjjE16partIdxStepShift@Base 0 1
 _ZZN10x265_12bit5Quant8rdoQuantILj2EEEjRKNS_6CUDataEPsNS_8TextTypeEjbE9table_cnt@Base 0 1
 _ZZN10x265_12bit5Quant8rdoQuantILj3EEEjRKNS_6CUDataEPsNS_8TextTypeEjbE11table_cnt64@Base 0 1
 _ZZN10x265_12bit5Quant8rdoQuantILj3EEEjRKNS_6CUDataEPsNS_8TextTypeEjbE9table_cnt@Base 0 1
 _ZZN10x265_12bit5Quant8rdoQuantILj4EEEjRKNS_6CUDataEPsNS_8TextTypeEjbE11table_cnt64@Base 0 1
 _ZZN10x265_12bit5Quant8rdoQuantILj4EEEjRKNS_6CUDataEPsNS_8TextTypeEjbE9table_cnt@Base 0 1
 _ZZN10x265_12bit5Quant8rdoQuantILj5EEEjRKNS_6CUDataEPsNS_8TextTypeEjbE11table_cnt64@Base 0 1
 _ZZN10x265_12bit5Quant8rdoQuantILj5EEEjRKNS_6CUDataEPsNS_8TextTypeEjbE9table_cnt@Base 0 1
 _ZZN10x265_12bit6RDCost5setQPERKNS_5SliceEiE12psyScaleFix8@Base 0 1
 _ZZN10x265_12bit9TURecurseC4ENS_9SplitTypeEjjE16partIdxStepShift@Base 0 1
 _ZZN4x2655Quant8rdoQuantILj2EEEjRKNS_6CUDataEPsNS_8TextTypeEjbE9table_cnt@Base 0 1
 _ZZN4x2655Quant8rdoQuantILj3EEEjRKNS_6CUDataEPsNS_8TextTypeEjbE11table_cnt64@Base 0 1
 _ZZN4x2655Quant8rdoQuantILj3EEEjRKNS_6CUDataEPsNS_8TextTypeEjbE9table_cnt@Base 0 1
 _ZZN4x2655Quant8rdoQuantILj4EEEjRKNS_6CUDataEPsNS_8TextTypeEjbE11table_cnt64@Base 0 1
 _ZZN4x2655Quant8rdoQuantILj4EEEjRKNS_6CUDataEPsNS_8TextTypeEjbE9table_cnt@Base 0 1
 _ZZN4x2655Quant8rdoQuantILj5EEEjRKNS_6CUDataEPsNS_8TextTypeEjbE11table_cnt64@Base 0 1
 _ZZN4x2655Quant8rdoQuantILj5EEEjRKNS_6CUDataEPsNS_8TextTypeEjbE9table_cnt@Base 0 1
 _ZZN4x2656RDCost5setQPERKNS_5SliceEiE12psyScaleFix8@Base 0 1
 _ZZN4x2659TURecurseC4ENS_9SplitTypeEjjE16partIdxStepShift@Base 0 1
 x265_10bit_build_info_str@Base 0 1
 x265_10bit_cpu_cpuid@Base 0 1
 x265_10bit_cpu_cpuid_test@Base 0 1
 x265_10bit_cpu_emms@Base 0 1
 x265_10bit_cpu_fast_neon_mrc_test@Base 0 1
 x265_10bit_cpu_neon_test@Base 0 1
 x265_10bit_cpu_xgetbv@Base 0 1
 x265_10bit_entropyStateBits@Base 0 1
 x265_10bit_max_bit_depth@Base 0 1
 x265_10bit_version_str@Base 0 1
 x265_12bit_build_info_str@Base 0 1
 x265_12bit_cpu_cpuid@Base 0 1
 x265_12bit_cpu_cpuid_test@Base 0 1
 x265_12bit_cpu_emms@Base 0 1
 x265_12bit_cpu_fast_neon_mrc_test@Base 0 1
 x265_12bit_cpu_neon_test@Base 0 1
 x265_12bit_cpu_xgetbv@Base 0 1
 x265_12bit_entropyStateBits@Base 0 1
 x265_12bit_max_bit_depth@Base 0 1
 x265_12bit_version_str@Base 0 1
 x265_alloc_analysis_data@Base 2.9
 x265_api_get_165@Base 2.9
 x265_api_query@Base 1.8
 x265_build_info_str@Base 1.4
 x265_cleanup@Base 1.4
 x265_cpu_cpuid@Base 0 1
 x265_cpu_cpuid_test@Base 0 1
 x265_cpu_emms@Base 0 1
 x265_cpu_fast_neon_mrc_test@Base 0 1
 x265_cpu_neon_test@Base 0 1
 x265_cpu_xgetbv@Base 0 1
 x265_csvlog_encode@Base 2.6
 x265_csvlog_frame@Base 2.6
 x265_csvlog_open@Base 2.6
 x265_dither_image@Base 2.6
 x265_encoder_close@Base 1.4
 x265_encoder_ctu_info@Base 2.5
 x265_encoder_encode@Base 1.4
 x265_encoder_get_stats@Base 1.4
 x265_encoder_headers@Base 1.4
 x265_encoder_intra_refresh@Base 1.9
 x265_encoder_log@Base 1.4
 x265_encoder_open_165@Base 2.9
 x265_encoder_parameters@Base 1.4
 x265_encoder_reconfig@Base 1.7
 x265_entropyStateBits@Base 0 1
 x265_free_analysis_data@Base 2.9
 x265_get_ref_frame_list@Base 2.6
 x265_get_slicetype_poc_and_scenecut@Base 2.6
 x265_max_bit_depth@Base 1.4
 x265_param_alloc@Base 1.4
 x265_param_apply_profile@Base 1.4
 x265_param_default@Base 1.4
 x265_param_default_preset@Base 1.4
 x265_param_free@Base 1.4
 x265_param_parse@Base 1.4
 x265_picture_alloc@Base 1.4
 x265_picture_free@Base 1.4
 x265_picture_init@Base 1.4
 x265_set_analysis_data@Base 2.6
 x265_version_str@Base 1.4
